 test-win-cxx

 Timestamp is 63fa4e80 (Sun Feb 26 02:08:00 2023)

 Preferred load address is 0000000140000000

 Start         Length     Name                   Class
 0001:00000000 00055ca0H .text$mn                CODE
 0001:00055ca0 00000040H .text$mn$00             CODE
 0001:00055ce0 00000900H .text$x                 CODE
 0002:00000000 000002c8H .idata$5                DATA
 0002:000002c8 00000030H .00cfg                  DATA
 0002:000002f8 00000008H .CRT$XCA                DATA
 0002:00000300 00000008H .CRT$XCAA               DATA
 0002:00000308 00000008H .CRT$XCZ                DATA
 0002:00000310 00000008H .CRT$XIA                DATA
 0002:00000318 00000008H .CRT$XIAA               DATA
 0002:00000320 00000008H .CRT$XIAC               DATA
 0002:00000328 00000020H .CRT$XIC                DATA
 0002:00000348 00000008H .CRT$XIZ                DATA
 0002:00000350 00000008H .CRT$XPA                DATA
 0002:00000358 00000010H .CRT$XPX                DATA
 0002:00000368 00000008H .CRT$XPXA               DATA
 0002:00000370 00000008H .CRT$XPZ                DATA
 0002:00000378 00000008H .CRT$XTA                DATA
 0002:00000380 00000010H .CRT$XTZ                DATA
 0002:00000390 0000a3f0H .rdata                  DATA
 0002:0000a780 00000080H .rdata$CastGuardVftablesA DATA
 0002:0000a800 00000080H .rdata$CastGuardVftablesC DATA
 0002:0000a880 00000464H .rdata$r                DATA
 0002:0000ace4 000003ccH .rdata$zzzdbg           DATA
 0002:0000b0b0 00000008H .rtc$IAA                DATA
 0002:0000b0b8 00000008H .rtc$IZZ                DATA
 0002:0000b0c0 00000008H .rtc$TAA                DATA
 0002:0000b0c8 00000008H .rtc$TZZ                DATA
 0002:0000b0d0 00005a90H .xdata                  DATA
 0002:00010b60 000000dcH .xdata$x                DATA
 0002:00010c3c 00000000H .edata                  DATA
 0002:00010c3c 00000014H .idata$2                DATA
 0002:00010c50 00000018H .idata$3                DATA
 0002:00010c68 000002c8H .idata$4                DATA
 0002:00010f30 00000676H .idata$6                DATA
 0003:00000000 00000a40H .data                   DATA
 0003:00000a40 000001a0H .data$r                 DATA
 0003:00000be0 00001ab8H .bss                    DATA
 0004:00000000 000044c4H .pdata                  DATA
 0005:00000000 00000184H .gfids$y                DATA
 0006:00000000 00009e30H .gxfg$y                 DATA
 0007:00000000 00000018H .gehcont$y              DATA
 0008:00000000 00000060H .rsrc$01                DATA
 0008:00000060 00000180H .rsrc$02                DATA

  Address         Publics by Value              Rva+Base               Lib:Object

 0000:00000000       ___safe_se_handler_table   0000000000000000     <absolute>
 0000:00000000       __guard_fids_count         0000000000000000     <absolute>
 0000:00000000       __guard_longjmp_count      0000000000000000     <absolute>
 0000:00000000       __guard_longjmp_table      0000000000000000     <absolute>
 0000:00000000       __guard_iat_table          0000000000000000     <absolute>
 0000:00000000       __dynamic_value_reloc_table 0000000000000000     <absolute>
 0000:00000000       __guard_fids_table         0000000000000000     <absolute>
 0000:00000000       __guard_iat_count          0000000000000000     <absolute>
 0000:00000000       ___safe_se_handler_count   0000000000000000     <absolute>
 0000:00000100       __guard_flags              0000000000000100     <absolute>
 0000:00000000       __ImageBase                0000000140000000     <linker-defined>
 0001:00000000       ??$__vcrt_va_start_verify_argument_type@QEBD@@YAXXZ 0000000140001000 f i main.obj
 0001:00000010       __local_stdio_printf_options 0000000140001010 f i main.obj
 0001:00000020       main                       0000000140001020 f   main.obj
 0001:00000040       msvc_CXX_1                 0000000140001040 f   main.obj
 0001:00000090       msvc_CXX_2                 0000000140001090 f   main.obj
 0001:000000e0       msvc_CXX_3                 00000001400010e0 f   main.obj
 0001:00000130       msvc_CXX_4                 0000000140001130 f   main.obj
 0001:000001b0       printf                     00000001400011b0 f i main.obj
 0001:00000204       ??1type_info@@UEAA@XZ      0000000140001204 f   LIBCMT:std_type_info_static.obj
 0001:00000210       ??_Etype_info@@UEAAPEAXI@Z 0000000140001210 f i LIBCMT:std_type_info_static.obj
 0001:00000210       ??_Gtype_info@@UEAAPEAXI@Z 0000000140001210 f i LIBCMT:std_type_info_static.obj
 0001:000004b0       ?configure_argv@__scrt_narrow_argv_policy@@SAHXZ 00000001400014b0 f i LIBCMT:exe_main.obj
 0001:000004c4       ?get_app_type@__scrt_main_policy@@SA?AW4_crt_app_type@@XZ 00000001400014c4 f i LIBCMT:exe_main.obj
 0001:0000050c       mainCRTStartup             000000014000150c f   LIBCMT:exe_main.obj
 0001:00000520       ??3@YAXPEAX_K@Z            0000000140001520 f   LIBCMT:delete_scalar_size.obj
 0001:00000528       ??$__crt_fast_decode_pointer@PEAP6AXXZ@@YAPEAP6AXXZQEAP6AXXZ@Z 0000000140001528 f i LIBCMT:utility.obj
 0001:00000540       ??$__crt_fast_encode_pointer@PEAP6AXXZ@@YAPEAP6AXXZQEAP6AXXZ@Z 0000000140001540 f i LIBCMT:utility.obj
 0001:00000560       ?__crt_rotate_pointer_value@@YA_K_KH@Z 0000000140001560 f i LIBCMT:utility.obj
 0001:000005e8       NtCurrentTeb               00000001400015e8 f i LIBCMT:utility.obj
 0001:000005f4       __scrt_acquire_startup_lock 00000001400015f4 f   LIBCMT:utility.obj
 0001:00000630       __scrt_dllmain_after_initialize_c 0000000140001630 f   LIBCMT:utility.obj
 0001:00000664       __scrt_dllmain_before_initialize_c 0000000140001664 f   LIBCMT:utility.obj
 0001:0000067c       __scrt_dllmain_crt_thread_attach 000000014000167c f   LIBCMT:utility.obj
 0001:000006a4       __scrt_dllmain_crt_thread_detach 00000001400016a4 f   LIBCMT:utility.obj
 0001:000006bc       __scrt_dllmain_exception_filter 00000001400016bc f   LIBCMT:utility.obj
 0001:00000720       __scrt_dllmain_uninitialize_c 0000000140001720 f   LIBCMT:utility.obj
 0001:00000750       __scrt_dllmain_uninitialize_critical 0000000140001750 f   LIBCMT:utility.obj
 0001:00000764       __scrt_initialize_crt      0000000140001764 f   LIBCMT:utility.obj
 0001:000007b0       __scrt_initialize_onexit_tables 00000001400017b0 f   LIBCMT:utility.obj
 0001:0000087c       __scrt_is_nonwritable_in_current_image 000000014000187c f   LIBCMT:utility.obj
 0001:00000918       __scrt_release_startup_lock 0000000140001918 f   LIBCMT:utility.obj
 0001:0000093c       __scrt_uninitialize_crt    000000014000193c f   LIBCMT:utility.obj
 0001:00000968       _onexit                    0000000140001968 f   LIBCMT:utility.obj
 0001:000009b8       at_quick_exit              00000001400019b8 f   LIBCMT:utility.obj
 0001:000009f0       atexit                     00000001400019f0 f   LIBCMT:utility.obj
 0001:00000a08       __security_init_cookie     0000000140001a08 f   LIBCMT:gs_support.obj
 0001:00000ab4       _matherr                   0000000140001ab4 f   LIBCMT:matherr.obj
 0001:00000ab8       _get_startup_argv_mode     0000000140001ab8 f   LIBCMT:argv_mode.obj
 0001:00000ac0       _get_startup_commit_mode   0000000140001ac0 f   LIBCMT:commit_mode.obj
 0001:00000ac4       _get_startup_file_mode     0000000140001ac4 f   LIBCMT:file_mode.obj
 0001:00000acc       _get_startup_new_mode      0000000140001acc f   LIBCMT:new_mode.obj
 0001:00000ad0       _get_startup_thread_locale_mode 0000000140001ad0 f   LIBCMT:thread_locale.obj
 0001:00000ad4       ?__scrt_initialize_type_info@@YAXXZ 0000000140001ad4 f   LIBCMT:tncleanup.obj
 0001:00000ae4       ?__scrt_uninitialize_type_info@@YAXXZ 0000000140001ae4 f   LIBCMT:tncleanup.obj
 0001:00000af0       _should_initialize_environment 0000000140001af0 f   LIBCMT:env_mode.obj
 0001:00000af4       _initialize_invalid_parameter_handler 0000000140001af4 f   LIBCMT:invalid_parameter_handler.obj
 0001:00000af8       _initialize_denormal_control 0000000140001af8 f   LIBCMT:denormal_control.obj
 0001:00000afc       __local_stdio_scanf_options 0000000140001afc f i LIBCMT:default_local_stdio_options.obj
 0001:00000b04       __scrt_initialize_default_local_stdio_options 0000000140001b04 f   LIBCMT:default_local_stdio_options.obj
 0001:00000b20       __scrt_is_user_matherr_present 0000000140001b20 f   LIBCMT:matherr_detection.obj
 0001:00000b2c       __scrt_get_dyn_tls_init_callback 0000000140001b2c f   LIBCMT:dyn_tls_init.obj
 0001:00000b34       __scrt_get_dyn_tls_dtor_callback 0000000140001b34 f   LIBCMT:dyn_tls_dtor.obj
 0001:00000b3c       __crt_debugger_hook        0000000140001b3c f   LIBCMT:utility_desktop.obj
 0001:00000b44       __scrt_fastfail            0000000140001b44 f   LIBCMT:utility_desktop.obj
 0001:00000c8c       __scrt_get_show_window_mode 0000000140001c8c f   LIBCMT:utility_desktop.obj
 0001:00000cc8       __scrt_initialize_winrt    0000000140001cc8 f   LIBCMT:utility_desktop.obj
 0001:00000ccc       __scrt_is_managed_app      0000000140001ccc f   LIBCMT:utility_desktop.obj
 0001:00000d20       __scrt_set_unhandled_exception_filter 0000000140001d20 f   LIBCMT:utility_desktop.obj
 0001:00000d30       __scrt_unhandled_exception_filter 0000000140001d30 f   LIBCMT:utility_desktop.obj
 0001:00000d68       _RTC_Initialize            0000000140001d68 f   LIBCMT:_initsect_.obj
 0001:00000db4       _RTC_Terminate             0000000140001db4 f   LIBCMT:_initsect_.obj
 0001:00000e00       _guard_check_icall         0000000140001e00 f i LIBCMT:checkcfg.obj
 0001:00000e08       ??3@YAXPEAX@Z              0000000140001e08 f   LIBCMT:delete_scalar.obj
 0001:00000e10       __isa_available_init       0000000140001e10 f   LIBCMT:_cpu_disp_.obj
 0001:00000fd8       __scrt_is_ucrt_dll_in_use  0000000140001fd8 f   LIBCMT:ucrt_detection.obj
 0001:00000fe4       _guard_check_icall_nop     0000000140001fe4 f i LIBCMT:guard_support.obj
 0001:00000fe8       _guard_icall_checks_enforced 0000000140001fe8 f i LIBCMT:guard_support.obj
 0001:00001000       _CxxThrowException         0000000140002000 f   libvcruntime:throw.obj
 0001:0000112c       ?_ExecutionInCatch@@YAHPEAU_xDISPATCHER_CONTEXT@@PEBU_s_FuncInfo@@@Z 000000014000212c f   libvcruntime:trnsctrl.obj
 0001:000011a0       ?_GetEstablisherFrame@@YAPEA_KPEA_KPEAU_xDISPATCHER_CONTEXT@@PEBU_s_FuncInfo@@0@Z 00000001400021a0 f   libvcruntime:trnsctrl.obj
 0001:0000126c       ?_GetRangeOfTrysToCheck@@YAPEBU_s_TryBlockMapEntry@@PEA_KPEBU_s_FuncInfo@@HHPEAI2PEAU_xDISPATCHER_CONTEXT@@@Z 000000014000226c f   libvcruntime:trnsctrl.obj
 0001:00001398       ?__FrameUnwindToEmptyState@@YAXPEA_KPEAU_xDISPATCHER_CONTEXT@@PEBU_s_FuncInfo@@@Z 0000000140002398 f   libvcruntime:trnsctrl.obj
 0001:0000142c       ?__SehTransFilter@@YAHPEAU_EXCEPTION_POINTERS@@PEAUEHExceptionRecord@@PEA_KPEAU_CONTEXT@@PEAU_xDISPATCHER_CONTEXT@@PEBU_s_FuncInfo@@PEAH@Z 000000014000242c f   libvcruntime:trnsctrl.obj
 0001:000014c4       _CallSETranslator          00000001400024c4 f   libvcruntime:trnsctrl.obj
 0001:0000151c       _CreateFrameInfo           000000014000251c f   libvcruntime:trnsctrl.obj
 0001:00001558       _FindAndUnlinkFrame        0000000140002558 f   libvcruntime:trnsctrl.obj
 0001:000015b0       _GetImageBase              00000001400025b0 f   libvcruntime:trnsctrl.obj
 0001:000015c4       _GetThrowImageBase         00000001400025c4 f   libvcruntime:trnsctrl.obj
 0001:000015d8       _IsExceptionObjectToBeDestroyed 00000001400025d8 f   libvcruntime:trnsctrl.obj
 0001:00001608       _MoveContext               0000000140002608 f   libvcruntime:trnsctrl.obj
 0001:00001614       _SetImageBase              0000000140002614 f   libvcruntime:trnsctrl.obj
 0001:0000162c       _SetThrowImageBase         000000014000262c f   libvcruntime:trnsctrl.obj
 0001:00001644       _UnwindNestedFrames        0000000140002644 f   libvcruntime:trnsctrl.obj
 0001:00001768       __CxxFrameHandler          0000000140002768 f   libvcruntime:trnsctrl.obj
 0001:000017e8       __CxxFrameHandler2         00000001400027e8 f   libvcruntime:trnsctrl.obj
 0001:000017f0       __CxxFrameHandler3         00000001400027f0 f   libvcruntime:trnsctrl.obj
 0001:00001870       __C_specific_handler       0000000140002870 f   libvcruntime:_chandler_.obj
 0001:00001a6c       __vcrt_initialize          0000000140002a6c f   libvcruntime:initialization.obj
 0001:00001aa0       __vcrt_thread_attach       0000000140002aa0 f   libvcruntime:initialization.obj
 0001:00001ab4       __vcrt_thread_detach       0000000140002ab4 f   libvcruntime:initialization.obj
 0001:00001ac8       __vcrt_uninitialize        0000000140002ac8 f   libvcruntime:initialization.obj
 0001:00001ae8       __vcrt_uninitialize_critical 0000000140002ae8 f   libvcruntime:initialization.obj
 0001:00001b0c       ??$?RD@__crt_internal_free_policy@@QEBAXQEBD@Z 0000000140002b0c f i libvcruntime:std_type_info.obj
 0001:00001b14       ??$?RX@__crt_internal_free_policy@@QEBAXQEBX@Z 0000000140002b14 f i libvcruntime:std_type_info.obj
 0001:00001b1c       ??$__crt_interlocked_compare_exchange_pointer@$$CBD$$T$$T@@YAPEBDPEDSEBD$$T1@Z 0000000140002b1c f i libvcruntime:std_type_info.obj
 0001:00001b28       ??$__crt_interlocked_compare_exchange_pointer@$$CBDPEAD$$T@@YAPEBDPEDSEBDQEAD$$T@Z 0000000140002b28 f i libvcruntime:std_type_info.obj
 0001:00001b34       ??$__crt_interlocked_read_pointer@$$CBD@@YAPEBDPEDSEBD@Z 0000000140002b34 f i libvcruntime:std_type_info.obj
 0001:00001b40       ??0?$__crt_unique_heap_ptr@DU__crt_internal_free_policy@@@@QEAA@QEAD@Z 0000000140002b40 f i libvcruntime:std_type_info.obj
 0001:00001b48       ??0?$__crt_unique_heap_ptr@XU__crt_internal_free_policy@@@@QEAA@QEAX@Z 0000000140002b48 f i libvcruntime:std_type_info.obj
 0001:00001b50       ??1?$__crt_unique_heap_ptr@DU__crt_internal_free_policy@@@@QEAA@XZ 0000000140002b50 f i libvcruntime:std_type_info.obj
 0001:00001b6c       ??1?$__crt_unique_heap_ptr@XU__crt_internal_free_policy@@@@QEAA@XZ 0000000140002b6c f i libvcruntime:std_type_info.obj
 0001:00001b98       ??B?$__crt_unique_heap_ptr@DU__crt_internal_free_policy@@@@QEBA_NXZ 0000000140002b98 f i libvcruntime:std_type_info.obj
 0001:00001ba0       ??B?$__crt_unique_heap_ptr@XU__crt_internal_free_policy@@@@QEBA_NXZ 0000000140002ba0 f i libvcruntime:std_type_info.obj
 0001:00001bb8       ?detach@?$__crt_unique_heap_ptr@XU__crt_internal_free_policy@@@@QEAAPEAXXZ 0000000140002bb8 f i libvcruntime:std_type_info.obj
 0001:00001bc0       ?get@?$__crt_unique_heap_ptr@DU__crt_internal_free_policy@@@@QEBAPEADXZ 0000000140002bc0 f i libvcruntime:std_type_info.obj
 0001:00001bc4       ?get@?$__crt_unique_heap_ptr@XU__crt_internal_free_policy@@@@QEBAPEAXXZ 0000000140002bc4 f i libvcruntime:std_type_info.obj
 0001:00001bc8       ?is_valid@?$__crt_unique_heap_ptr@DU__crt_internal_free_policy@@@@QEBA_NXZ 0000000140002bc8 f i libvcruntime:std_type_info.obj
 0001:00001bd0       ?is_valid@?$__crt_unique_heap_ptr@XU__crt_internal_free_policy@@@@QEBA_NXZ 0000000140002bd0 f i libvcruntime:std_type_info.obj
 0001:00001bd8       ?release@?$__crt_unique_heap_ptr@DU__crt_internal_free_policy@@@@QEAAXXZ 0000000140002bd8 f i libvcruntime:std_type_info.obj
 0001:00001bf4       ?release@?$__crt_unique_heap_ptr@XU__crt_internal_free_policy@@@@QEAAXXZ 0000000140002bf4 f i libvcruntime:std_type_info.obj
 0001:00001c10       __std_type_info_compare    0000000140002c10 f   libvcruntime:std_type_info.obj
 0001:00001c38       __std_type_info_destroy_list 0000000140002c38 f   libvcruntime:std_type_info.obj
 0001:00001c64       __std_type_info_hash       0000000140002c64 f   libvcruntime:std_type_info.obj
 0001:00001ca0       __std_type_info_name       0000000140002ca0 f   libvcruntime:std_type_info.obj
 0001:00001dd0       memset                     0000000140002dd0 f   libvcruntime:memset.obj
 0001:00001f80       memcpy                     0000000140002f80 f   libvcruntime:memcpy.obj
 0001:00001f80       memmove                    0000000140002f80 f   libvcruntime:memcpy.obj
 0001:000023b8       ??$?RU__vcrt_ptd@@@__crt_internal_free_policy@@QEBAXQEBU__vcrt_ptd@@@Z 00000001400033b8 f i libvcruntime:per_thread_data.obj
 0001:000023c0       ??0?$__crt_unique_heap_ptr@U__vcrt_ptd@@U__crt_internal_free_policy@@@@QEAA@QEAU__vcrt_ptd@@@Z 00000001400033c0 f i libvcruntime:per_thread_data.obj
 0001:000023e4       ??1?$__crt_unique_heap_ptr@U__vcrt_ptd@@U__crt_internal_free_policy@@@@QEAA@XZ 00000001400033e4 f i libvcruntime:per_thread_data.obj
 0001:0000240c       ??B?$__crt_unique_heap_ptr@U__vcrt_ptd@@U__crt_internal_free_policy@@@@QEBA_NXZ 000000014000340c f i libvcruntime:per_thread_data.obj
 0001:00002414       ?detach@?$__crt_unique_heap_ptr@U__vcrt_ptd@@U__crt_internal_free_policy@@@@QEAAPEAU__vcrt_ptd@@XZ 0000000140003414 f i libvcruntime:per_thread_data.obj
 0001:0000241c       ?get@?$__crt_unique_heap_ptr@U__vcrt_ptd@@U__crt_internal_free_policy@@@@QEBAPEAU__vcrt_ptd@@XZ 000000014000341c f i libvcruntime:per_thread_data.obj
 0001:00002420       ?is_valid@?$__crt_unique_heap_ptr@U__vcrt_ptd@@U__crt_internal_free_policy@@@@QEBA_NXZ 0000000140003420 f i libvcruntime:per_thread_data.obj
 0001:00002428       ?release@?$__crt_unique_heap_ptr@U__vcrt_ptd@@U__crt_internal_free_policy@@@@QEAAXXZ 0000000140003428 f i libvcruntime:per_thread_data.obj
 0001:00002460       __vcrt_freefls             0000000140003460 f   libvcruntime:per_thread_data.obj
 0001:00002480       __vcrt_freeptd             0000000140003480 f   libvcruntime:per_thread_data.obj
 0001:000024d0       __vcrt_getptd              00000001400034d0 f   libvcruntime:per_thread_data.obj
 0001:000024ec       __vcrt_getptd_noexit       00000001400034ec f   libvcruntime:per_thread_data.obj
 0001:000025a4       __vcrt_initialize_ptd      00000001400035a4 f   libvcruntime:per_thread_data.obj
 0001:000025e4       __vcrt_uninitialize_ptd    00000001400035e4 f   libvcruntime:per_thread_data.obj
 0001:00002608       ?__GetCurrentState@@YAHPEA_KPEAU_xDISPATCHER_CONTEXT@@PEBU_s_FuncInfo@@@Z 0000000140003608 f   libvcruntime:ehstate.obj
 0001:00002630       ?__GetUnwindTryBlock@@YAHPEA_KPEAU_xDISPATCHER_CONTEXT@@PEBU_s_FuncInfo@@@Z 0000000140003630 f   libvcruntime:ehstate.obj
 0001:0000265c       ?__SetState@@YAXPEA_KPEAU_xDISPATCHER_CONTEXT@@PEBU_s_FuncInfo@@H@Z 000000014000365c f   libvcruntime:ehstate.obj
 0001:00002668       ?__SetUnwindTryBlock@@YAXPEA_KPEAU_xDISPATCHER_CONTEXT@@PEBU_s_FuncInfo@@H@Z 0000000140003668 f   libvcruntime:ehstate.obj
 0001:000026a4       ?__StateFromControlPc@@YAHPEBU_s_FuncInfo@@PEAU_xDISPATCHER_CONTEXT@@@Z 00000001400036a4 f   libvcruntime:ehstate.obj
 0001:000026ac       ?__StateFromIp@@YAHPEBU_s_FuncInfo@@PEAU_xDISPATCHER_CONTEXT@@_J@Z 00000001400036ac f   libvcruntime:ehstate.obj
 0001:00002718       __DestructExceptionObject  0000000140003718 f   libvcruntime:frame.obj
 0001:000027a0       ??0bad_exception@std@@QEAA@AEBV01@@Z 00000001400037a0 f i libvcruntime:frame.obj
 0001:000027e0       ??0bad_exception@std@@QEAA@XZ 00000001400037e0 f i libvcruntime:frame.obj
 0001:00002800       ??0exception@std@@QEAA@AEBV01@@Z 0000000140003800 f i libvcruntime:frame.obj
 0001:00002838       ??0exception@std@@QEAA@QEBDH@Z 0000000140003838 f i libvcruntime:frame.obj
 0001:00002850       ??1bad_exception@std@@UEAA@XZ 0000000140003850 f i libvcruntime:frame.obj
 0001:00002864       ??1exception@std@@UEAA@XZ  0000000140003864 f i libvcruntime:frame.obj
 0001:00002878       ??8type_info@@QEBA_NAEBV0@@Z 0000000140003878 f i libvcruntime:frame.obj
 0001:00002894       ??_Ebad_exception@std@@UEAAPEAXI@Z 0000000140003894 f i libvcruntime:frame.obj
 0001:00002894       ??_Gbad_exception@std@@UEAAPEAXI@Z 0000000140003894 f i libvcruntime:frame.obj
 0001:000028d8       ??_Eexception@std@@UEAAPEAXI@Z 00000001400038d8 f i libvcruntime:frame.obj
 0001:000028d8       ??_Gexception@std@@UEAAPEAXI@Z 00000001400038d8 f i libvcruntime:frame.obj
 0001:00003300       ?_CallMemberFunction0@@YAXPEAXP6AX0@Z@Z 0000000140004300 f i libvcruntime:frame.obj
 0001:00003304       ?_CallMemberFunction1@@YAXPEAXP6AX0@Z0@Z 0000000140004304 f i libvcruntime:frame.obj
 0001:00003310       ?_CallMemberFunction2@@YAXPEAXP6AX0@Z0H@Z 0000000140004310 f i libvcruntime:frame.obj
 0001:00003320       ?_ValidateExecute@@YA_NP6A_JXZ@Z 0000000140004320 f i libvcruntime:frame.obj
 0001:00003328       ?_ValidateRead@@YA_NPEBXI@Z 0000000140004328 f i libvcruntime:frame.obj
 0001:00003330       ?_ValidateWrite@@YA_NPEAXI@Z 0000000140004330 f i libvcruntime:frame.obj
 0001:0000334c       ?raw_name@type_info@@QEBAPEBDXZ 000000014000434c f i libvcruntime:frame.obj
 0001:00003354       ?what@exception@std@@UEBAPEBDXZ 0000000140004354 f i libvcruntime:frame.obj
 0001:00003368       _SetWinRTOutOfMemoryExceptionCallback 0000000140004368 f   libvcruntime:frame.obj
 0001:00003370       __AdjustPointer            0000000140004370 f   libvcruntime:frame.obj
 0001:00003394       __BuildCatchObject         0000000140004394 f   libvcruntime:frame.obj
 0001:00003458       __BuildCatchObjectHelper   0000000140004458 f   libvcruntime:frame.obj
 0001:00003638       __CxxCallCatchBlock        0000000140004638 f   libvcruntime:frame.obj
 0001:00003824       __CxxDetectRethrow         0000000140004824 f   libvcruntime:frame.obj
 0001:00003868       __CxxExceptionFilter       0000000140004868 f   libvcruntime:frame.obj
 0001:00003a50       __CxxQueryExceptionSize    0000000140004a50 f   libvcruntime:frame.obj
 0001:00003a58       __CxxRegisterExceptionObject 0000000140004a58 f   libvcruntime:frame.obj
 0001:00003b04       __CxxUnregisterExceptionObject 0000000140004b04 f   libvcruntime:frame.obj
 0001:00003c2c       __FrameUnwindFilter        0000000140004c2c f   libvcruntime:frame.obj
 0001:00003c78       __FrameUnwindToState       0000000140004c78 f   libvcruntime:frame.obj
 0001:00003e0c       __GetPlatformExceptionInfo 0000000140004e0c f   libvcruntime:frame.obj
 0001:00003e68       __InternalCxxFrameHandler  0000000140004e68 f   libvcruntime:frame.obj
 0001:000040c0       __TypeMatch                00000001400050c0 f   libvcruntime:frame.obj
 0001:00004200       __current_exception        0000000140005200 f   libvcruntime:frame.obj
 0001:00004214       __current_exception_context 0000000140005214 f   libvcruntime:frame.obj
 0001:00004228       __processing_throw         0000000140005228 f   libvcruntime:frame.obj
 0001:0000423c       __std_terminate            000000014000523c f   libvcruntime:frame.obj
 0001:00004248       __uncaught_exception       0000000140005248 f   libvcruntime:frame.obj
 0001:00004260       __uncaught_exceptions      0000000140005260 f   libvcruntime:frame.obj
 0001:00004274       _is_exception_typeof       0000000140005274 f   libvcruntime:frame.obj
 0001:00004340       _local_unwind              0000000140005340 f   libvcruntime:_jmpuwind_.obj
 0001:00004370       _NLG_Notify                0000000140005370 f   libvcruntime:_jmpuwind_.obj
 0001:00004390       __NLG_Dispatch2            0000000140005390 f   libvcruntime:_jmpuwind_.obj
 0001:000043a0       __NLG_Return2              00000001400053a0 f   libvcruntime:_jmpuwind_.obj
 0001:000043a4       __except_validate_context_record 00000001400053a4 f   libvcruntime:jbcxrval.obj
 0001:000043a8       __except_validate_jump_buffer 00000001400053a8 f   libvcruntime:jbcxrval.obj
 0001:000043ac       __vcrt_initialize_locks    00000001400053ac f   libvcruntime:locks.obj
 0001:000043f4       __vcrt_lock                00000001400053f4 f   libvcruntime:locks.obj
 0001:00004410       __vcrt_uninitialize_locks  0000000140005410 f   libvcruntime:locks.obj
 0001:00004448       __vcrt_unlock              0000000140005448 f   libvcruntime:locks.obj
 0001:00004464       ??$?BX@__crt_fast_encoded_nullptr_t@@QEBAPEAXXZ 0000000140005464 f i libvcruntime:winapi_downlevel.obj
 0001:00004480       ??$__crt_fast_decode_pointer@PEAX@@YAPEAXQEAX@Z 0000000140005480 f i libvcruntime:winapi_downlevel.obj
 0001:00004498       ??$__crt_fast_encode_pointer@PEAX@@YAPEAXQEAX@Z 0000000140005498 f i libvcruntime:winapi_downlevel.obj
 0001:000044b8       ??$__crt_interlocked_compare_exchange_pointer@UHINSTANCE__@@$$T$$T@@YAPEAUHINSTANCE__@@PEDSEAU0@$$T1@Z 00000001400054b8 f i libvcruntime:winapi_downlevel.obj
 0001:000044c4       ??$__crt_interlocked_compare_exchange_pointer@X$$T$$T@@YAPEAXPEDSEAX$$T1@Z 00000001400054c4 f i libvcruntime:winapi_downlevel.obj
 0001:000044d0       ??$__crt_interlocked_exchange_pointer@UHINSTANCE__@@PEAU1@@@YAPEAUHINSTANCE__@@PEDSEAU0@QEAU0@@Z 00000001400054d0 f i libvcruntime:winapi_downlevel.obj
 0001:000044d8       ??$__crt_interlocked_exchange_pointer@UHINSTANCE__@@PEAX@@YAPEAUHINSTANCE__@@PEDSEAU0@QEAX@Z 00000001400054d8 f i libvcruntime:winapi_downlevel.obj
 0001:000044e0       ??$__crt_interlocked_exchange_pointer@XPEAX@@YAPEAXPEDSEAXQEAX@Z 00000001400054e0 f i libvcruntime:winapi_downlevel.obj
 0001:000044e8       ??$__crt_interlocked_read_pointer@UHINSTANCE__@@@@YAPEAUHINSTANCE__@@PEDSEAU0@@Z 00000001400054e8 f i libvcruntime:winapi_downlevel.obj
 0001:000044f4       ??$__crt_interlocked_read_pointer@X@@YAPEAXPEDSEAX@Z 00000001400054f4 f i libvcruntime:winapi_downlevel.obj
 0001:00004500       ?__crt_fast_encode_pointer@@YA?AU__crt_fast_encoded_nullptr_t@@$$T@Z 0000000140005500 f i libvcruntime:winapi_downlevel.obj
 0001:00004b08       __vcrt_EventRegister       0000000140005b08 f   libvcruntime:winapi_downlevel.obj
 0001:00004b8c       __vcrt_EventSetInformation 0000000140005b8c f   libvcruntime:winapi_downlevel.obj
 0001:00004c10       __vcrt_EventUnregister     0000000140005c10 f   libvcruntime:winapi_downlevel.obj
 0001:00004c64       __vcrt_EventWriteTransfer  0000000140005c64 f   libvcruntime:winapi_downlevel.obj
 0001:00004cfc       __vcrt_FlsAlloc            0000000140005cfc f   libvcruntime:winapi_downlevel.obj
 0001:00004d50       __vcrt_FlsFree             0000000140005d50 f   libvcruntime:winapi_downlevel.obj
 0001:00004da4       __vcrt_FlsGetValue         0000000140005da4 f   libvcruntime:winapi_downlevel.obj
 0001:00004df8       __vcrt_FlsSetValue         0000000140005df8 f   libvcruntime:winapi_downlevel.obj
 0001:00004e60       __vcrt_InitializeCriticalSectionEx 0000000140005e60 f   libvcruntime:winapi_downlevel.obj
 0001:00004ed8       __vcrt_initialize_winapi_thunks 0000000140005ed8 f   libvcruntime:winapi_downlevel.obj
 0001:00004f24       __vcrt_uninitialize_winapi_thunks 0000000140005f24 f   libvcruntime:winapi_downlevel.obj
 0001:00004f64       ??$?B$$A6AXXZ@__crt_fast_encoded_nullptr_t@@QEBAP6AXXZXZ 0000000140005f64 f i libvcruntime:purevirt_data.obj
 0001:00004f80       ??$__crt_fast_encode_pointer@P6AXXZ@@YAP6AXXZQ6AXXZ@Z 0000000140005f80 f i libvcruntime:purevirt_data.obj
 0001:00004fa0       __vcrt_initialize_pure_virtual_call_handler 0000000140005fa0 f   libvcruntime:purevirt_data.obj
 0001:00004fc4       ??0Block@_HeapManager@@QEAA@XZ 0000000140005fc4 f i libvcruntime:undname.obj
 0001:00004fcc       ??0DName@@QEAA@AEAPEBDD@Z  0000000140005fcc f   libvcruntime:undname.obj
 0001:000050ac       ??0DName@@QEAA@AEBV0@@Z    00000001400060ac f i libvcruntime:undname.obj
 0001:000050b8       ??0DName@@QEAA@D@Z         00000001400060b8 f   libvcruntime:undname.obj
 0001:000050f0       ??0DName@@QEAA@PEAV0@@Z    00000001400060f0 f   libvcruntime:undname.obj
 0001:00005178       ??0DName@@QEAA@PEBD@Z      0000000140006178 f   libvcruntime:undname.obj
 0001:000051c0       ??0DName@@QEAA@W4DNameStatus@@@Z 00000001400061c0 f   libvcruntime:undname.obj
 0001:00005210       ??0DName@@QEAA@XZ          0000000140006210 f i libvcruntime:undname.obj
 0001:00005224       ??0DName@@QEAA@_J@Z        0000000140006224 f   libvcruntime:undname.obj
 0001:000052d0       ??0DName@@QEAA@_K@Z        00000001400062d0 f   libvcruntime:undname.obj
 0001:00005360       ??0DNameNode@@IEAA@XZ      0000000140006360 f   libvcruntime:undname.obj
 0001:00005370       ??0DNameStatusNode@@AEAA@W4DNameStatus@@@Z 0000000140006370 f   libvcruntime:undname.obj
 0001:00005394       ??0Replicator@@QEAA@XZ     0000000140006394 f i libvcruntime:undname.obj
 0001:0000539c       ??0UnDecorator@@QEAA@PEADPEBDHP6APEADJ@ZK@Z 000000014000639c f i libvcruntime:undname.obj
 0001:00005410       ??0charNode@@QEAA@D@Z      0000000140006410 f   libvcruntime:undname.obj
 0001:00005424       ??0pDNameNode@@QEAA@PEAVDName@@@Z 0000000140006424 f   libvcruntime:undname.obj
 0001:0000544c       ??0pairNode@@QEAA@PEAVDNameNode@@0@Z 000000014000644c f   libvcruntime:undname.obj
 0001:00005468       ??0pcharNode@@QEAA@PEBDH@Z 0000000140006468 f   libvcruntime:undname.obj
 0001:000054f0       ??2@YAPEAX_KAEAV_HeapManager@@H@Z 00000001400064f0 f i libvcruntime:undname.obj
 0001:00005500       ??4DName@@QEAAAEAV0@AEBV0@@Z 0000000140006500 f   libvcruntime:undname.obj
 0001:0000550c       ??4DName@@QEAAAEAV0@D@Z    000000014000650c f i libvcruntime:undname.obj
 0001:00005544       ??4DName@@QEAAAEAV0@PEAV0@@Z 0000000140006544 f   libvcruntime:undname.obj
 0001:000055cc       ??4DName@@QEAAAEAV0@PEBD@Z 00000001400065cc f   libvcruntime:undname.obj
 0001:0000560c       ??4DName@@QEAAAEAV0@W4DNameStatus@@@Z 000000014000660c f   libvcruntime:undname.obj
 0001:00005648       ??AReplicator@@QEBA?AVDName@@H@Z 0000000140006648 f   libvcruntime:undname.obj
 0001:00005690       ??BUnDecorator@@QEAAPEADXZ 0000000140006690 f i libvcruntime:undname.obj
 0001:000058a0       ??H@YA?AVDName@@DAEBV0@@Z  00000001400068a0 f i libvcruntime:undname.obj
 0001:000058dc       ??H@YA?AVDName@@PEBDAEBV0@@Z 00000001400068dc f i libvcruntime:undname.obj
 0001:00005918       ??H@YA?AVDName@@W4DNameStatus@@AEBV0@@Z 0000000140006918 f i libvcruntime:undname.obj
 0001:00005954       ??HDName@@QEBA?AV0@AEBV0@@Z 0000000140006954 f   libvcruntime:undname.obj
 0001:00005978       ??HDName@@QEBA?AV0@D@Z     0000000140006978 f   libvcruntime:undname.obj
 0001:0000599c       ??HDName@@QEBA?AV0@PEAV0@@Z 000000014000699c f   libvcruntime:undname.obj
 0001:000059c0       ??HDName@@QEBA?AV0@PEBD@Z  00000001400069c0 f   libvcruntime:undname.obj
 0001:000059e4       ??HDName@@QEBA?AV0@W4DNameStatus@@@Z 00000001400069e4 f   libvcruntime:undname.obj
 0001:00005a08       ??YDName@@QEAAAEAV0@AEBV0@@Z 0000000140006a08 f   libvcruntime:undname.obj
 0001:00005a48       ??YDName@@QEAAAEAV0@D@Z    0000000140006a48 f   libvcruntime:undname.obj
 0001:00005acc       ??YDName@@QEAAAEAV0@PEAV0@@Z 0000000140006acc f   libvcruntime:undname.obj
 0001:00005b64       ??YDName@@QEAAAEAV0@PEBD@Z 0000000140006b64 f   libvcruntime:undname.obj
 0001:00005bf0       ??YDName@@QEAAAEAV0@W4DNameStatus@@@Z 0000000140006bf0 f   libvcruntime:undname.obj
 0001:00005c34       ??YReplicator@@QEAAAEAV0@AEBVDName@@@Z 0000000140006c34 f   libvcruntime:undname.obj
 0001:00005c94       ??_5DName@@QEAAAEAV0@AEBV0@@Z 0000000140006c94 f   libvcruntime:undname.obj
 0001:00005ca8       ?Constructor@_HeapManager@@QEAAXP6APEAX_K@ZP6AXPEAX@Z@Z 0000000140006ca8 f i libvcruntime:undname.obj
 0001:00005cc0       ?Destructor@_HeapManager@@QEAAXXZ 0000000140006cc0 f i libvcruntime:undname.obj
 0001:00005d14       ?UScore@UnDecorator@@SAPEBDW4Tokens@@@Z 0000000140006d14 f   libvcruntime:undname.obj
 0001:00005d34       ?append@DName@@AEAAXPEAVDNameNode@@@Z 0000000140006d34 f   libvcruntime:undname.obj
 0001:00005d98       ?composeDeclaration@UnDecorator@@CA?AVDName@@AEBV2@@Z 0000000140006d98 f i libvcruntime:undname.obj
 0001:00006bd0       ?doAccessSpecifiers@UnDecorator@@SAHXZ 0000000140007bd0 f i libvcruntime:undname.obj
 0001:00006be0       ?doAllocationLanguage@UnDecorator@@SAHXZ 0000000140007be0 f i libvcruntime:undname.obj
 0001:00006bf0       ?doAllocationModel@UnDecorator@@SAHXZ 0000000140007bf0 f i libvcruntime:undname.obj
 0001:00006c00       ?doEcsu@UnDecorator@@SAHXZ 0000000140007c00 f i libvcruntime:undname.obj
 0001:00006c10       ?doEllipsis@UnDecorator@@SAHXZ 0000000140007c10 f i libvcruntime:undname.obj
 0001:00006c20       ?doFunctionReturns@UnDecorator@@SAHXZ 0000000140007c20 f i libvcruntime:undname.obj
 0001:00006c30       ?doMSKeywords@UnDecorator@@SAHXZ 0000000140007c30 f i libvcruntime:undname.obj
 0001:00006c40       ?doMemberTypes@UnDecorator@@SAHXZ 0000000140007c40 f i libvcruntime:undname.obj
 0001:00006c50       ?doNameOnly@UnDecorator@@SAHXZ 0000000140007c50 f i libvcruntime:undname.obj
 0001:00006c5c       ?doNoIdentCharCheck@UnDecorator@@SAHXZ 0000000140007c5c f i libvcruntime:undname.obj
 0001:00006c68       ?doPchar@DName@@AEAAXPEBDH@Z 0000000140007c68 f   libvcruntime:undname.obj
 0001:00006d14       ?doPtr64@UnDecorator@@SAHXZ 0000000140007d14 f i libvcruntime:undname.obj
 0001:00006d24       ?doRestrictionSpec@UnDecorator@@SAHXZ 0000000140007d24 f i libvcruntime:undname.obj
 0001:00006d34       ?doThisTypes@UnDecorator@@SAHXZ 0000000140007d34 f i libvcruntime:undname.obj
 0001:00006d48       ?doThrowTypes@UnDecorator@@SAHXZ 0000000140007d48 f i libvcruntime:undname.obj
 0001:00006d58       ?doTypeOnly@UnDecorator@@SAHXZ 0000000140007d58 f i libvcruntime:undname.obj
 0001:00006d64       ?doUnderScore@UnDecorator@@SAHXZ 0000000140007d64 f i libvcruntime:undname.obj
 0001:00006d70       ?getArgumentList@UnDecorator@@CA?AVDName@@XZ 0000000140007d70 f   libvcruntime:undname.obj
 0001:00006eb4       ?getArgumentTypes@UnDecorator@@CA?AVDName@@XZ 0000000140007eb4 f   libvcruntime:undname.obj
 0001:00006fb0       ?getArrayType@UnDecorator@@CA?AVDName@@AEBV2@@Z 0000000140007fb0 f i libvcruntime:undname.obj
 0001:000071ec       ?getBasedType@UnDecorator@@CA?AVDName@@XZ 00000001400081ec f   libvcruntime:undname.obj
 0001:000072ac       ?getBasicDataType@UnDecorator@@CA?AVDName@@AEBV2@@Z 00000001400082ac f   libvcruntime:undname.obj
 0001:000076f0       ?getCallIndex@UnDecorator@@CA?AVDName@@XZ 00000001400086f0 f i libvcruntime:undname.obj
 0001:0000770c       ?getCallingConvention@UnDecorator@@CA?AVDName@@XZ 000000014000870c f   libvcruntime:undname.obj
 0001:0000780c       ?getDataIndirectType@UnDecorator@@CA?AVDName@@AEBV2@PEBD0H@Z 000000014000880c f   libvcruntime:undname.obj
 0001:00007f44       ?getDataIndirectType@UnDecorator@@CA?AVDName@@XZ 0000000140008f44 f i libvcruntime:undname.obj
 0001:00007f8c       ?getDataType@UnDecorator@@CA?AVDName@@PEAV2@@Z 0000000140008f8c f   libvcruntime:undname.obj
 0001:00008070       ?getDecoratedName@UnDecorator@@CA?AVDName@@XZ 0000000140009070 f   libvcruntime:undname.obj
 0001:000082e4       ?getDimension@UnDecorator@@CA?AVDName@@_N@Z 00000001400092e4 f   libvcruntime:undname.obj
 0001:00008440       ?getDispatchTarget@UnDecorator@@CA?AVDName@@XZ 0000000140009440 f   libvcruntime:undname.obj
 0001:000084a4       ?getDisplacement@UnDecorator@@CA?AVDName@@XZ 00000001400094a4 f i libvcruntime:undname.obj
 0001:000084c0       ?getECSUDataType@UnDecorator@@CA?AVDName@@XZ 00000001400094c0 f   libvcruntime:undname.obj
 0001:00008624       ?getECSUName@UnDecorator@@CA?AVDName@@XZ 0000000140009624 f i libvcruntime:undname.obj
 0001:0000863c       ?getEnumType@UnDecorator@@CA?AVDName@@XZ 000000014000963c f i libvcruntime:undname.obj
 0001:00008724       ?getExtendedDataIndirectType@UnDecorator@@CA?AVDName@@AEAPEBDAEA_NH@Z 0000000140009724 f   libvcruntime:undname.obj
 0001:00008968       ?getExternalDataType@UnDecorator@@CA?AVDName@@AEBV2@@Z 0000000140009968 f i libvcruntime:undname.obj
 0001:00008a3c       ?getFunctionIndirectType@UnDecorator@@CA?AVDName@@AEBV2@@Z 0000000140009a3c f   libvcruntime:undname.obj
 0001:00008f5c       ?getGuardNumber@UnDecorator@@CA?AVDName@@XZ 0000000140009f5c f i libvcruntime:undname.obj
 0001:00008f78       ?getLastChar@DName@@QEBADXZ 0000000140009f78 f i libvcruntime:undname.obj
 0001:00008fb0       ?getLastChar@DNameStatusNode@@UEBADXZ 0000000140009fb0 f i libvcruntime:undname.obj
 0001:00008fbc       ?getLastChar@charNode@@UEBADXZ 0000000140009fbc f i libvcruntime:undname.obj
 0001:00008fc0       ?getLastChar@pDNameNode@@UEBADXZ 0000000140009fc0 f i libvcruntime:undname.obj
 0001:00008ffc       ?getLastChar@pairNode@@UEBADXZ 0000000140009ffc f i libvcruntime:undname.obj
 0001:00009054       ?getLastChar@pcharNode@@UEBADXZ 000000014000a054 f i libvcruntime:undname.obj
 0001:0000906c       ?getLexicalFrame@UnDecorator@@CA?AVDName@@XZ 000000014000a06c f i libvcruntime:undname.obj
 0001:000090cc       ?getMemory@_HeapManager@@QEAAPEAX_KH@Z 000000014000a0cc f   libvcruntime:undname.obj
 0001:00009188       ?getNumberOfDimensions@UnDecorator@@CAHXZ 000000014000a188 f   libvcruntime:undname.obj
 0001:000091fc       ?getOperatorName@UnDecorator@@CA?AVDName@@_NPEA_N@Z 000000014000a1fc f i libvcruntime:undname.obj
 0001:00009950       ?getPointerType@UnDecorator@@CA?AVDName@@AEBV2@0@Z 000000014000a950 f i libvcruntime:undname.obj
 0001:00009970       ?getPointerTypeArray@UnDecorator@@CA?AVDName@@AEBV2@0@Z 000000014000a970 f i libvcruntime:undname.obj
 0001:00009990       ?getPrimaryDataType@UnDecorator@@CA?AVDName@@AEBV2@@Z 000000014000a990 f   libvcruntime:undname.obj
 0001:00009bf0       ?getPtrRefDataType@UnDecorator@@CA?AVDName@@AEBV2@H@Z 000000014000abf0 f   libvcruntime:undname.obj
 0001:00009d18       ?getPtrRefType@UnDecorator@@CA?AVDName@@AEBV2@0PEBD@Z 000000014000ad18 f   libvcruntime:undname.obj
 0001:00009e4c       ?getReferenceType@UnDecorator@@CA?AVDName@@AEBV2@0PEBD@Z 000000014000ae4c f i libvcruntime:undname.obj
 0001:00009e64       ?getRestrictionSpec@UnDecorator@@CA?AVDName@@XZ 000000014000ae64 f   libvcruntime:undname.obj
 0001:00009f90       ?getReturnType@UnDecorator@@CA?AVDName@@PEAV2@@Z 000000014000af90 f   libvcruntime:undname.obj
 0001:00009fc4       ?getScope@UnDecorator@@CA?AVDName@@XZ 000000014000afc4 f   libvcruntime:undname.obj
 0001:0000a470       ?getScopedName@UnDecorator@@CA?AVDName@@XZ 000000014000b470 f   libvcruntime:undname.obj
 0001:0000a588       ?getSignedDimension@UnDecorator@@CA?AVDName@@XZ 000000014000b588 f   libvcruntime:undname.obj
 0001:0000a604       ?getStorageConvention@UnDecorator@@CA?AVDName@@XZ 000000014000b604 f i libvcruntime:undname.obj
 0001:0000a64c       ?getString@DName@@QEBAPEADPEAD0@Z 000000014000b64c f i libvcruntime:undname.obj
 0001:0000a6a4       ?getString@DName@@QEBAPEADPEADH@Z 000000014000b6a4 f i libvcruntime:undname.obj
 0001:0000a754       ?getString@DNameStatusNode@@UEBAPEADPEAD0@Z 000000014000b754 f i libvcruntime:undname.obj
 0001:0000a798       ?getString@charNode@@UEBAPEADPEAD0@Z 000000014000b798 f i libvcruntime:undname.obj
 0001:0000a7ac       ?getString@pDNameNode@@UEBAPEADPEAD0@Z 000000014000b7ac f i libvcruntime:undname.obj
 0001:0000a80c       ?getString@pairNode@@UEBAPEADPEAD0@Z 000000014000b80c f i libvcruntime:undname.obj
 0001:0000a890       ?getString@pcharNode@@UEBAPEADPEAD0@Z 000000014000b890 f i libvcruntime:undname.obj
 0001:0000a8c8       ?getStringEncoding@UnDecorator@@CA?AVDName@@PEADH@Z 000000014000b8c8 f   libvcruntime:undname.obj
 0001:0000a988       ?getStringHelper@@YAPEADPEAD00H@Z 000000014000b988 f i libvcruntime:undname.obj
 0001:0000a9b8       ?getSymbolName@UnDecorator@@CA?AVDName@@XZ 000000014000b9b8 f i libvcruntime:undname.obj
 0001:0000aa04       ?getTemplateArgumentList@UnDecorator@@CA?AVDName@@XZ 000000014000ba04 f   libvcruntime:undname.obj
 0001:0000acd4       ?getTemplateConstant@UnDecorator@@CA?AVDName@@XZ 000000014000bcd4 f   libvcruntime:undname.obj
 0001:0000b07c       ?getTemplateName@UnDecorator@@CA?AVDName@@_N@Z 000000014000c07c f   libvcruntime:undname.obj
 0001:0000b258       ?getThisType@UnDecorator@@CA?AVDName@@XZ 000000014000c258 f i libvcruntime:undname.obj
 0001:0000b2a0       ?getThrowTypes@UnDecorator@@CA?AVDName@@XZ 000000014000c2a0 f   libvcruntime:undname.obj
 0001:0000b364       ?getTypeEncoding@UnDecorator@@CAHXZ 000000014000c364 f i libvcruntime:undname.obj
 0001:0000b6c8       ?getVCallThunkType@UnDecorator@@CA?AVDName@@XZ 000000014000c6c8 f i libvcruntime:undname.obj
 0001:0000b714       ?getVbTableType@UnDecorator@@CA?AVDName@@AEBV2@@Z 000000014000c714 f i libvcruntime:undname.obj
 0001:0000b72c       ?getVdispMapType@UnDecorator@@CA?AVDName@@AEBV2@@Z 000000014000c72c f i libvcruntime:undname.obj
 0001:0000b788       ?getVfTableType@UnDecorator@@CA?AVDName@@AEBV2@@Z 000000014000c788 f i libvcruntime:undname.obj
 0001:0000b958       ?getZName@UnDecorator@@CA?AVDName@@_N0@Z 000000014000c958 f   libvcruntime:undname.obj
 0001:0000bbf4       ?haveTemplateParameters@UnDecorator@@SAHXZ 000000014000cbf4 f i libvcruntime:undname.obj
 0001:0000bc00       ?isArray@DName@@QEBAHXZ    000000014000cc00 f i libvcruntime:undname.obj
 0001:0000bc0c       ?isComArray@DName@@QEBAHXZ 000000014000cc0c f i libvcruntime:undname.obj
 0001:0000bc18       ?isEmpty@DName@@QEBAHXZ    000000014000cc18 f i libvcruntime:undname.obj
 0001:0000bc24       ?isFull@Replicator@@QEBAHXZ 000000014000cc24 f i libvcruntime:undname.obj
 0001:0000bc30       ?isNoTE@DName@@QEBAHXZ     000000014000cc30 f i libvcruntime:undname.obj
 0001:0000bc3c       ?isPinPtr@DName@@QEBAHXZ   000000014000cc3c f i libvcruntime:undname.obj
 0001:0000bc48       ?isPtrRef@DName@@QEBAHXZ   000000014000cc48 f i libvcruntime:undname.obj
 0001:0000bc54       ?isUDC@DName@@QEBAHXZ      000000014000cc54 f i libvcruntime:undname.obj
 0001:0000bc6c       ?isUDTThunk@DName@@QEBAHXZ 000000014000cc6c f i libvcruntime:undname.obj
 0001:0000bc84       ?isVCallThunk@DName@@QEBAHXZ 000000014000cc84 f i libvcruntime:undname.obj
 0001:0000bc90       ?isValid@DName@@QEBAHXZ    000000014000cc90 f i libvcruntime:undname.obj
 0001:0000bc9c       ?length@DName@@QEBAHXZ     000000014000cc9c f i libvcruntime:undname.obj
 0001:0000bcd0       ?length@DNameStatusNode@@UEBAHXZ 000000014000ccd0 f i libvcruntime:undname.obj
 0001:0000bcd4       ?length@charNode@@UEBAHXZ  000000014000ccd4 f i libvcruntime:undname.obj
 0001:0000bcdc       ?length@pDNameNode@@UEBAHXZ 000000014000ccdc f i libvcruntime:undname.obj
 0001:0000bd18       ?length@pairNode@@UEBAHXZ  000000014000cd18 f i libvcruntime:undname.obj
 0001:0000bd84       ?length@pcharNode@@UEBAHXZ 000000014000cd84 f i libvcruntime:undname.obj
 0001:0000bd88       ?make@DNameStatusNode@@SAPEAV1@W4DNameStatus@@@Z 000000014000cd88 f i libvcruntime:undname.obj
 0001:0000be10       ?setIsArray@DName@@QEAAXXZ 000000014000ce10 f i libvcruntime:undname.obj
 0001:0000be18       ?setIsComArray@DName@@QEAAXXZ 000000014000ce18 f i libvcruntime:undname.obj
 0001:0000be20       ?setIsNoTE@DName@@QEAAXXZ  000000014000ce20 f i libvcruntime:undname.obj
 0001:0000be28       ?setIsPinPtr@DName@@QEAAXXZ 000000014000ce28 f i libvcruntime:undname.obj
 0001:0000be30       ?setIsUDC@DName@@QEAAXXZ   000000014000ce30 f i libvcruntime:undname.obj
 0001:0000be3c       ?setIsVCallThunk@DName@@QEAAXXZ 000000014000ce3c f i libvcruntime:undname.obj
 0001:0000be44       ?setPtrRef@DName@@QEAAAEAV1@XZ 000000014000ce44 f i libvcruntime:undname.obj
 0001:0000be50       ?status@DName@@QEBA?AW4DNameStatus@@XZ 000000014000ce50 f i libvcruntime:undname.obj
 0001:0000beb4       __unDName                  000000014000ceb4 f   libvcruntime:undname.obj
 0001:0000bfac       __unDNameEx                000000014000cfac f   libvcruntime:undname.obj
 0001:0000c0a8       _vsprintf_s_l              000000014000d0a8 f i libvcruntime:undname.obj
 0001:0000c10c       sprintf_s                  000000014000d10c f i libvcruntime:undname.obj
 0001:0000c170       _CallSettingFrame          000000014000d170 f   libvcruntime:handlers.obj
 0001:0000c1b0       ??$?RD@__crt_public_free_policy@@QEBAXQEBD@Z 000000014000d1b0 f i libvcruntime:std_exception.obj
 0001:0000c1b8       ??0?$__crt_unique_heap_ptr@DU__crt_public_free_policy@@@@QEAA@QEAD@Z 000000014000d1b8 f i libvcruntime:std_exception.obj
 0001:0000c1c0       ??1?$__crt_unique_heap_ptr@DU__crt_public_free_policy@@@@QEAA@XZ 000000014000d1c0 f i libvcruntime:std_exception.obj
 0001:0000c1dc       ??B?$__crt_unique_heap_ptr@DU__crt_public_free_policy@@@@QEBA_NXZ 000000014000d1dc f i libvcruntime:std_exception.obj
 0001:0000c1e4       ?detach@?$__crt_unique_heap_ptr@DU__crt_public_free_policy@@@@QEAAPEADXZ 000000014000d1e4 f i libvcruntime:std_exception.obj
 0001:0000c1ec       ?get@?$__crt_unique_heap_ptr@DU__crt_public_free_policy@@@@QEBAPEADXZ 000000014000d1ec f i libvcruntime:std_exception.obj
 0001:0000c1f0       ?is_valid@?$__crt_unique_heap_ptr@DU__crt_public_free_policy@@@@QEBA_NXZ 000000014000d1f0 f i libvcruntime:std_exception.obj
 0001:0000c1f8       ?release@?$__crt_unique_heap_ptr@DU__crt_public_free_policy@@@@QEAAXXZ 000000014000d1f8 f i libvcruntime:std_exception.obj
 0001:0000c214       __std_exception_copy       000000014000d214 f   libvcruntime:std_exception.obj
 0001:0000c2a4       __std_exception_destroy    000000014000d2a4 f   libvcruntime:std_exception.obj
 0001:0000c2cc       ??$__crt_fast_decode_pointer@P6AXXZ@@YAP6AXXZQ6AXXZ@Z 000000014000d2cc f i libvcruntime:purevirt.obj
 0001:0000c2e4       ??$__crt_interlocked_compare_exchange_pointer@$$A6AXXZ$$T$$T@@YAP6AXXZPEDS6AXXZ$$T1@Z 000000014000d2e4 f i libvcruntime:purevirt.obj
 0001:0000c2f0       ??$__crt_interlocked_exchange_pointer@$$A6AXXZP6AXXZ@@YAP6AXXZPEDS6AXXZQ6AXXZ@Z 000000014000d2f0 f i libvcruntime:purevirt.obj
 0001:0000c2f8       ??$__crt_interlocked_read_pointer@$$A6AXXZ@@YAP6AXXZPEDS6AXXZ@Z 000000014000d2f8 f i libvcruntime:purevirt.obj
 0001:0000c304       _get_purecall_handler      000000014000d304 f   libvcruntime:purevirt.obj
 0001:0000c324       _purecall                  000000014000d324 f   libvcruntime:purevirt.obj
 0001:0000c360       _set_purecall_handler      000000014000d360 f   libvcruntime:purevirt.obj
 0001:0000c398       ??$?RPEAU__crt_stdio_stream_data@@@__crt_internal_free_policy@@QEBAXQEBQEAU__crt_stdio_stream_data@@@Z 000000014000d398 f i libucrt:_file.obj
 0001:0000c3a0       ??0?$__crt_unique_heap_ptr@PEAU__crt_stdio_stream_data@@U__crt_internal_free_policy@@@@QEAA@QEAPEAU__crt_stdio_stream_data@@@Z 000000014000d3a0 f i libucrt:_file.obj
 0001:0000c3a8       ??0__crt_stdio_stream@@QEAA@QEAU_iobuf@@@Z 000000014000d3a8 f i libucrt:_file.obj
 0001:0000c3b0       ??1?$__crt_unique_heap_ptr@PEAU__crt_stdio_stream_data@@U__crt_internal_free_policy@@@@QEAA@XZ 000000014000d3b0 f i libucrt:_file.obj
 0001:0000c3cc       ??C__crt_stdio_stream@@QEBAPEAU__crt_stdio_stream_data@@XZ 000000014000d3cc f i libucrt:_file.obj
 0001:0000c3d0       ?detach@?$__crt_unique_heap_ptr@PEAU__crt_stdio_stream_data@@U__crt_internal_free_policy@@@@QEAAPEAPEAU__crt_stdio_stream_data@@XZ 000000014000d3d0 f i libucrt:_file.obj
 0001:0000c3d8       ?release@?$__crt_unique_heap_ptr@PEAU__crt_stdio_stream_data@@U__crt_internal_free_policy@@@@QEAAXXZ 000000014000d3d8 f i libucrt:_file.obj
 0001:0000c3f4       __acrt_initialize_stdio    000000014000d3f4 f   libucrt:_file.obj
 0001:0000c514       __acrt_iob_func            000000014000d514 f   libucrt:_file.obj
 0001:0000c528       __acrt_uninitialize_stdio  000000014000d528 f   libucrt:_file.obj
 0001:0000c584       _get_stream_buffer_pointers 000000014000d584 f   libucrt:_file.obj
 0001:0000c5cc       _lock_file                 000000014000d5cc f   libucrt:_file.obj
 0001:0000c5d8       _unlock_file               000000014000d5d8 f   libucrt:_file.obj
 0001:0000c5e4       ??$?0AEBV?$stream_output_adapter@D@__crt_stdio_output@@AEB_KAEBQEBDAEAV__crt_cached_ptd_host@@AEBQEAD@?$format_validation_base@DV?$stream_output_adapter@D@__crt_stdio_output@@@__crt_stdio_output@@IEAA@AEBV?$stream_output_adapter@D@1@AEB_KAEBQEBDAEAV__crt_cached_ptd_host@@AEBQEAD@Z 000000014000d5e4 f i libucrt:output.obj
 0001:0000c654       ??$?0AEBV?$stream_output_adapter@D@__crt_stdio_output@@AEB_KAEBQEBDAEAV__crt_cached_ptd_host@@AEBQEAD@?$positional_parameter_base@DV?$stream_output_adapter@D@__crt_stdio_output@@@__crt_stdio_output@@IEAA@AEBV?$stream_output_adapter@D@1@AEB_KAEBQEBDAEAV__crt_cached_ptd_host@@AEBQEAD@Z 000000014000d654 f i libucrt:output.obj
 0001:0000c6e4       ??$?0AEBV?$stream_output_adapter@D@__crt_stdio_output@@AEB_KAEBQEBDAEAV__crt_cached_ptd_host@@AEBQEAD@?$standard_base@DV?$stream_output_adapter@D@__crt_stdio_output@@@__crt_stdio_output@@IEAA@AEBV?$stream_output_adapter@D@1@AEB_KAEBQEBDAEAV__crt_cached_ptd_host@@AEBQEAD@Z 000000014000d6e4 f i libucrt:output.obj
 0001:0000c754       ??$?0AEBV?$stream_output_adapter@_W@__crt_stdio_output@@AEB_KAEBQEB_WAEAV__crt_cached_ptd_host@@AEBQEAD@?$format_validation_base@_WV?$stream_output_adapter@_W@__crt_stdio_output@@@__crt_stdio_output@@IEAA@AEBV?$stream_output_adapter@_W@1@AEB_KAEBQEB_WAEAV__crt_cached_ptd_host@@AEBQEAD@Z 000000014000d754 f i libucrt:output.obj
 0001:0000c7c8       ??$?0AEBV?$stream_output_adapter@_W@__crt_stdio_output@@AEB_KAEBQEB_WAEAV__crt_cached_ptd_host@@AEBQEAD@?$positional_parameter_base@_WV?$stream_output_adapter@_W@__crt_stdio_output@@@__crt_stdio_output@@IEAA@AEBV?$stream_output_adapter@_W@1@AEB_KAEBQEB_WAEAV__crt_cached_ptd_host@@AEBQEAD@Z 000000014000d7c8 f i libucrt:output.obj
 0001:0000c85c       ??$?0AEBV?$stream_output_adapter@_W@__crt_stdio_output@@AEB_KAEBQEB_WAEAV__crt_cached_ptd_host@@AEBQEAD@?$standard_base@_WV?$stream_output_adapter@_W@__crt_stdio_output@@@__crt_stdio_output@@IEAA@AEBV?$stream_output_adapter@_W@1@AEB_KAEBQEB_WAEAV__crt_cached_ptd_host@@AEBQEAD@Z 000000014000d85c f i libucrt:output.obj
 0001:0000c8d0       ??$?0AEBV?$string_output_adapter@D@__crt_stdio_output@@AEB_KAEBQEBDAEAV__crt_cached_ptd_host@@AEBQEAD@?$format_validation_base@DV?$string_output_adapter@D@__crt_stdio_output@@@__crt_stdio_output@@IEAA@AEBV?$string_output_adapter@D@1@AEB_KAEBQEBDAEAV__crt_cached_ptd_host@@AEBQEAD@Z 000000014000d8d0 f i libucrt:output.obj
 0001:0000c940       ??$?0AEBV?$string_output_adapter@D@__crt_stdio_output@@AEB_KAEBQEBDAEAV__crt_cached_ptd_host@@AEBQEAD@?$positional_parameter_base@DV?$string_output_adapter@D@__crt_stdio_output@@@__crt_stdio_output@@IEAA@AEBV?$string_output_adapter@D@1@AEB_KAEBQEBDAEAV__crt_cached_ptd_host@@AEBQEAD@Z 000000014000d940 f i libucrt:output.obj
 0001:0000c9d0       ??$?0AEBV?$string_output_adapter@D@__crt_stdio_output@@AEB_KAEBQEBDAEAV__crt_cached_ptd_host@@AEBQEAD@?$standard_base@DV?$string_output_adapter@D@__crt_stdio_output@@@__crt_stdio_output@@IEAA@AEBV?$string_output_adapter@D@1@AEB_KAEBQEBDAEAV__crt_cached_ptd_host@@AEBQEAD@Z 000000014000d9d0 f i libucrt:output.obj
 0001:0000ca40       ??$?0AEBV?$string_output_adapter@_W@__crt_stdio_output@@AEB_KAEBQEB_WAEAV__crt_cached_ptd_host@@AEBQEAD@?$format_validation_base@_WV?$string_output_adapter@_W@__crt_stdio_output@@@__crt_stdio_output@@IEAA@AEBV?$string_output_adapter@_W@1@AEB_KAEBQEB_WAEAV__crt_cached_ptd_host@@AEBQEAD@Z 000000014000da40 f i libucrt:output.obj
 0001:0000cab4       ??$?0AEBV?$string_output_adapter@_W@__crt_stdio_output@@AEB_KAEBQEB_WAEAV__crt_cached_ptd_host@@AEBQEAD@?$positional_parameter_base@_WV?$string_output_adapter@_W@__crt_stdio_output@@@__crt_stdio_output@@IEAA@AEBV?$string_output_adapter@_W@1@AEB_KAEBQEB_WAEAV__crt_cached_ptd_host@@AEBQEAD@Z 000000014000dab4 f i libucrt:output.obj
 0001:0000cb48       ??$?0AEBV?$string_output_adapter@_W@__crt_stdio_output@@AEB_KAEBQEB_WAEAV__crt_cached_ptd_host@@AEBQEAD@?$standard_base@_WV?$string_output_adapter@_W@__crt_stdio_output@@@__crt_stdio_output@@IEAA@AEBV?$string_output_adapter@_W@1@AEB_KAEBQEB_WAEAV__crt_cached_ptd_host@@AEBQEAD@Z 000000014000db48 f i libucrt:output.obj
 0001:0000ce2c       ??$__crt_interlocked_read@J@@YAJPEDJ@Z 000000014000de2c f i libucrt:output.obj
 0001:0000ce30       ??$_tcstol_internal@DPEAPEAD$0A@@@YAJAEAV__crt_cached_ptd_host@@QEBDQEAPEADH@Z 000000014000de30 f i libucrt:output.obj
 0001:0000ce60       ??$_tcstol_internal@_WPEAPEA_W$0A@@@YAJAEAV__crt_cached_ptd_host@@QEB_WQEAPEA_WH@Z 000000014000de60 f i libucrt:output.obj
 0001:0000dfa0       ??$count@D@formatting_buffer@__crt_stdio_output@@QEBA_KXZ 000000014000efa0 f i libucrt:output.obj
 0001:0000dfbc       ??$count@_W@formatting_buffer@__crt_stdio_output@@QEBA_KXZ 000000014000efbc f i libucrt:output.obj
 0001:0000dfd8       ??$data@D@formatting_buffer@__crt_stdio_output@@QEAAPEADXZ 000000014000efd8 f i libucrt:output.obj
 0001:0000dfe8       ??$data@_W@formatting_buffer@__crt_stdio_output@@QEAAPEA_WXZ 000000014000efe8 f i libucrt:output.obj
 0001:0000dff8       ??$ensure_buffer_is_big_enough@D@formatting_buffer@__crt_stdio_output@@QEAA_N_KAEAV__crt_cached_ptd_host@@@Z 000000014000eff8 f i libucrt:output.obj
 0001:0000e0a0       ??$ensure_buffer_is_big_enough@_W@formatting_buffer@__crt_stdio_output@@QEAA_N_KAEAV__crt_cached_ptd_host@@@Z 000000014000f0a0 f i libucrt:output.obj
 0001:0000e14c       ??$extract_argument_from_va_list@C_J@?$positional_parameter_base@DV?$stream_output_adapter@D@__crt_stdio_output@@@__crt_stdio_output@@IEAA_NAEA_J@Z 000000014000f14c f i libucrt:output.obj
 0001:0000e258       ??$extract_argument_from_va_list@C_J@?$positional_parameter_base@DV?$string_output_adapter@D@__crt_stdio_output@@@__crt_stdio_output@@IEAA_NAEA_J@Z 000000014000f258 f i libucrt:output.obj
 0001:0000e364       ??$extract_argument_from_va_list@C_J@?$positional_parameter_base@_WV?$stream_output_adapter@_W@__crt_stdio_output@@@__crt_stdio_output@@IEAA_NAEA_J@Z 000000014000f364 f i libucrt:output.obj
 0001:0000e470       ??$extract_argument_from_va_list@C_J@?$positional_parameter_base@_WV?$string_output_adapter@_W@__crt_stdio_output@@@__crt_stdio_output@@IEAA_NAEA_J@Z 000000014000f470 f i libucrt:output.obj
 0001:0000e57c       ??$extract_argument_from_va_list@C_J@?$standard_base@DV?$stream_output_adapter@D@__crt_stdio_output@@@__crt_stdio_output@@IEAA_NAEA_J@Z 000000014000f57c f i libucrt:output.obj
 0001:0000e594       ??$extract_argument_from_va_list@C_J@?$standard_base@DV?$string_output_adapter@D@__crt_stdio_output@@@__crt_stdio_output@@IEAA_NAEA_J@Z 000000014000f594 f i libucrt:output.obj
 0001:0000e5ac       ??$extract_argument_from_va_list@C_J@?$standard_base@_WV?$stream_output_adapter@_W@__crt_stdio_output@@@__crt_stdio_output@@IEAA_NAEA_J@Z 000000014000f5ac f i libucrt:output.obj
 0001:0000e5c4       ??$extract_argument_from_va_list@C_J@?$standard_base@_WV?$string_output_adapter@_W@__crt_stdio_output@@@__crt_stdio_output@@IEAA_NAEA_J@Z 000000014000f5c4 f i libucrt:output.obj
 0001:0000e5dc       ??$extract_argument_from_va_list@E_J@?$positional_parameter_base@DV?$stream_output_adapter@D@__crt_stdio_output@@@__crt_stdio_output@@IEAA_NAEA_J@Z 000000014000f5dc f i libucrt:output.obj
 0001:0000e6e4       ??$extract_argument_from_va_list@E_J@?$positional_parameter_base@DV?$string_output_adapter@D@__crt_stdio_output@@@__crt_stdio_output@@IEAA_NAEA_J@Z 000000014000f6e4 f i libucrt:output.obj
 0001:0000e7ec       ??$extract_argument_from_va_list@E_J@?$positional_parameter_base@_WV?$stream_output_adapter@_W@__crt_stdio_output@@@__crt_stdio_output@@IEAA_NAEA_J@Z 000000014000f7ec f i libucrt:output.obj
 0001:0000e8f8       ??$extract_argument_from_va_list@E_J@?$positional_parameter_base@_WV?$string_output_adapter@_W@__crt_stdio_output@@@__crt_stdio_output@@IEAA_NAEA_J@Z 000000014000f8f8 f i libucrt:output.obj
 0001:0000ea04       ??$extract_argument_from_va_list@E_J@?$standard_base@DV?$stream_output_adapter@D@__crt_stdio_output@@@__crt_stdio_output@@IEAA_NAEA_J@Z 000000014000fa04 f i libucrt:output.obj
 0001:0000ea1c       ??$extract_argument_from_va_list@E_J@?$standard_base@DV?$string_output_adapter@D@__crt_stdio_output@@@__crt_stdio_output@@IEAA_NAEA_J@Z 000000014000fa1c f i libucrt:output.obj
 0001:0000ea34       ??$extract_argument_from_va_list@E_J@?$standard_base@_WV?$stream_output_adapter@_W@__crt_stdio_output@@@__crt_stdio_output@@IEAA_NAEA_J@Z 000000014000fa34 f i libucrt:output.obj
 0001:0000ea4c       ??$extract_argument_from_va_list@E_J@?$standard_base@_WV?$string_output_adapter@_W@__crt_stdio_output@@@__crt_stdio_output@@IEAA_NAEA_J@Z 000000014000fa4c f i libucrt:output.obj
 0001:0000ea64       ??$extract_argument_from_va_list@F_J@?$positional_parameter_base@DV?$stream_output_adapter@D@__crt_stdio_output@@@__crt_stdio_output@@IEAA_NAEA_J@Z 000000014000fa64 f i libucrt:output.obj
 0001:0000eb70       ??$extract_argument_from_va_list@F_J@?$positional_parameter_base@DV?$string_output_adapter@D@__crt_stdio_output@@@__crt_stdio_output@@IEAA_NAEA_J@Z 000000014000fb70 f i libucrt:output.obj
 0001:0000ec7c       ??$extract_argument_from_va_list@F_J@?$positional_parameter_base@_WV?$stream_output_adapter@_W@__crt_stdio_output@@@__crt_stdio_output@@IEAA_NAEA_J@Z 000000014000fc7c f i libucrt:output.obj
 0001:0000ed88       ??$extract_argument_from_va_list@F_J@?$positional_parameter_base@_WV?$string_output_adapter@_W@__crt_stdio_output@@@__crt_stdio_output@@IEAA_NAEA_J@Z 000000014000fd88 f i libucrt:output.obj
 0001:0000ee94       ??$extract_argument_from_va_list@F_J@?$standard_base@DV?$stream_output_adapter@D@__crt_stdio_output@@@__crt_stdio_output@@IEAA_NAEA_J@Z 000000014000fe94 f i libucrt:output.obj
 0001:0000eeac       ??$extract_argument_from_va_list@F_J@?$standard_base@DV?$string_output_adapter@D@__crt_stdio_output@@@__crt_stdio_output@@IEAA_NAEA_J@Z 000000014000feac f i libucrt:output.obj
 0001:0000eec4       ??$extract_argument_from_va_list@F_J@?$standard_base@_WV?$stream_output_adapter@_W@__crt_stdio_output@@@__crt_stdio_output@@IEAA_NAEA_J@Z 000000014000fec4 f i libucrt:output.obj
 0001:0000eedc       ??$extract_argument_from_va_list@F_J@?$standard_base@_WV?$string_output_adapter@_W@__crt_stdio_output@@@__crt_stdio_output@@IEAA_NAEA_J@Z 000000014000fedc f i libucrt:output.obj
 0001:0000eef4       ??$extract_argument_from_va_list@GD@?$positional_parameter_base@DV?$stream_output_adapter@D@__crt_stdio_output@@@__crt_stdio_output@@IEAA_NAEAD@Z 000000014000fef4 f i libucrt:output.obj
 0001:0000eff8       ??$extract_argument_from_va_list@GD@?$positional_parameter_base@DV?$string_output_adapter@D@__crt_stdio_output@@@__crt_stdio_output@@IEAA_NAEAD@Z 000000014000fff8 f i libucrt:output.obj
 0001:0000f0fc       ??$extract_argument_from_va_list@GD@?$standard_base@DV?$stream_output_adapter@D@__crt_stdio_output@@@__crt_stdio_output@@IEAA_NAEAD@Z 00000001400100fc f i libucrt:output.obj
 0001:0000f110       ??$extract_argument_from_va_list@GD@?$standard_base@DV?$string_output_adapter@D@__crt_stdio_output@@@__crt_stdio_output@@IEAA_NAEAD@Z 0000000140010110 f i libucrt:output.obj
 0001:0000f124       ??$extract_argument_from_va_list@G_J@?$positional_parameter_base@DV?$stream_output_adapter@D@__crt_stdio_output@@@__crt_stdio_output@@IEAA_NAEA_J@Z 0000000140010124 f i libucrt:output.obj
 0001:0000f22c       ??$extract_argument_from_va_list@G_J@?$positional_parameter_base@DV?$string_output_adapter@D@__crt_stdio_output@@@__crt_stdio_output@@IEAA_NAEA_J@Z 000000014001022c f i libucrt:output.obj
 0001:0000f334       ??$extract_argument_from_va_list@G_J@?$positional_parameter_base@_WV?$stream_output_adapter@_W@__crt_stdio_output@@@__crt_stdio_output@@IEAA_NAEA_J@Z 0000000140010334 f i libucrt:output.obj
 0001:0000f440       ??$extract_argument_from_va_list@G_J@?$positional_parameter_base@_WV?$string_output_adapter@_W@__crt_stdio_output@@@__crt_stdio_output@@IEAA_NAEA_J@Z 0000000140010440 f i libucrt:output.obj
 0001:0000f54c       ??$extract_argument_from_va_list@G_J@?$standard_base@DV?$stream_output_adapter@D@__crt_stdio_output@@@__crt_stdio_output@@IEAA_NAEA_J@Z 000000014001054c f i libucrt:output.obj
 0001:0000f564       ??$extract_argument_from_va_list@G_J@?$standard_base@DV?$string_output_adapter@D@__crt_stdio_output@@@__crt_stdio_output@@IEAA_NAEA_J@Z 0000000140010564 f i libucrt:output.obj
 0001:0000f57c       ??$extract_argument_from_va_list@G_J@?$standard_base@_WV?$stream_output_adapter@_W@__crt_stdio_output@@@__crt_stdio_output@@IEAA_NAEA_J@Z 000000014001057c f i libucrt:output.obj
 0001:0000f594       ??$extract_argument_from_va_list@G_J@?$standard_base@_WV?$string_output_adapter@_W@__crt_stdio_output@@@__crt_stdio_output@@IEAA_NAEA_J@Z 0000000140010594 f i libucrt:output.obj
 0001:0000f5ac       ??$extract_argument_from_va_list@H_J@?$positional_parameter_base@DV?$stream_output_adapter@D@__crt_stdio_output@@@__crt_stdio_output@@IEAA_NAEA_J@Z 00000001400105ac f i libucrt:output.obj
 0001:0000f6b4       ??$extract_argument_from_va_list@H_J@?$positional_parameter_base@DV?$string_output_adapter@D@__crt_stdio_output@@@__crt_stdio_output@@IEAA_NAEA_J@Z 00000001400106b4 f i libucrt:output.obj
 0001:0000f7bc       ??$extract_argument_from_va_list@H_J@?$positional_parameter_base@_WV?$stream_output_adapter@_W@__crt_stdio_output@@@__crt_stdio_output@@IEAA_NAEA_J@Z 00000001400107bc f i libucrt:output.obj
 0001:0000f8c8       ??$extract_argument_from_va_list@H_J@?$positional_parameter_base@_WV?$string_output_adapter@_W@__crt_stdio_output@@@__crt_stdio_output@@IEAA_NAEA_J@Z 00000001400108c8 f i libucrt:output.obj
 0001:0000f9d4       ??$extract_argument_from_va_list@H_J@?$standard_base@DV?$stream_output_adapter@D@__crt_stdio_output@@@__crt_stdio_output@@IEAA_NAEA_J@Z 00000001400109d4 f i libucrt:output.obj
 0001:0000f9ec       ??$extract_argument_from_va_list@H_J@?$standard_base@DV?$string_output_adapter@D@__crt_stdio_output@@@__crt_stdio_output@@IEAA_NAEA_J@Z 00000001400109ec f i libucrt:output.obj
 0001:0000fa04       ??$extract_argument_from_va_list@H_J@?$standard_base@_WV?$stream_output_adapter@_W@__crt_stdio_output@@@__crt_stdio_output@@IEAA_NAEA_J@Z 0000000140010a04 f i libucrt:output.obj
 0001:0000fa1c       ??$extract_argument_from_va_list@H_J@?$standard_base@_WV?$string_output_adapter@_W@__crt_stdio_output@@@__crt_stdio_output@@IEAA_NAEA_J@Z 0000000140010a1c f i libucrt:output.obj
 0001:0000fa34       ??$extract_argument_from_va_list@I_J@?$positional_parameter_base@DV?$stream_output_adapter@D@__crt_stdio_output@@@__crt_stdio_output@@IEAA_NAEA_J@Z 0000000140010a34 f i libucrt:output.obj
 0001:0000fb3c       ??$extract_argument_from_va_list@I_J@?$positional_parameter_base@DV?$string_output_adapter@D@__crt_stdio_output@@@__crt_stdio_output@@IEAA_NAEA_J@Z 0000000140010b3c f i libucrt:output.obj
 0001:0000fc44       ??$extract_argument_from_va_list@I_J@?$positional_parameter_base@_WV?$stream_output_adapter@_W@__crt_stdio_output@@@__crt_stdio_output@@IEAA_NAEA_J@Z 0000000140010c44 f i libucrt:output.obj
 0001:0000fd4c       ??$extract_argument_from_va_list@I_J@?$positional_parameter_base@_WV?$string_output_adapter@_W@__crt_stdio_output@@@__crt_stdio_output@@IEAA_NAEA_J@Z 0000000140010d4c f i libucrt:output.obj
 0001:0000fe54       ??$extract_argument_from_va_list@I_J@?$standard_base@DV?$stream_output_adapter@D@__crt_stdio_output@@@__crt_stdio_output@@IEAA_NAEA_J@Z 0000000140010e54 f i libucrt:output.obj
 0001:0000fe6c       ??$extract_argument_from_va_list@I_J@?$standard_base@DV?$string_output_adapter@D@__crt_stdio_output@@@__crt_stdio_output@@IEAA_NAEA_J@Z 0000000140010e6c f i libucrt:output.obj
 0001:0000fe84       ??$extract_argument_from_va_list@I_J@?$standard_base@_WV?$stream_output_adapter@_W@__crt_stdio_output@@@__crt_stdio_output@@IEAA_NAEA_J@Z 0000000140010e84 f i libucrt:output.obj
 0001:0000fe9c       ??$extract_argument_from_va_list@I_J@?$standard_base@_WV?$string_output_adapter@_W@__crt_stdio_output@@@__crt_stdio_output@@IEAA_NAEA_J@Z 0000000140010e9c f i libucrt:output.obj
 0001:0000feb4       ??$extract_argument_from_va_list@PEADPEAD@?$positional_parameter_base@DV?$stream_output_adapter@D@__crt_stdio_output@@@__crt_stdio_output@@IEAA_NAEAPEAD@Z 0000000140010eb4 f i libucrt:output.obj
 0001:0000ffbc       ??$extract_argument_from_va_list@PEADPEAD@?$positional_parameter_base@DV?$string_output_adapter@D@__crt_stdio_output@@@__crt_stdio_output@@IEAA_NAEAPEAD@Z 0000000140010fbc f i libucrt:output.obj
 0001:000100c4       ??$extract_argument_from_va_list@PEADPEAD@?$positional_parameter_base@_WV?$stream_output_adapter@_W@__crt_stdio_output@@@__crt_stdio_output@@IEAA_NAEAPEAD@Z 00000001400110c4 f i libucrt:output.obj
 0001:000101d0       ??$extract_argument_from_va_list@PEADPEAD@?$positional_parameter_base@_WV?$string_output_adapter@_W@__crt_stdio_output@@@__crt_stdio_output@@IEAA_NAEAPEAD@Z 00000001400111d0 f i libucrt:output.obj
 0001:000102dc       ??$extract_argument_from_va_list@PEADPEAD@?$standard_base@DV?$stream_output_adapter@D@__crt_stdio_output@@@__crt_stdio_output@@IEAA_NAEAPEAD@Z 00000001400112dc f i libucrt:output.obj
 0001:000102f4       ??$extract_argument_from_va_list@PEADPEAD@?$standard_base@DV?$string_output_adapter@D@__crt_stdio_output@@@__crt_stdio_output@@IEAA_NAEAPEAD@Z 00000001400112f4 f i libucrt:output.obj
 0001:0001030c       ??$extract_argument_from_va_list@PEADPEAD@?$standard_base@_WV?$stream_output_adapter@_W@__crt_stdio_output@@@__crt_stdio_output@@IEAA_NAEAPEAD@Z 000000014001130c f i libucrt:output.obj
 0001:00010324       ??$extract_argument_from_va_list@PEADPEAD@?$standard_base@_WV?$string_output_adapter@_W@__crt_stdio_output@@@__crt_stdio_output@@IEAA_NAEAPEAD@Z 0000000140011324 f i libucrt:output.obj
 0001:0001033c       ??$extract_argument_from_va_list@PEAUansi_string@?1??type_case_Z@?$output_processor@DV?$stream_output_adapter@D@__crt_stdio_output@@V?$format_validation_base@DV?$stream_output_adapter@D@__crt_stdio_output@@@2@@__crt_stdio_output@@AEAA_NXZ@PEAU1?1??234@AEAA_NXZ@@?$standard_base@DV?$stream_output_adapter@D@__crt_stdio_output@@@__crt_stdio_output@@IEAA_NAEAPEAUansi_string@?1??type_case_Z@?$output_processor@DV?$stream_output_adapter@D@__crt_stdio_output@@V?$format_validation_base@DV?$stream_output_adapter@D@__crt_stdio_output@@@2@@1@AEAA_NXZ@@Z 000000014001133c f i libucrt:output.obj
 0001:00010354       ??$extract_argument_from_va_list@PEAUansi_string@?1??type_case_Z@?$output_processor@DV?$stream_output_adapter@D@__crt_stdio_output@@V?$positional_parameter_base@DV?$stream_output_adapter@D@__crt_stdio_output@@@2@@__crt_stdio_output@@AEAA_NXZ@PEAU1?1??234@AEAA_NXZ@@?$positional_parameter_base@DV?$stream_output_adapter@D@__crt_stdio_output@@@__crt_stdio_output@@IEAA_NAEAPEAUansi_string@?1??type_case_Z@?$output_processor@DV?$stream_output_adapter@D@__crt_stdio_output@@V?$positional_parameter_base@DV?$stream_output_adapter@D@__crt_stdio_output@@@2@@1@AEAA_NXZ@@Z 0000000140011354 f i libucrt:output.obj
 0001:0001045c       ??$extract_argument_from_va_list@PEAUansi_string@?1??type_case_Z@?$output_processor@DV?$stream_output_adapter@D@__crt_stdio_output@@V?$positional_parameter_base@DV?$stream_output_adapter@D@__crt_stdio_output@@@2@@__crt_stdio_output@@AEAA_NXZ@PEAU1?1??234@AEAA_NXZ@@?$standard_base@DV?$stream_output_adapter@D@__crt_stdio_output@@@__crt_stdio_output@@IEAA_NAEAPEAUansi_string@?1??type_case_Z@?$output_processor@DV?$stream_output_adapter@D@__crt_stdio_output@@V?$positional_parameter_base@DV?$stream_output_adapter@D@__crt_stdio_output@@@2@@1@AEAA_NXZ@@Z 000000014001145c f i libucrt:output.obj
 0001:00010474       ??$extract_argument_from_va_list@PEAUansi_string@?1??type_case_Z@?$output_processor@DV?$stream_output_adapter@D@__crt_stdio_output@@V?$standard_base@DV?$stream_output_adapter@D@__crt_stdio_output@@@2@@__crt_stdio_output@@AEAA_NXZ@PEAU1?1??234@AEAA_NXZ@@?$standard_base@DV?$stream_output_adapter@D@__crt_stdio_output@@@__crt_stdio_output@@IEAA_NAEAPEAUansi_string@?1??type_case_Z@?$output_processor@DV?$stream_output_adapter@D@__crt_stdio_output@@V?$standard_base@DV?$stream_output_adapter@D@__crt_stdio_output@@@2@@1@AEAA_NXZ@@Z 0000000140011474 f i libucrt:output.obj
 0001:0001048c       ??$extract_argument_from_va_list@PEAUansi_string@?1??type_case_Z@?$output_processor@DV?$string_output_adapter@D@__crt_stdio_output@@V?$format_validation_base@DV?$string_output_adapter@D@__crt_stdio_output@@@2@@__crt_stdio_output@@AEAA_NXZ@PEAU1?1??234@AEAA_NXZ@@?$standard_base@DV?$string_output_adapter@D@__crt_stdio_output@@@__crt_stdio_output@@IEAA_NAEAPEAUansi_string@?1??type_case_Z@?$output_processor@DV?$string_output_adapter@D@__crt_stdio_output@@V?$format_validation_base@DV?$string_output_adapter@D@__crt_stdio_output@@@2@@1@AEAA_NXZ@@Z 000000014001148c f i libucrt:output.obj
 0001:000104a4       ??$extract_argument_from_va_list@PEAUansi_string@?1??type_case_Z@?$output_processor@DV?$string_output_adapter@D@__crt_stdio_output@@V?$positional_parameter_base@DV?$string_output_adapter@D@__crt_stdio_output@@@2@@__crt_stdio_output@@AEAA_NXZ@PEAU1?1??234@AEAA_NXZ@@?$positional_parameter_base@DV?$string_output_adapter@D@__crt_stdio_output@@@__crt_stdio_output@@IEAA_NAEAPEAUansi_string@?1??type_case_Z@?$output_processor@DV?$string_output_adapter@D@__crt_stdio_output@@V?$positional_parameter_base@DV?$string_output_adapter@D@__crt_stdio_output@@@2@@1@AEAA_NXZ@@Z 00000001400114a4 f i libucrt:output.obj
 0001:000105ac       ??$extract_argument_from_va_list@PEAUansi_string@?1??type_case_Z@?$output_processor@DV?$string_output_adapter@D@__crt_stdio_output@@V?$positional_parameter_base@DV?$string_output_adapter@D@__crt_stdio_output@@@2@@__crt_stdio_output@@AEAA_NXZ@PEAU1?1??234@AEAA_NXZ@@?$standard_base@DV?$string_output_adapter@D@__crt_stdio_output@@@__crt_stdio_output@@IEAA_NAEAPEAUansi_string@?1??type_case_Z@?$output_processor@DV?$string_output_adapter@D@__crt_stdio_output@@V?$positional_parameter_base@DV?$string_output_adapter@D@__crt_stdio_output@@@2@@1@AEAA_NXZ@@Z 00000001400115ac f i libucrt:output.obj
 0001:000105c4       ??$extract_argument_from_va_list@PEAUansi_string@?1??type_case_Z@?$output_processor@DV?$string_output_adapter@D@__crt_stdio_output@@V?$standard_base@DV?$string_output_adapter@D@__crt_stdio_output@@@2@@__crt_stdio_output@@AEAA_NXZ@PEAU1?1??234@AEAA_NXZ@@?$standard_base@DV?$string_output_adapter@D@__crt_stdio_output@@@__crt_stdio_output@@IEAA_NAEAPEAUansi_string@?1??type_case_Z@?$output_processor@DV?$string_output_adapter@D@__crt_stdio_output@@V?$standard_base@DV?$string_output_adapter@D@__crt_stdio_output@@@2@@1@AEAA_NXZ@@Z 00000001400115c4 f i libucrt:output.obj
 0001:000105dc       ??$extract_argument_from_va_list@PEAUansi_string@?1??type_case_Z@?$output_processor@_WV?$stream_output_adapter@_W@__crt_stdio_output@@V?$format_validation_base@_WV?$stream_output_adapter@_W@__crt_stdio_output@@@2@@__crt_stdio_output@@AEAA_NXZ@PEAU1?1??234@AEAA_NXZ@@?$standard_base@_WV?$stream_output_adapter@_W@__crt_stdio_output@@@__crt_stdio_output@@IEAA_NAEAPEAUansi_string@?1??type_case_Z@?$output_processor@_WV?$stream_output_adapter@_W@__crt_stdio_output@@V?$format_validation_base@_WV?$stream_output_adapter@_W@__crt_stdio_output@@@2@@1@AEAA_NXZ@@Z 00000001400115dc f i libucrt:output.obj
 0001:000105f4       ??$extract_argument_from_va_list@PEAUansi_string@?1??type_case_Z@?$output_processor@_WV?$stream_output_adapter@_W@__crt_stdio_output@@V?$positional_parameter_base@_WV?$stream_output_adapter@_W@__crt_stdio_output@@@2@@__crt_stdio_output@@AEAA_NXZ@PEAU1?1??234@AEAA_NXZ@@?$positional_parameter_base@_WV?$stream_output_adapter@_W@__crt_stdio_output@@@__crt_stdio_output@@IEAA_NAEAPEAUansi_string@?1??type_case_Z@?$output_processor@_WV?$stream_output_adapter@_W@__crt_stdio_output@@V?$positional_parameter_base@_WV?$stream_output_adapter@_W@__crt_stdio_output@@@2@@1@AEAA_NXZ@@Z 00000001400115f4 f i libucrt:output.obj
 0001:00010700       ??$extract_argument_from_va_list@PEAUansi_string@?1??type_case_Z@?$output_processor@_WV?$stream_output_adapter@_W@__crt_stdio_output@@V?$positional_parameter_base@_WV?$stream_output_adapter@_W@__crt_stdio_output@@@2@@__crt_stdio_output@@AEAA_NXZ@PEAU1?1??234@AEAA_NXZ@@?$standard_base@_WV?$stream_output_adapter@_W@__crt_stdio_output@@@__crt_stdio_output@@IEAA_NAEAPEAUansi_string@?1??type_case_Z@?$output_processor@_WV?$stream_output_adapter@_W@__crt_stdio_output@@V?$positional_parameter_base@_WV?$stream_output_adapter@_W@__crt_stdio_output@@@2@@1@AEAA_NXZ@@Z 0000000140011700 f i libucrt:output.obj
 0001:00010718       ??$extract_argument_from_va_list@PEAUansi_string@?1??type_case_Z@?$output_processor@_WV?$stream_output_adapter@_W@__crt_stdio_output@@V?$standard_base@_WV?$stream_output_adapter@_W@__crt_stdio_output@@@2@@__crt_stdio_output@@AEAA_NXZ@PEAU1?1??234@AEAA_NXZ@@?$standard_base@_WV?$stream_output_adapter@_W@__crt_stdio_output@@@__crt_stdio_output@@IEAA_NAEAPEAUansi_string@?1??type_case_Z@?$output_processor@_WV?$stream_output_adapter@_W@__crt_stdio_output@@V?$standard_base@_WV?$stream_output_adapter@_W@__crt_stdio_output@@@2@@1@AEAA_NXZ@@Z 0000000140011718 f i libucrt:output.obj
 0001:00010730       ??$extract_argument_from_va_list@PEAUansi_string@?1??type_case_Z@?$output_processor@_WV?$string_output_adapter@_W@__crt_stdio_output@@V?$format_validation_base@_WV?$string_output_adapter@_W@__crt_stdio_output@@@2@@__crt_stdio_output@@AEAA_NXZ@PEAU1?1??234@AEAA_NXZ@@?$standard_base@_WV?$string_output_adapter@_W@__crt_stdio_output@@@__crt_stdio_output@@IEAA_NAEAPEAUansi_string@?1??type_case_Z@?$output_processor@_WV?$string_output_adapter@_W@__crt_stdio_output@@V?$format_validation_base@_WV?$string_output_adapter@_W@__crt_stdio_output@@@2@@1@AEAA_NXZ@@Z 0000000140011730 f i libucrt:output.obj
 0001:00010748       ??$extract_argument_from_va_list@PEAUansi_string@?1??type_case_Z@?$output_processor@_WV?$string_output_adapter@_W@__crt_stdio_output@@V?$positional_parameter_base@_WV?$string_output_adapter@_W@__crt_stdio_output@@@2@@__crt_stdio_output@@AEAA_NXZ@PEAU1?1??234@AEAA_NXZ@@?$positional_parameter_base@_WV?$string_output_adapter@_W@__crt_stdio_output@@@__crt_stdio_output@@IEAA_NAEAPEAUansi_string@?1??type_case_Z@?$output_processor@_WV?$string_output_adapter@_W@__crt_stdio_output@@V?$positional_parameter_base@_WV?$string_output_adapter@_W@__crt_stdio_output@@@2@@1@AEAA_NXZ@@Z 0000000140011748 f i libucrt:output.obj
 0001:00010854       ??$extract_argument_from_va_list@PEAUansi_string@?1??type_case_Z@?$output_processor@_WV?$string_output_adapter@_W@__crt_stdio_output@@V?$positional_parameter_base@_WV?$string_output_adapter@_W@__crt_stdio_output@@@2@@__crt_stdio_output@@AEAA_NXZ@PEAU1?1??234@AEAA_NXZ@@?$standard_base@_WV?$string_output_adapter@_W@__crt_stdio_output@@@__crt_stdio_output@@IEAA_NAEAPEAUansi_string@?1??type_case_Z@?$output_processor@_WV?$string_output_adapter@_W@__crt_stdio_output@@V?$positional_parameter_base@_WV?$string_output_adapter@_W@__crt_stdio_output@@@2@@1@AEAA_NXZ@@Z 0000000140011854 f i libucrt:output.obj
 0001:0001086c       ??$extract_argument_from_va_list@PEAUansi_string@?1??type_case_Z@?$output_processor@_WV?$string_output_adapter@_W@__crt_stdio_output@@V?$standard_base@_WV?$string_output_adapter@_W@__crt_stdio_output@@@2@@__crt_stdio_output@@AEAA_NXZ@PEAU1?1??234@AEAA_NXZ@@?$standard_base@_WV?$string_output_adapter@_W@__crt_stdio_output@@@__crt_stdio_output@@IEAA_NAEAPEAUansi_string@?1??type_case_Z@?$output_processor@_WV?$string_output_adapter@_W@__crt_stdio_output@@V?$standard_base@_WV?$string_output_adapter@_W@__crt_stdio_output@@@2@@1@AEAA_NXZ@@Z 000000014001186c f i libucrt:output.obj
 0001:00010884       ??$extract_argument_from_va_list@PEAXPEAX@?$positional_parameter_base@DV?$stream_output_adapter@D@__crt_stdio_output@@@__crt_stdio_output@@IEAA_NAEAPEAX@Z 0000000140011884 f i libucrt:output.obj
 0001:0001098c       ??$extract_argument_from_va_list@PEAXPEAX@?$positional_parameter_base@DV?$string_output_adapter@D@__crt_stdio_output@@@__crt_stdio_output@@IEAA_NAEAPEAX@Z 000000014001198c f i libucrt:output.obj
 0001:00010a94       ??$extract_argument_from_va_list@PEAXPEAX@?$positional_parameter_base@_WV?$stream_output_adapter@_W@__crt_stdio_output@@@__crt_stdio_output@@IEAA_NAEAPEAX@Z 0000000140011a94 f i libucrt:output.obj
 0001:00010ba0       ??$extract_argument_from_va_list@PEAXPEAX@?$positional_parameter_base@_WV?$string_output_adapter@_W@__crt_stdio_output@@@__crt_stdio_output@@IEAA_NAEAPEAX@Z 0000000140011ba0 f i libucrt:output.obj
 0001:00010cac       ??$extract_argument_from_va_list@PEAXPEAX@?$standard_base@DV?$stream_output_adapter@D@__crt_stdio_output@@@__crt_stdio_output@@IEAA_NAEAPEAX@Z 0000000140011cac f i libucrt:output.obj
 0001:00010cc4       ??$extract_argument_from_va_list@PEAXPEAX@?$standard_base@DV?$string_output_adapter@D@__crt_stdio_output@@@__crt_stdio_output@@IEAA_NAEAPEAX@Z 0000000140011cc4 f i libucrt:output.obj
 0001:00010cdc       ??$extract_argument_from_va_list@PEAXPEAX@?$standard_base@_WV?$stream_output_adapter@_W@__crt_stdio_output@@@__crt_stdio_output@@IEAA_NAEAPEAX@Z 0000000140011cdc f i libucrt:output.obj
 0001:00010cf4       ??$extract_argument_from_va_list@PEAXPEAX@?$standard_base@_WV?$string_output_adapter@_W@__crt_stdio_output@@@__crt_stdio_output@@IEAA_NAEAPEAX@Z 0000000140011cf4 f i libucrt:output.obj
 0001:00010d0c       ??$extract_argument_from_va_list@U_CRT_DOUBLE@@U1@@?$positional_parameter_base@DV?$stream_output_adapter@D@__crt_stdio_output@@@__crt_stdio_output@@IEAA_NAEAU_CRT_DOUBLE@@@Z 0000000140011d0c f i libucrt:output.obj
 0001:00010e14       ??$extract_argument_from_va_list@U_CRT_DOUBLE@@U1@@?$positional_parameter_base@DV?$string_output_adapter@D@__crt_stdio_output@@@__crt_stdio_output@@IEAA_NAEAU_CRT_DOUBLE@@@Z 0000000140011e14 f i libucrt:output.obj
 0001:00010f1c       ??$extract_argument_from_va_list@U_CRT_DOUBLE@@U1@@?$positional_parameter_base@_WV?$stream_output_adapter@_W@__crt_stdio_output@@@__crt_stdio_output@@IEAA_NAEAU_CRT_DOUBLE@@@Z 0000000140011f1c f i libucrt:output.obj
 0001:00011028       ??$extract_argument_from_va_list@U_CRT_DOUBLE@@U1@@?$positional_parameter_base@_WV?$string_output_adapter@_W@__crt_stdio_output@@@__crt_stdio_output@@IEAA_NAEAU_CRT_DOUBLE@@@Z 0000000140012028 f i libucrt:output.obj
 0001:00011134       ??$extract_argument_from_va_list@U_CRT_DOUBLE@@U1@@?$standard_base@DV?$stream_output_adapter@D@__crt_stdio_output@@@__crt_stdio_output@@IEAA_NAEAU_CRT_DOUBLE@@@Z 0000000140012134 f i libucrt:output.obj
 0001:0001114c       ??$extract_argument_from_va_list@U_CRT_DOUBLE@@U1@@?$standard_base@DV?$string_output_adapter@D@__crt_stdio_output@@@__crt_stdio_output@@IEAA_NAEAU_CRT_DOUBLE@@@Z 000000014001214c f i libucrt:output.obj
 0001:00011164       ??$extract_argument_from_va_list@U_CRT_DOUBLE@@U1@@?$standard_base@_WV?$stream_output_adapter@_W@__crt_stdio_output@@@__crt_stdio_output@@IEAA_NAEAU_CRT_DOUBLE@@@Z 0000000140012164 f i libucrt:output.obj
 0001:0001117c       ??$extract_argument_from_va_list@U_CRT_DOUBLE@@U1@@?$standard_base@_WV?$string_output_adapter@_W@__crt_stdio_output@@@__crt_stdio_output@@IEAA_NAEAU_CRT_DOUBLE@@@Z 000000014001217c f i libucrt:output.obj
 0001:00011194       ??$extract_argument_from_va_list@_J_J@?$positional_parameter_base@DV?$stream_output_adapter@D@__crt_stdio_output@@@__crt_stdio_output@@IEAA_NAEA_J@Z 0000000140012194 f i libucrt:output.obj
 0001:0001129c       ??$extract_argument_from_va_list@_J_J@?$positional_parameter_base@DV?$string_output_adapter@D@__crt_stdio_output@@@__crt_stdio_output@@IEAA_NAEA_J@Z 000000014001229c f i libucrt:output.obj
 0001:000113a4       ??$extract_argument_from_va_list@_J_J@?$positional_parameter_base@_WV?$stream_output_adapter@_W@__crt_stdio_output@@@__crt_stdio_output@@IEAA_NAEA_J@Z 00000001400123a4 f i libucrt:output.obj
 0001:000114b0       ??$extract_argument_from_va_list@_J_J@?$positional_parameter_base@_WV?$string_output_adapter@_W@__crt_stdio_output@@@__crt_stdio_output@@IEAA_NAEA_J@Z 00000001400124b0 f i libucrt:output.obj
 0001:000115bc       ??$extract_argument_from_va_list@_J_J@?$standard_base@DV?$stream_output_adapter@D@__crt_stdio_output@@@__crt_stdio_output@@IEAA_NAEA_J@Z 00000001400125bc f i libucrt:output.obj
 0001:000115d4       ??$extract_argument_from_va_list@_J_J@?$standard_base@DV?$string_output_adapter@D@__crt_stdio_output@@@__crt_stdio_output@@IEAA_NAEA_J@Z 00000001400125d4 f i libucrt:output.obj
 0001:000115ec       ??$extract_argument_from_va_list@_J_J@?$standard_base@_WV?$stream_output_adapter@_W@__crt_stdio_output@@@__crt_stdio_output@@IEAA_NAEA_J@Z 00000001400125ec f i libucrt:output.obj
 0001:00011604       ??$extract_argument_from_va_list@_J_J@?$standard_base@_WV?$string_output_adapter@_W@__crt_stdio_output@@@__crt_stdio_output@@IEAA_NAEA_J@Z 0000000140012604 f i libucrt:output.obj
 0001:0001161c       ??$extract_argument_from_va_list@_K_J@?$positional_parameter_base@DV?$stream_output_adapter@D@__crt_stdio_output@@@__crt_stdio_output@@IEAA_NAEA_J@Z 000000014001261c f i libucrt:output.obj
 0001:00011724       ??$extract_argument_from_va_list@_K_J@?$positional_parameter_base@DV?$string_output_adapter@D@__crt_stdio_output@@@__crt_stdio_output@@IEAA_NAEA_J@Z 0000000140012724 f i libucrt:output.obj
 0001:0001182c       ??$extract_argument_from_va_list@_K_J@?$positional_parameter_base@_WV?$stream_output_adapter@_W@__crt_stdio_output@@@__crt_stdio_output@@IEAA_NAEA_J@Z 000000014001282c f i libucrt:output.obj
 0001:00011938       ??$extract_argument_from_va_list@_K_J@?$positional_parameter_base@_WV?$string_output_adapter@_W@__crt_stdio_output@@@__crt_stdio_output@@IEAA_NAEA_J@Z 0000000140012938 f i libucrt:output.obj
 0001:00011a44       ??$extract_argument_from_va_list@_K_J@?$standard_base@DV?$stream_output_adapter@D@__crt_stdio_output@@@__crt_stdio_output@@IEAA_NAEA_J@Z 0000000140012a44 f i libucrt:output.obj
 0001:00011a5c       ??$extract_argument_from_va_list@_K_J@?$standard_base@DV?$string_output_adapter@D@__crt_stdio_output@@@__crt_stdio_output@@IEAA_NAEA_J@Z 0000000140012a5c f i libucrt:output.obj
 0001:00011a74       ??$extract_argument_from_va_list@_K_J@?$standard_base@_WV?$stream_output_adapter@_W@__crt_stdio_output@@@__crt_stdio_output@@IEAA_NAEA_J@Z 0000000140012a74 f i libucrt:output.obj
 0001:00011a8c       ??$extract_argument_from_va_list@_K_J@?$standard_base@_WV?$string_output_adapter@_W@__crt_stdio_output@@@__crt_stdio_output@@IEAA_NAEA_J@Z 0000000140012a8c f i libucrt:output.obj
 0001:00011aa4       ??$extract_argument_from_va_list@_W_W@?$positional_parameter_base@DV?$stream_output_adapter@D@__crt_stdio_output@@@__crt_stdio_output@@IEAA_NAEA_W@Z 0000000140012aa4 f i libucrt:output.obj
 0001:00011bac       ??$extract_argument_from_va_list@_W_W@?$positional_parameter_base@DV?$string_output_adapter@D@__crt_stdio_output@@@__crt_stdio_output@@IEAA_NAEA_W@Z 0000000140012bac f i libucrt:output.obj
 0001:00011cb4       ??$extract_argument_from_va_list@_W_W@?$positional_parameter_base@_WV?$stream_output_adapter@_W@__crt_stdio_output@@@__crt_stdio_output@@IEAA_NAEA_W@Z 0000000140012cb4 f i libucrt:output.obj
 0001:00011dc0       ??$extract_argument_from_va_list@_W_W@?$positional_parameter_base@_WV?$string_output_adapter@_W@__crt_stdio_output@@@__crt_stdio_output@@IEAA_NAEA_W@Z 0000000140012dc0 f i libucrt:output.obj
 0001:00011ecc       ??$extract_argument_from_va_list@_W_W@?$standard_base@DV?$stream_output_adapter@D@__crt_stdio_output@@@__crt_stdio_output@@IEAA_NAEA_W@Z 0000000140012ecc f i libucrt:output.obj
 0001:00011ee4       ??$extract_argument_from_va_list@_W_W@?$standard_base@DV?$string_output_adapter@D@__crt_stdio_output@@@__crt_stdio_output@@IEAA_NAEA_W@Z 0000000140012ee4 f i libucrt:output.obj
 0001:00011efc       ??$extract_argument_from_va_list@_W_W@?$standard_base@_WV?$stream_output_adapter@_W@__crt_stdio_output@@@__crt_stdio_output@@IEAA_NAEA_W@Z 0000000140012efc f i libucrt:output.obj
 0001:00011f14       ??$extract_argument_from_va_list@_W_W@?$standard_base@_WV?$string_output_adapter@_W@__crt_stdio_output@@@__crt_stdio_output@@IEAA_NAEA_W@Z 0000000140012f14 f i libucrt:output.obj
 0001:00011f2c       ??$get_parameter_type@D@?$positional_parameter_base@DV?$stream_output_adapter@D@__crt_stdio_output@@@__crt_stdio_output@@CA?AW4parameter_type@01@PEAD@Z 0000000140012f2c f i libucrt:output.obj
 0001:00011f34       ??$get_parameter_type@D@?$positional_parameter_base@DV?$string_output_adapter@D@__crt_stdio_output@@@__crt_stdio_output@@CA?AW4parameter_type@01@PEAD@Z 0000000140012f34 f i libucrt:output.obj
 0001:00011f3c       ??$get_parameter_type@D@?$positional_parameter_base@_WV?$stream_output_adapter@_W@__crt_stdio_output@@@__crt_stdio_output@@CA?AW4parameter_type@01@PEAD@Z 0000000140012f3c f i libucrt:output.obj
 0001:00011f44       ??$get_parameter_type@D@?$positional_parameter_base@_WV?$string_output_adapter@_W@__crt_stdio_output@@@__crt_stdio_output@@CA?AW4parameter_type@01@PEAD@Z 0000000140012f44 f i libucrt:output.obj
 0001:00011f4c       ??$get_parameter_type@Uansi_string@?1??type_case_Z@?$output_processor@DV?$stream_output_adapter@D@__crt_stdio_output@@V?$positional_parameter_base@DV?$stream_output_adapter@D@__crt_stdio_output@@@2@@__crt_stdio_output@@AEAA_NXZ@@?$positional_parameter_base@DV?$stream_output_adapter@D@__crt_stdio_output@@@__crt_stdio_output@@CA?AW4parameter_type@01@PEAUansi_string@?1??type_case_Z@?$output_processor@DV?$stream_output_adapter@D@__crt_stdio_output@@V?$positional_parameter_base@DV?$stream_output_adapter@D@__crt_stdio_output@@@2@@1@AEAA_NXZ@@Z 0000000140012f4c f i libucrt:output.obj
 0001:00011f54       ??$get_parameter_type@Uansi_string@?1??type_case_Z@?$output_processor@DV?$string_output_adapter@D@__crt_stdio_output@@V?$positional_parameter_base@DV?$string_output_adapter@D@__crt_stdio_output@@@2@@__crt_stdio_output@@AEAA_NXZ@@?$positional_parameter_base@DV?$string_output_adapter@D@__crt_stdio_output@@@__crt_stdio_output@@CA?AW4parameter_type@01@PEAUansi_string@?1??type_case_Z@?$output_processor@DV?$string_output_adapter@D@__crt_stdio_output@@V?$positional_parameter_base@DV?$string_output_adapter@D@__crt_stdio_output@@@2@@1@AEAA_NXZ@@Z 0000000140012f54 f i libucrt:output.obj
 0001:00011f5c       ??$get_parameter_type@Uansi_string@?1??type_case_Z@?$output_processor@_WV?$stream_output_adapter@_W@__crt_stdio_output@@V?$positional_parameter_base@_WV?$stream_output_adapter@_W@__crt_stdio_output@@@2@@__crt_stdio_output@@AEAA_NXZ@@?$positional_parameter_base@_WV?$stream_output_adapter@_W@__crt_stdio_output@@@__crt_stdio_output@@CA?AW4parameter_type@01@PEAUansi_string@?1??type_case_Z@?$output_processor@_WV?$stream_output_adapter@_W@__crt_stdio_output@@V?$positional_parameter_base@_WV?$stream_output_adapter@_W@__crt_stdio_output@@@2@@1@AEAA_NXZ@@Z 0000000140012f5c f i libucrt:output.obj
 0001:00011f64       ??$get_parameter_type@Uansi_string@?1??type_case_Z@?$output_processor@_WV?$string_output_adapter@_W@__crt_stdio_output@@V?$positional_parameter_base@_WV?$string_output_adapter@_W@__crt_stdio_output@@@2@@__crt_stdio_output@@AEAA_NXZ@@?$positional_parameter_base@_WV?$string_output_adapter@_W@__crt_stdio_output@@@__crt_stdio_output@@CA?AW4parameter_type@01@PEAUansi_string@?1??type_case_Z@?$output_processor@_WV?$string_output_adapter@_W@__crt_stdio_output@@V?$positional_parameter_base@_WV?$string_output_adapter@_W@__crt_stdio_output@@@2@@1@AEAA_NXZ@@Z 0000000140012f64 f i libucrt:output.obj
 0001:00011f6c       ??$get_parameter_type@X@?$positional_parameter_base@DV?$stream_output_adapter@D@__crt_stdio_output@@@__crt_stdio_output@@CA?AW4parameter_type@01@PEAX@Z 0000000140012f6c f i libucrt:output.obj
 0001:00011f74       ??$get_parameter_type@X@?$positional_parameter_base@DV?$string_output_adapter@D@__crt_stdio_output@@@__crt_stdio_output@@CA?AW4parameter_type@01@PEAX@Z 0000000140012f74 f i libucrt:output.obj
 0001:00011f7c       ??$get_parameter_type@X@?$positional_parameter_base@_WV?$stream_output_adapter@_W@__crt_stdio_output@@@__crt_stdio_output@@CA?AW4parameter_type@01@PEAX@Z 0000000140012f7c f i libucrt:output.obj
 0001:00011f84       ??$get_parameter_type@X@?$positional_parameter_base@_WV?$string_output_adapter@_W@__crt_stdio_output@@@__crt_stdio_output@@CA?AW4parameter_type@01@PEAX@Z 0000000140012f84 f i libucrt:output.obj
 0001:00011f8c       ??$is_character_specifier@D@?$positional_parameter_base@DV?$stream_output_adapter@D@__crt_stdio_output@@@__crt_stdio_output@@CA_ND@Z 0000000140012f8c f i libucrt:output.obj
 0001:00011f98       ??$is_character_specifier@D@?$positional_parameter_base@DV?$string_output_adapter@D@__crt_stdio_output@@@__crt_stdio_output@@CA_ND@Z 0000000140012f98 f i libucrt:output.obj
 0001:00011fa4       ??$is_character_specifier@_W@?$positional_parameter_base@_WV?$stream_output_adapter@_W@__crt_stdio_output@@@__crt_stdio_output@@CA_N_W@Z 0000000140012fa4 f i libucrt:output.obj
 0001:00011fb4       ??$is_character_specifier@_W@?$positional_parameter_base@_WV?$string_output_adapter@_W@__crt_stdio_output@@@__crt_stdio_output@@CA_N_W@Z 0000000140012fb4 f i libucrt:output.obj
 0001:00011fc4       ??$is_integral_specifier@D@?$positional_parameter_base@DV?$stream_output_adapter@D@__crt_stdio_output@@@__crt_stdio_output@@CA_ND@Z 0000000140012fc4 f i libucrt:output.obj
 0001:00011fe8       ??$is_integral_specifier@D@?$positional_parameter_base@DV?$string_output_adapter@D@__crt_stdio_output@@@__crt_stdio_output@@CA_ND@Z 0000000140012fe8 f i libucrt:output.obj
 0001:0001200c       ??$is_integral_specifier@_W@?$positional_parameter_base@_WV?$stream_output_adapter@_W@__crt_stdio_output@@@__crt_stdio_output@@CA_N_W@Z 000000014001300c f i libucrt:output.obj
 0001:00012034       ??$is_integral_specifier@_W@?$positional_parameter_base@_WV?$string_output_adapter@_W@__crt_stdio_output@@@__crt_stdio_output@@CA_N_W@Z 0000000140013034 f i libucrt:output.obj
 0001:0001205c       ??$is_overflow_condition@K@__crt_strtox@@YA_NIK@Z 000000014001305c f i libucrt:output.obj
 0001:00012084       ??$is_pointer_specifier@D@?$positional_parameter_base@DV?$stream_output_adapter@D@__crt_stdio_output@@@__crt_stdio_output@@CA_ND@Z 0000000140013084 f i libucrt:output.obj
 0001:0001208c       ??$is_pointer_specifier@D@?$positional_parameter_base@DV?$string_output_adapter@D@__crt_stdio_output@@@__crt_stdio_output@@CA_ND@Z 000000014001308c f i libucrt:output.obj
 0001:00012094       ??$is_pointer_specifier@_W@?$positional_parameter_base@_WV?$stream_output_adapter@_W@__crt_stdio_output@@@__crt_stdio_output@@CA_N_W@Z 0000000140013094 f i libucrt:output.obj
 0001:0001209c       ??$is_pointer_specifier@_W@?$positional_parameter_base@_WV?$string_output_adapter@_W@__crt_stdio_output@@@__crt_stdio_output@@CA_N_W@Z 000000014001309c f i libucrt:output.obj
 0001:000120a4       ??$is_string_specifier@D@?$positional_parameter_base@DV?$stream_output_adapter@D@__crt_stdio_output@@@__crt_stdio_output@@CA_ND@Z 00000001400130a4 f i libucrt:output.obj
 0001:000120b0       ??$is_string_specifier@D@?$positional_parameter_base@DV?$string_output_adapter@D@__crt_stdio_output@@@__crt_stdio_output@@CA_ND@Z 00000001400130b0 f i libucrt:output.obj
 0001:000120bc       ??$is_string_specifier@_W@?$positional_parameter_base@_WV?$stream_output_adapter@_W@__crt_stdio_output@@@__crt_stdio_output@@CA_N_W@Z 00000001400130bc f i libucrt:output.obj
 0001:000120cc       ??$is_string_specifier@_W@?$positional_parameter_base@_WV?$string_output_adapter@_W@__crt_stdio_output@@@__crt_stdio_output@@CA_N_W@Z 00000001400130cc f i libucrt:output.obj
 0001:000120dc       ??$is_wide_character_specifier@D@__crt_stdio_output@@YA_N_KDW4length_modifier@0@@Z 00000001400130dc f i libucrt:output.obj
 0001:00012104       ??$is_wide_character_specifier@_W@__crt_stdio_output@@YA_N_K_WW4length_modifier@0@@Z 0000000140013104 f i libucrt:output.obj
 0001:00012144       ??$make_c_string_character_source@DPEAPEAD@__crt_strtox@@YA?AV?$c_string_character_source@D@0@QEBDQEAPEAD@Z 0000000140013144 f i libucrt:output.obj
 0001:00012158       ??$make_c_string_character_source@_WPEAPEA_W@__crt_strtox@@YA?AV?$c_string_character_source@_W@0@QEB_WQEAPEA_W@Z 0000000140013158 f i libucrt:output.obj
 0001:0001216c       ??$parse_integer@KV?$c_string_character_source@D@__crt_strtox@@$0A@@__crt_strtox@@YAKAEAV__crt_cached_ptd_host@@V?$c_string_character_source@D@0@H_N@Z 000000014001316c f i libucrt:output.obj
 0001:00012420       ??$parse_integer@KV?$c_string_character_source@_W@__crt_strtox@@$0A@@__crt_strtox@@YAKAEAV__crt_cached_ptd_host@@V?$c_string_character_source@_W@0@H_N@Z 0000000140013420 f i libucrt:output.obj
 0001:00012b98       ??$peek_va_arg@C@__crt_stdio_output@@YACPEAD@Z 0000000140013b98 f i libucrt:output.obj
 0001:00012b9c       ??$peek_va_arg@E@__crt_stdio_output@@YAEPEAD@Z 0000000140013b9c f i libucrt:output.obj
 0001:00012ba0       ??$peek_va_arg@F@__crt_stdio_output@@YAFPEAD@Z 0000000140013ba0 f i libucrt:output.obj
 0001:00012ba4       ??$peek_va_arg@G@__crt_stdio_output@@YAGPEAD@Z 0000000140013ba4 f i libucrt:output.obj
 0001:00012ba8       ??$peek_va_arg@H@__crt_stdio_output@@YAHPEAD@Z 0000000140013ba8 f i libucrt:output.obj
 0001:00012bac       ??$peek_va_arg@I@__crt_stdio_output@@YAIPEAD@Z 0000000140013bac f i libucrt:output.obj
 0001:00012bb0       ??$peek_va_arg@PEAD@__crt_stdio_output@@YAPEADPEAD@Z 0000000140013bb0 f i libucrt:output.obj
 0001:00012bb4       ??$peek_va_arg@PEAUansi_string@?1??type_case_Z@?$output_processor@DV?$stream_output_adapter@D@__crt_stdio_output@@V?$positional_parameter_base@DV?$stream_output_adapter@D@__crt_stdio_output@@@2@@__crt_stdio_output@@AEAA_NXZ@@__crt_stdio_output@@YAPEAUansi_string@?1??type_case_Z@?$output_processor@DV?$stream_output_adapter@D@__crt_stdio_output@@V?$positional_parameter_base@DV?$stream_output_adapter@D@__crt_stdio_output@@@2@@0@AEAA_NXZ@PEAD@Z 0000000140013bb4 f i libucrt:output.obj
 0001:00012bb8       ??$peek_va_arg@PEAUansi_string@?1??type_case_Z@?$output_processor@DV?$string_output_adapter@D@__crt_stdio_output@@V?$positional_parameter_base@DV?$string_output_adapter@D@__crt_stdio_output@@@2@@__crt_stdio_output@@AEAA_NXZ@@__crt_stdio_output@@YAPEAUansi_string@?1??type_case_Z@?$output_processor@DV?$string_output_adapter@D@__crt_stdio_output@@V?$positional_parameter_base@DV?$string_output_adapter@D@__crt_stdio_output@@@2@@0@AEAA_NXZ@PEAD@Z 0000000140013bb8 f i libucrt:output.obj
 0001:00012bbc       ??$peek_va_arg@PEAUansi_string@?1??type_case_Z@?$output_processor@_WV?$stream_output_adapter@_W@__crt_stdio_output@@V?$positional_parameter_base@_WV?$stream_output_adapter@_W@__crt_stdio_output@@@2@@__crt_stdio_output@@AEAA_NXZ@@__crt_stdio_output@@YAPEAUansi_string@?1??type_case_Z@?$output_processor@_WV?$stream_output_adapter@_W@__crt_stdio_output@@V?$positional_parameter_base@_WV?$stream_output_adapter@_W@__crt_stdio_output@@@2@@0@AEAA_NXZ@PEAD@Z 0000000140013bbc f i libucrt:output.obj
 0001:00012bc0       ??$peek_va_arg@PEAUansi_string@?1??type_case_Z@?$output_processor@_WV?$string_output_adapter@_W@__crt_stdio_output@@V?$positional_parameter_base@_WV?$string_output_adapter@_W@__crt_stdio_output@@@2@@__crt_stdio_output@@AEAA_NXZ@@__crt_stdio_output@@YAPEAUansi_string@?1??type_case_Z@?$output_processor@_WV?$string_output_adapter@_W@__crt_stdio_output@@V?$positional_parameter_base@_WV?$string_output_adapter@_W@__crt_stdio_output@@@2@@0@AEAA_NXZ@PEAD@Z 0000000140013bc0 f i libucrt:output.obj
 0001:00012bc4       ??$peek_va_arg@PEAX@__crt_stdio_output@@YAPEAXPEAD@Z 0000000140013bc4 f i libucrt:output.obj
 0001:00012bc8       ??$peek_va_arg@U_CRT_DOUBLE@@@__crt_stdio_output@@YA?AU_CRT_DOUBLE@@PEAD@Z 0000000140013bc8 f i libucrt:output.obj
 0001:00012bcc       ??$peek_va_arg@_J@__crt_stdio_output@@YA_JPEAD@Z 0000000140013bcc f i libucrt:output.obj
 0001:00012bd0       ??$peek_va_arg@_K@__crt_stdio_output@@YA_KPEAD@Z 0000000140013bd0 f i libucrt:output.obj
 0001:00012bd4       ??$peek_va_arg@_W@__crt_stdio_output@@YA_WPEAD@Z 0000000140013bd4 f i libucrt:output.obj
 0001:00012bd8       ??$puttc_nolock_internal@AEBDPEAU_iobuf@@AEAV__crt_cached_ptd_host@@@?$__crt_char_traits@D@@SAHAEBD$$QEAPEAU_iobuf@@AEAV__crt_cached_ptd_host@@@Z 0000000140013bd8 f i libucrt:output.obj
 0001:00012be4       ??$puttc_nolock_internal@AEB_WPEAU_iobuf@@AEAV__crt_cached_ptd_host@@@?$__crt_char_traits@_W@@SAGAEB_W$$QEAPEAU_iobuf@@AEAV__crt_cached_ptd_host@@@Z 0000000140013be4 f i libucrt:output.obj
 0001:00012bf0       ??$read_va_arg@C@__crt_stdio_output@@YACAEAPEAD@Z 0000000140013bf0 f i libucrt:output.obj
 0001:00012c00       ??$read_va_arg@E@__crt_stdio_output@@YAEAEAPEAD@Z 0000000140013c00 f i libucrt:output.obj
 0001:00012c10       ??$read_va_arg@F@__crt_stdio_output@@YAFAEAPEAD@Z 0000000140013c10 f i libucrt:output.obj
 0001:00012c20       ??$read_va_arg@G@__crt_stdio_output@@YAGAEAPEAD@Z 0000000140013c20 f i libucrt:output.obj
 0001:00012c30       ??$read_va_arg@H@__crt_stdio_output@@YAHAEAPEAD@Z 0000000140013c30 f i libucrt:output.obj
 0001:00012c40       ??$read_va_arg@I@__crt_stdio_output@@YAIAEAPEAD@Z 0000000140013c40 f i libucrt:output.obj
 0001:00012c50       ??$read_va_arg@PEAD@__crt_stdio_output@@YAPEADAEAPEAD@Z 0000000140013c50 f i libucrt:output.obj
 0001:00012c60       ??$read_va_arg@PEAUansi_string@?1??type_case_Z@?$output_processor@DV?$stream_output_adapter@D@__crt_stdio_output@@V?$format_validation_base@DV?$stream_output_adapter@D@__crt_stdio_output@@@2@@__crt_stdio_output@@AEAA_NXZ@@__crt_stdio_output@@YAPEAUansi_string@?1??type_case_Z@?$output_processor@DV?$stream_output_adapter@D@__crt_stdio_output@@V?$format_validation_base@DV?$stream_output_adapter@D@__crt_stdio_output@@@2@@0@AEAA_NXZ@AEAPEAD@Z 0000000140013c60 f i libucrt:output.obj
 0001:00012c70       ??$read_va_arg@PEAUansi_string@?1??type_case_Z@?$output_processor@DV?$stream_output_adapter@D@__crt_stdio_output@@V?$positional_parameter_base@DV?$stream_output_adapter@D@__crt_stdio_output@@@2@@__crt_stdio_output@@AEAA_NXZ@@__crt_stdio_output@@YAPEAUansi_string@?1??type_case_Z@?$output_processor@DV?$stream_output_adapter@D@__crt_stdio_output@@V?$positional_parameter_base@DV?$stream_output_adapter@D@__crt_stdio_output@@@2@@0@AEAA_NXZ@AEAPEAD@Z 0000000140013c70 f i libucrt:output.obj
 0001:00012c80       ??$read_va_arg@PEAUansi_string@?1??type_case_Z@?$output_processor@DV?$stream_output_adapter@D@__crt_stdio_output@@V?$standard_base@DV?$stream_output_adapter@D@__crt_stdio_output@@@2@@__crt_stdio_output@@AEAA_NXZ@@__crt_stdio_output@@YAPEAUansi_string@?1??type_case_Z@?$output_processor@DV?$stream_output_adapter@D@__crt_stdio_output@@V?$standard_base@DV?$stream_output_adapter@D@__crt_stdio_output@@@2@@0@AEAA_NXZ@AEAPEAD@Z 0000000140013c80 f i libucrt:output.obj
 0001:00012c90       ??$read_va_arg@PEAUansi_string@?1??type_case_Z@?$output_processor@DV?$string_output_adapter@D@__crt_stdio_output@@V?$format_validation_base@DV?$string_output_adapter@D@__crt_stdio_output@@@2@@__crt_stdio_output@@AEAA_NXZ@@__crt_stdio_output@@YAPEAUansi_string@?1??type_case_Z@?$output_processor@DV?$string_output_adapter@D@__crt_stdio_output@@V?$format_validation_base@DV?$string_output_adapter@D@__crt_stdio_output@@@2@@0@AEAA_NXZ@AEAPEAD@Z 0000000140013c90 f i libucrt:output.obj
 0001:00012ca0       ??$read_va_arg@PEAUansi_string@?1??type_case_Z@?$output_processor@DV?$string_output_adapter@D@__crt_stdio_output@@V?$positional_parameter_base@DV?$string_output_adapter@D@__crt_stdio_output@@@2@@__crt_stdio_output@@AEAA_NXZ@@__crt_stdio_output@@YAPEAUansi_string@?1??type_case_Z@?$output_processor@DV?$string_output_adapter@D@__crt_stdio_output@@V?$positional_parameter_base@DV?$string_output_adapter@D@__crt_stdio_output@@@2@@0@AEAA_NXZ@AEAPEAD@Z 0000000140013ca0 f i libucrt:output.obj
 0001:00012cb0       ??$read_va_arg@PEAUansi_string@?1??type_case_Z@?$output_processor@DV?$string_output_adapter@D@__crt_stdio_output@@V?$standard_base@DV?$string_output_adapter@D@__crt_stdio_output@@@2@@__crt_stdio_output@@AEAA_NXZ@@__crt_stdio_output@@YAPEAUansi_string@?1??type_case_Z@?$output_processor@DV?$string_output_adapter@D@__crt_stdio_output@@V?$standard_base@DV?$string_output_adapter@D@__crt_stdio_output@@@2@@0@AEAA_NXZ@AEAPEAD@Z 0000000140013cb0 f i libucrt:output.obj
 0001:00012cc0       ??$read_va_arg@PEAUansi_string@?1??type_case_Z@?$output_processor@_WV?$stream_output_adapter@_W@__crt_stdio_output@@V?$format_validation_base@_WV?$stream_output_adapter@_W@__crt_stdio_output@@@2@@__crt_stdio_output@@AEAA_NXZ@@__crt_stdio_output@@YAPEAUansi_string@?1??type_case_Z@?$output_processor@_WV?$stream_output_adapter@_W@__crt_stdio_output@@V?$format_validation_base@_WV?$stream_output_adapter@_W@__crt_stdio_output@@@2@@0@AEAA_NXZ@AEAPEAD@Z 0000000140013cc0 f i libucrt:output.obj
 0001:00012cd0       ??$read_va_arg@PEAUansi_string@?1??type_case_Z@?$output_processor@_WV?$stream_output_adapter@_W@__crt_stdio_output@@V?$positional_parameter_base@_WV?$stream_output_adapter@_W@__crt_stdio_output@@@2@@__crt_stdio_output@@AEAA_NXZ@@__crt_stdio_output@@YAPEAUansi_string@?1??type_case_Z@?$output_processor@_WV?$stream_output_adapter@_W@__crt_stdio_output@@V?$positional_parameter_base@_WV?$stream_output_adapter@_W@__crt_stdio_output@@@2@@0@AEAA_NXZ@AEAPEAD@Z 0000000140013cd0 f i libucrt:output.obj
 0001:00012ce0       ??$read_va_arg@PEAUansi_string@?1??type_case_Z@?$output_processor@_WV?$stream_output_adapter@_W@__crt_stdio_output@@V?$standard_base@_WV?$stream_output_adapter@_W@__crt_stdio_output@@@2@@__crt_stdio_output@@AEAA_NXZ@@__crt_stdio_output@@YAPEAUansi_string@?1??type_case_Z@?$output_processor@_WV?$stream_output_adapter@_W@__crt_stdio_output@@V?$standard_base@_WV?$stream_output_adapter@_W@__crt_stdio_output@@@2@@0@AEAA_NXZ@AEAPEAD@Z 0000000140013ce0 f i libucrt:output.obj
 0001:00012cf0       ??$read_va_arg@PEAUansi_string@?1??type_case_Z@?$output_processor@_WV?$string_output_adapter@_W@__crt_stdio_output@@V?$format_validation_base@_WV?$string_output_adapter@_W@__crt_stdio_output@@@2@@__crt_stdio_output@@AEAA_NXZ@@__crt_stdio_output@@YAPEAUansi_string@?1??type_case_Z@?$output_processor@_WV?$string_output_adapter@_W@__crt_stdio_output@@V?$format_validation_base@_WV?$string_output_adapter@_W@__crt_stdio_output@@@2@@0@AEAA_NXZ@AEAPEAD@Z 0000000140013cf0 f i libucrt:output.obj
 0001:00012d00       ??$read_va_arg@PEAUansi_string@?1??type_case_Z@?$output_processor@_WV?$string_output_adapter@_W@__crt_stdio_output@@V?$positional_parameter_base@_WV?$string_output_adapter@_W@__crt_stdio_output@@@2@@__crt_stdio_output@@AEAA_NXZ@@__crt_stdio_output@@YAPEAUansi_string@?1??type_case_Z@?$output_processor@_WV?$string_output_adapter@_W@__crt_stdio_output@@V?$positional_parameter_base@_WV?$string_output_adapter@_W@__crt_stdio_output@@@2@@0@AEAA_NXZ@AEAPEAD@Z 0000000140013d00 f i libucrt:output.obj
 0001:00012d10       ??$read_va_arg@PEAUansi_string@?1??type_case_Z@?$output_processor@_WV?$string_output_adapter@_W@__crt_stdio_output@@V?$standard_base@_WV?$string_output_adapter@_W@__crt_stdio_output@@@2@@__crt_stdio_output@@AEAA_NXZ@@__crt_stdio_output@@YAPEAUansi_string@?1??type_case_Z@?$output_processor@_WV?$string_output_adapter@_W@__crt_stdio_output@@V?$standard_base@_WV?$string_output_adapter@_W@__crt_stdio_output@@@2@@0@AEAA_NXZ@AEAPEAD@Z 0000000140013d10 f i libucrt:output.obj
 0001:00012d20       ??$read_va_arg@PEAX@__crt_stdio_output@@YAPEAXAEAPEAD@Z 0000000140013d20 f i libucrt:output.obj
 0001:00012d30       ??$read_va_arg@U_CRT_DOUBLE@@@__crt_stdio_output@@YA?AU_CRT_DOUBLE@@AEAPEAD@Z 0000000140013d30 f i libucrt:output.obj
 0001:00012d40       ??$read_va_arg@_J@__crt_stdio_output@@YA_JAEAPEAD@Z 0000000140013d40 f i libucrt:output.obj
 0001:00012d50       ??$read_va_arg@_K@__crt_stdio_output@@YA_KAEAPEAD@Z 0000000140013d50 f i libucrt:output.obj
 0001:00012d60       ??$read_va_arg@_W@__crt_stdio_output@@YA_WAEAPEAD@Z 0000000140013d60 f i libucrt:output.obj
 0001:00012d70       ??$scratch_count@D@formatting_buffer@__crt_stdio_output@@QEBA_KXZ 0000000140013d70 f i libucrt:output.obj
 0001:00012d8c       ??$scratch_data@D@formatting_buffer@__crt_stdio_output@@QEAAPEADXZ 0000000140013d8c f i libucrt:output.obj
 0001:00012db0       ??$type_case_integer@$07@?$output_processor@DV?$stream_output_adapter@D@__crt_stdio_output@@V?$format_validation_base@DV?$stream_output_adapter@D@__crt_stdio_output@@@2@@__crt_stdio_output@@AEAA_N_N@Z 0000000140013db0 f i libucrt:output.obj
 0001:00012fb4       ??$type_case_integer@$07@?$output_processor@DV?$stream_output_adapter@D@__crt_stdio_output@@V?$positional_parameter_base@DV?$stream_output_adapter@D@__crt_stdio_output@@@2@@__crt_stdio_output@@AEAA_N_N@Z 0000000140013fb4 f i libucrt:output.obj
 0001:000131e0       ??$type_case_integer@$07@?$output_processor@DV?$stream_output_adapter@D@__crt_stdio_output@@V?$standard_base@DV?$stream_output_adapter@D@__crt_stdio_output@@@2@@__crt_stdio_output@@AEAA_N_N@Z 00000001400141e0 f i libucrt:output.obj
 0001:000133e4       ??$type_case_integer@$07@?$output_processor@DV?$string_output_adapter@D@__crt_stdio_output@@V?$format_validation_base@DV?$string_output_adapter@D@__crt_stdio_output@@@2@@__crt_stdio_output@@AEAA_N_N@Z 00000001400143e4 f i libucrt:output.obj
 0001:000135e8       ??$type_case_integer@$07@?$output_processor@DV?$string_output_adapter@D@__crt_stdio_output@@V?$positional_parameter_base@DV?$string_output_adapter@D@__crt_stdio_output@@@2@@__crt_stdio_output@@AEAA_N_N@Z 00000001400145e8 f i libucrt:output.obj
 0001:00013814       ??$type_case_integer@$07@?$output_processor@DV?$string_output_adapter@D@__crt_stdio_output@@V?$standard_base@DV?$string_output_adapter@D@__crt_stdio_output@@@2@@__crt_stdio_output@@AEAA_N_N@Z 0000000140014814 f i libucrt:output.obj
 0001:00013a18       ??$type_case_integer@$07@?$output_processor@_WV?$stream_output_adapter@_W@__crt_stdio_output@@V?$format_validation_base@_WV?$stream_output_adapter@_W@__crt_stdio_output@@@2@@__crt_stdio_output@@AEAA_N_N@Z 0000000140014a18 f i libucrt:output.obj
 0001:00013c24       ??$type_case_integer@$07@?$output_processor@_WV?$stream_output_adapter@_W@__crt_stdio_output@@V?$positional_parameter_base@_WV?$stream_output_adapter@_W@__crt_stdio_output@@@2@@__crt_stdio_output@@AEAA_N_N@Z 0000000140014c24 f i libucrt:output.obj
 0001:00013e58       ??$type_case_integer@$07@?$output_processor@_WV?$stream_output_adapter@_W@__crt_stdio_output@@V?$standard_base@_WV?$stream_output_adapter@_W@__crt_stdio_output@@@2@@__crt_stdio_output@@AEAA_N_N@Z 0000000140014e58 f i libucrt:output.obj
 0001:00014064       ??$type_case_integer@$07@?$output_processor@_WV?$string_output_adapter@_W@__crt_stdio_output@@V?$format_validation_base@_WV?$string_output_adapter@_W@__crt_stdio_output@@@2@@__crt_stdio_output@@AEAA_N_N@Z 0000000140015064 f i libucrt:output.obj
 0001:00014270       ??$type_case_integer@$07@?$output_processor@_WV?$string_output_adapter@_W@__crt_stdio_output@@V?$positional_parameter_base@_WV?$string_output_adapter@_W@__crt_stdio_output@@@2@@__crt_stdio_output@@AEAA_N_N@Z 0000000140015270 f i libucrt:output.obj
 0001:000144a4       ??$type_case_integer@$07@?$output_processor@_WV?$string_output_adapter@_W@__crt_stdio_output@@V?$standard_base@_WV?$string_output_adapter@_W@__crt_stdio_output@@@2@@__crt_stdio_output@@AEAA_N_N@Z 00000001400154a4 f i libucrt:output.obj
 0001:000146b0       ??$type_case_integer@$09@?$output_processor@DV?$stream_output_adapter@D@__crt_stdio_output@@V?$format_validation_base@DV?$stream_output_adapter@D@__crt_stdio_output@@@2@@__crt_stdio_output@@AEAA_N_N@Z 00000001400156b0 f i libucrt:output.obj
 0001:000148b4       ??$type_case_integer@$09@?$output_processor@DV?$stream_output_adapter@D@__crt_stdio_output@@V?$positional_parameter_base@DV?$stream_output_adapter@D@__crt_stdio_output@@@2@@__crt_stdio_output@@AEAA_N_N@Z 00000001400158b4 f i libucrt:output.obj
 0001:00014ae0       ??$type_case_integer@$09@?$output_processor@DV?$stream_output_adapter@D@__crt_stdio_output@@V?$standard_base@DV?$stream_output_adapter@D@__crt_stdio_output@@@2@@__crt_stdio_output@@AEAA_N_N@Z 0000000140015ae0 f i libucrt:output.obj
 0001:00014ce4       ??$type_case_integer@$09@?$output_processor@DV?$string_output_adapter@D@__crt_stdio_output@@V?$format_validation_base@DV?$string_output_adapter@D@__crt_stdio_output@@@2@@__crt_stdio_output@@AEAA_N_N@Z 0000000140015ce4 f i libucrt:output.obj
 0001:00014ee8       ??$type_case_integer@$09@?$output_processor@DV?$string_output_adapter@D@__crt_stdio_output@@V?$positional_parameter_base@DV?$string_output_adapter@D@__crt_stdio_output@@@2@@__crt_stdio_output@@AEAA_N_N@Z 0000000140015ee8 f i libucrt:output.obj
 0001:00015114       ??$type_case_integer@$09@?$output_processor@DV?$string_output_adapter@D@__crt_stdio_output@@V?$standard_base@DV?$string_output_adapter@D@__crt_stdio_output@@@2@@__crt_stdio_output@@AEAA_N_N@Z 0000000140016114 f i libucrt:output.obj
 0001:00015318       ??$type_case_integer@$09@?$output_processor@_WV?$stream_output_adapter@_W@__crt_stdio_output@@V?$format_validation_base@_WV?$stream_output_adapter@_W@__crt_stdio_output@@@2@@__crt_stdio_output@@AEAA_N_N@Z 0000000140016318 f i libucrt:output.obj
 0001:00015524       ??$type_case_integer@$09@?$output_processor@_WV?$stream_output_adapter@_W@__crt_stdio_output@@V?$positional_parameter_base@_WV?$stream_output_adapter@_W@__crt_stdio_output@@@2@@__crt_stdio_output@@AEAA_N_N@Z 0000000140016524 f i libucrt:output.obj
 0001:00015758       ??$type_case_integer@$09@?$output_processor@_WV?$stream_output_adapter@_W@__crt_stdio_output@@V?$standard_base@_WV?$stream_output_adapter@_W@__crt_stdio_output@@@2@@__crt_stdio_output@@AEAA_N_N@Z 0000000140016758 f i libucrt:output.obj
 0001:00015964       ??$type_case_integer@$09@?$output_processor@_WV?$string_output_adapter@_W@__crt_stdio_output@@V?$format_validation_base@_WV?$string_output_adapter@_W@__crt_stdio_output@@@2@@__crt_stdio_output@@AEAA_N_N@Z 0000000140016964 f i libucrt:output.obj
 0001:00015b70       ??$type_case_integer@$09@?$output_processor@_WV?$string_output_adapter@_W@__crt_stdio_output@@V?$positional_parameter_base@_WV?$string_output_adapter@_W@__crt_stdio_output@@@2@@__crt_stdio_output@@AEAA_N_N@Z 0000000140016b70 f i libucrt:output.obj
 0001:00015da4       ??$type_case_integer@$09@?$output_processor@_WV?$string_output_adapter@_W@__crt_stdio_output@@V?$standard_base@_WV?$string_output_adapter@_W@__crt_stdio_output@@@2@@__crt_stdio_output@@AEAA_N_N@Z 0000000140016da4 f i libucrt:output.obj
 0001:00015fb0       ??$type_case_integer@$0BA@@?$output_processor@DV?$stream_output_adapter@D@__crt_stdio_output@@V?$format_validation_base@DV?$stream_output_adapter@D@__crt_stdio_output@@@2@@__crt_stdio_output@@AEAA_N_N@Z 0000000140016fb0 f i libucrt:output.obj
 0001:000161b4       ??$type_case_integer@$0BA@@?$output_processor@DV?$stream_output_adapter@D@__crt_stdio_output@@V?$positional_parameter_base@DV?$stream_output_adapter@D@__crt_stdio_output@@@2@@__crt_stdio_output@@AEAA_N_N@Z 00000001400171b4 f i libucrt:output.obj
 0001:000163e0       ??$type_case_integer@$0BA@@?$output_processor@DV?$stream_output_adapter@D@__crt_stdio_output@@V?$standard_base@DV?$stream_output_adapter@D@__crt_stdio_output@@@2@@__crt_stdio_output@@AEAA_N_N@Z 00000001400173e0 f i libucrt:output.obj
 0001:000165e4       ??$type_case_integer@$0BA@@?$output_processor@DV?$string_output_adapter@D@__crt_stdio_output@@V?$format_validation_base@DV?$string_output_adapter@D@__crt_stdio_output@@@2@@__crt_stdio_output@@AEAA_N_N@Z 00000001400175e4 f i libucrt:output.obj
 0001:000167e8       ??$type_case_integer@$0BA@@?$output_processor@DV?$string_output_adapter@D@__crt_stdio_output@@V?$positional_parameter_base@DV?$string_output_adapter@D@__crt_stdio_output@@@2@@__crt_stdio_output@@AEAA_N_N@Z 00000001400177e8 f i libucrt:output.obj
 0001:00016a14       ??$type_case_integer@$0BA@@?$output_processor@DV?$string_output_adapter@D@__crt_stdio_output@@V?$standard_base@DV?$string_output_adapter@D@__crt_stdio_output@@@2@@__crt_stdio_output@@AEAA_N_N@Z 0000000140017a14 f i libucrt:output.obj
 0001:00016c18       ??$type_case_integer@$0BA@@?$output_processor@_WV?$stream_output_adapter@_W@__crt_stdio_output@@V?$format_validation_base@_WV?$stream_output_adapter@_W@__crt_stdio_output@@@2@@__crt_stdio_output@@AEAA_N_N@Z 0000000140017c18 f i libucrt:output.obj
 0001:00016e24       ??$type_case_integer@$0BA@@?$output_processor@_WV?$stream_output_adapter@_W@__crt_stdio_output@@V?$positional_parameter_base@_WV?$stream_output_adapter@_W@__crt_stdio_output@@@2@@__crt_stdio_output@@AEAA_N_N@Z 0000000140017e24 f i libucrt:output.obj
 0001:00017058       ??$type_case_integer@$0BA@@?$output_processor@_WV?$stream_output_adapter@_W@__crt_stdio_output@@V?$standard_base@_WV?$stream_output_adapter@_W@__crt_stdio_output@@@2@@__crt_stdio_output@@AEAA_N_N@Z 0000000140018058 f i libucrt:output.obj
 0001:00017264       ??$type_case_integer@$0BA@@?$output_processor@_WV?$string_output_adapter@_W@__crt_stdio_output@@V?$format_validation_base@_WV?$string_output_adapter@_W@__crt_stdio_output@@@2@@__crt_stdio_output@@AEAA_N_N@Z 0000000140018264 f i libucrt:output.obj
 0001:00017470       ??$type_case_integer@$0BA@@?$output_processor@_WV?$string_output_adapter@_W@__crt_stdio_output@@V?$positional_parameter_base@_WV?$string_output_adapter@_W@__crt_stdio_output@@@2@@__crt_stdio_output@@AEAA_N_N@Z 0000000140018470 f i libucrt:output.obj
 0001:000176a4       ??$type_case_integer@$0BA@@?$output_processor@_WV?$string_output_adapter@_W@__crt_stdio_output@@V?$standard_base@_WV?$string_output_adapter@_W@__crt_stdio_output@@@2@@__crt_stdio_output@@AEAA_N_N@Z 00000001400186a4 f i libucrt:output.obj
 0001:000178b0       ??$type_case_integer_parse_into_buffer@I$07@?$output_processor@DV?$stream_output_adapter@D@__crt_stdio_output@@V?$format_validation_base@DV?$stream_output_adapter@D@__crt_stdio_output@@@2@@__crt_stdio_output@@AEAAXI_N@Z 00000001400188b0 f i libucrt:output.obj
 0001:00017920       ??$type_case_integer_parse_into_buffer@I$07@?$output_processor@DV?$stream_output_adapter@D@__crt_stdio_output@@V?$positional_parameter_base@DV?$stream_output_adapter@D@__crt_stdio_output@@@2@@__crt_stdio_output@@AEAAXI_N@Z 0000000140018920 f i libucrt:output.obj
 0001:00017990       ??$type_case_integer_parse_into_buffer@I$07@?$output_processor@DV?$stream_output_adapter@D@__crt_stdio_output@@V?$standard_base@DV?$stream_output_adapter@D@__crt_stdio_output@@@2@@__crt_stdio_output@@AEAAXI_N@Z 0000000140018990 f i libucrt:output.obj
 0001:00017a00       ??$type_case_integer_parse_into_buffer@I$07@?$output_processor@DV?$string_output_adapter@D@__crt_stdio_output@@V?$format_validation_base@DV?$string_output_adapter@D@__crt_stdio_output@@@2@@__crt_stdio_output@@AEAAXI_N@Z 0000000140018a00 f i libucrt:output.obj
 0001:00017a70       ??$type_case_integer_parse_into_buffer@I$07@?$output_processor@DV?$string_output_adapter@D@__crt_stdio_output@@V?$positional_parameter_base@DV?$string_output_adapter@D@__crt_stdio_output@@@2@@__crt_stdio_output@@AEAAXI_N@Z 0000000140018a70 f i libucrt:output.obj
 0001:00017ae0       ??$type_case_integer_parse_into_buffer@I$07@?$output_processor@DV?$string_output_adapter@D@__crt_stdio_output@@V?$standard_base@DV?$string_output_adapter@D@__crt_stdio_output@@@2@@__crt_stdio_output@@AEAAXI_N@Z 0000000140018ae0 f i libucrt:output.obj
 0001:00017b50       ??$type_case_integer_parse_into_buffer@I$07@?$output_processor@_WV?$stream_output_adapter@_W@__crt_stdio_output@@V?$format_validation_base@_WV?$stream_output_adapter@_W@__crt_stdio_output@@@2@@__crt_stdio_output@@AEAAXI_N@Z 0000000140018b50 f i libucrt:output.obj
 0001:00017bd4       ??$type_case_integer_parse_into_buffer@I$07@?$output_processor@_WV?$stream_output_adapter@_W@__crt_stdio_output@@V?$positional_parameter_base@_WV?$stream_output_adapter@_W@__crt_stdio_output@@@2@@__crt_stdio_output@@AEAAXI_N@Z 0000000140018bd4 f i libucrt:output.obj
 0001:00017c58       ??$type_case_integer_parse_into_buffer@I$07@?$output_processor@_WV?$stream_output_adapter@_W@__crt_stdio_output@@V?$standard_base@_WV?$stream_output_adapter@_W@__crt_stdio_output@@@2@@__crt_stdio_output@@AEAAXI_N@Z 0000000140018c58 f i libucrt:output.obj
 0001:00017cdc       ??$type_case_integer_parse_into_buffer@I$07@?$output_processor@_WV?$string_output_adapter@_W@__crt_stdio_output@@V?$format_validation_base@_WV?$string_output_adapter@_W@__crt_stdio_output@@@2@@__crt_stdio_output@@AEAAXI_N@Z 0000000140018cdc f i libucrt:output.obj
 0001:00017d60       ??$type_case_integer_parse_into_buffer@I$07@?$output_processor@_WV?$string_output_adapter@_W@__crt_stdio_output@@V?$positional_parameter_base@_WV?$string_output_adapter@_W@__crt_stdio_output@@@2@@__crt_stdio_output@@AEAAXI_N@Z 0000000140018d60 f i libucrt:output.obj
 0001:00017de4       ??$type_case_integer_parse_into_buffer@I$07@?$output_processor@_WV?$string_output_adapter@_W@__crt_stdio_output@@V?$standard_base@_WV?$string_output_adapter@_W@__crt_stdio_output@@@2@@__crt_stdio_output@@AEAAXI_N@Z 0000000140018de4 f i libucrt:output.obj
 0001:00017e68       ??$type_case_integer_parse_into_buffer@I$09@?$output_processor@DV?$stream_output_adapter@D@__crt_stdio_output@@V?$format_validation_base@DV?$stream_output_adapter@D@__crt_stdio_output@@@2@@__crt_stdio_output@@AEAAXI_N@Z 0000000140018e68 f i libucrt:output.obj
 0001:00017f14       ??$type_case_integer_parse_into_buffer@I$09@?$output_processor@DV?$stream_output_adapter@D@__crt_stdio_output@@V?$positional_parameter_base@DV?$stream_output_adapter@D@__crt_stdio_output@@@2@@__crt_stdio_output@@AEAAXI_N@Z 0000000140018f14 f i libucrt:output.obj
 0001:00017fc0       ??$type_case_integer_parse_into_buffer@I$09@?$output_processor@DV?$stream_output_adapter@D@__crt_stdio_output@@V?$standard_base@DV?$stream_output_adapter@D@__crt_stdio_output@@@2@@__crt_stdio_output@@AEAAXI_N@Z 0000000140018fc0 f i libucrt:output.obj
 0001:0001806c       ??$type_case_integer_parse_into_buffer@I$09@?$output_processor@DV?$string_output_adapter@D@__crt_stdio_output@@V?$format_validation_base@DV?$string_output_adapter@D@__crt_stdio_output@@@2@@__crt_stdio_output@@AEAAXI_N@Z 000000014001906c f i libucrt:output.obj
 0001:00018118       ??$type_case_integer_parse_into_buffer@I$09@?$output_processor@DV?$string_output_adapter@D@__crt_stdio_output@@V?$positional_parameter_base@DV?$string_output_adapter@D@__crt_stdio_output@@@2@@__crt_stdio_output@@AEAAXI_N@Z 0000000140019118 f i libucrt:output.obj
 0001:000181c4       ??$type_case_integer_parse_into_buffer@I$09@?$output_processor@DV?$string_output_adapter@D@__crt_stdio_output@@V?$standard_base@DV?$string_output_adapter@D@__crt_stdio_output@@@2@@__crt_stdio_output@@AEAAXI_N@Z 00000001400191c4 f i libucrt:output.obj
 0001:00018270       ??$type_case_integer_parse_into_buffer@I$09@?$output_processor@_WV?$stream_output_adapter@_W@__crt_stdio_output@@V?$format_validation_base@_WV?$stream_output_adapter@_W@__crt_stdio_output@@@2@@__crt_stdio_output@@AEAAXI_N@Z 0000000140019270 f i libucrt:output.obj
 0001:00018330       ??$type_case_integer_parse_into_buffer@I$09@?$output_processor@_WV?$stream_output_adapter@_W@__crt_stdio_output@@V?$positional_parameter_base@_WV?$stream_output_adapter@_W@__crt_stdio_output@@@2@@__crt_stdio_output@@AEAAXI_N@Z 0000000140019330 f i libucrt:output.obj
 0001:000183f0       ??$type_case_integer_parse_into_buffer@I$09@?$output_processor@_WV?$stream_output_adapter@_W@__crt_stdio_output@@V?$standard_base@_WV?$stream_output_adapter@_W@__crt_stdio_output@@@2@@__crt_stdio_output@@AEAAXI_N@Z 00000001400193f0 f i libucrt:output.obj
 0001:000184b0       ??$type_case_integer_parse_into_buffer@I$09@?$output_processor@_WV?$string_output_adapter@_W@__crt_stdio_output@@V?$format_validation_base@_WV?$string_output_adapter@_W@__crt_stdio_output@@@2@@__crt_stdio_output@@AEAAXI_N@Z 00000001400194b0 f i libucrt:output.obj
 0001:00018570       ??$type_case_integer_parse_into_buffer@I$09@?$output_processor@_WV?$string_output_adapter@_W@__crt_stdio_output@@V?$positional_parameter_base@_WV?$string_output_adapter@_W@__crt_stdio_output@@@2@@__crt_stdio_output@@AEAAXI_N@Z 0000000140019570 f i libucrt:output.obj
 0001:00018630       ??$type_case_integer_parse_into_buffer@I$09@?$output_processor@_WV?$string_output_adapter@_W@__crt_stdio_output@@V?$standard_base@_WV?$string_output_adapter@_W@__crt_stdio_output@@@2@@__crt_stdio_output@@AEAAXI_N@Z 0000000140019630 f i libucrt:output.obj
 0001:000186f0       ??$type_case_integer_parse_into_buffer@I$0BA@@?$output_processor@DV?$stream_output_adapter@D@__crt_stdio_output@@V?$format_validation_base@DV?$stream_output_adapter@D@__crt_stdio_output@@@2@@__crt_stdio_output@@AEAAXI_N@Z 00000001400196f0 f i libucrt:output.obj
 0001:00018774       ??$type_case_integer_parse_into_buffer@I$0BA@@?$output_processor@DV?$stream_output_adapter@D@__crt_stdio_output@@V?$positional_parameter_base@DV?$stream_output_adapter@D@__crt_stdio_output@@@2@@__crt_stdio_output@@AEAAXI_N@Z 0000000140019774 f i libucrt:output.obj
 0001:000187f8       ??$type_case_integer_parse_into_buffer@I$0BA@@?$output_processor@DV?$stream_output_adapter@D@__crt_stdio_output@@V?$standard_base@DV?$stream_output_adapter@D@__crt_stdio_output@@@2@@__crt_stdio_output@@AEAAXI_N@Z 00000001400197f8 f i libucrt:output.obj
 0001:0001887c       ??$type_case_integer_parse_into_buffer@I$0BA@@?$output_processor@DV?$string_output_adapter@D@__crt_stdio_output@@V?$format_validation_base@DV?$string_output_adapter@D@__crt_stdio_output@@@2@@__crt_stdio_output@@AEAAXI_N@Z 000000014001987c f i libucrt:output.obj
 0001:00018900       ??$type_case_integer_parse_into_buffer@I$0BA@@?$output_processor@DV?$string_output_adapter@D@__crt_stdio_output@@V?$positional_parameter_base@DV?$string_output_adapter@D@__crt_stdio_output@@@2@@__crt_stdio_output@@AEAAXI_N@Z 0000000140019900 f i libucrt:output.obj
 0001:00018984       ??$type_case_integer_parse_into_buffer@I$0BA@@?$output_processor@DV?$string_output_adapter@D@__crt_stdio_output@@V?$standard_base@DV?$string_output_adapter@D@__crt_stdio_output@@@2@@__crt_stdio_output@@AEAAXI_N@Z 0000000140019984 f i libucrt:output.obj
 0001:00018a08       ??$type_case_integer_parse_into_buffer@I$0BA@@?$output_processor@_WV?$stream_output_adapter@_W@__crt_stdio_output@@V?$format_validation_base@_WV?$stream_output_adapter@_W@__crt_stdio_output@@@2@@__crt_stdio_output@@AEAAXI_N@Z 0000000140019a08 f i libucrt:output.obj
 0001:00018aa8       ??$type_case_integer_parse_into_buffer@I$0BA@@?$output_processor@_WV?$stream_output_adapter@_W@__crt_stdio_output@@V?$positional_parameter_base@_WV?$stream_output_adapter@_W@__crt_stdio_output@@@2@@__crt_stdio_output@@AEAAXI_N@Z 0000000140019aa8 f i libucrt:output.obj
 0001:00018b48       ??$type_case_integer_parse_into_buffer@I$0BA@@?$output_processor@_WV?$stream_output_adapter@_W@__crt_stdio_output@@V?$standard_base@_WV?$stream_output_adapter@_W@__crt_stdio_output@@@2@@__crt_stdio_output@@AEAAXI_N@Z 0000000140019b48 f i libucrt:output.obj
 0001:00018be8       ??$type_case_integer_parse_into_buffer@I$0BA@@?$output_processor@_WV?$string_output_adapter@_W@__crt_stdio_output@@V?$format_validation_base@_WV?$string_output_adapter@_W@__crt_stdio_output@@@2@@__crt_stdio_output@@AEAAXI_N@Z 0000000140019be8 f i libucrt:output.obj
 0001:00018c88       ??$type_case_integer_parse_into_buffer@I$0BA@@?$output_processor@_WV?$string_output_adapter@_W@__crt_stdio_output@@V?$positional_parameter_base@_WV?$string_output_adapter@_W@__crt_stdio_output@@@2@@__crt_stdio_output@@AEAAXI_N@Z 0000000140019c88 f i libucrt:output.obj
 0001:00018d28       ??$type_case_integer_parse_into_buffer@I$0BA@@?$output_processor@_WV?$string_output_adapter@_W@__crt_stdio_output@@V?$standard_base@_WV?$string_output_adapter@_W@__crt_stdio_output@@@2@@__crt_stdio_output@@AEAAXI_N@Z 0000000140019d28 f i libucrt:output.obj
 0001:00018dc8       ??$type_case_integer_parse_into_buffer@_K$07@?$output_processor@DV?$stream_output_adapter@D@__crt_stdio_output@@V?$format_validation_base@DV?$stream_output_adapter@D@__crt_stdio_output@@@2@@__crt_stdio_output@@AEAAX_K_N@Z 0000000140019dc8 f i libucrt:output.obj
 0001:00018e38       ??$type_case_integer_parse_into_buffer@_K$07@?$output_processor@DV?$stream_output_adapter@D@__crt_stdio_output@@V?$positional_parameter_base@DV?$stream_output_adapter@D@__crt_stdio_output@@@2@@__crt_stdio_output@@AEAAX_K_N@Z 0000000140019e38 f i libucrt:output.obj
 0001:00018ea8       ??$type_case_integer_parse_into_buffer@_K$07@?$output_processor@DV?$stream_output_adapter@D@__crt_stdio_output@@V?$standard_base@DV?$stream_output_adapter@D@__crt_stdio_output@@@2@@__crt_stdio_output@@AEAAX_K_N@Z 0000000140019ea8 f i libucrt:output.obj
 0001:00018f18       ??$type_case_integer_parse_into_buffer@_K$07@?$output_processor@DV?$string_output_adapter@D@__crt_stdio_output@@V?$format_validation_base@DV?$string_output_adapter@D@__crt_stdio_output@@@2@@__crt_stdio_output@@AEAAX_K_N@Z 0000000140019f18 f i libucrt:output.obj
 0001:00018f88       ??$type_case_integer_parse_into_buffer@_K$07@?$output_processor@DV?$string_output_adapter@D@__crt_stdio_output@@V?$positional_parameter_base@DV?$string_output_adapter@D@__crt_stdio_output@@@2@@__crt_stdio_output@@AEAAX_K_N@Z 0000000140019f88 f i libucrt:output.obj
 0001:00018ff8       ??$type_case_integer_parse_into_buffer@_K$07@?$output_processor@DV?$string_output_adapter@D@__crt_stdio_output@@V?$standard_base@DV?$string_output_adapter@D@__crt_stdio_output@@@2@@__crt_stdio_output@@AEAAX_K_N@Z 0000000140019ff8 f i libucrt:output.obj
 0001:00019068       ??$type_case_integer_parse_into_buffer@_K$07@?$output_processor@_WV?$stream_output_adapter@_W@__crt_stdio_output@@V?$format_validation_base@_WV?$stream_output_adapter@_W@__crt_stdio_output@@@2@@__crt_stdio_output@@AEAAX_K_N@Z 000000014001a068 f i libucrt:output.obj
 0001:000190f0       ??$type_case_integer_parse_into_buffer@_K$07@?$output_processor@_WV?$stream_output_adapter@_W@__crt_stdio_output@@V?$positional_parameter_base@_WV?$stream_output_adapter@_W@__crt_stdio_output@@@2@@__crt_stdio_output@@AEAAX_K_N@Z 000000014001a0f0 f i libucrt:output.obj
 0001:00019178       ??$type_case_integer_parse_into_buffer@_K$07@?$output_processor@_WV?$stream_output_adapter@_W@__crt_stdio_output@@V?$standard_base@_WV?$stream_output_adapter@_W@__crt_stdio_output@@@2@@__crt_stdio_output@@AEAAX_K_N@Z 000000014001a178 f i libucrt:output.obj
 0001:00019200       ??$type_case_integer_parse_into_buffer@_K$07@?$output_processor@_WV?$string_output_adapter@_W@__crt_stdio_output@@V?$format_validation_base@_WV?$string_output_adapter@_W@__crt_stdio_output@@@2@@__crt_stdio_output@@AEAAX_K_N@Z 000000014001a200 f i libucrt:output.obj
 0001:00019288       ??$type_case_integer_parse_into_buffer@_K$07@?$output_processor@_WV?$string_output_adapter@_W@__crt_stdio_output@@V?$positional_parameter_base@_WV?$string_output_adapter@_W@__crt_stdio_output@@@2@@__crt_stdio_output@@AEAAX_K_N@Z 000000014001a288 f i libucrt:output.obj
 0001:00019310       ??$type_case_integer_parse_into_buffer@_K$07@?$output_processor@_WV?$string_output_adapter@_W@__crt_stdio_output@@V?$standard_base@_WV?$string_output_adapter@_W@__crt_stdio_output@@@2@@__crt_stdio_output@@AEAAX_K_N@Z 000000014001a310 f i libucrt:output.obj
 0001:00019398       ??$type_case_integer_parse_into_buffer@_K$09@?$output_processor@DV?$stream_output_adapter@D@__crt_stdio_output@@V?$format_validation_base@DV?$stream_output_adapter@D@__crt_stdio_output@@@2@@__crt_stdio_output@@AEAAX_K_N@Z 000000014001a398 f i libucrt:output.obj
 0001:00019448       ??$type_case_integer_parse_into_buffer@_K$09@?$output_processor@DV?$stream_output_adapter@D@__crt_stdio_output@@V?$positional_parameter_base@DV?$stream_output_adapter@D@__crt_stdio_output@@@2@@__crt_stdio_output@@AEAAX_K_N@Z 000000014001a448 f i libucrt:output.obj
 0001:000194f8       ??$type_case_integer_parse_into_buffer@_K$09@?$output_processor@DV?$stream_output_adapter@D@__crt_stdio_output@@V?$standard_base@DV?$stream_output_adapter@D@__crt_stdio_output@@@2@@__crt_stdio_output@@AEAAX_K_N@Z 000000014001a4f8 f i libucrt:output.obj
 0001:000195a8       ??$type_case_integer_parse_into_buffer@_K$09@?$output_processor@DV?$string_output_adapter@D@__crt_stdio_output@@V?$format_validation_base@DV?$string_output_adapter@D@__crt_stdio_output@@@2@@__crt_stdio_output@@AEAAX_K_N@Z 000000014001a5a8 f i libucrt:output.obj
 0001:00019658       ??$type_case_integer_parse_into_buffer@_K$09@?$output_processor@DV?$string_output_adapter@D@__crt_stdio_output@@V?$positional_parameter_base@DV?$string_output_adapter@D@__crt_stdio_output@@@2@@__crt_stdio_output@@AEAAX_K_N@Z 000000014001a658 f i libucrt:output.obj
 0001:00019708       ??$type_case_integer_parse_into_buffer@_K$09@?$output_processor@DV?$string_output_adapter@D@__crt_stdio_output@@V?$standard_base@DV?$string_output_adapter@D@__crt_stdio_output@@@2@@__crt_stdio_output@@AEAAX_K_N@Z 000000014001a708 f i libucrt:output.obj
 0001:000197b8       ??$type_case_integer_parse_into_buffer@_K$09@?$output_processor@_WV?$stream_output_adapter@_W@__crt_stdio_output@@V?$format_validation_base@_WV?$stream_output_adapter@_W@__crt_stdio_output@@@2@@__crt_stdio_output@@AEAAX_K_N@Z 000000014001a7b8 f i libucrt:output.obj
 0001:0001987c       ??$type_case_integer_parse_into_buffer@_K$09@?$output_processor@_WV?$stream_output_adapter@_W@__crt_stdio_output@@V?$positional_parameter_base@_WV?$stream_output_adapter@_W@__crt_stdio_output@@@2@@__crt_stdio_output@@AEAAX_K_N@Z 000000014001a87c f i libucrt:output.obj
 0001:00019940       ??$type_case_integer_parse_into_buffer@_K$09@?$output_processor@_WV?$stream_output_adapter@_W@__crt_stdio_output@@V?$standard_base@_WV?$stream_output_adapter@_W@__crt_stdio_output@@@2@@__crt_stdio_output@@AEAAX_K_N@Z 000000014001a940 f i libucrt:output.obj
 0001:00019a04       ??$type_case_integer_parse_into_buffer@_K$09@?$output_processor@_WV?$string_output_adapter@_W@__crt_stdio_output@@V?$format_validation_base@_WV?$string_output_adapter@_W@__crt_stdio_output@@@2@@__crt_stdio_output@@AEAAX_K_N@Z 000000014001aa04 f i libucrt:output.obj
 0001:00019ac8       ??$type_case_integer_parse_into_buffer@_K$09@?$output_processor@_WV?$string_output_adapter@_W@__crt_stdio_output@@V?$positional_parameter_base@_WV?$string_output_adapter@_W@__crt_stdio_output@@@2@@__crt_stdio_output@@AEAAX_K_N@Z 000000014001aac8 f i libucrt:output.obj
 0001:00019b8c       ??$type_case_integer_parse_into_buffer@_K$09@?$output_processor@_WV?$string_output_adapter@_W@__crt_stdio_output@@V?$standard_base@_WV?$string_output_adapter@_W@__crt_stdio_output@@@2@@__crt_stdio_output@@AEAAX_K_N@Z 000000014001ab8c f i libucrt:output.obj
 0001:00019c50       ??$type_case_integer_parse_into_buffer@_K$0BA@@?$output_processor@DV?$stream_output_adapter@D@__crt_stdio_output@@V?$format_validation_base@DV?$stream_output_adapter@D@__crt_stdio_output@@@2@@__crt_stdio_output@@AEAAX_K_N@Z 000000014001ac50 f i libucrt:output.obj
 0001:00019cd4       ??$type_case_integer_parse_into_buffer@_K$0BA@@?$output_processor@DV?$stream_output_adapter@D@__crt_stdio_output@@V?$positional_parameter_base@DV?$stream_output_adapter@D@__crt_stdio_output@@@2@@__crt_stdio_output@@AEAAX_K_N@Z 000000014001acd4 f i libucrt:output.obj
 0001:00019d58       ??$type_case_integer_parse_into_buffer@_K$0BA@@?$output_processor@DV?$stream_output_adapter@D@__crt_stdio_output@@V?$standard_base@DV?$stream_output_adapter@D@__crt_stdio_output@@@2@@__crt_stdio_output@@AEAAX_K_N@Z 000000014001ad58 f i libucrt:output.obj
 0001:00019ddc       ??$type_case_integer_parse_into_buffer@_K$0BA@@?$output_processor@DV?$string_output_adapter@D@__crt_stdio_output@@V?$format_validation_base@DV?$string_output_adapter@D@__crt_stdio_output@@@2@@__crt_stdio_output@@AEAAX_K_N@Z 000000014001addc f i libucrt:output.obj
 0001:00019e60       ??$type_case_integer_parse_into_buffer@_K$0BA@@?$output_processor@DV?$string_output_adapter@D@__crt_stdio_output@@V?$positional_parameter_base@DV?$string_output_adapter@D@__crt_stdio_output@@@2@@__crt_stdio_output@@AEAAX_K_N@Z 000000014001ae60 f i libucrt:output.obj
 0001:00019ee4       ??$type_case_integer_parse_into_buffer@_K$0BA@@?$output_processor@DV?$string_output_adapter@D@__crt_stdio_output@@V?$standard_base@DV?$string_output_adapter@D@__crt_stdio_output@@@2@@__crt_stdio_output@@AEAAX_K_N@Z 000000014001aee4 f i libucrt:output.obj
 0001:00019f68       ??$type_case_integer_parse_into_buffer@_K$0BA@@?$output_processor@_WV?$stream_output_adapter@_W@__crt_stdio_output@@V?$format_validation_base@_WV?$stream_output_adapter@_W@__crt_stdio_output@@@2@@__crt_stdio_output@@AEAAX_K_N@Z 000000014001af68 f i libucrt:output.obj
 0001:0001a008       ??$type_case_integer_parse_into_buffer@_K$0BA@@?$output_processor@_WV?$stream_output_adapter@_W@__crt_stdio_output@@V?$positional_parameter_base@_WV?$stream_output_adapter@_W@__crt_stdio_output@@@2@@__crt_stdio_output@@AEAAX_K_N@Z 000000014001b008 f i libucrt:output.obj
 0001:0001a0a8       ??$type_case_integer_parse_into_buffer@_K$0BA@@?$output_processor@_WV?$stream_output_adapter@_W@__crt_stdio_output@@V?$standard_base@_WV?$stream_output_adapter@_W@__crt_stdio_output@@@2@@__crt_stdio_output@@AEAAX_K_N@Z 000000014001b0a8 f i libucrt:output.obj
 0001:0001a148       ??$type_case_integer_parse_into_buffer@_K$0BA@@?$output_processor@_WV?$string_output_adapter@_W@__crt_stdio_output@@V?$format_validation_base@_WV?$string_output_adapter@_W@__crt_stdio_output@@@2@@__crt_stdio_output@@AEAAX_K_N@Z 000000014001b148 f i libucrt:output.obj
 0001:0001a1e8       ??$type_case_integer_parse_into_buffer@_K$0BA@@?$output_processor@_WV?$string_output_adapter@_W@__crt_stdio_output@@V?$positional_parameter_base@_WV?$string_output_adapter@_W@__crt_stdio_output@@@2@@__crt_stdio_output@@AEAAX_K_N@Z 000000014001b1e8 f i libucrt:output.obj
 0001:0001a288       ??$type_case_integer_parse_into_buffer@_K$0BA@@?$output_processor@_WV?$string_output_adapter@_W@__crt_stdio_output@@V?$standard_base@_WV?$string_output_adapter@_W@__crt_stdio_output@@@2@@__crt_stdio_output@@AEAAX_K_N@Z 000000014001b288 f i libucrt:output.obj
 0001:0001a328       ??$write_multiple_characters@V?$stream_output_adapter@D@__crt_stdio_output@@D@__crt_stdio_output@@YAXAEBV?$stream_output_adapter@D@0@DHQEAHAEAV__crt_cached_ptd_host@@@Z 000000014001b328 f i libucrt:output.obj
 0001:0001a3bc       ??$write_multiple_characters@V?$stream_output_adapter@_W@__crt_stdio_output@@D@__crt_stdio_output@@YAXAEBV?$stream_output_adapter@_W@0@DHQEAHAEAV__crt_cached_ptd_host@@@Z 000000014001b3bc f i libucrt:output.obj
 0001:0001a454       ??$write_multiple_characters@V?$string_output_adapter@D@__crt_stdio_output@@D@__crt_stdio_output@@YAXAEBV?$string_output_adapter@D@0@DHQEAHAEAV__crt_cached_ptd_host@@@Z 000000014001b454 f i libucrt:output.obj
 0001:0001a4cc       ??$write_multiple_characters@V?$string_output_adapter@_W@__crt_stdio_output@@D@__crt_stdio_output@@YAXAEBV?$string_output_adapter@_W@0@DHQEAHAEAV__crt_cached_ptd_host@@@Z 000000014001b4cc f i libucrt:output.obj
 0001:0001a6ac       ??0?$c_string_character_source@D@__crt_strtox@@QEAA@QEBDQEAPEBD@Z 000000014001b6ac f i libucrt:output.obj
 0001:0001a6c0       ??0?$c_string_character_source@_W@__crt_strtox@@QEAA@QEB_WQEAPEB_W@Z 000000014001b6c0 f i libucrt:output.obj
 0001:0001a6d4       ??0?$cached@H@__crt_cached_ptd_host@@QEAA@XZ 000000014001b6d4 f i libucrt:output.obj
 0001:0001a6dc       ??0?$cached@K@__crt_cached_ptd_host@@QEAA@XZ 000000014001b6dc f i libucrt:output.obj
 0001:0001a6e4       ??0?$common_data@D@__crt_stdio_output@@IEAA@AEAV__crt_cached_ptd_host@@@Z 000000014001b6e4 f i libucrt:output.obj
 0001:0001a720       ??0?$common_data@_W@__crt_stdio_output@@IEAA@AEAV__crt_cached_ptd_host@@@Z 000000014001b720 f i libucrt:output.obj
 0001:0001a760       ??0?$output_adapter_data@DV?$stream_output_adapter@D@__crt_stdio_output@@@__crt_stdio_output@@IEAA@AEBV?$stream_output_adapter@D@1@_KQEBDAEAV__crt_cached_ptd_host@@QEAD@Z 000000014001b760 f i libucrt:output.obj
 0001:0001a7c0       ??0?$output_adapter_data@DV?$string_output_adapter@D@__crt_stdio_output@@@__crt_stdio_output@@IEAA@AEBV?$string_output_adapter@D@1@_KQEBDAEAV__crt_cached_ptd_host@@QEAD@Z 000000014001b7c0 f i libucrt:output.obj
 0001:0001a820       ??0?$output_adapter_data@_WV?$stream_output_adapter@_W@__crt_stdio_output@@@__crt_stdio_output@@IEAA@AEBV?$stream_output_adapter@_W@1@_KQEB_WAEAV__crt_cached_ptd_host@@QEAD@Z 000000014001b820 f i libucrt:output.obj
 0001:0001a884       ??0?$output_adapter_data@_WV?$string_output_adapter@_W@__crt_stdio_output@@@__crt_stdio_output@@IEAA@AEBV?$string_output_adapter@_W@1@_KQEB_WAEAV__crt_cached_ptd_host@@QEAD@Z 000000014001b884 f i libucrt:output.obj
 0001:0001a8e8       ??0?$output_processor@DV?$stream_output_adapter@D@__crt_stdio_output@@V?$format_validation_base@DV?$stream_output_adapter@D@__crt_stdio_output@@@2@@__crt_stdio_output@@QEAA@AEBV?$stream_output_adapter@D@1@_KQEBDAEAV__crt_cached_ptd_host@@QEAD@Z 000000014001b8e8 f i libucrt:output.obj
 0001:0001a950       ??0?$output_processor@DV?$stream_output_adapter@D@__crt_stdio_output@@V?$positional_parameter_base@DV?$stream_output_adapter@D@__crt_stdio_output@@@2@@__crt_stdio_output@@QEAA@AEBV?$stream_output_adapter@D@1@_KQEBDAEAV__crt_cached_ptd_host@@QEAD@Z 000000014001b950 f i libucrt:output.obj
 0001:0001a9d4       ??0?$output_processor@DV?$stream_output_adapter@D@__crt_stdio_output@@V?$standard_base@DV?$stream_output_adapter@D@__crt_stdio_output@@@2@@__crt_stdio_output@@QEAA@AEBV?$stream_output_adapter@D@1@_KQEBDAEAV__crt_cached_ptd_host@@QEAD@Z 000000014001b9d4 f i libucrt:output.obj
 0001:0001aa3c       ??0?$output_processor@DV?$string_output_adapter@D@__crt_stdio_output@@V?$format_validation_base@DV?$string_output_adapter@D@__crt_stdio_output@@@2@@__crt_stdio_output@@QEAA@AEBV?$string_output_adapter@D@1@_KQEBDAEAV__crt_cached_ptd_host@@QEAD@Z 000000014001ba3c f i libucrt:output.obj
 0001:0001aaa4       ??0?$output_processor@DV?$string_output_adapter@D@__crt_stdio_output@@V?$positional_parameter_base@DV?$string_output_adapter@D@__crt_stdio_output@@@2@@__crt_stdio_output@@QEAA@AEBV?$string_output_adapter@D@1@_KQEBDAEAV__crt_cached_ptd_host@@QEAD@Z 000000014001baa4 f i libucrt:output.obj
 0001:0001ab28       ??0?$output_processor@DV?$string_output_adapter@D@__crt_stdio_output@@V?$standard_base@DV?$string_output_adapter@D@__crt_stdio_output@@@2@@__crt_stdio_output@@QEAA@AEBV?$string_output_adapter@D@1@_KQEBDAEAV__crt_cached_ptd_host@@QEAD@Z 000000014001bb28 f i libucrt:output.obj
 0001:0001ab90       ??0?$output_processor@_WV?$stream_output_adapter@_W@__crt_stdio_output@@V?$format_validation_base@_WV?$stream_output_adapter@_W@__crt_stdio_output@@@2@@__crt_stdio_output@@QEAA@AEBV?$stream_output_adapter@_W@1@_KQEB_WAEAV__crt_cached_ptd_host@@QEAD@Z 000000014001bb90 f i libucrt:output.obj
 0001:0001abfc       ??0?$output_processor@_WV?$stream_output_adapter@_W@__crt_stdio_output@@V?$positional_parameter_base@_WV?$stream_output_adapter@_W@__crt_stdio_output@@@2@@__crt_stdio_output@@QEAA@AEBV?$stream_output_adapter@_W@1@_KQEB_WAEAV__crt_cached_ptd_host@@QEAD@Z 000000014001bbfc f i libucrt:output.obj
 0001:0001ac84       ??0?$output_processor@_WV?$stream_output_adapter@_W@__crt_stdio_output@@V?$standard_base@_WV?$stream_output_adapter@_W@__crt_stdio_output@@@2@@__crt_stdio_output@@QEAA@AEBV?$stream_output_adapter@_W@1@_KQEB_WAEAV__crt_cached_ptd_host@@QEAD@Z 000000014001bc84 f i libucrt:output.obj
 0001:0001acf0       ??0?$output_processor@_WV?$string_output_adapter@_W@__crt_stdio_output@@V?$format_validation_base@_WV?$string_output_adapter@_W@__crt_stdio_output@@@2@@__crt_stdio_output@@QEAA@AEBV?$string_output_adapter@_W@1@_KQEB_WAEAV__crt_cached_ptd_host@@QEAD@Z 000000014001bcf0 f i libucrt:output.obj
 0001:0001ad5c       ??0?$output_processor@_WV?$string_output_adapter@_W@__crt_stdio_output@@V?$positional_parameter_base@_WV?$string_output_adapter@_W@__crt_stdio_output@@@2@@__crt_stdio_output@@QEAA@AEBV?$string_output_adapter@_W@1@_KQEB_WAEAV__crt_cached_ptd_host@@QEAD@Z 000000014001bd5c f i libucrt:output.obj
 0001:0001ade4       ??0?$output_processor@_WV?$string_output_adapter@_W@__crt_stdio_output@@V?$standard_base@_WV?$string_output_adapter@_W@__crt_stdio_output@@@2@@__crt_stdio_output@@QEAA@AEBV?$string_output_adapter@_W@1@_KQEB_WAEAV__crt_cached_ptd_host@@QEAD@Z 000000014001bde4 f i libucrt:output.obj
 0001:0001ae50       ??0?$stream_output_adapter@D@__crt_stdio_output@@QEAA@QEAU_iobuf@@@Z 000000014001be50 f i libucrt:output.obj
 0001:0001ae58       ??0?$stream_output_adapter@_W@__crt_stdio_output@@QEAA@QEAU_iobuf@@@Z 000000014001be58 f i libucrt:output.obj
 0001:0001ae60       ??0?$string_output_adapter@D@__crt_stdio_output@@QEAA@QEAU?$string_output_adapter_context@D@1@@Z 000000014001be60 f i libucrt:output.obj
 0001:0001ae68       ??0?$string_output_adapter@_W@__crt_stdio_output@@QEAA@QEAU?$string_output_adapter_context@_W@1@@Z 000000014001be68 f i libucrt:output.obj
 0001:0001ae70       ??0__acrt_stdio_temporary_buffering_guard@@QEAA@QEAU_iobuf@@AEAV__crt_cached_ptd_host@@@Z 000000014001be70 f i libucrt:output.obj
 0001:0001aea0       ??0__crt_cached_ptd_host@@QEAA@QEAU__crt_locale_pointers@@@Z 000000014001bea0 f i libucrt:output.obj
 0001:0001aee8       ??0__crt_scoped_get_last_error_reset@@QEAA@XZ 000000014001bee8 f i libucrt:output.obj
 0001:0001af04       ??0formatting_buffer@__crt_stdio_output@@QEAA@XZ 000000014001bf04 f i libucrt:output.obj
 0001:0001af18       ??0guard@?$cached@H@__crt_cached_ptd_host@@QEAA@AEAU12@@Z 000000014001bf18 f i libucrt:output.obj
 0001:0001af2c       ??1?$c_string_character_source@D@__crt_strtox@@QEAA@XZ 000000014001bf2c f i libucrt:output.obj
 0001:0001af3c       ??1?$c_string_character_source@_W@__crt_strtox@@QEAA@XZ 000000014001bf3c f i libucrt:output.obj
 0001:0001af4c       ??1?$common_data@D@__crt_stdio_output@@QEAA@XZ 000000014001bf4c f i libucrt:output.obj
 0001:0001af70       ??1?$common_data@_W@__crt_stdio_output@@QEAA@XZ 000000014001bf70 f i libucrt:output.obj
 0001:0001af94       ??1?$format_validation_base@DV?$stream_output_adapter@D@__crt_stdio_output@@@__crt_stdio_output@@QEAA@XZ 000000014001bf94 f i libucrt:output.obj
 0001:0001afb8       ??1?$format_validation_base@DV?$string_output_adapter@D@__crt_stdio_output@@@__crt_stdio_output@@QEAA@XZ 000000014001bfb8 f i libucrt:output.obj
 0001:0001afdc       ??1?$format_validation_base@_WV?$stream_output_adapter@_W@__crt_stdio_output@@@__crt_stdio_output@@QEAA@XZ 000000014001bfdc f i libucrt:output.obj
 0001:0001b000       ??1?$format_validation_base@_WV?$string_output_adapter@_W@__crt_stdio_output@@@__crt_stdio_output@@QEAA@XZ 000000014001c000 f i libucrt:output.obj
 0001:0001b024       ??1?$output_adapter_data@DV?$stream_output_adapter@D@__crt_stdio_output@@@__crt_stdio_output@@QEAA@XZ 000000014001c024 f i libucrt:output.obj
 0001:0001b048       ??1?$output_adapter_data@DV?$string_output_adapter@D@__crt_stdio_output@@@__crt_stdio_output@@QEAA@XZ 000000014001c048 f i libucrt:output.obj
 0001:0001b06c       ??1?$output_adapter_data@_WV?$stream_output_adapter@_W@__crt_stdio_output@@@__crt_stdio_output@@QEAA@XZ 000000014001c06c f i libucrt:output.obj
 0001:0001b090       ??1?$output_adapter_data@_WV?$string_output_adapter@_W@__crt_stdio_output@@@__crt_stdio_output@@QEAA@XZ 000000014001c090 f i libucrt:output.obj
 0001:0001b0b4       ??1?$output_processor@DV?$stream_output_adapter@D@__crt_stdio_output@@V?$format_validation_base@DV?$stream_output_adapter@D@__crt_stdio_output@@@2@@__crt_stdio_output@@QEAA@XZ 000000014001c0b4 f i libucrt:output.obj
 0001:0001b0d8       ??1?$output_processor@DV?$stream_output_adapter@D@__crt_stdio_output@@V?$positional_parameter_base@DV?$stream_output_adapter@D@__crt_stdio_output@@@2@@__crt_stdio_output@@QEAA@XZ 000000014001c0d8 f i libucrt:output.obj
 0001:0001b0fc       ??1?$output_processor@DV?$stream_output_adapter@D@__crt_stdio_output@@V?$standard_base@DV?$stream_output_adapter@D@__crt_stdio_output@@@2@@__crt_stdio_output@@QEAA@XZ 000000014001c0fc f i libucrt:output.obj
 0001:0001b120       ??1?$output_processor@DV?$string_output_adapter@D@__crt_stdio_output@@V?$format_validation_base@DV?$string_output_adapter@D@__crt_stdio_output@@@2@@__crt_stdio_output@@QEAA@XZ 000000014001c120 f i libucrt:output.obj
 0001:0001b144       ??1?$output_processor@DV?$string_output_adapter@D@__crt_stdio_output@@V?$positional_parameter_base@DV?$string_output_adapter@D@__crt_stdio_output@@@2@@__crt_stdio_output@@QEAA@XZ 000000014001c144 f i libucrt:output.obj
 0001:0001b168       ??1?$output_processor@DV?$string_output_adapter@D@__crt_stdio_output@@V?$standard_base@DV?$string_output_adapter@D@__crt_stdio_output@@@2@@__crt_stdio_output@@QEAA@XZ 000000014001c168 f i libucrt:output.obj
 0001:0001b18c       ??1?$output_processor@_WV?$stream_output_adapter@_W@__crt_stdio_output@@V?$format_validation_base@_WV?$stream_output_adapter@_W@__crt_stdio_output@@@2@@__crt_stdio_output@@QEAA@XZ 000000014001c18c f i libucrt:output.obj
 0001:0001b1b0       ??1?$output_processor@_WV?$stream_output_adapter@_W@__crt_stdio_output@@V?$positional_parameter_base@_WV?$stream_output_adapter@_W@__crt_stdio_output@@@2@@__crt_stdio_output@@QEAA@XZ 000000014001c1b0 f i libucrt:output.obj
 0001:0001b1d4       ??1?$output_processor@_WV?$stream_output_adapter@_W@__crt_stdio_output@@V?$standard_base@_WV?$stream_output_adapter@_W@__crt_stdio_output@@@2@@__crt_stdio_output@@QEAA@XZ 000000014001c1d4 f i libucrt:output.obj
 0001:0001b1f8       ??1?$output_processor@_WV?$string_output_adapter@_W@__crt_stdio_output@@V?$format_validation_base@_WV?$string_output_adapter@_W@__crt_stdio_output@@@2@@__crt_stdio_output@@QEAA@XZ 000000014001c1f8 f i libucrt:output.obj
 0001:0001b21c       ??1?$output_processor@_WV?$string_output_adapter@_W@__crt_stdio_output@@V?$positional_parameter_base@_WV?$string_output_adapter@_W@__crt_stdio_output@@@2@@__crt_stdio_output@@QEAA@XZ 000000014001c21c f i libucrt:output.obj
 0001:0001b240       ??1?$output_processor@_WV?$string_output_adapter@_W@__crt_stdio_output@@V?$standard_base@_WV?$string_output_adapter@_W@__crt_stdio_output@@@2@@__crt_stdio_output@@QEAA@XZ 000000014001c240 f i libucrt:output.obj
 0001:0001b264       ??1?$positional_parameter_base@DV?$stream_output_adapter@D@__crt_stdio_output@@@__crt_stdio_output@@QEAA@XZ 000000014001c264 f i libucrt:output.obj
 0001:0001b288       ??1?$positional_parameter_base@DV?$string_output_adapter@D@__crt_stdio_output@@@__crt_stdio_output@@QEAA@XZ 000000014001c288 f i libucrt:output.obj
 0001:0001b2ac       ??1?$positional_parameter_base@_WV?$stream_output_adapter@_W@__crt_stdio_output@@@__crt_stdio_output@@QEAA@XZ 000000014001c2ac f i libucrt:output.obj
 0001:0001b2d0       ??1?$positional_parameter_base@_WV?$string_output_adapter@_W@__crt_stdio_output@@@__crt_stdio_output@@QEAA@XZ 000000014001c2d0 f i libucrt:output.obj
 0001:0001b2f4       ??1?$standard_base@DV?$stream_output_adapter@D@__crt_stdio_output@@@__crt_stdio_output@@QEAA@XZ 000000014001c2f4 f i libucrt:output.obj
 0001:0001b318       ??1?$standard_base@DV?$string_output_adapter@D@__crt_stdio_output@@@__crt_stdio_output@@QEAA@XZ 000000014001c318 f i libucrt:output.obj
 0001:0001b33c       ??1?$standard_base@_WV?$stream_output_adapter@_W@__crt_stdio_output@@@__crt_stdio_output@@QEAA@XZ 000000014001c33c f i libucrt:output.obj
 0001:0001b360       ??1?$standard_base@_WV?$string_output_adapter@_W@__crt_stdio_output@@@__crt_stdio_output@@QEAA@XZ 000000014001c360 f i libucrt:output.obj
 0001:0001b384       ??1__acrt_stdio_temporary_buffering_guard@@QEAA@XZ 000000014001c384 f i libucrt:output.obj
 0001:0001b3a0       ??1__crt_cached_ptd_host@@QEAA@XZ 000000014001c3a0 f i libucrt:output.obj
 0001:0001b3f0       ??1__crt_scoped_get_last_error_reset@@QEAA@XZ 000000014001c3f0 f i libucrt:output.obj
 0001:0001b3fc       ??1formatting_buffer@__crt_stdio_output@@QEAA@XZ 000000014001c3fc f i libucrt:output.obj
 0001:0001b420       ??1guard@?$cached@H@__crt_cached_ptd_host@@QEAA@XZ 000000014001c420 f i libucrt:output.obj
 0001:0001b434       ??4?$__crt_unique_heap_ptr@DU__crt_internal_free_policy@@@@QEAAAEAV0@$$QEAV0@@Z 000000014001c434 f i libucrt:output.obj
 0001:0001b468       ??A?$spectre_mitigated_lookup_table@Ustate_transition_pair@__crt_stdio_output@@$0IA@@__crt_stdio_output@@QEBAAEBUstate_transition_pair@1@_K@Z 000000014001c468 f i libucrt:output.obj
 0001:0001bbb4       ?__crt_interlocked_read_32@@YAHPEDH@Z 000000014001cbb4 f i libucrt:output.obj
 0001:0001bbb8       ?adjust_hexit@?$output_processor@DV?$stream_output_adapter@D@__crt_stdio_output@@V?$format_validation_base@DV?$stream_output_adapter@D@__crt_stdio_output@@@2@@__crt_stdio_output@@CADH_N@Z 000000014001cbb8 f i libucrt:output.obj
 0001:0001bbc4       ?adjust_hexit@?$output_processor@DV?$stream_output_adapter@D@__crt_stdio_output@@V?$positional_parameter_base@DV?$stream_output_adapter@D@__crt_stdio_output@@@2@@__crt_stdio_output@@CADH_N@Z 000000014001cbc4 f i libucrt:output.obj
 0001:0001bbd0       ?adjust_hexit@?$output_processor@DV?$stream_output_adapter@D@__crt_stdio_output@@V?$standard_base@DV?$stream_output_adapter@D@__crt_stdio_output@@@2@@__crt_stdio_output@@CADH_N@Z 000000014001cbd0 f i libucrt:output.obj
 0001:0001bbdc       ?adjust_hexit@?$output_processor@DV?$string_output_adapter@D@__crt_stdio_output@@V?$format_validation_base@DV?$string_output_adapter@D@__crt_stdio_output@@@2@@__crt_stdio_output@@CADH_N@Z 000000014001cbdc f i libucrt:output.obj
 0001:0001bbe8       ?adjust_hexit@?$output_processor@DV?$string_output_adapter@D@__crt_stdio_output@@V?$positional_parameter_base@DV?$string_output_adapter@D@__crt_stdio_output@@@2@@__crt_stdio_output@@CADH_N@Z 000000014001cbe8 f i libucrt:output.obj
 0001:0001bbf4       ?adjust_hexit@?$output_processor@DV?$string_output_adapter@D@__crt_stdio_output@@V?$standard_base@DV?$string_output_adapter@D@__crt_stdio_output@@@2@@__crt_stdio_output@@CADH_N@Z 000000014001cbf4 f i libucrt:output.obj
 0001:0001bc00       ?adjust_hexit@?$output_processor@_WV?$stream_output_adapter@_W@__crt_stdio_output@@V?$format_validation_base@_WV?$stream_output_adapter@_W@__crt_stdio_output@@@2@@__crt_stdio_output@@CADH_N@Z 000000014001cc00 f i libucrt:output.obj
 0001:0001bc0c       ?adjust_hexit@?$output_processor@_WV?$stream_output_adapter@_W@__crt_stdio_output@@V?$positional_parameter_base@_WV?$stream_output_adapter@_W@__crt_stdio_output@@@2@@__crt_stdio_output@@CADH_N@Z 000000014001cc0c f i libucrt:output.obj
 0001:0001bc18       ?adjust_hexit@?$output_processor@_WV?$stream_output_adapter@_W@__crt_stdio_output@@V?$standard_base@_WV?$stream_output_adapter@_W@__crt_stdio_output@@@2@@__crt_stdio_output@@CADH_N@Z 000000014001cc18 f i libucrt:output.obj
 0001:0001bc24       ?adjust_hexit@?$output_processor@_WV?$string_output_adapter@_W@__crt_stdio_output@@V?$format_validation_base@_WV?$string_output_adapter@_W@__crt_stdio_output@@@2@@__crt_stdio_output@@CADH_N@Z 000000014001cc24 f i libucrt:output.obj
 0001:0001bc30       ?adjust_hexit@?$output_processor@_WV?$string_output_adapter@_W@__crt_stdio_output@@V?$positional_parameter_base@_WV?$string_output_adapter@_W@__crt_stdio_output@@@2@@__crt_stdio_output@@CADH_N@Z 000000014001cc30 f i libucrt:output.obj
 0001:0001bc3c       ?adjust_hexit@?$output_processor@_WV?$string_output_adapter@_W@__crt_stdio_output@@V?$standard_base@_WV?$string_output_adapter@_W@__crt_stdio_output@@@2@@__crt_stdio_output@@CADH_N@Z 000000014001cc3c f i libucrt:output.obj
 0001:0001bc48       ?advance_to_next_pass@?$positional_parameter_base@DV?$stream_output_adapter@D@__crt_stdio_output@@@__crt_stdio_output@@IEAA_NXZ 000000014001cc48 f i libucrt:output.obj
 0001:0001bc9c       ?advance_to_next_pass@?$positional_parameter_base@DV?$string_output_adapter@D@__crt_stdio_output@@@__crt_stdio_output@@IEAA_NXZ 000000014001cc9c f i libucrt:output.obj
 0001:0001bcf0       ?advance_to_next_pass@?$positional_parameter_base@_WV?$stream_output_adapter@_W@__crt_stdio_output@@@__crt_stdio_output@@IEAA_NXZ 000000014001ccf0 f i libucrt:output.obj
 0001:0001bd44       ?advance_to_next_pass@?$positional_parameter_base@_WV?$string_output_adapter@_W@__crt_stdio_output@@@__crt_stdio_output@@IEAA_NXZ 000000014001cd44 f i libucrt:output.obj
 0001:0001bd98       ?advance_to_next_pass@?$standard_base@DV?$stream_output_adapter@D@__crt_stdio_output@@@__crt_stdio_output@@IEAA_NXZ 000000014001cd98 f i libucrt:output.obj
 0001:0001bdac       ?advance_to_next_pass@?$standard_base@DV?$string_output_adapter@D@__crt_stdio_output@@@__crt_stdio_output@@IEAA_NXZ 000000014001cdac f i libucrt:output.obj
 0001:0001bdc0       ?advance_to_next_pass@?$standard_base@_WV?$stream_output_adapter@_W@__crt_stdio_output@@@__crt_stdio_output@@IEAA_NXZ 000000014001cdc0 f i libucrt:output.obj
 0001:0001bdd4       ?advance_to_next_pass@?$standard_base@_WV?$string_output_adapter@_W@__crt_stdio_output@@@__crt_stdio_output@@IEAA_NXZ 000000014001cdd4 f i libucrt:output.obj
 0001:0001bde8       ?check@?$cached@H@__crt_cached_ptd_host@@QEBA_NH@Z 000000014001cde8 f i libucrt:output.obj
 0001:0001be00       ?check_synchronize_global_state_index@__crt_cached_ptd_host@@AEAA_KAEBV__crt_scoped_get_last_error_reset@@@Z 000000014001ce00 f i libucrt:output.obj
 0001:0001be20       ?check_synchronize_per_thread_data@__crt_cached_ptd_host@@AEAAPEAU__acrt_ptd@@XZ 000000014001ce20 f i libucrt:output.obj
 0001:0001be88       ?create_guard@?$cached@H@__crt_cached_ptd_host@@QEAA?AVguard@12@XZ 000000014001ce88 f i libucrt:output.obj
 0001:0001be9c       ?crop_zeroes@__crt_stdio_output@@YAXPEADQEAU__crt_locale_pointers@@@Z 000000014001ce9c f i libucrt:output.obj
 0001:0001bf08       ?disable@guard@?$cached@H@__crt_cached_ptd_host@@QEAAXXZ 000000014001cf08 f i libucrt:output.obj
 0001:0001bf10       ?enable@guard@?$cached@H@__crt_cached_ptd_host@@QEAAXXZ 000000014001cf10 f i libucrt:output.obj
 0001:0001bf18       ?find_next_state@?$output_processor@DV?$stream_output_adapter@D@__crt_stdio_output@@V?$format_validation_base@DV?$stream_output_adapter@D@__crt_stdio_output@@@2@@__crt_stdio_output@@AEBA?AW4state@2@DW432@@Z 000000014001cf18 f i libucrt:output.obj
 0001:0001bf50       ?find_next_state@?$output_processor@DV?$stream_output_adapter@D@__crt_stdio_output@@V?$positional_parameter_base@DV?$stream_output_adapter@D@__crt_stdio_output@@@2@@__crt_stdio_output@@AEBA?AW4state@2@DW432@@Z 000000014001cf50 f i libucrt:output.obj
 0001:0001bf88       ?find_next_state@?$output_processor@DV?$stream_output_adapter@D@__crt_stdio_output@@V?$standard_base@DV?$stream_output_adapter@D@__crt_stdio_output@@@2@@__crt_stdio_output@@AEBA?AW4state@2@DW432@@Z 000000014001cf88 f i libucrt:output.obj
 0001:0001bfbc       ?find_next_state@?$output_processor@DV?$string_output_adapter@D@__crt_stdio_output@@V?$format_validation_base@DV?$string_output_adapter@D@__crt_stdio_output@@@2@@__crt_stdio_output@@AEBA?AW4state@2@DW432@@Z 000000014001cfbc f i libucrt:output.obj
 0001:0001bff4       ?find_next_state@?$output_processor@DV?$string_output_adapter@D@__crt_stdio_output@@V?$positional_parameter_base@DV?$string_output_adapter@D@__crt_stdio_output@@@2@@__crt_stdio_output@@AEBA?AW4state@2@DW432@@Z 000000014001cff4 f i libucrt:output.obj
 0001:0001c02c       ?find_next_state@?$output_processor@DV?$string_output_adapter@D@__crt_stdio_output@@V?$standard_base@DV?$string_output_adapter@D@__crt_stdio_output@@@2@@__crt_stdio_output@@AEBA?AW4state@2@DW432@@Z 000000014001d02c f i libucrt:output.obj
 0001:0001c060       ?find_next_state@?$output_processor@_WV?$stream_output_adapter@_W@__crt_stdio_output@@V?$format_validation_base@_WV?$stream_output_adapter@_W@__crt_stdio_output@@@2@@__crt_stdio_output@@AEBA?AW4state@2@_WW432@@Z 000000014001d060 f i libucrt:output.obj
 0001:0001c0a0       ?find_next_state@?$output_processor@_WV?$stream_output_adapter@_W@__crt_stdio_output@@V?$positional_parameter_base@_WV?$stream_output_adapter@_W@__crt_stdio_output@@@2@@__crt_stdio_output@@AEBA?AW4state@2@_WW432@@Z 000000014001d0a0 f i libucrt:output.obj
 0001:0001c0e0       ?find_next_state@?$output_processor@_WV?$stream_output_adapter@_W@__crt_stdio_output@@V?$standard_base@_WV?$stream_output_adapter@_W@__crt_stdio_output@@@2@@__crt_stdio_output@@AEBA?AW4state@2@_WW432@@Z 000000014001d0e0 f i libucrt:output.obj
 0001:0001c11c       ?find_next_state@?$output_processor@_WV?$string_output_adapter@_W@__crt_stdio_output@@V?$format_validation_base@_WV?$string_output_adapter@_W@__crt_stdio_output@@@2@@__crt_stdio_output@@AEBA?AW4state@2@_WW432@@Z 000000014001d11c f i libucrt:output.obj
 0001:0001c15c       ?find_next_state@?$output_processor@_WV?$string_output_adapter@_W@__crt_stdio_output@@V?$positional_parameter_base@_WV?$string_output_adapter@_W@__crt_stdio_output@@@2@@__crt_stdio_output@@AEBA?AW4state@2@_WW432@@Z 000000014001d15c f i libucrt:output.obj
 0001:0001c19c       ?find_next_state@?$output_processor@_WV?$string_output_adapter@_W@__crt_stdio_output@@V?$standard_base@_WV?$string_output_adapter@_W@__crt_stdio_output@@@2@@__crt_stdio_output@@AEBA?AW4state@2@_WW432@@Z 000000014001d19c f i libucrt:output.obj
 0001:0001c1d8       ?force_decimal_point@__crt_stdio_output@@YAXPEADQEAU__crt_locale_pointers@@@Z 000000014001d1d8 f i libucrt:output.obj
 0001:0001c240       ?force_synchronize_global_state_index@__crt_cached_ptd_host@@AEAA_KAEBV__crt_scoped_get_last_error_reset@@@Z 000000014001d240 f i libucrt:output.obj
 0001:0001c250       ?force_synchronize_per_thread_data@__crt_cached_ptd_host@@AEAAPEAU__acrt_ptd@@XZ 000000014001d250 f i libucrt:output.obj
 0001:0001c2a8       ?get@?$c_string_character_source@D@__crt_strtox@@QEAADXZ 000000014001d2a8 f i libucrt:output.obj
 0001:0001c2b4       ?get@?$c_string_character_source@_W@__crt_strtox@@QEAA_WXZ 000000014001d2b4 f i libucrt:output.obj
 0001:0001c2c4       ?get_current_state_index@__crt_state_management@@YA_KAEBV__crt_scoped_get_last_error_reset@@@Z 000000014001d2c4 f i libucrt:output.obj
 0001:0001c2d0       ?get_errno@__crt_cached_ptd_host@@QEAA@XZ 000000014001d2d0 f i libucrt:output.obj
 0001:0001c2d8       ?get_flags@__crt_stdio_stream@@QEBAJXZ 000000014001d2d8 f i libucrt:output.obj
 0001:0001c2e0       ?get_locale@__crt_cached_ptd_host@@QEAAPEAU__crt_locale_pointers@@XZ 000000014001d2e0 f i libucrt:output.obj
 0001:0001c308       ?get_parameter_type@?$positional_parameter_base@DV?$stream_output_adapter@D@__crt_stdio_output@@@__crt_stdio_output@@CA?AW4parameter_type@12@F@Z 000000014001d308 f i libucrt:output.obj
 0001:0001c310       ?get_parameter_type@?$positional_parameter_base@DV?$stream_output_adapter@D@__crt_stdio_output@@@__crt_stdio_output@@CA?AW4parameter_type@12@G@Z 000000014001d310 f i libucrt:output.obj
 0001:0001c318       ?get_parameter_type@?$positional_parameter_base@DV?$stream_output_adapter@D@__crt_stdio_output@@@__crt_stdio_output@@CA?AW4parameter_type@12@H@Z 000000014001d318 f i libucrt:output.obj
 0001:0001c320       ?get_parameter_type@?$positional_parameter_base@DV?$stream_output_adapter@D@__crt_stdio_output@@@__crt_stdio_output@@CA?AW4parameter_type@12@I@Z 000000014001d320 f i libucrt:output.obj
 0001:0001c328       ?get_parameter_type@?$positional_parameter_base@DV?$stream_output_adapter@D@__crt_stdio_output@@@__crt_stdio_output@@CA?AW4parameter_type@12@U_CRT_DOUBLE@@@Z 000000014001d328 f i libucrt:output.obj
 0001:0001c330       ?get_parameter_type@?$positional_parameter_base@DV?$stream_output_adapter@D@__crt_stdio_output@@@__crt_stdio_output@@CA?AW4parameter_type@12@_J@Z 000000014001d330 f i libucrt:output.obj
 0001:0001c338       ?get_parameter_type@?$positional_parameter_base@DV?$stream_output_adapter@D@__crt_stdio_output@@@__crt_stdio_output@@CA?AW4parameter_type@12@_K@Z 000000014001d338 f i libucrt:output.obj
 0001:0001c340       ?get_parameter_type@?$positional_parameter_base@DV?$stream_output_adapter@D@__crt_stdio_output@@@__crt_stdio_output@@CA?AW4parameter_type@12@_W@Z 000000014001d340 f i libucrt:output.obj
 0001:0001c348       ?get_parameter_type@?$positional_parameter_base@DV?$string_output_adapter@D@__crt_stdio_output@@@__crt_stdio_output@@CA?AW4parameter_type@12@F@Z 000000014001d348 f i libucrt:output.obj
 0001:0001c350       ?get_parameter_type@?$positional_parameter_base@DV?$string_output_adapter@D@__crt_stdio_output@@@__crt_stdio_output@@CA?AW4parameter_type@12@G@Z 000000014001d350 f i libucrt:output.obj
 0001:0001c358       ?get_parameter_type@?$positional_parameter_base@DV?$string_output_adapter@D@__crt_stdio_output@@@__crt_stdio_output@@CA?AW4parameter_type@12@H@Z 000000014001d358 f i libucrt:output.obj
 0001:0001c360       ?get_parameter_type@?$positional_parameter_base@DV?$string_output_adapter@D@__crt_stdio_output@@@__crt_stdio_output@@CA?AW4parameter_type@12@I@Z 000000014001d360 f i libucrt:output.obj
 0001:0001c368       ?get_parameter_type@?$positional_parameter_base@DV?$string_output_adapter@D@__crt_stdio_output@@@__crt_stdio_output@@CA?AW4parameter_type@12@U_CRT_DOUBLE@@@Z 000000014001d368 f i libucrt:output.obj
 0001:0001c370       ?get_parameter_type@?$positional_parameter_base@DV?$string_output_adapter@D@__crt_stdio_output@@@__crt_stdio_output@@CA?AW4parameter_type@12@_J@Z 000000014001d370 f i libucrt:output.obj
 0001:0001c378       ?get_parameter_type@?$positional_parameter_base@DV?$string_output_adapter@D@__crt_stdio_output@@@__crt_stdio_output@@CA?AW4parameter_type@12@_K@Z 000000014001d378 f i libucrt:output.obj
 0001:0001c380       ?get_parameter_type@?$positional_parameter_base@DV?$string_output_adapter@D@__crt_stdio_output@@@__crt_stdio_output@@CA?AW4parameter_type@12@_W@Z 000000014001d380 f i libucrt:output.obj
 0001:0001c388       ?get_parameter_type@?$positional_parameter_base@_WV?$stream_output_adapter@_W@__crt_stdio_output@@@__crt_stdio_output@@CA?AW4parameter_type@12@F@Z 000000014001d388 f i libucrt:output.obj
 0001:0001c390       ?get_parameter_type@?$positional_parameter_base@_WV?$stream_output_adapter@_W@__crt_stdio_output@@@__crt_stdio_output@@CA?AW4parameter_type@12@G@Z 000000014001d390 f i libucrt:output.obj
 0001:0001c398       ?get_parameter_type@?$positional_parameter_base@_WV?$stream_output_adapter@_W@__crt_stdio_output@@@__crt_stdio_output@@CA?AW4parameter_type@12@H@Z 000000014001d398 f i libucrt:output.obj
 0001:0001c3a0       ?get_parameter_type@?$positional_parameter_base@_WV?$stream_output_adapter@_W@__crt_stdio_output@@@__crt_stdio_output@@CA?AW4parameter_type@12@I@Z 000000014001d3a0 f i libucrt:output.obj
 0001:0001c3a8       ?get_parameter_type@?$positional_parameter_base@_WV?$stream_output_adapter@_W@__crt_stdio_output@@@__crt_stdio_output@@CA?AW4parameter_type@12@U_CRT_DOUBLE@@@Z 000000014001d3a8 f i libucrt:output.obj
 0001:0001c3b0       ?get_parameter_type@?$positional_parameter_base@_WV?$stream_output_adapter@_W@__crt_stdio_output@@@__crt_stdio_output@@CA?AW4parameter_type@12@_J@Z 000000014001d3b0 f i libucrt:output.obj
 0001:0001c3b8       ?get_parameter_type@?$positional_parameter_base@_WV?$stream_output_adapter@_W@__crt_stdio_output@@@__crt_stdio_output@@CA?AW4parameter_type@12@_K@Z 000000014001d3b8 f i libucrt:output.obj
 0001:0001c3c0       ?get_parameter_type@?$positional_parameter_base@_WV?$stream_output_adapter@_W@__crt_stdio_output@@@__crt_stdio_output@@CA?AW4parameter_type@12@_W@Z 000000014001d3c0 f i libucrt:output.obj
 0001:0001c3c8       ?get_parameter_type@?$positional_parameter_base@_WV?$string_output_adapter@_W@__crt_stdio_output@@@__crt_stdio_output@@CA?AW4parameter_type@12@F@Z 000000014001d3c8 f i libucrt:output.obj
 0001:0001c3d0       ?get_parameter_type@?$positional_parameter_base@_WV?$string_output_adapter@_W@__crt_stdio_output@@@__crt_stdio_output@@CA?AW4parameter_type@12@G@Z 000000014001d3d0 f i libucrt:output.obj
 0001:0001c3d8       ?get_parameter_type@?$positional_parameter_base@_WV?$string_output_adapter@_W@__crt_stdio_output@@@__crt_stdio_output@@CA?AW4parameter_type@12@H@Z 000000014001d3d8 f i libucrt:output.obj
 0001:0001c3e0       ?get_parameter_type@?$positional_parameter_base@_WV?$string_output_adapter@_W@__crt_stdio_output@@@__crt_stdio_output@@CA?AW4parameter_type@12@I@Z 000000014001d3e0 f i libucrt:output.obj
 0001:0001c3e8       ?get_parameter_type@?$positional_parameter_base@_WV?$string_output_adapter@_W@__crt_stdio_output@@@__crt_stdio_output@@CA?AW4parameter_type@12@U_CRT_DOUBLE@@@Z 000000014001d3e8 f i libucrt:output.obj
 0001:0001c3f0       ?get_parameter_type@?$positional_parameter_base@_WV?$string_output_adapter@_W@__crt_stdio_output@@@__crt_stdio_output@@CA?AW4parameter_type@12@_J@Z 000000014001d3f0 f i libucrt:output.obj
 0001:0001c3f8       ?get_parameter_type@?$positional_parameter_base@_WV?$string_output_adapter@_W@__crt_stdio_output@@@__crt_stdio_output@@CA?AW4parameter_type@12@_K@Z 000000014001d3f8 f i libucrt:output.obj
 0001:0001c400       ?get_parameter_type@?$positional_parameter_base@_WV?$string_output_adapter@_W@__crt_stdio_output@@@__crt_stdio_output@@CA?AW4parameter_type@12@_W@Z 000000014001d400 f i libucrt:output.obj
 0001:0001c410       ?get_raw_ptd@__crt_cached_ptd_host@@QEAAPEAU__acrt_ptd@@XZ 000000014001d410 f i libucrt:output.obj
 0001:0001c478       ?has_flag@?$output_processor@DV?$stream_output_adapter@D@__crt_stdio_output@@V?$format_validation_base@DV?$stream_output_adapter@D@__crt_stdio_output@@@2@@__crt_stdio_output@@AEBA_NI@Z 000000014001d478 f i libucrt:output.obj
 0001:0001c480       ?has_flag@?$output_processor@DV?$stream_output_adapter@D@__crt_stdio_output@@V?$positional_parameter_base@DV?$stream_output_adapter@D@__crt_stdio_output@@@2@@__crt_stdio_output@@AEBA_NI@Z 000000014001d480 f i libucrt:output.obj
 0001:0001c488       ?has_flag@?$output_processor@DV?$stream_output_adapter@D@__crt_stdio_output@@V?$standard_base@DV?$stream_output_adapter@D@__crt_stdio_output@@@2@@__crt_stdio_output@@AEBA_NI@Z 000000014001d488 f i libucrt:output.obj
 0001:0001c490       ?has_flag@?$output_processor@DV?$string_output_adapter@D@__crt_stdio_output@@V?$format_validation_base@DV?$string_output_adapter@D@__crt_stdio_output@@@2@@__crt_stdio_output@@AEBA_NI@Z 000000014001d490 f i libucrt:output.obj
 0001:0001c498       ?has_flag@?$output_processor@DV?$string_output_adapter@D@__crt_stdio_output@@V?$positional_parameter_base@DV?$string_output_adapter@D@__crt_stdio_output@@@2@@__crt_stdio_output@@AEBA_NI@Z 000000014001d498 f i libucrt:output.obj
 0001:0001c4a0       ?has_flag@?$output_processor@DV?$string_output_adapter@D@__crt_stdio_output@@V?$standard_base@DV?$string_output_adapter@D@__crt_stdio_output@@@2@@__crt_stdio_output@@AEBA_NI@Z 000000014001d4a0 f i libucrt:output.obj
 0001:0001c4a8       ?has_flag@?$output_processor@_WV?$stream_output_adapter@_W@__crt_stdio_output@@V?$format_validation_base@_WV?$stream_output_adapter@_W@__crt_stdio_output@@@2@@__crt_stdio_output@@AEBA_NI@Z 000000014001d4a8 f i libucrt:output.obj
 0001:0001c4b0       ?has_flag@?$output_processor@_WV?$stream_output_adapter@_W@__crt_stdio_output@@V?$positional_parameter_base@_WV?$stream_output_adapter@_W@__crt_stdio_output@@@2@@__crt_stdio_output@@AEBA_NI@Z 000000014001d4b0 f i libucrt:output.obj
 0001:0001c4b8       ?has_flag@?$output_processor@_WV?$stream_output_adapter@_W@__crt_stdio_output@@V?$standard_base@_WV?$stream_output_adapter@_W@__crt_stdio_output@@@2@@__crt_stdio_output@@AEBA_NI@Z 000000014001d4b8 f i libucrt:output.obj
 0001:0001c4c0       ?has_flag@?$output_processor@_WV?$string_output_adapter@_W@__crt_stdio_output@@V?$format_validation_base@_WV?$string_output_adapter@_W@__crt_stdio_output@@@2@@__crt_stdio_output@@AEBA_NI@Z 000000014001d4c0 f i libucrt:output.obj
 0001:0001c4c8       ?has_flag@?$output_processor@_WV?$string_output_adapter@_W@__crt_stdio_output@@V?$positional_parameter_base@_WV?$string_output_adapter@_W@__crt_stdio_output@@@2@@__crt_stdio_output@@AEBA_NI@Z 000000014001d4c8 f i libucrt:output.obj
 0001:0001c4d0       ?has_flag@?$output_processor@_WV?$string_output_adapter@_W@__crt_stdio_output@@V?$standard_base@_WV?$string_output_adapter@_W@__crt_stdio_output@@@2@@__crt_stdio_output@@AEBA_NI@Z 000000014001d4d0 f i libucrt:output.obj
 0001:0001c4d8       ?is_positional_parameter_reappearance_consistent@?$positional_parameter_base@DV?$stream_output_adapter@D@__crt_stdio_output@@@__crt_stdio_output@@AEAA_NAEBUparameter_data@12@W4parameter_type@12@DW4length_modifier@2@@Z 000000014001d4d8 f i libucrt:output.obj
 0001:0001c70c       ?is_positional_parameter_reappearance_consistent@?$positional_parameter_base@DV?$string_output_adapter@D@__crt_stdio_output@@@__crt_stdio_output@@AEAA_NAEBUparameter_data@12@W4parameter_type@12@DW4length_modifier@2@@Z 000000014001d70c f i libucrt:output.obj
 0001:0001c940       ?is_positional_parameter_reappearance_consistent@?$positional_parameter_base@_WV?$stream_output_adapter@_W@__crt_stdio_output@@@__crt_stdio_output@@AEAA_NAEBUparameter_data@12@W4parameter_type@12@_WW4length_modifier@2@@Z 000000014001d940 f i libucrt:output.obj
 0001:0001cb44       ?is_positional_parameter_reappearance_consistent@?$positional_parameter_base@_WV?$string_output_adapter@_W@__crt_stdio_output@@@__crt_stdio_output@@AEAA_NAEBUparameter_data@12@W4parameter_type@12@_WW4length_modifier@2@@Z 000000014001db44 f i libucrt:output.obj
 0001:0001cd48       ?is_string_backed@__crt_stdio_stream@@QEBA_NXZ 000000014001dd48 f i libucrt:output.obj
 0001:0001cd58       ?maximum_signed_value@__crt_strtox@@YAJK@Z 000000014001dd58 f i libucrt:output.obj
 0001:0001cd60       ?minimum_signed_value@__crt_strtox@@YAJK@Z 000000014001dd60 f i libucrt:output.obj
 0001:0001cd68       ?narrow_null_string@?$output_processor@DV?$stream_output_adapter@D@__crt_stdio_output@@V?$format_validation_base@DV?$stream_output_adapter@D@__crt_stdio_output@@@2@@__crt_stdio_output@@CAPEADXZ 000000014001dd68 f i libucrt:output.obj
 0001:0001cd70       ?narrow_null_string@?$output_processor@DV?$stream_output_adapter@D@__crt_stdio_output@@V?$positional_parameter_base@DV?$stream_output_adapter@D@__crt_stdio_output@@@2@@__crt_stdio_output@@CAPEADXZ 000000014001dd70 f i libucrt:output.obj
 0001:0001cd78       ?narrow_null_string@?$output_processor@DV?$stream_output_adapter@D@__crt_stdio_output@@V?$standard_base@DV?$stream_output_adapter@D@__crt_stdio_output@@@2@@__crt_stdio_output@@CAPEADXZ 000000014001dd78 f i libucrt:output.obj
 0001:0001cd80       ?narrow_null_string@?$output_processor@DV?$string_output_adapter@D@__crt_stdio_output@@V?$format_validation_base@DV?$string_output_adapter@D@__crt_stdio_output@@@2@@__crt_stdio_output@@CAPEADXZ 000000014001dd80 f i libucrt:output.obj
 0001:0001cd88       ?narrow_null_string@?$output_processor@DV?$string_output_adapter@D@__crt_stdio_output@@V?$positional_parameter_base@DV?$string_output_adapter@D@__crt_stdio_output@@@2@@__crt_stdio_output@@CAPEADXZ 000000014001dd88 f i libucrt:output.obj
 0001:0001cd90       ?narrow_null_string@?$output_processor@DV?$string_output_adapter@D@__crt_stdio_output@@V?$standard_base@DV?$string_output_adapter@D@__crt_stdio_output@@@2@@__crt_stdio_output@@CAPEADXZ 000000014001dd90 f i libucrt:output.obj
 0001:0001cd98       ?narrow_null_string@?$output_processor@_WV?$stream_output_adapter@_W@__crt_stdio_output@@V?$format_validation_base@_WV?$stream_output_adapter@_W@__crt_stdio_output@@@2@@__crt_stdio_output@@CAPEADXZ 000000014001dd98 f i libucrt:output.obj
 0001:0001cda0       ?narrow_null_string@?$output_processor@_WV?$stream_output_adapter@_W@__crt_stdio_output@@V?$positional_parameter_base@_WV?$stream_output_adapter@_W@__crt_stdio_output@@@2@@__crt_stdio_output@@CAPEADXZ 000000014001dda0 f i libucrt:output.obj
 0001:0001cda8       ?narrow_null_string@?$output_processor@_WV?$stream_output_adapter@_W@__crt_stdio_output@@V?$standard_base@_WV?$stream_output_adapter@_W@__crt_stdio_output@@@2@@__crt_stdio_output@@CAPEADXZ 000000014001dda8 f i libucrt:output.obj
 0001:0001cdb0       ?narrow_null_string@?$output_processor@_WV?$string_output_adapter@_W@__crt_stdio_output@@V?$format_validation_base@_WV?$string_output_adapter@_W@__crt_stdio_output@@@2@@__crt_stdio_output@@CAPEADXZ 000000014001ddb0 f i libucrt:output.obj
 0001:0001cdb8       ?narrow_null_string@?$output_processor@_WV?$string_output_adapter@_W@__crt_stdio_output@@V?$positional_parameter_base@_WV?$string_output_adapter@_W@__crt_stdio_output@@@2@@__crt_stdio_output@@CAPEADXZ 000000014001ddb8 f i libucrt:output.obj
 0001:0001cdc0       ?narrow_null_string@?$output_processor@_WV?$string_output_adapter@_W@__crt_stdio_output@@V?$standard_base@_WV?$string_output_adapter@_W@__crt_stdio_output@@@2@@__crt_stdio_output@@CAPEADXZ 000000014001ddc0 f i libucrt:output.obj
 0001:0001cdc8       ?parse_digit@__crt_strtox@@YAID@Z 000000014001ddc8 f i libucrt:output.obj
 0001:0001cdf8       ?parse_digit@__crt_strtox@@YAI_W@Z 000000014001ddf8 f i libucrt:output.obj
 0001:0001cfb4       ?parse_int_from_format_string@?$output_processor@DV?$stream_output_adapter@D@__crt_stdio_output@@V?$format_validation_base@DV?$stream_output_adapter@D@__crt_stdio_output@@@2@@__crt_stdio_output@@AEAA_NQEAH@Z 000000014001dfb4 f i libucrt:output.obj
 0001:0001d044       ?parse_int_from_format_string@?$output_processor@DV?$stream_output_adapter@D@__crt_stdio_output@@V?$positional_parameter_base@DV?$stream_output_adapter@D@__crt_stdio_output@@@2@@__crt_stdio_output@@AEAA_NQEAH@Z 000000014001e044 f i libucrt:output.obj
 0001:0001d0d4       ?parse_int_from_format_string@?$output_processor@DV?$stream_output_adapter@D@__crt_stdio_output@@V?$standard_base@DV?$stream_output_adapter@D@__crt_stdio_output@@@2@@__crt_stdio_output@@AEAA_NQEAH@Z 000000014001e0d4 f i libucrt:output.obj
 0001:0001d164       ?parse_int_from_format_string@?$output_processor@DV?$string_output_adapter@D@__crt_stdio_output@@V?$format_validation_base@DV?$string_output_adapter@D@__crt_stdio_output@@@2@@__crt_stdio_output@@AEAA_NQEAH@Z 000000014001e164 f i libucrt:output.obj
 0001:0001d1f4       ?parse_int_from_format_string@?$output_processor@DV?$string_output_adapter@D@__crt_stdio_output@@V?$positional_parameter_base@DV?$string_output_adapter@D@__crt_stdio_output@@@2@@__crt_stdio_output@@AEAA_NQEAH@Z 000000014001e1f4 f i libucrt:output.obj
 0001:0001d284       ?parse_int_from_format_string@?$output_processor@DV?$string_output_adapter@D@__crt_stdio_output@@V?$standard_base@DV?$string_output_adapter@D@__crt_stdio_output@@@2@@__crt_stdio_output@@AEAA_NQEAH@Z 000000014001e284 f i libucrt:output.obj
 0001:0001d314       ?parse_int_from_format_string@?$output_processor@_WV?$stream_output_adapter@_W@__crt_stdio_output@@V?$format_validation_base@_WV?$stream_output_adapter@_W@__crt_stdio_output@@@2@@__crt_stdio_output@@AEAA_NQEAH@Z 000000014001e314 f i libucrt:output.obj
 0001:0001d3a4       ?parse_int_from_format_string@?$output_processor@_WV?$stream_output_adapter@_W@__crt_stdio_output@@V?$positional_parameter_base@_WV?$stream_output_adapter@_W@__crt_stdio_output@@@2@@__crt_stdio_output@@AEAA_NQEAH@Z 000000014001e3a4 f i libucrt:output.obj
 0001:0001d434       ?parse_int_from_format_string@?$output_processor@_WV?$stream_output_adapter@_W@__crt_stdio_output@@V?$standard_base@_WV?$stream_output_adapter@_W@__crt_stdio_output@@@2@@__crt_stdio_output@@AEAA_NQEAH@Z 000000014001e434 f i libucrt:output.obj
 0001:0001d4c4       ?parse_int_from_format_string@?$output_processor@_WV?$string_output_adapter@_W@__crt_stdio_output@@V?$format_validation_base@_WV?$string_output_adapter@_W@__crt_stdio_output@@@2@@__crt_stdio_output@@AEAA_NQEAH@Z 000000014001e4c4 f i libucrt:output.obj
 0001:0001d554       ?parse_int_from_format_string@?$output_processor@_WV?$string_output_adapter@_W@__crt_stdio_output@@V?$positional_parameter_base@_WV?$string_output_adapter@_W@__crt_stdio_output@@@2@@__crt_stdio_output@@AEAA_NQEAH@Z 000000014001e554 f i libucrt:output.obj
 0001:0001d5e4       ?parse_int_from_format_string@?$output_processor@_WV?$string_output_adapter@_W@__crt_stdio_output@@V?$standard_base@_WV?$string_output_adapter@_W@__crt_stdio_output@@@2@@__crt_stdio_output@@AEAA_NQEAH@Z 000000014001e5e4 f i libucrt:output.obj
 0001:0001d674       ?process@?$output_processor@DV?$stream_output_adapter@D@__crt_stdio_output@@V?$format_validation_base@DV?$stream_output_adapter@D@__crt_stdio_output@@@2@@__crt_stdio_output@@QEAAHXZ 000000014001e674 f i libucrt:output.obj
 0001:0001da10       ?process@?$output_processor@DV?$stream_output_adapter@D@__crt_stdio_output@@V?$positional_parameter_base@DV?$stream_output_adapter@D@__crt_stdio_output@@@2@@__crt_stdio_output@@QEAAHXZ 000000014001ea10 f i libucrt:output.obj
 0001:0001de44       ?process@?$output_processor@DV?$stream_output_adapter@D@__crt_stdio_output@@V?$standard_base@DV?$stream_output_adapter@D@__crt_stdio_output@@@2@@__crt_stdio_output@@QEAAHXZ 000000014001ee44 f i libucrt:output.obj
 0001:0001e1dc       ?process@?$output_processor@DV?$string_output_adapter@D@__crt_stdio_output@@V?$format_validation_base@DV?$string_output_adapter@D@__crt_stdio_output@@@2@@__crt_stdio_output@@QEAAHXZ 000000014001f1dc f i libucrt:output.obj
 0001:0001e560       ?process@?$output_processor@DV?$string_output_adapter@D@__crt_stdio_output@@V?$positional_parameter_base@DV?$string_output_adapter@D@__crt_stdio_output@@@2@@__crt_stdio_output@@QEAAHXZ 000000014001f560 f i libucrt:output.obj
 0001:0001e978       ?process@?$output_processor@DV?$string_output_adapter@D@__crt_stdio_output@@V?$standard_base@DV?$string_output_adapter@D@__crt_stdio_output@@@2@@__crt_stdio_output@@QEAAHXZ 000000014001f978 f i libucrt:output.obj
 0001:0001ecf8       ?process@?$output_processor@_WV?$stream_output_adapter@_W@__crt_stdio_output@@V?$format_validation_base@_WV?$stream_output_adapter@_W@__crt_stdio_output@@@2@@__crt_stdio_output@@QEAAHXZ 000000014001fcf8 f i libucrt:output.obj
 0001:0001efd8       ?process@?$output_processor@_WV?$stream_output_adapter@_W@__crt_stdio_output@@V?$positional_parameter_base@_WV?$stream_output_adapter@_W@__crt_stdio_output@@@2@@__crt_stdio_output@@QEAAHXZ 000000014001ffd8 f i libucrt:output.obj
 0001:0001f348       ?process@?$output_processor@_WV?$stream_output_adapter@_W@__crt_stdio_output@@V?$standard_base@_WV?$stream_output_adapter@_W@__crt_stdio_output@@@2@@__crt_stdio_output@@QEAAHXZ 0000000140020348 f i libucrt:output.obj
 0001:0001f618       ?process@?$output_processor@_WV?$string_output_adapter@_W@__crt_stdio_output@@V?$format_validation_base@_WV?$string_output_adapter@_W@__crt_stdio_output@@@2@@__crt_stdio_output@@QEAAHXZ 0000000140020618 f i libucrt:output.obj
 0001:0001f8f0       ?process@?$output_processor@_WV?$string_output_adapter@_W@__crt_stdio_output@@V?$positional_parameter_base@_WV?$string_output_adapter@_W@__crt_stdio_output@@@2@@__crt_stdio_output@@QEAAHXZ 00000001400208f0 f i libucrt:output.obj
 0001:0001fc5c       ?process@?$output_processor@_WV?$string_output_adapter@_W@__crt_stdio_output@@V?$standard_base@_WV?$string_output_adapter@_W@__crt_stdio_output@@@2@@__crt_stdio_output@@QEAAHXZ 0000000140020c5c f i libucrt:output.obj
 0001:0001ff34       ?public_stream@__crt_stdio_stream@@QEBAPEAU_iobuf@@XZ 0000000140020f34 f i libucrt:output.obj
 0001:0001ff38       ?restore_state@?$c_string_character_source@D@__crt_strtox@@QEAA_NQEBD@Z 0000000140020f38 f i libucrt:output.obj
 0001:0001ff40       ?restore_state@?$c_string_character_source@_W@__crt_strtox@@QEAA_NQEB_W@Z 0000000140020f40 f i libucrt:output.obj
 0001:0001ff48       ?save_state@?$c_string_character_source@D@__crt_strtox@@QEBAPEBDXZ 0000000140020f48 f i libucrt:output.obj
 0001:0001ff4c       ?save_state@?$c_string_character_source@_W@__crt_strtox@@QEBAPEB_WXZ 0000000140020f4c f i libucrt:output.obj
 0001:0001ff50       ?set@?$cached@H@__crt_cached_ptd_host@@QEAAHH@Z 0000000140020f50 f i libucrt:output.obj
 0001:0001ff5c       ?set_flag@?$output_processor@DV?$stream_output_adapter@D@__crt_stdio_output@@V?$format_validation_base@DV?$stream_output_adapter@D@__crt_stdio_output@@@2@@__crt_stdio_output@@AEAAXI@Z 0000000140020f5c f i libucrt:output.obj
 0001:0001ff60       ?set_flag@?$output_processor@DV?$stream_output_adapter@D@__crt_stdio_output@@V?$positional_parameter_base@DV?$stream_output_adapter@D@__crt_stdio_output@@@2@@__crt_stdio_output@@AEAAXI@Z 0000000140020f60 f i libucrt:output.obj
 0001:0001ff64       ?set_flag@?$output_processor@DV?$stream_output_adapter@D@__crt_stdio_output@@V?$standard_base@DV?$stream_output_adapter@D@__crt_stdio_output@@@2@@__crt_stdio_output@@AEAAXI@Z 0000000140020f64 f i libucrt:output.obj
 0001:0001ff68       ?set_flag@?$output_processor@DV?$string_output_adapter@D@__crt_stdio_output@@V?$format_validation_base@DV?$string_output_adapter@D@__crt_stdio_output@@@2@@__crt_stdio_output@@AEAAXI@Z 0000000140020f68 f i libucrt:output.obj
 0001:0001ff6c       ?set_flag@?$output_processor@DV?$string_output_adapter@D@__crt_stdio_output@@V?$positional_parameter_base@DV?$string_output_adapter@D@__crt_stdio_output@@@2@@__crt_stdio_output@@AEAAXI@Z 0000000140020f6c f i libucrt:output.obj
 0001:0001ff70       ?set_flag@?$output_processor@DV?$string_output_adapter@D@__crt_stdio_output@@V?$standard_base@DV?$string_output_adapter@D@__crt_stdio_output@@@2@@__crt_stdio_output@@AEAAXI@Z 0000000140020f70 f i libucrt:output.obj
 0001:0001ff74       ?set_flag@?$output_processor@_WV?$stream_output_adapter@_W@__crt_stdio_output@@V?$format_validation_base@_WV?$stream_output_adapter@_W@__crt_stdio_output@@@2@@__crt_stdio_output@@AEAAXI@Z 0000000140020f74 f i libucrt:output.obj
 0001:0001ff78       ?set_flag@?$output_processor@_WV?$stream_output_adapter@_W@__crt_stdio_output@@V?$positional_parameter_base@_WV?$stream_output_adapter@_W@__crt_stdio_output@@@2@@__crt_stdio_output@@AEAAXI@Z 0000000140020f78 f i libucrt:output.obj
 0001:0001ff7c       ?set_flag@?$output_processor@_WV?$stream_output_adapter@_W@__crt_stdio_output@@V?$standard_base@_WV?$stream_output_adapter@_W@__crt_stdio_output@@@2@@__crt_stdio_output@@AEAAXI@Z 0000000140020f7c f i libucrt:output.obj
 0001:0001ff80       ?set_flag@?$output_processor@_WV?$string_output_adapter@_W@__crt_stdio_output@@V?$format_validation_base@_WV?$string_output_adapter@_W@__crt_stdio_output@@@2@@__crt_stdio_output@@AEAAXI@Z 0000000140020f80 f i libucrt:output.obj
 0001:0001ff84       ?set_flag@?$output_processor@_WV?$string_output_adapter@_W@__crt_stdio_output@@V?$positional_parameter_base@_WV?$string_output_adapter@_W@__crt_stdio_output@@@2@@__crt_stdio_output@@AEAAXI@Z 0000000140020f84 f i libucrt:output.obj
 0001:0001ff88       ?set_flag@?$output_processor@_WV?$string_output_adapter@_W@__crt_stdio_output@@V?$standard_base@_WV?$string_output_adapter@_W@__crt_stdio_output@@@2@@__crt_stdio_output@@AEAAXI@Z 0000000140020f88 f i libucrt:output.obj
 0001:0001ff8c       ?should_format@?$positional_parameter_base@DV?$stream_output_adapter@D@__crt_stdio_output@@@__crt_stdio_output@@IEAA_NXZ 0000000140020f8c f i libucrt:output.obj
 0001:0001ffa4       ?should_format@?$positional_parameter_base@DV?$string_output_adapter@D@__crt_stdio_output@@@__crt_stdio_output@@IEAA_NXZ 0000000140020fa4 f i libucrt:output.obj
 0001:0001ffbc       ?should_format@?$positional_parameter_base@_WV?$stream_output_adapter@_W@__crt_stdio_output@@@__crt_stdio_output@@IEAA_NXZ 0000000140020fbc f i libucrt:output.obj
 0001:0001ffd4       ?should_format@?$positional_parameter_base@_WV?$string_output_adapter@_W@__crt_stdio_output@@@__crt_stdio_output@@IEAA_NXZ 0000000140020fd4 f i libucrt:output.obj
 0001:0001ffec       ?should_format@?$standard_base@DV?$stream_output_adapter@D@__crt_stdio_output@@@__crt_stdio_output@@IEAA_NXZ 0000000140020fec f i libucrt:output.obj
 0001:0001fff0       ?should_format@?$standard_base@DV?$string_output_adapter@D@__crt_stdio_output@@@__crt_stdio_output@@IEAA_NXZ 0000000140020ff0 f i libucrt:output.obj
 0001:0001fff4       ?should_format@?$standard_base@_WV?$stream_output_adapter@_W@__crt_stdio_output@@@__crt_stdio_output@@IEAA_NXZ 0000000140020ff4 f i libucrt:output.obj
 0001:0001fff8       ?should_format@?$standard_base@_WV?$string_output_adapter@_W@__crt_stdio_output@@@__crt_stdio_output@@IEAA_NXZ 0000000140020ff8 f i libucrt:output.obj
 0001:0001fffc       ?should_skip_normal_state_processing@?$positional_parameter_base@DV?$stream_output_adapter@D@__crt_stdio_output@@@__crt_stdio_output@@IEAA_NXZ 0000000140020ffc f i libucrt:output.obj
 0001:00020028       ?should_skip_normal_state_processing@?$positional_parameter_base@DV?$string_output_adapter@D@__crt_stdio_output@@@__crt_stdio_output@@IEAA_NXZ 0000000140021028 f i libucrt:output.obj
 0001:00020054       ?should_skip_normal_state_processing@?$positional_parameter_base@_WV?$stream_output_adapter@_W@__crt_stdio_output@@@__crt_stdio_output@@IEAA_NXZ 0000000140021054 f i libucrt:output.obj
 0001:00020080       ?should_skip_normal_state_processing@?$positional_parameter_base@_WV?$string_output_adapter@_W@__crt_stdio_output@@@__crt_stdio_output@@IEAA_NXZ 0000000140021080 f i libucrt:output.obj
 0001:000200ac       ?should_skip_normal_state_processing@?$standard_base@DV?$stream_output_adapter@D@__crt_stdio_output@@@__crt_stdio_output@@IEAA_NXZ 00000001400210ac f i libucrt:output.obj
 0001:000200b0       ?should_skip_normal_state_processing@?$standard_base@DV?$string_output_adapter@D@__crt_stdio_output@@@__crt_stdio_output@@IEAA_NXZ 00000001400210b0 f i libucrt:output.obj
 0001:000200b4       ?should_skip_normal_state_processing@?$standard_base@_WV?$stream_output_adapter@_W@__crt_stdio_output@@@__crt_stdio_output@@IEAA_NXZ 00000001400210b4 f i libucrt:output.obj
 0001:000200b8       ?should_skip_normal_state_processing@?$standard_base@_WV?$string_output_adapter@_W@__crt_stdio_output@@@__crt_stdio_output@@IEAA_NXZ 00000001400210b8 f i libucrt:output.obj
 0001:000200bc       ?should_skip_type_state_output@?$positional_parameter_base@DV?$stream_output_adapter@D@__crt_stdio_output@@@__crt_stdio_output@@IEBA_NXZ 00000001400210bc f i libucrt:output.obj
 0001:000200d8       ?should_skip_type_state_output@?$positional_parameter_base@DV?$string_output_adapter@D@__crt_stdio_output@@@__crt_stdio_output@@IEBA_NXZ 00000001400210d8 f i libucrt:output.obj
 0001:000200f4       ?should_skip_type_state_output@?$positional_parameter_base@_WV?$stream_output_adapter@_W@__crt_stdio_output@@@__crt_stdio_output@@IEBA_NXZ 00000001400210f4 f i libucrt:output.obj
 0001:00020110       ?should_skip_type_state_output@?$positional_parameter_base@_WV?$string_output_adapter@_W@__crt_stdio_output@@@__crt_stdio_output@@IEBA_NXZ 0000000140021110 f i libucrt:output.obj
 0001:0002012c       ?should_skip_type_state_output@?$standard_base@DV?$stream_output_adapter@D@__crt_stdio_output@@@__crt_stdio_output@@IEBA_NXZ 000000014002112c f i libucrt:output.obj
 0001:00020130       ?should_skip_type_state_output@?$standard_base@DV?$string_output_adapter@D@__crt_stdio_output@@@__crt_stdio_output@@IEBA_NXZ 0000000140021130 f i libucrt:output.obj
 0001:00020134       ?should_skip_type_state_output@?$standard_base@_WV?$stream_output_adapter@_W@__crt_stdio_output@@@__crt_stdio_output@@IEBA_NXZ 0000000140021134 f i libucrt:output.obj
 0001:00020138       ?should_skip_type_state_output@?$standard_base@_WV?$string_output_adapter@_W@__crt_stdio_output@@@__crt_stdio_output@@IEBA_NXZ 0000000140021138 f i libucrt:output.obj
 0001:0002013c       ?state_case_dot@?$output_processor@DV?$stream_output_adapter@D@__crt_stdio_output@@V?$format_validation_base@DV?$stream_output_adapter@D@__crt_stdio_output@@@2@@__crt_stdio_output@@AEAA_NXZ 000000014002113c f i libucrt:output.obj
 0001:00020144       ?state_case_dot@?$output_processor@DV?$stream_output_adapter@D@__crt_stdio_output@@V?$positional_parameter_base@DV?$stream_output_adapter@D@__crt_stdio_output@@@2@@__crt_stdio_output@@AEAA_NXZ 0000000140021144 f i libucrt:output.obj
 0001:0002014c       ?state_case_dot@?$output_processor@DV?$stream_output_adapter@D@__crt_stdio_output@@V?$standard_base@DV?$stream_output_adapter@D@__crt_stdio_output@@@2@@__crt_stdio_output@@AEAA_NXZ 000000014002114c f i libucrt:output.obj
 0001:00020154       ?state_case_dot@?$output_processor@DV?$string_output_adapter@D@__crt_stdio_output@@V?$format_validation_base@DV?$string_output_adapter@D@__crt_stdio_output@@@2@@__crt_stdio_output@@AEAA_NXZ 0000000140021154 f i libucrt:output.obj
 0001:0002015c       ?state_case_dot@?$output_processor@DV?$string_output_adapter@D@__crt_stdio_output@@V?$positional_parameter_base@DV?$string_output_adapter@D@__crt_stdio_output@@@2@@__crt_stdio_output@@AEAA_NXZ 000000014002115c f i libucrt:output.obj
 0001:00020164       ?state_case_dot@?$output_processor@DV?$string_output_adapter@D@__crt_stdio_output@@V?$standard_base@DV?$string_output_adapter@D@__crt_stdio_output@@@2@@__crt_stdio_output@@AEAA_NXZ 0000000140021164 f i libucrt:output.obj
 0001:0002016c       ?state_case_dot@?$output_processor@_WV?$stream_output_adapter@_W@__crt_stdio_output@@V?$format_validation_base@_WV?$stream_output_adapter@_W@__crt_stdio_output@@@2@@__crt_stdio_output@@AEAA_NXZ 000000014002116c f i libucrt:output.obj
 0001:00020174       ?state_case_dot@?$output_processor@_WV?$stream_output_adapter@_W@__crt_stdio_output@@V?$positional_parameter_base@_WV?$stream_output_adapter@_W@__crt_stdio_output@@@2@@__crt_stdio_output@@AEAA_NXZ 0000000140021174 f i libucrt:output.obj
 0001:0002017c       ?state_case_dot@?$output_processor@_WV?$stream_output_adapter@_W@__crt_stdio_output@@V?$standard_base@_WV?$stream_output_adapter@_W@__crt_stdio_output@@@2@@__crt_stdio_output@@AEAA_NXZ 000000014002117c f i libucrt:output.obj
 0001:00020184       ?state_case_dot@?$output_processor@_WV?$string_output_adapter@_W@__crt_stdio_output@@V?$format_validation_base@_WV?$string_output_adapter@_W@__crt_stdio_output@@@2@@__crt_stdio_output@@AEAA_NXZ 0000000140021184 f i libucrt:output.obj
 0001:0002018c       ?state_case_dot@?$output_processor@_WV?$string_output_adapter@_W@__crt_stdio_output@@V?$positional_parameter_base@_WV?$string_output_adapter@_W@__crt_stdio_output@@@2@@__crt_stdio_output@@AEAA_NXZ 000000014002118c f i libucrt:output.obj
 0001:00020194       ?state_case_dot@?$output_processor@_WV?$string_output_adapter@_W@__crt_stdio_output@@V?$standard_base@_WV?$string_output_adapter@_W@__crt_stdio_output@@@2@@__crt_stdio_output@@AEAA_NXZ 0000000140021194 f i libucrt:output.obj
 0001:0002019c       ?state_case_flag@?$output_processor@DV?$stream_output_adapter@D@__crt_stdio_output@@V?$format_validation_base@DV?$stream_output_adapter@D@__crt_stdio_output@@@2@@__crt_stdio_output@@AEAA_NXZ 000000014002119c f i libucrt:output.obj
 0001:000201d4       ?state_case_flag@?$output_processor@DV?$stream_output_adapter@D@__crt_stdio_output@@V?$positional_parameter_base@DV?$stream_output_adapter@D@__crt_stdio_output@@@2@@__crt_stdio_output@@AEAA_NXZ 00000001400211d4 f i libucrt:output.obj
 0001:0002020c       ?state_case_flag@?$output_processor@DV?$stream_output_adapter@D@__crt_stdio_output@@V?$standard_base@DV?$stream_output_adapter@D@__crt_stdio_output@@@2@@__crt_stdio_output@@AEAA_NXZ 000000014002120c f i libucrt:output.obj
 0001:00020244       ?state_case_flag@?$output_processor@DV?$string_output_adapter@D@__crt_stdio_output@@V?$format_validation_base@DV?$string_output_adapter@D@__crt_stdio_output@@@2@@__crt_stdio_output@@AEAA_NXZ 0000000140021244 f i libucrt:output.obj
 0001:0002027c       ?state_case_flag@?$output_processor@DV?$string_output_adapter@D@__crt_stdio_output@@V?$positional_parameter_base@DV?$string_output_adapter@D@__crt_stdio_output@@@2@@__crt_stdio_output@@AEAA_NXZ 000000014002127c f i libucrt:output.obj
 0001:000202b4       ?state_case_flag@?$output_processor@DV?$string_output_adapter@D@__crt_stdio_output@@V?$standard_base@DV?$string_output_adapter@D@__crt_stdio_output@@@2@@__crt_stdio_output@@AEAA_NXZ 00000001400212b4 f i libucrt:output.obj
 0001:000202ec       ?state_case_flag@?$output_processor@_WV?$stream_output_adapter@_W@__crt_stdio_output@@V?$format_validation_base@_WV?$stream_output_adapter@_W@__crt_stdio_output@@@2@@__crt_stdio_output@@AEAA_NXZ 00000001400212ec f i libucrt:output.obj
 0001:00020330       ?state_case_flag@?$output_processor@_WV?$stream_output_adapter@_W@__crt_stdio_output@@V?$positional_parameter_base@_WV?$stream_output_adapter@_W@__crt_stdio_output@@@2@@__crt_stdio_output@@AEAA_NXZ 0000000140021330 f i libucrt:output.obj
 0001:00020374       ?state_case_flag@?$output_processor@_WV?$stream_output_adapter@_W@__crt_stdio_output@@V?$standard_base@_WV?$stream_output_adapter@_W@__crt_stdio_output@@@2@@__crt_stdio_output@@AEAA_NXZ 0000000140021374 f i libucrt:output.obj
 0001:000203b8       ?state_case_flag@?$output_processor@_WV?$string_output_adapter@_W@__crt_stdio_output@@V?$format_validation_base@_WV?$string_output_adapter@_W@__crt_stdio_output@@@2@@__crt_stdio_output@@AEAA_NXZ 00000001400213b8 f i libucrt:output.obj
 0001:000203fc       ?state_case_flag@?$output_processor@_WV?$string_output_adapter@_W@__crt_stdio_output@@V?$positional_parameter_base@_WV?$string_output_adapter@_W@__crt_stdio_output@@@2@@__crt_stdio_output@@AEAA_NXZ 00000001400213fc f i libucrt:output.obj
 0001:00020440       ?state_case_flag@?$output_processor@_WV?$string_output_adapter@_W@__crt_stdio_output@@V?$standard_base@_WV?$string_output_adapter@_W@__crt_stdio_output@@@2@@__crt_stdio_output@@AEAA_NXZ 0000000140021440 f i libucrt:output.obj
 0001:00020484       ?state_case_normal@?$output_processor@DV?$stream_output_adapter@D@__crt_stdio_output@@V?$format_validation_base@DV?$stream_output_adapter@D@__crt_stdio_output@@@2@@__crt_stdio_output@@AEAA_NXZ 0000000140021484 f i libucrt:output.obj
 0001:000205d8       ?state_case_normal@?$output_processor@DV?$stream_output_adapter@D@__crt_stdio_output@@V?$positional_parameter_base@DV?$stream_output_adapter@D@__crt_stdio_output@@@2@@__crt_stdio_output@@AEAA_NXZ 00000001400215d8 f i libucrt:output.obj
 0001:00020758       ?state_case_normal@?$output_processor@DV?$stream_output_adapter@D@__crt_stdio_output@@V?$standard_base@DV?$stream_output_adapter@D@__crt_stdio_output@@@2@@__crt_stdio_output@@AEAA_NXZ 0000000140021758 f i libucrt:output.obj
 0001:000208ac       ?state_case_normal@?$output_processor@DV?$string_output_adapter@D@__crt_stdio_output@@V?$format_validation_base@DV?$string_output_adapter@D@__crt_stdio_output@@@2@@__crt_stdio_output@@AEAA_NXZ 00000001400218ac f i libucrt:output.obj
 0001:000209f8       ?state_case_normal@?$output_processor@DV?$string_output_adapter@D@__crt_stdio_output@@V?$positional_parameter_base@DV?$string_output_adapter@D@__crt_stdio_output@@@2@@__crt_stdio_output@@AEAA_NXZ 00000001400219f8 f i libucrt:output.obj
 0001:00020b70       ?state_case_normal@?$output_processor@DV?$string_output_adapter@D@__crt_stdio_output@@V?$standard_base@DV?$string_output_adapter@D@__crt_stdio_output@@@2@@__crt_stdio_output@@AEAA_NXZ 0000000140021b70 f i libucrt:output.obj
 0001:00020cbc       ?state_case_normal@?$output_processor@_WV?$stream_output_adapter@_W@__crt_stdio_output@@V?$format_validation_base@_WV?$stream_output_adapter@_W@__crt_stdio_output@@@2@@__crt_stdio_output@@AEAA_NXZ 0000000140021cbc f i libucrt:output.obj
 0001:00020d1c       ?state_case_normal@?$output_processor@_WV?$stream_output_adapter@_W@__crt_stdio_output@@V?$positional_parameter_base@_WV?$stream_output_adapter@_W@__crt_stdio_output@@@2@@__crt_stdio_output@@AEAA_NXZ 0000000140021d1c f i libucrt:output.obj
 0001:00020da0       ?state_case_normal@?$output_processor@_WV?$stream_output_adapter@_W@__crt_stdio_output@@V?$standard_base@_WV?$stream_output_adapter@_W@__crt_stdio_output@@@2@@__crt_stdio_output@@AEAA_NXZ 0000000140021da0 f i libucrt:output.obj
 0001:00020e00       ?state_case_normal@?$output_processor@_WV?$string_output_adapter@_W@__crt_stdio_output@@V?$format_validation_base@_WV?$string_output_adapter@_W@__crt_stdio_output@@@2@@__crt_stdio_output@@AEAA_NXZ 0000000140021e00 f i libucrt:output.obj
 0001:00020e54       ?state_case_normal@?$output_processor@_WV?$string_output_adapter@_W@__crt_stdio_output@@V?$positional_parameter_base@_WV?$string_output_adapter@_W@__crt_stdio_output@@@2@@__crt_stdio_output@@AEAA_NXZ 0000000140021e54 f i libucrt:output.obj
 0001:00020ecc       ?state_case_normal@?$output_processor@_WV?$string_output_adapter@_W@__crt_stdio_output@@V?$standard_base@_WV?$string_output_adapter@_W@__crt_stdio_output@@@2@@__crt_stdio_output@@AEAA_NXZ 0000000140021ecc f i libucrt:output.obj
 0001:00020f20       ?state_case_normal_common@?$output_processor@DV?$stream_output_adapter@D@__crt_stdio_output@@V?$format_validation_base@DV?$stream_output_adapter@D@__crt_stdio_output@@@2@@__crt_stdio_output@@AEAA_NXZ 0000000140021f20 f i libucrt:output.obj
 0001:0002104c       ?state_case_normal_common@?$output_processor@DV?$stream_output_adapter@D@__crt_stdio_output@@V?$positional_parameter_base@DV?$stream_output_adapter@D@__crt_stdio_output@@@2@@__crt_stdio_output@@AEAA_NXZ 000000014002204c f i libucrt:output.obj
 0001:00021178       ?state_case_normal_common@?$output_processor@DV?$stream_output_adapter@D@__crt_stdio_output@@V?$standard_base@DV?$stream_output_adapter@D@__crt_stdio_output@@@2@@__crt_stdio_output@@AEAA_NXZ 0000000140022178 f i libucrt:output.obj
 0001:000212a4       ?state_case_normal_common@?$output_processor@DV?$string_output_adapter@D@__crt_stdio_output@@V?$format_validation_base@DV?$string_output_adapter@D@__crt_stdio_output@@@2@@__crt_stdio_output@@AEAA_NXZ 00000001400222a4 f i libucrt:output.obj
 0001:000213c8       ?state_case_normal_common@?$output_processor@DV?$string_output_adapter@D@__crt_stdio_output@@V?$positional_parameter_base@DV?$string_output_adapter@D@__crt_stdio_output@@@2@@__crt_stdio_output@@AEAA_NXZ 00000001400223c8 f i libucrt:output.obj
 0001:000214ec       ?state_case_normal_common@?$output_processor@DV?$string_output_adapter@D@__crt_stdio_output@@V?$standard_base@DV?$string_output_adapter@D@__crt_stdio_output@@@2@@__crt_stdio_output@@AEAA_NXZ 00000001400224ec f i libucrt:output.obj
 0001:00021610       ?state_case_normal_common@?$output_processor@_WV?$stream_output_adapter@_W@__crt_stdio_output@@V?$format_validation_base@_WV?$stream_output_adapter@_W@__crt_stdio_output@@@2@@__crt_stdio_output@@AEAA_NXZ 0000000140022610 f i libucrt:output.obj
 0001:00021670       ?state_case_normal_common@?$output_processor@_WV?$stream_output_adapter@_W@__crt_stdio_output@@V?$positional_parameter_base@_WV?$stream_output_adapter@_W@__crt_stdio_output@@@2@@__crt_stdio_output@@AEAA_NXZ 0000000140022670 f i libucrt:output.obj
 0001:000216d0       ?state_case_normal_common@?$output_processor@_WV?$stream_output_adapter@_W@__crt_stdio_output@@V?$standard_base@_WV?$stream_output_adapter@_W@__crt_stdio_output@@@2@@__crt_stdio_output@@AEAA_NXZ 00000001400226d0 f i libucrt:output.obj
 0001:00021730       ?state_case_normal_common@?$output_processor@_WV?$string_output_adapter@_W@__crt_stdio_output@@V?$format_validation_base@_WV?$string_output_adapter@_W@__crt_stdio_output@@@2@@__crt_stdio_output@@AEAA_NXZ 0000000140022730 f i libucrt:output.obj
 0001:00021784       ?state_case_normal_common@?$output_processor@_WV?$string_output_adapter@_W@__crt_stdio_output@@V?$positional_parameter_base@_WV?$string_output_adapter@_W@__crt_stdio_output@@@2@@__crt_stdio_output@@AEAA_NXZ 0000000140022784 f i libucrt:output.obj
 0001:000217d8       ?state_case_normal_common@?$output_processor@_WV?$string_output_adapter@_W@__crt_stdio_output@@V?$standard_base@_WV?$string_output_adapter@_W@__crt_stdio_output@@@2@@__crt_stdio_output@@AEAA_NXZ 00000001400227d8 f i libucrt:output.obj
 0001:0002182c       ?state_case_normal_tchar@?$output_processor@DV?$stream_output_adapter@D@__crt_stdio_output@@V?$format_validation_base@DV?$stream_output_adapter@D@__crt_stdio_output@@@2@@__crt_stdio_output@@AEAA_ND@Z 000000014002282c f i libucrt:output.obj
 0001:0002190c       ?state_case_normal_tchar@?$output_processor@DV?$stream_output_adapter@D@__crt_stdio_output@@V?$positional_parameter_base@DV?$stream_output_adapter@D@__crt_stdio_output@@@2@@__crt_stdio_output@@AEAA_ND@Z 000000014002290c f i libucrt:output.obj
 0001:000219ec       ?state_case_normal_tchar@?$output_processor@DV?$stream_output_adapter@D@__crt_stdio_output@@V?$standard_base@DV?$stream_output_adapter@D@__crt_stdio_output@@@2@@__crt_stdio_output@@AEAA_ND@Z 00000001400229ec f i libucrt:output.obj
 0001:00021acc       ?state_case_normal_tchar@?$output_processor@DV?$string_output_adapter@D@__crt_stdio_output@@V?$format_validation_base@DV?$string_output_adapter@D@__crt_stdio_output@@@2@@__crt_stdio_output@@AEAA_ND@Z 0000000140022acc f i libucrt:output.obj
 0001:00021ba8       ?state_case_normal_tchar@?$output_processor@DV?$string_output_adapter@D@__crt_stdio_output@@V?$positional_parameter_base@DV?$string_output_adapter@D@__crt_stdio_output@@@2@@__crt_stdio_output@@AEAA_ND@Z 0000000140022ba8 f i libucrt:output.obj
 0001:00021c84       ?state_case_normal_tchar@?$output_processor@DV?$string_output_adapter@D@__crt_stdio_output@@V?$standard_base@DV?$string_output_adapter@D@__crt_stdio_output@@@2@@__crt_stdio_output@@AEAA_ND@Z 0000000140022c84 f i libucrt:output.obj
 0001:00021d60       ?state_case_normal_tchar@?$output_processor@_WV?$stream_output_adapter@_W@__crt_stdio_output@@V?$format_validation_base@_WV?$stream_output_adapter@_W@__crt_stdio_output@@@2@@__crt_stdio_output@@AEAA_N_W@Z 0000000140022d60 f i libucrt:output.obj
 0001:00021d68       ?state_case_normal_tchar@?$output_processor@_WV?$stream_output_adapter@_W@__crt_stdio_output@@V?$positional_parameter_base@_WV?$stream_output_adapter@_W@__crt_stdio_output@@@2@@__crt_stdio_output@@AEAA_N_W@Z 0000000140022d68 f i libucrt:output.obj
 0001:00021d70       ?state_case_normal_tchar@?$output_processor@_WV?$stream_output_adapter@_W@__crt_stdio_output@@V?$standard_base@_WV?$stream_output_adapter@_W@__crt_stdio_output@@@2@@__crt_stdio_output@@AEAA_N_W@Z 0000000140022d70 f i libucrt:output.obj
 0001:00021d78       ?state_case_normal_tchar@?$output_processor@_WV?$string_output_adapter@_W@__crt_stdio_output@@V?$format_validation_base@_WV?$string_output_adapter@_W@__crt_stdio_output@@@2@@__crt_stdio_output@@AEAA_N_W@Z 0000000140022d78 f i libucrt:output.obj
 0001:00021d80       ?state_case_normal_tchar@?$output_processor@_WV?$string_output_adapter@_W@__crt_stdio_output@@V?$positional_parameter_base@_WV?$string_output_adapter@_W@__crt_stdio_output@@@2@@__crt_stdio_output@@AEAA_N_W@Z 0000000140022d80 f i libucrt:output.obj
 0001:00021d88       ?state_case_normal_tchar@?$output_processor@_WV?$string_output_adapter@_W@__crt_stdio_output@@V?$standard_base@_WV?$string_output_adapter@_W@__crt_stdio_output@@@2@@__crt_stdio_output@@AEAA_N_W@Z 0000000140022d88 f i libucrt:output.obj
 0001:00021d90       ?state_case_percent@?$output_processor@DV?$stream_output_adapter@D@__crt_stdio_output@@V?$format_validation_base@DV?$stream_output_adapter@D@__crt_stdio_output@@@2@@__crt_stdio_output@@AEAA_NXZ 0000000140022d90 f i libucrt:output.obj
 0001:00021da8       ?state_case_percent@?$output_processor@DV?$stream_output_adapter@D@__crt_stdio_output@@V?$positional_parameter_base@DV?$stream_output_adapter@D@__crt_stdio_output@@@2@@__crt_stdio_output@@AEAA_NXZ 0000000140022da8 f i libucrt:output.obj
 0001:00021dc0       ?state_case_percent@?$output_processor@DV?$stream_output_adapter@D@__crt_stdio_output@@V?$standard_base@DV?$stream_output_adapter@D@__crt_stdio_output@@@2@@__crt_stdio_output@@AEAA_NXZ 0000000140022dc0 f i libucrt:output.obj
 0001:00021dd8       ?state_case_percent@?$output_processor@DV?$string_output_adapter@D@__crt_stdio_output@@V?$format_validation_base@DV?$string_output_adapter@D@__crt_stdio_output@@@2@@__crt_stdio_output@@AEAA_NXZ 0000000140022dd8 f i libucrt:output.obj
 0001:00021df0       ?state_case_percent@?$output_processor@DV?$string_output_adapter@D@__crt_stdio_output@@V?$positional_parameter_base@DV?$string_output_adapter@D@__crt_stdio_output@@@2@@__crt_stdio_output@@AEAA_NXZ 0000000140022df0 f i libucrt:output.obj
 0001:00021e08       ?state_case_percent@?$output_processor@DV?$string_output_adapter@D@__crt_stdio_output@@V?$standard_base@DV?$string_output_adapter@D@__crt_stdio_output@@@2@@__crt_stdio_output@@AEAA_NXZ 0000000140022e08 f i libucrt:output.obj
 0001:00021e20       ?state_case_percent@?$output_processor@_WV?$stream_output_adapter@_W@__crt_stdio_output@@V?$format_validation_base@_WV?$stream_output_adapter@_W@__crt_stdio_output@@@2@@__crt_stdio_output@@AEAA_NXZ 0000000140022e20 f i libucrt:output.obj
 0001:00021e38       ?state_case_percent@?$output_processor@_WV?$stream_output_adapter@_W@__crt_stdio_output@@V?$positional_parameter_base@_WV?$stream_output_adapter@_W@__crt_stdio_output@@@2@@__crt_stdio_output@@AEAA_NXZ 0000000140022e38 f i libucrt:output.obj
 0001:00021e50       ?state_case_percent@?$output_processor@_WV?$stream_output_adapter@_W@__crt_stdio_output@@V?$standard_base@_WV?$stream_output_adapter@_W@__crt_stdio_output@@@2@@__crt_stdio_output@@AEAA_NXZ 0000000140022e50 f i libucrt:output.obj
 0001:00021e68       ?state_case_percent@?$output_processor@_WV?$string_output_adapter@_W@__crt_stdio_output@@V?$format_validation_base@_WV?$string_output_adapter@_W@__crt_stdio_output@@@2@@__crt_stdio_output@@AEAA_NXZ 0000000140022e68 f i libucrt:output.obj
 0001:00021e80       ?state_case_percent@?$output_processor@_WV?$string_output_adapter@_W@__crt_stdio_output@@V?$positional_parameter_base@_WV?$string_output_adapter@_W@__crt_stdio_output@@@2@@__crt_stdio_output@@AEAA_NXZ 0000000140022e80 f i libucrt:output.obj
 0001:00021e98       ?state_case_percent@?$output_processor@_WV?$string_output_adapter@_W@__crt_stdio_output@@V?$standard_base@_WV?$string_output_adapter@_W@__crt_stdio_output@@@2@@__crt_stdio_output@@AEAA_NXZ 0000000140022e98 f i libucrt:output.obj
 0001:00021eb0       ?state_case_precision@?$output_processor@DV?$stream_output_adapter@D@__crt_stdio_output@@V?$format_validation_base@DV?$stream_output_adapter@D@__crt_stdio_output@@@2@@__crt_stdio_output@@AEAA_NXZ 0000000140022eb0 f i libucrt:output.obj
 0001:00021ee0       ?state_case_precision@?$output_processor@DV?$stream_output_adapter@D@__crt_stdio_output@@V?$positional_parameter_base@DV?$stream_output_adapter@D@__crt_stdio_output@@@2@@__crt_stdio_output@@AEAA_NXZ 0000000140022ee0 f i libucrt:output.obj
 0001:00021f2c       ?state_case_precision@?$output_processor@DV?$stream_output_adapter@D@__crt_stdio_output@@V?$standard_base@DV?$stream_output_adapter@D@__crt_stdio_output@@@2@@__crt_stdio_output@@AEAA_NXZ 0000000140022f2c f i libucrt:output.obj
 0001:00021f5c       ?state_case_precision@?$output_processor@DV?$string_output_adapter@D@__crt_stdio_output@@V?$format_validation_base@DV?$string_output_adapter@D@__crt_stdio_output@@@2@@__crt_stdio_output@@AEAA_NXZ 0000000140022f5c f i libucrt:output.obj
 0001:00021f8c       ?state_case_precision@?$output_processor@DV?$string_output_adapter@D@__crt_stdio_output@@V?$positional_parameter_base@DV?$string_output_adapter@D@__crt_stdio_output@@@2@@__crt_stdio_output@@AEAA_NXZ 0000000140022f8c f i libucrt:output.obj
 0001:00021fd8       ?state_case_precision@?$output_processor@DV?$string_output_adapter@D@__crt_stdio_output@@V?$standard_base@DV?$string_output_adapter@D@__crt_stdio_output@@@2@@__crt_stdio_output@@AEAA_NXZ 0000000140022fd8 f i libucrt:output.obj
 0001:00022008       ?state_case_precision@?$output_processor@_WV?$stream_output_adapter@_W@__crt_stdio_output@@V?$format_validation_base@_WV?$stream_output_adapter@_W@__crt_stdio_output@@@2@@__crt_stdio_output@@AEAA_NXZ 0000000140023008 f i libucrt:output.obj
 0001:0002203c       ?state_case_precision@?$output_processor@_WV?$stream_output_adapter@_W@__crt_stdio_output@@V?$positional_parameter_base@_WV?$stream_output_adapter@_W@__crt_stdio_output@@@2@@__crt_stdio_output@@AEAA_NXZ 000000014002303c f i libucrt:output.obj
 0001:00022088       ?state_case_precision@?$output_processor@_WV?$stream_output_adapter@_W@__crt_stdio_output@@V?$standard_base@_WV?$stream_output_adapter@_W@__crt_stdio_output@@@2@@__crt_stdio_output@@AEAA_NXZ 0000000140023088 f i libucrt:output.obj
 0001:000220bc       ?state_case_precision@?$output_processor@_WV?$string_output_adapter@_W@__crt_stdio_output@@V?$format_validation_base@_WV?$string_output_adapter@_W@__crt_stdio_output@@@2@@__crt_stdio_output@@AEAA_NXZ 00000001400230bc f i libucrt:output.obj
 0001:000220f0       ?state_case_precision@?$output_processor@_WV?$string_output_adapter@_W@__crt_stdio_output@@V?$positional_parameter_base@_WV?$string_output_adapter@_W@__crt_stdio_output@@@2@@__crt_stdio_output@@AEAA_NXZ 00000001400230f0 f i libucrt:output.obj
 0001:0002213c       ?state_case_precision@?$output_processor@_WV?$string_output_adapter@_W@__crt_stdio_output@@V?$standard_base@_WV?$string_output_adapter@_W@__crt_stdio_output@@@2@@__crt_stdio_output@@AEAA_NXZ 000000014002313c f i libucrt:output.obj
 0001:00022170       ?state_case_size@?$output_processor@DV?$stream_output_adapter@D@__crt_stdio_output@@V?$format_validation_base@DV?$stream_output_adapter@D@__crt_stdio_output@@@2@@__crt_stdio_output@@AEAA_NXZ 0000000140023170 f i libucrt:output.obj
 0001:000222f8       ?state_case_size@?$output_processor@DV?$stream_output_adapter@D@__crt_stdio_output@@V?$positional_parameter_base@DV?$stream_output_adapter@D@__crt_stdio_output@@@2@@__crt_stdio_output@@AEAA_NXZ 00000001400232f8 f i libucrt:output.obj
 0001:00022480       ?state_case_size@?$output_processor@DV?$stream_output_adapter@D@__crt_stdio_output@@V?$standard_base@DV?$stream_output_adapter@D@__crt_stdio_output@@@2@@__crt_stdio_output@@AEAA_NXZ 0000000140023480 f i libucrt:output.obj
 0001:00022608       ?state_case_size@?$output_processor@DV?$string_output_adapter@D@__crt_stdio_output@@V?$format_validation_base@DV?$string_output_adapter@D@__crt_stdio_output@@@2@@__crt_stdio_output@@AEAA_NXZ 0000000140023608 f i libucrt:output.obj
 0001:00022790       ?state_case_size@?$output_processor@DV?$string_output_adapter@D@__crt_stdio_output@@V?$positional_parameter_base@DV?$string_output_adapter@D@__crt_stdio_output@@@2@@__crt_stdio_output@@AEAA_NXZ 0000000140023790 f i libucrt:output.obj
 0001:00022918       ?state_case_size@?$output_processor@DV?$string_output_adapter@D@__crt_stdio_output@@V?$standard_base@DV?$string_output_adapter@D@__crt_stdio_output@@@2@@__crt_stdio_output@@AEAA_NXZ 0000000140023918 f i libucrt:output.obj
 0001:00022aa0       ?state_case_size@?$output_processor@_WV?$stream_output_adapter@_W@__crt_stdio_output@@V?$format_validation_base@_WV?$stream_output_adapter@_W@__crt_stdio_output@@@2@@__crt_stdio_output@@AEAA_NXZ 0000000140023aa0 f i libucrt:output.obj
 0001:00022c50       ?state_case_size@?$output_processor@_WV?$stream_output_adapter@_W@__crt_stdio_output@@V?$positional_parameter_base@_WV?$stream_output_adapter@_W@__crt_stdio_output@@@2@@__crt_stdio_output@@AEAA_NXZ 0000000140023c50 f i libucrt:output.obj
 0001:00022e00       ?state_case_size@?$output_processor@_WV?$stream_output_adapter@_W@__crt_stdio_output@@V?$standard_base@_WV?$stream_output_adapter@_W@__crt_stdio_output@@@2@@__crt_stdio_output@@AEAA_NXZ 0000000140023e00 f i libucrt:output.obj
 0001:00022fb0       ?state_case_size@?$output_processor@_WV?$string_output_adapter@_W@__crt_stdio_output@@V?$format_validation_base@_WV?$string_output_adapter@_W@__crt_stdio_output@@@2@@__crt_stdio_output@@AEAA_NXZ 0000000140023fb0 f i libucrt:output.obj
 0001:00023160       ?state_case_size@?$output_processor@_WV?$string_output_adapter@_W@__crt_stdio_output@@V?$positional_parameter_base@_WV?$string_output_adapter@_W@__crt_stdio_output@@@2@@__crt_stdio_output@@AEAA_NXZ 0000000140024160 f i libucrt:output.obj
 0001:00023310       ?state_case_size@?$output_processor@_WV?$string_output_adapter@_W@__crt_stdio_output@@V?$standard_base@_WV?$string_output_adapter@_W@__crt_stdio_output@@@2@@__crt_stdio_output@@AEAA_NXZ 0000000140024310 f i libucrt:output.obj
 0001:000234c0       ?state_case_type@?$output_processor@DV?$stream_output_adapter@D@__crt_stdio_output@@V?$format_validation_base@DV?$stream_output_adapter@D@__crt_stdio_output@@@2@@__crt_stdio_output@@AEAA_NXZ 00000001400244c0 f i libucrt:output.obj
 0001:000238f8       ?state_case_type@?$output_processor@DV?$stream_output_adapter@D@__crt_stdio_output@@V?$positional_parameter_base@DV?$stream_output_adapter@D@__crt_stdio_output@@@2@@__crt_stdio_output@@AEAA_NXZ 00000001400248f8 f i libucrt:output.obj
 0001:00023d60       ?state_case_type@?$output_processor@DV?$stream_output_adapter@D@__crt_stdio_output@@V?$standard_base@DV?$stream_output_adapter@D@__crt_stdio_output@@@2@@__crt_stdio_output@@AEAA_NXZ 0000000140024d60 f i libucrt:output.obj
 0001:00024198       ?state_case_type@?$output_processor@DV?$string_output_adapter@D@__crt_stdio_output@@V?$format_validation_base@DV?$string_output_adapter@D@__crt_stdio_output@@@2@@__crt_stdio_output@@AEAA_NXZ 0000000140025198 f i libucrt:output.obj
 0001:0002459c       ?state_case_type@?$output_processor@DV?$string_output_adapter@D@__crt_stdio_output@@V?$positional_parameter_base@DV?$string_output_adapter@D@__crt_stdio_output@@@2@@__crt_stdio_output@@AEAA_NXZ 000000014002559c f i libucrt:output.obj
 0001:000249b4       ?state_case_type@?$output_processor@DV?$string_output_adapter@D@__crt_stdio_output@@V?$standard_base@DV?$string_output_adapter@D@__crt_stdio_output@@@2@@__crt_stdio_output@@AEAA_NXZ 00000001400259b4 f i libucrt:output.obj
 0001:00024db8       ?state_case_type@?$output_processor@_WV?$stream_output_adapter@_W@__crt_stdio_output@@V?$format_validation_base@_WV?$stream_output_adapter@_W@__crt_stdio_output@@@2@@__crt_stdio_output@@AEAA_NXZ 0000000140025db8 f i libucrt:output.obj
 0001:0002527c       ?state_case_type@?$output_processor@_WV?$stream_output_adapter@_W@__crt_stdio_output@@V?$positional_parameter_base@_WV?$stream_output_adapter@_W@__crt_stdio_output@@@2@@__crt_stdio_output@@AEAA_NXZ 000000014002627c f i libucrt:output.obj
 0001:00025758       ?state_case_type@?$output_processor@_WV?$stream_output_adapter@_W@__crt_stdio_output@@V?$standard_base@_WV?$stream_output_adapter@_W@__crt_stdio_output@@@2@@__crt_stdio_output@@AEAA_NXZ 0000000140026758 f i libucrt:output.obj
 0001:00025c1c       ?state_case_type@?$output_processor@_WV?$string_output_adapter@_W@__crt_stdio_output@@V?$format_validation_base@_WV?$string_output_adapter@_W@__crt_stdio_output@@@2@@__crt_stdio_output@@AEAA_NXZ 0000000140026c1c f i libucrt:output.obj
 0001:00026080       ?state_case_type@?$output_processor@_WV?$string_output_adapter@_W@__crt_stdio_output@@V?$positional_parameter_base@_WV?$string_output_adapter@_W@__crt_stdio_output@@@2@@__crt_stdio_output@@AEAA_NXZ 0000000140027080 f i libucrt:output.obj
 0001:00026510       ?state_case_type@?$output_processor@_WV?$string_output_adapter@_W@__crt_stdio_output@@V?$standard_base@_WV?$string_output_adapter@_W@__crt_stdio_output@@@2@@__crt_stdio_output@@AEAA_NXZ 0000000140027510 f i libucrt:output.obj
 0001:00026974       ?state_case_width@?$output_processor@DV?$stream_output_adapter@D@__crt_stdio_output@@V?$format_validation_base@DV?$stream_output_adapter@D@__crt_stdio_output@@@2@@__crt_stdio_output@@AEAA_NXZ 0000000140027974 f i libucrt:output.obj
 0001:000269a8       ?state_case_width@?$output_processor@DV?$stream_output_adapter@D@__crt_stdio_output@@V?$positional_parameter_base@DV?$stream_output_adapter@D@__crt_stdio_output@@@2@@__crt_stdio_output@@AEAA_NXZ 00000001400279a8 f i libucrt:output.obj
 0001:000269f8       ?state_case_width@?$output_processor@DV?$stream_output_adapter@D@__crt_stdio_output@@V?$standard_base@DV?$stream_output_adapter@D@__crt_stdio_output@@@2@@__crt_stdio_output@@AEAA_NXZ 00000001400279f8 f i libucrt:output.obj
 0001:00026a2c       ?state_case_width@?$output_processor@DV?$string_output_adapter@D@__crt_stdio_output@@V?$format_validation_base@DV?$string_output_adapter@D@__crt_stdio_output@@@2@@__crt_stdio_output@@AEAA_NXZ 0000000140027a2c f i libucrt:output.obj
 0001:00026a60       ?state_case_width@?$output_processor@DV?$string_output_adapter@D@__crt_stdio_output@@V?$positional_parameter_base@DV?$string_output_adapter@D@__crt_stdio_output@@@2@@__crt_stdio_output@@AEAA_NXZ 0000000140027a60 f i libucrt:output.obj
 0001:00026ab0       ?state_case_width@?$output_processor@DV?$string_output_adapter@D@__crt_stdio_output@@V?$standard_base@DV?$string_output_adapter@D@__crt_stdio_output@@@2@@__crt_stdio_output@@AEAA_NXZ 0000000140027ab0 f i libucrt:output.obj
 0001:00026ae4       ?state_case_width@?$output_processor@_WV?$stream_output_adapter@_W@__crt_stdio_output@@V?$format_validation_base@_WV?$stream_output_adapter@_W@__crt_stdio_output@@@2@@__crt_stdio_output@@AEAA_NXZ 0000000140027ae4 f i libucrt:output.obj
 0001:00026b18       ?state_case_width@?$output_processor@_WV?$stream_output_adapter@_W@__crt_stdio_output@@V?$positional_parameter_base@_WV?$stream_output_adapter@_W@__crt_stdio_output@@@2@@__crt_stdio_output@@AEAA_NXZ 0000000140027b18 f i libucrt:output.obj
 0001:00026b6c       ?state_case_width@?$output_processor@_WV?$stream_output_adapter@_W@__crt_stdio_output@@V?$standard_base@_WV?$stream_output_adapter@_W@__crt_stdio_output@@@2@@__crt_stdio_output@@AEAA_NXZ 0000000140027b6c f i libucrt:output.obj
 0001:00026ba0       ?state_case_width@?$output_processor@_WV?$string_output_adapter@_W@__crt_stdio_output@@V?$format_validation_base@_WV?$string_output_adapter@_W@__crt_stdio_output@@@2@@__crt_stdio_output@@AEAA_NXZ 0000000140027ba0 f i libucrt:output.obj
 0001:00026bd4       ?state_case_width@?$output_processor@_WV?$string_output_adapter@_W@__crt_stdio_output@@V?$positional_parameter_base@_WV?$string_output_adapter@_W@__crt_stdio_output@@@2@@__crt_stdio_output@@AEAA_NXZ 0000000140027bd4 f i libucrt:output.obj
 0001:00026c28       ?state_case_width@?$output_processor@_WV?$string_output_adapter@_W@__crt_stdio_output@@V?$standard_base@_WV?$string_output_adapter@_W@__crt_stdio_output@@@2@@__crt_stdio_output@@AEAA_NXZ 0000000140027c28 f i libucrt:output.obj
 0001:00026c5c       ?state_count@?$format_validation_base@DV?$stream_output_adapter@D@__crt_stdio_output@@@__crt_stdio_output@@KAIXZ 0000000140027c5c f i libucrt:output.obj
 0001:00026c64       ?state_count@?$format_validation_base@DV?$string_output_adapter@D@__crt_stdio_output@@@__crt_stdio_output@@KAIXZ 0000000140027c64 f i libucrt:output.obj
 0001:00026c6c       ?state_count@?$format_validation_base@_WV?$stream_output_adapter@_W@__crt_stdio_output@@@__crt_stdio_output@@KAIXZ 0000000140027c6c f i libucrt:output.obj
 0001:00026c74       ?state_count@?$format_validation_base@_WV?$string_output_adapter@_W@__crt_stdio_output@@@__crt_stdio_output@@KAIXZ 0000000140027c74 f i libucrt:output.obj
 0001:00026c7c       ?state_count@?$standard_base@DV?$stream_output_adapter@D@__crt_stdio_output@@@__crt_stdio_output@@KAIXZ 0000000140027c7c f i libucrt:output.obj
 0001:00026c84       ?state_count@?$standard_base@DV?$string_output_adapter@D@__crt_stdio_output@@@__crt_stdio_output@@KAIXZ 0000000140027c84 f i libucrt:output.obj
 0001:00026c8c       ?state_count@?$standard_base@_WV?$stream_output_adapter@_W@__crt_stdio_output@@@__crt_stdio_output@@KAIXZ 0000000140027c8c f i libucrt:output.obj
 0001:00026c94       ?state_count@?$standard_base@_WV?$string_output_adapter@_W@__crt_stdio_output@@@__crt_stdio_output@@KAIXZ 0000000140027c94 f i libucrt:output.obj
 0001:00026c9c       ?state_transition_table@?$format_validation_base@DV?$stream_output_adapter@D@__crt_stdio_output@@@__crt_stdio_output@@KAAEBV?$spectre_mitigated_lookup_table@Ustate_transition_pair@__crt_stdio_output@@$0IA@@2@XZ 0000000140027c9c f i libucrt:output.obj
 0001:00026ca4       ?state_transition_table@?$format_validation_base@DV?$string_output_adapter@D@__crt_stdio_output@@@__crt_stdio_output@@KAAEBV?$spectre_mitigated_lookup_table@Ustate_transition_pair@__crt_stdio_output@@$0IA@@2@XZ 0000000140027ca4 f i libucrt:output.obj
 0001:00026cac       ?state_transition_table@?$format_validation_base@_WV?$stream_output_adapter@_W@__crt_stdio_output@@@__crt_stdio_output@@KAAEBV?$spectre_mitigated_lookup_table@Ustate_transition_pair@__crt_stdio_output@@$0IA@@2@XZ 0000000140027cac f i libucrt:output.obj
 0001:00026cb4       ?state_transition_table@?$format_validation_base@_WV?$string_output_adapter@_W@__crt_stdio_output@@@__crt_stdio_output@@KAAEBV?$spectre_mitigated_lookup_table@Ustate_transition_pair@__crt_stdio_output@@$0IA@@2@XZ 0000000140027cb4 f i libucrt:output.obj
 0001:00026cbc       ?state_transition_table@?$standard_base@DV?$stream_output_adapter@D@__crt_stdio_output@@@__crt_stdio_output@@KAAEBV?$spectre_mitigated_lookup_table@Ustate_transition_pair@__crt_stdio_output@@$0IA@@2@XZ 0000000140027cbc f i libucrt:output.obj
 0001:00026cc4       ?state_transition_table@?$standard_base@DV?$string_output_adapter@D@__crt_stdio_output@@@__crt_stdio_output@@KAAEBV?$spectre_mitigated_lookup_table@Ustate_transition_pair@__crt_stdio_output@@$0IA@@2@XZ 0000000140027cc4 f i libucrt:output.obj
 0001:00026ccc       ?state_transition_table@?$standard_base@_WV?$stream_output_adapter@_W@__crt_stdio_output@@@__crt_stdio_output@@KAAEBV?$spectre_mitigated_lookup_table@Ustate_transition_pair@__crt_stdio_output@@$0IA@@2@XZ 0000000140027ccc f i libucrt:output.obj
 0001:00026cd4       ?state_transition_table@?$standard_base@_WV?$string_output_adapter@_W@__crt_stdio_output@@@__crt_stdio_output@@KAAEBV?$spectre_mitigated_lookup_table@Ustate_transition_pair@__crt_stdio_output@@$0IA@@2@XZ 0000000140027cd4 f i libucrt:output.obj
 0001:00026cdc       ?tchar_string@?$common_data@D@__crt_stdio_output@@IEAAAEAPEADD@Z 0000000140027cdc f i libucrt:output.obj
 0001:00026ce4       ?tchar_string@?$common_data@D@__crt_stdio_output@@IEAAAEAPEADXZ 0000000140027ce4 f i libucrt:output.obj
 0001:00026cec       ?tchar_string@?$common_data@_W@__crt_stdio_output@@IEAAAEAPEA_WXZ 0000000140027cec f i libucrt:output.obj
 0001:00026cf4       ?tchar_string@?$common_data@_W@__crt_stdio_output@@IEAAAEAPEA_W_W@Z 0000000140027cf4 f i libucrt:output.obj
 0001:00026cfc       ?to_integer_size@__crt_stdio_output@@YA_KW4length_modifier@1@@Z 0000000140027cfc f i libucrt:output.obj
 0001:00026d44       ?type_case_X@?$output_processor@DV?$stream_output_adapter@D@__crt_stdio_output@@V?$format_validation_base@DV?$stream_output_adapter@D@__crt_stdio_output@@@2@@__crt_stdio_output@@AEAA_NXZ 0000000140027d44 f i libucrt:output.obj
 0001:00026d4c       ?type_case_X@?$output_processor@DV?$stream_output_adapter@D@__crt_stdio_output@@V?$positional_parameter_base@DV?$stream_output_adapter@D@__crt_stdio_output@@@2@@__crt_stdio_output@@AEAA_NXZ 0000000140027d4c f i libucrt:output.obj
 0001:00026d54       ?type_case_X@?$output_processor@DV?$stream_output_adapter@D@__crt_stdio_output@@V?$standard_base@DV?$stream_output_adapter@D@__crt_stdio_output@@@2@@__crt_stdio_output@@AEAA_NXZ 0000000140027d54 f i libucrt:output.obj
 0001:00026d5c       ?type_case_X@?$output_processor@DV?$string_output_adapter@D@__crt_stdio_output@@V?$format_validation_base@DV?$string_output_adapter@D@__crt_stdio_output@@@2@@__crt_stdio_output@@AEAA_NXZ 0000000140027d5c f i libucrt:output.obj
 0001:00026d64       ?type_case_X@?$output_processor@DV?$string_output_adapter@D@__crt_stdio_output@@V?$positional_parameter_base@DV?$string_output_adapter@D@__crt_stdio_output@@@2@@__crt_stdio_output@@AEAA_NXZ 0000000140027d64 f i libucrt:output.obj
 0001:00026d6c       ?type_case_X@?$output_processor@DV?$string_output_adapter@D@__crt_stdio_output@@V?$standard_base@DV?$string_output_adapter@D@__crt_stdio_output@@@2@@__crt_stdio_output@@AEAA_NXZ 0000000140027d6c f i libucrt:output.obj
 0001:00026d74       ?type_case_X@?$output_processor@_WV?$stream_output_adapter@_W@__crt_stdio_output@@V?$format_validation_base@_WV?$stream_output_adapter@_W@__crt_stdio_output@@@2@@__crt_stdio_output@@AEAA_NXZ 0000000140027d74 f i libucrt:output.obj
 0001:00026d7c       ?type_case_X@?$output_processor@_WV?$stream_output_adapter@_W@__crt_stdio_output@@V?$positional_parameter_base@_WV?$stream_output_adapter@_W@__crt_stdio_output@@@2@@__crt_stdio_output@@AEAA_NXZ 0000000140027d7c f i libucrt:output.obj
 0001:00026d84       ?type_case_X@?$output_processor@_WV?$stream_output_adapter@_W@__crt_stdio_output@@V?$standard_base@_WV?$stream_output_adapter@_W@__crt_stdio_output@@@2@@__crt_stdio_output@@AEAA_NXZ 0000000140027d84 f i libucrt:output.obj
 0001:00026d8c       ?type_case_X@?$output_processor@_WV?$string_output_adapter@_W@__crt_stdio_output@@V?$format_validation_base@_WV?$string_output_adapter@_W@__crt_stdio_output@@@2@@__crt_stdio_output@@AEAA_NXZ 0000000140027d8c f i libucrt:output.obj
 0001:00026d94       ?type_case_X@?$output_processor@_WV?$string_output_adapter@_W@__crt_stdio_output@@V?$positional_parameter_base@_WV?$string_output_adapter@_W@__crt_stdio_output@@@2@@__crt_stdio_output@@AEAA_NXZ 0000000140027d94 f i libucrt:output.obj
 0001:00026d9c       ?type_case_X@?$output_processor@_WV?$string_output_adapter@_W@__crt_stdio_output@@V?$standard_base@_WV?$string_output_adapter@_W@__crt_stdio_output@@@2@@__crt_stdio_output@@AEAA_NXZ 0000000140027d9c f i libucrt:output.obj
 0001:00026da4       ?type_case_Z@?$output_processor@DV?$stream_output_adapter@D@__crt_stdio_output@@V?$format_validation_base@DV?$stream_output_adapter@D@__crt_stdio_output@@@2@@__crt_stdio_output@@AEAA_NXZ 0000000140027da4 f i libucrt:output.obj
 0001:00026e20       ?type_case_Z@?$output_processor@DV?$stream_output_adapter@D@__crt_stdio_output@@V?$positional_parameter_base@DV?$stream_output_adapter@D@__crt_stdio_output@@@2@@__crt_stdio_output@@AEAA_NXZ 0000000140027e20 f i libucrt:output.obj
 0001:00026ec8       ?type_case_Z@?$output_processor@DV?$stream_output_adapter@D@__crt_stdio_output@@V?$standard_base@DV?$stream_output_adapter@D@__crt_stdio_output@@@2@@__crt_stdio_output@@AEAA_NXZ 0000000140027ec8 f i libucrt:output.obj
 0001:00026f44       ?type_case_Z@?$output_processor@DV?$string_output_adapter@D@__crt_stdio_output@@V?$format_validation_base@DV?$string_output_adapter@D@__crt_stdio_output@@@2@@__crt_stdio_output@@AEAA_NXZ 0000000140027f44 f i libucrt:output.obj
 0001:00026fc0       ?type_case_Z@?$output_processor@DV?$string_output_adapter@D@__crt_stdio_output@@V?$positional_parameter_base@DV?$string_output_adapter@D@__crt_stdio_output@@@2@@__crt_stdio_output@@AEAA_NXZ 0000000140027fc0 f i libucrt:output.obj
 0001:00027068       ?type_case_Z@?$output_processor@DV?$string_output_adapter@D@__crt_stdio_output@@V?$standard_base@DV?$string_output_adapter@D@__crt_stdio_output@@@2@@__crt_stdio_output@@AEAA_NXZ 0000000140028068 f i libucrt:output.obj
 0001:000270e4       ?type_case_Z@?$output_processor@_WV?$stream_output_adapter@_W@__crt_stdio_output@@V?$format_validation_base@_WV?$stream_output_adapter@_W@__crt_stdio_output@@@2@@__crt_stdio_output@@AEAA_NXZ 00000001400280e4 f i libucrt:output.obj
 0001:00027164       ?type_case_Z@?$output_processor@_WV?$stream_output_adapter@_W@__crt_stdio_output@@V?$positional_parameter_base@_WV?$stream_output_adapter@_W@__crt_stdio_output@@@2@@__crt_stdio_output@@AEAA_NXZ 0000000140028164 f i libucrt:output.obj
 0001:000271fc       ?type_case_Z@?$output_processor@_WV?$stream_output_adapter@_W@__crt_stdio_output@@V?$standard_base@_WV?$stream_output_adapter@_W@__crt_stdio_output@@@2@@__crt_stdio_output@@AEAA_NXZ 00000001400281fc f i libucrt:output.obj
 0001:0002727c       ?type_case_Z@?$output_processor@_WV?$string_output_adapter@_W@__crt_stdio_output@@V?$format_validation_base@_WV?$string_output_adapter@_W@__crt_stdio_output@@@2@@__crt_stdio_output@@AEAA_NXZ 000000014002827c f i libucrt:output.obj
 0001:000272fc       ?type_case_Z@?$output_processor@_WV?$string_output_adapter@_W@__crt_stdio_output@@V?$positional_parameter_base@_WV?$string_output_adapter@_W@__crt_stdio_output@@@2@@__crt_stdio_output@@AEAA_NXZ 00000001400282fc f i libucrt:output.obj
 0001:00027394       ?type_case_Z@?$output_processor@_WV?$string_output_adapter@_W@__crt_stdio_output@@V?$standard_base@_WV?$string_output_adapter@_W@__crt_stdio_output@@@2@@__crt_stdio_output@@AEAA_NXZ 0000000140028394 f i libucrt:output.obj
 0001:00027414       ?type_case_a@?$output_processor@DV?$stream_output_adapter@D@__crt_stdio_output@@V?$format_validation_base@DV?$stream_output_adapter@D@__crt_stdio_output@@@2@@__crt_stdio_output@@AEAA_NXZ 0000000140028414 f i libucrt:output.obj
 0001:00027668       ?type_case_a@?$output_processor@DV?$stream_output_adapter@D@__crt_stdio_output@@V?$positional_parameter_base@DV?$stream_output_adapter@D@__crt_stdio_output@@@2@@__crt_stdio_output@@AEAA_NXZ 0000000140028668 f i libucrt:output.obj
 0001:000278e4       ?type_case_a@?$output_processor@DV?$stream_output_adapter@D@__crt_stdio_output@@V?$standard_base@DV?$stream_output_adapter@D@__crt_stdio_output@@@2@@__crt_stdio_output@@AEAA_NXZ 00000001400288e4 f i libucrt:output.obj
 0001:00027b38       ?type_case_a@?$output_processor@DV?$string_output_adapter@D@__crt_stdio_output@@V?$format_validation_base@DV?$string_output_adapter@D@__crt_stdio_output@@@2@@__crt_stdio_output@@AEAA_NXZ 0000000140028b38 f i libucrt:output.obj
 0001:00027d8c       ?type_case_a@?$output_processor@DV?$string_output_adapter@D@__crt_stdio_output@@V?$positional_parameter_base@DV?$string_output_adapter@D@__crt_stdio_output@@@2@@__crt_stdio_output@@AEAA_NXZ 0000000140028d8c f i libucrt:output.obj
 0001:00028008       ?type_case_a@?$output_processor@DV?$string_output_adapter@D@__crt_stdio_output@@V?$standard_base@DV?$string_output_adapter@D@__crt_stdio_output@@@2@@__crt_stdio_output@@AEAA_NXZ 0000000140029008 f i libucrt:output.obj
 0001:0002825c       ?type_case_a@?$output_processor@_WV?$stream_output_adapter@_W@__crt_stdio_output@@V?$format_validation_base@_WV?$stream_output_adapter@_W@__crt_stdio_output@@@2@@__crt_stdio_output@@AEAA_NXZ 000000014002925c f i libucrt:output.obj
 0001:000284c4       ?type_case_a@?$output_processor@_WV?$stream_output_adapter@_W@__crt_stdio_output@@V?$positional_parameter_base@_WV?$stream_output_adapter@_W@__crt_stdio_output@@@2@@__crt_stdio_output@@AEAA_NXZ 00000001400294c4 f i libucrt:output.obj
 0001:00028758       ?type_case_a@?$output_processor@_WV?$stream_output_adapter@_W@__crt_stdio_output@@V?$standard_base@_WV?$stream_output_adapter@_W@__crt_stdio_output@@@2@@__crt_stdio_output@@AEAA_NXZ 0000000140029758 f i libucrt:output.obj
 0001:000289c0       ?type_case_a@?$output_processor@_WV?$string_output_adapter@_W@__crt_stdio_output@@V?$format_validation_base@_WV?$string_output_adapter@_W@__crt_stdio_output@@@2@@__crt_stdio_output@@AEAA_NXZ 00000001400299c0 f i libucrt:output.obj
 0001:00028c28       ?type_case_a@?$output_processor@_WV?$string_output_adapter@_W@__crt_stdio_output@@V?$positional_parameter_base@_WV?$string_output_adapter@_W@__crt_stdio_output@@@2@@__crt_stdio_output@@AEAA_NXZ 0000000140029c28 f i libucrt:output.obj
 0001:00028ebc       ?type_case_a@?$output_processor@_WV?$string_output_adapter@_W@__crt_stdio_output@@V?$standard_base@_WV?$string_output_adapter@_W@__crt_stdio_output@@@2@@__crt_stdio_output@@AEAA_NXZ 0000000140029ebc f i libucrt:output.obj
 0001:00029124       ?type_case_c@?$output_processor@DV?$stream_output_adapter@D@__crt_stdio_output@@V?$format_validation_base@DV?$stream_output_adapter@D@__crt_stdio_output@@@2@@__crt_stdio_output@@AEAA_NXZ 000000014002a124 f i libucrt:output.obj
 0001:0002912c       ?type_case_c@?$output_processor@DV?$stream_output_adapter@D@__crt_stdio_output@@V?$positional_parameter_base@DV?$stream_output_adapter@D@__crt_stdio_output@@@2@@__crt_stdio_output@@AEAA_NXZ 000000014002a12c f i libucrt:output.obj
 0001:00029134       ?type_case_c@?$output_processor@DV?$stream_output_adapter@D@__crt_stdio_output@@V?$standard_base@DV?$stream_output_adapter@D@__crt_stdio_output@@@2@@__crt_stdio_output@@AEAA_NXZ 000000014002a134 f i libucrt:output.obj
 0001:0002913c       ?type_case_c@?$output_processor@DV?$string_output_adapter@D@__crt_stdio_output@@V?$format_validation_base@DV?$string_output_adapter@D@__crt_stdio_output@@@2@@__crt_stdio_output@@AEAA_NXZ 000000014002a13c f i libucrt:output.obj
 0001:00029144       ?type_case_c@?$output_processor@DV?$string_output_adapter@D@__crt_stdio_output@@V?$positional_parameter_base@DV?$string_output_adapter@D@__crt_stdio_output@@@2@@__crt_stdio_output@@AEAA_NXZ 000000014002a144 f i libucrt:output.obj
 0001:0002914c       ?type_case_c@?$output_processor@DV?$string_output_adapter@D@__crt_stdio_output@@V?$standard_base@DV?$string_output_adapter@D@__crt_stdio_output@@@2@@__crt_stdio_output@@AEAA_NXZ 000000014002a14c f i libucrt:output.obj
 0001:00029154       ?type_case_c@?$output_processor@_WV?$stream_output_adapter@_W@__crt_stdio_output@@V?$format_validation_base@_WV?$stream_output_adapter@_W@__crt_stdio_output@@@2@@__crt_stdio_output@@AEAA_NXZ 000000014002a154 f i libucrt:output.obj
 0001:0002915c       ?type_case_c@?$output_processor@_WV?$stream_output_adapter@_W@__crt_stdio_output@@V?$positional_parameter_base@_WV?$stream_output_adapter@_W@__crt_stdio_output@@@2@@__crt_stdio_output@@AEAA_NXZ 000000014002a15c f i libucrt:output.obj
 0001:00029164       ?type_case_c@?$output_processor@_WV?$stream_output_adapter@_W@__crt_stdio_output@@V?$standard_base@_WV?$stream_output_adapter@_W@__crt_stdio_output@@@2@@__crt_stdio_output@@AEAA_NXZ 000000014002a164 f i libucrt:output.obj
 0001:0002916c       ?type_case_c@?$output_processor@_WV?$string_output_adapter@_W@__crt_stdio_output@@V?$format_validation_base@_WV?$string_output_adapter@_W@__crt_stdio_output@@@2@@__crt_stdio_output@@AEAA_NXZ 000000014002a16c f i libucrt:output.obj
 0001:00029174       ?type_case_c@?$output_processor@_WV?$string_output_adapter@_W@__crt_stdio_output@@V?$positional_parameter_base@_WV?$string_output_adapter@_W@__crt_stdio_output@@@2@@__crt_stdio_output@@AEAA_NXZ 000000014002a174 f i libucrt:output.obj
 0001:0002917c       ?type_case_c@?$output_processor@_WV?$string_output_adapter@_W@__crt_stdio_output@@V?$standard_base@_WV?$string_output_adapter@_W@__crt_stdio_output@@@2@@__crt_stdio_output@@AEAA_NXZ 000000014002a17c f i libucrt:output.obj
 0001:00029184       ?type_case_c_tchar@?$output_processor@DV?$stream_output_adapter@D@__crt_stdio_output@@V?$format_validation_base@DV?$stream_output_adapter@D@__crt_stdio_output@@@2@@__crt_stdio_output@@AEAA_ND@Z 000000014002a184 f i libucrt:output.obj
 0001:00029258       ?type_case_c_tchar@?$output_processor@DV?$stream_output_adapter@D@__crt_stdio_output@@V?$positional_parameter_base@DV?$stream_output_adapter@D@__crt_stdio_output@@@2@@__crt_stdio_output@@AEAA_ND@Z 000000014002a258 f i libucrt:output.obj
 0001:00029374       ?type_case_c_tchar@?$output_processor@DV?$stream_output_adapter@D@__crt_stdio_output@@V?$standard_base@DV?$stream_output_adapter@D@__crt_stdio_output@@@2@@__crt_stdio_output@@AEAA_ND@Z 000000014002a374 f i libucrt:output.obj
 0001:00029448       ?type_case_c_tchar@?$output_processor@DV?$string_output_adapter@D@__crt_stdio_output@@V?$format_validation_base@DV?$string_output_adapter@D@__crt_stdio_output@@@2@@__crt_stdio_output@@AEAA_ND@Z 000000014002a448 f i libucrt:output.obj
 0001:0002951c       ?type_case_c_tchar@?$output_processor@DV?$string_output_adapter@D@__crt_stdio_output@@V?$positional_parameter_base@DV?$string_output_adapter@D@__crt_stdio_output@@@2@@__crt_stdio_output@@AEAA_ND@Z 000000014002a51c f i libucrt:output.obj
 0001:00029638       ?type_case_c_tchar@?$output_processor@DV?$string_output_adapter@D@__crt_stdio_output@@V?$standard_base@DV?$string_output_adapter@D@__crt_stdio_output@@@2@@__crt_stdio_output@@AEAA_ND@Z 000000014002a638 f i libucrt:output.obj
 0001:0002970c       ?type_case_c_tchar@?$output_processor@_WV?$stream_output_adapter@_W@__crt_stdio_output@@V?$format_validation_base@_WV?$stream_output_adapter@_W@__crt_stdio_output@@@2@@__crt_stdio_output@@AEAA_N_W@Z 000000014002a70c f i libucrt:output.obj
 0001:000297d0       ?type_case_c_tchar@?$output_processor@_WV?$stream_output_adapter@_W@__crt_stdio_output@@V?$positional_parameter_base@_WV?$stream_output_adapter@_W@__crt_stdio_output@@@2@@__crt_stdio_output@@AEAA_N_W@Z 000000014002a7d0 f i libucrt:output.obj
 0001:000298c8       ?type_case_c_tchar@?$output_processor@_WV?$stream_output_adapter@_W@__crt_stdio_output@@V?$standard_base@_WV?$stream_output_adapter@_W@__crt_stdio_output@@@2@@__crt_stdio_output@@AEAA_N_W@Z 000000014002a8c8 f i libucrt:output.obj
 0001:0002998c       ?type_case_c_tchar@?$output_processor@_WV?$string_output_adapter@_W@__crt_stdio_output@@V?$format_validation_base@_WV?$string_output_adapter@_W@__crt_stdio_output@@@2@@__crt_stdio_output@@AEAA_N_W@Z 000000014002a98c f i libucrt:output.obj
 0001:00029a50       ?type_case_c_tchar@?$output_processor@_WV?$string_output_adapter@_W@__crt_stdio_output@@V?$positional_parameter_base@_WV?$string_output_adapter@_W@__crt_stdio_output@@@2@@__crt_stdio_output@@AEAA_N_W@Z 000000014002aa50 f i libucrt:output.obj
 0001:00029b48       ?type_case_c_tchar@?$output_processor@_WV?$string_output_adapter@_W@__crt_stdio_output@@V?$standard_base@_WV?$string_output_adapter@_W@__crt_stdio_output@@@2@@__crt_stdio_output@@AEAA_N_W@Z 000000014002ab48 f i libucrt:output.obj
 0001:00029c0c       ?type_case_d@?$output_processor@DV?$stream_output_adapter@D@__crt_stdio_output@@V?$format_validation_base@DV?$stream_output_adapter@D@__crt_stdio_output@@@2@@__crt_stdio_output@@AEAA_NXZ 000000014002ac0c f i libucrt:output.obj
 0001:00029c18       ?type_case_d@?$output_processor@DV?$stream_output_adapter@D@__crt_stdio_output@@V?$positional_parameter_base@DV?$stream_output_adapter@D@__crt_stdio_output@@@2@@__crt_stdio_output@@AEAA_NXZ 000000014002ac18 f i libucrt:output.obj
 0001:00029c24       ?type_case_d@?$output_processor@DV?$stream_output_adapter@D@__crt_stdio_output@@V?$standard_base@DV?$stream_output_adapter@D@__crt_stdio_output@@@2@@__crt_stdio_output@@AEAA_NXZ 000000014002ac24 f i libucrt:output.obj
 0001:00029c30       ?type_case_d@?$output_processor@DV?$string_output_adapter@D@__crt_stdio_output@@V?$format_validation_base@DV?$string_output_adapter@D@__crt_stdio_output@@@2@@__crt_stdio_output@@AEAA_NXZ 000000014002ac30 f i libucrt:output.obj
 0001:00029c3c       ?type_case_d@?$output_processor@DV?$string_output_adapter@D@__crt_stdio_output@@V?$positional_parameter_base@DV?$string_output_adapter@D@__crt_stdio_output@@@2@@__crt_stdio_output@@AEAA_NXZ 000000014002ac3c f i libucrt:output.obj
 0001:00029c48       ?type_case_d@?$output_processor@DV?$string_output_adapter@D@__crt_stdio_output@@V?$standard_base@DV?$string_output_adapter@D@__crt_stdio_output@@@2@@__crt_stdio_output@@AEAA_NXZ 000000014002ac48 f i libucrt:output.obj
 0001:00029c54       ?type_case_d@?$output_processor@_WV?$stream_output_adapter@_W@__crt_stdio_output@@V?$format_validation_base@_WV?$stream_output_adapter@_W@__crt_stdio_output@@@2@@__crt_stdio_output@@AEAA_NXZ 000000014002ac54 f i libucrt:output.obj
 0001:00029c60       ?type_case_d@?$output_processor@_WV?$stream_output_adapter@_W@__crt_stdio_output@@V?$positional_parameter_base@_WV?$stream_output_adapter@_W@__crt_stdio_output@@@2@@__crt_stdio_output@@AEAA_NXZ 000000014002ac60 f i libucrt:output.obj
 0001:00029c6c       ?type_case_d@?$output_processor@_WV?$stream_output_adapter@_W@__crt_stdio_output@@V?$standard_base@_WV?$stream_output_adapter@_W@__crt_stdio_output@@@2@@__crt_stdio_output@@AEAA_NXZ 000000014002ac6c f i libucrt:output.obj
 0001:00029c78       ?type_case_d@?$output_processor@_WV?$string_output_adapter@_W@__crt_stdio_output@@V?$format_validation_base@_WV?$string_output_adapter@_W@__crt_stdio_output@@@2@@__crt_stdio_output@@AEAA_NXZ 000000014002ac78 f i libucrt:output.obj
 0001:00029c84       ?type_case_d@?$output_processor@_WV?$string_output_adapter@_W@__crt_stdio_output@@V?$positional_parameter_base@_WV?$string_output_adapter@_W@__crt_stdio_output@@@2@@__crt_stdio_output@@AEAA_NXZ 000000014002ac84 f i libucrt:output.obj
 0001:00029c90       ?type_case_d@?$output_processor@_WV?$string_output_adapter@_W@__crt_stdio_output@@V?$standard_base@_WV?$string_output_adapter@_W@__crt_stdio_output@@@2@@__crt_stdio_output@@AEAA_NXZ 000000014002ac90 f i libucrt:output.obj
 0001:00029c9c       ?type_case_n@?$output_processor@DV?$stream_output_adapter@D@__crt_stdio_output@@V?$format_validation_base@DV?$stream_output_adapter@D@__crt_stdio_output@@@2@@__crt_stdio_output@@AEAA_NXZ 000000014002ac9c f i libucrt:output.obj
 0001:00029d54       ?type_case_n@?$output_processor@DV?$stream_output_adapter@D@__crt_stdio_output@@V?$positional_parameter_base@DV?$stream_output_adapter@D@__crt_stdio_output@@@2@@__crt_stdio_output@@AEAA_NXZ 000000014002ad54 f i libucrt:output.obj
 0001:00029e38       ?type_case_n@?$output_processor@DV?$stream_output_adapter@D@__crt_stdio_output@@V?$standard_base@DV?$stream_output_adapter@D@__crt_stdio_output@@@2@@__crt_stdio_output@@AEAA_NXZ 000000014002ae38 f i libucrt:output.obj
 0001:00029ef0       ?type_case_n@?$output_processor@DV?$string_output_adapter@D@__crt_stdio_output@@V?$format_validation_base@DV?$string_output_adapter@D@__crt_stdio_output@@@2@@__crt_stdio_output@@AEAA_NXZ 000000014002aef0 f i libucrt:output.obj
 0001:00029fa8       ?type_case_n@?$output_processor@DV?$string_output_adapter@D@__crt_stdio_output@@V?$positional_parameter_base@DV?$string_output_adapter@D@__crt_stdio_output@@@2@@__crt_stdio_output@@AEAA_NXZ 000000014002afa8 f i libucrt:output.obj
 0001:0002a08c       ?type_case_n@?$output_processor@DV?$string_output_adapter@D@__crt_stdio_output@@V?$standard_base@DV?$string_output_adapter@D@__crt_stdio_output@@@2@@__crt_stdio_output@@AEAA_NXZ 000000014002b08c f i libucrt:output.obj
 0001:0002a144       ?type_case_n@?$output_processor@_WV?$stream_output_adapter@_W@__crt_stdio_output@@V?$format_validation_base@_WV?$stream_output_adapter@_W@__crt_stdio_output@@@2@@__crt_stdio_output@@AEAA_NXZ 000000014002b144 f i libucrt:output.obj
 0001:0002a1fc       ?type_case_n@?$output_processor@_WV?$stream_output_adapter@_W@__crt_stdio_output@@V?$positional_parameter_base@_WV?$stream_output_adapter@_W@__crt_stdio_output@@@2@@__crt_stdio_output@@AEAA_NXZ 000000014002b1fc f i libucrt:output.obj
 0001:0002a2e0       ?type_case_n@?$output_processor@_WV?$stream_output_adapter@_W@__crt_stdio_output@@V?$standard_base@_WV?$stream_output_adapter@_W@__crt_stdio_output@@@2@@__crt_stdio_output@@AEAA_NXZ 000000014002b2e0 f i libucrt:output.obj
 0001:0002a398       ?type_case_n@?$output_processor@_WV?$string_output_adapter@_W@__crt_stdio_output@@V?$format_validation_base@_WV?$string_output_adapter@_W@__crt_stdio_output@@@2@@__crt_stdio_output@@AEAA_NXZ 000000014002b398 f i libucrt:output.obj
 0001:0002a450       ?type_case_n@?$output_processor@_WV?$string_output_adapter@_W@__crt_stdio_output@@V?$positional_parameter_base@_WV?$string_output_adapter@_W@__crt_stdio_output@@@2@@__crt_stdio_output@@AEAA_NXZ 000000014002b450 f i libucrt:output.obj
 0001:0002a534       ?type_case_n@?$output_processor@_WV?$string_output_adapter@_W@__crt_stdio_output@@V?$standard_base@_WV?$string_output_adapter@_W@__crt_stdio_output@@@2@@__crt_stdio_output@@AEAA_NXZ 000000014002b534 f i libucrt:output.obj
 0001:0002a5ec       ?type_case_o@?$output_processor@DV?$stream_output_adapter@D@__crt_stdio_output@@V?$format_validation_base@DV?$stream_output_adapter@D@__crt_stdio_output@@@2@@__crt_stdio_output@@AEAA_NXZ 000000014002b5ec f i libucrt:output.obj
 0001:0002a608       ?type_case_o@?$output_processor@DV?$stream_output_adapter@D@__crt_stdio_output@@V?$positional_parameter_base@DV?$stream_output_adapter@D@__crt_stdio_output@@@2@@__crt_stdio_output@@AEAA_NXZ 000000014002b608 f i libucrt:output.obj
 0001:0002a624       ?type_case_o@?$output_processor@DV?$stream_output_adapter@D@__crt_stdio_output@@V?$standard_base@DV?$stream_output_adapter@D@__crt_stdio_output@@@2@@__crt_stdio_output@@AEAA_NXZ 000000014002b624 f i libucrt:output.obj
 0001:0002a640       ?type_case_o@?$output_processor@DV?$string_output_adapter@D@__crt_stdio_output@@V?$format_validation_base@DV?$string_output_adapter@D@__crt_stdio_output@@@2@@__crt_stdio_output@@AEAA_NXZ 000000014002b640 f i libucrt:output.obj
 0001:0002a65c       ?type_case_o@?$output_processor@DV?$string_output_adapter@D@__crt_stdio_output@@V?$positional_parameter_base@DV?$string_output_adapter@D@__crt_stdio_output@@@2@@__crt_stdio_output@@AEAA_NXZ 000000014002b65c f i libucrt:output.obj
 0001:0002a678       ?type_case_o@?$output_processor@DV?$string_output_adapter@D@__crt_stdio_output@@V?$standard_base@DV?$string_output_adapter@D@__crt_stdio_output@@@2@@__crt_stdio_output@@AEAA_NXZ 000000014002b678 f i libucrt:output.obj
 0001:0002a694       ?type_case_o@?$output_processor@_WV?$stream_output_adapter@_W@__crt_stdio_output@@V?$format_validation_base@_WV?$stream_output_adapter@_W@__crt_stdio_output@@@2@@__crt_stdio_output@@AEAA_NXZ 000000014002b694 f i libucrt:output.obj
 0001:0002a6b0       ?type_case_o@?$output_processor@_WV?$stream_output_adapter@_W@__crt_stdio_output@@V?$positional_parameter_base@_WV?$stream_output_adapter@_W@__crt_stdio_output@@@2@@__crt_stdio_output@@AEAA_NXZ 000000014002b6b0 f i libucrt:output.obj
 0001:0002a6cc       ?type_case_o@?$output_processor@_WV?$stream_output_adapter@_W@__crt_stdio_output@@V?$standard_base@_WV?$stream_output_adapter@_W@__crt_stdio_output@@@2@@__crt_stdio_output@@AEAA_NXZ 000000014002b6cc f i libucrt:output.obj
 0001:0002a6e8       ?type_case_o@?$output_processor@_WV?$string_output_adapter@_W@__crt_stdio_output@@V?$format_validation_base@_WV?$string_output_adapter@_W@__crt_stdio_output@@@2@@__crt_stdio_output@@AEAA_NXZ 000000014002b6e8 f i libucrt:output.obj
 0001:0002a704       ?type_case_o@?$output_processor@_WV?$string_output_adapter@_W@__crt_stdio_output@@V?$positional_parameter_base@_WV?$string_output_adapter@_W@__crt_stdio_output@@@2@@__crt_stdio_output@@AEAA_NXZ 000000014002b704 f i libucrt:output.obj
 0001:0002a720       ?type_case_o@?$output_processor@_WV?$string_output_adapter@_W@__crt_stdio_output@@V?$standard_base@_WV?$string_output_adapter@_W@__crt_stdio_output@@@2@@__crt_stdio_output@@AEAA_NXZ 000000014002b720 f i libucrt:output.obj
 0001:0002a73c       ?type_case_p@?$output_processor@DV?$stream_output_adapter@D@__crt_stdio_output@@V?$format_validation_base@DV?$stream_output_adapter@D@__crt_stdio_output@@@2@@__crt_stdio_output@@AEAA_NXZ 000000014002b73c f i libucrt:output.obj
 0001:0002a754       ?type_case_p@?$output_processor@DV?$stream_output_adapter@D@__crt_stdio_output@@V?$positional_parameter_base@DV?$stream_output_adapter@D@__crt_stdio_output@@@2@@__crt_stdio_output@@AEAA_NXZ 000000014002b754 f i libucrt:output.obj
 0001:0002a76c       ?type_case_p@?$output_processor@DV?$stream_output_adapter@D@__crt_stdio_output@@V?$standard_base@DV?$stream_output_adapter@D@__crt_stdio_output@@@2@@__crt_stdio_output@@AEAA_NXZ 000000014002b76c f i libucrt:output.obj
 0001:0002a784       ?type_case_p@?$output_processor@DV?$string_output_adapter@D@__crt_stdio_output@@V?$format_validation_base@DV?$string_output_adapter@D@__crt_stdio_output@@@2@@__crt_stdio_output@@AEAA_NXZ 000000014002b784 f i libucrt:output.obj
 0001:0002a79c       ?type_case_p@?$output_processor@DV?$string_output_adapter@D@__crt_stdio_output@@V?$positional_parameter_base@DV?$string_output_adapter@D@__crt_stdio_output@@@2@@__crt_stdio_output@@AEAA_NXZ 000000014002b79c f i libucrt:output.obj
 0001:0002a7b4       ?type_case_p@?$output_processor@DV?$string_output_adapter@D@__crt_stdio_output@@V?$standard_base@DV?$string_output_adapter@D@__crt_stdio_output@@@2@@__crt_stdio_output@@AEAA_NXZ 000000014002b7b4 f i libucrt:output.obj
 0001:0002a7cc       ?type_case_p@?$output_processor@_WV?$stream_output_adapter@_W@__crt_stdio_output@@V?$format_validation_base@_WV?$stream_output_adapter@_W@__crt_stdio_output@@@2@@__crt_stdio_output@@AEAA_NXZ 000000014002b7cc f i libucrt:output.obj
 0001:0002a7e4       ?type_case_p@?$output_processor@_WV?$stream_output_adapter@_W@__crt_stdio_output@@V?$positional_parameter_base@_WV?$stream_output_adapter@_W@__crt_stdio_output@@@2@@__crt_stdio_output@@AEAA_NXZ 000000014002b7e4 f i libucrt:output.obj
 0001:0002a7fc       ?type_case_p@?$output_processor@_WV?$stream_output_adapter@_W@__crt_stdio_output@@V?$standard_base@_WV?$stream_output_adapter@_W@__crt_stdio_output@@@2@@__crt_stdio_output@@AEAA_NXZ 000000014002b7fc f i libucrt:output.obj
 0001:0002a814       ?type_case_p@?$output_processor@_WV?$string_output_adapter@_W@__crt_stdio_output@@V?$format_validation_base@_WV?$string_output_adapter@_W@__crt_stdio_output@@@2@@__crt_stdio_output@@AEAA_NXZ 000000014002b814 f i libucrt:output.obj
 0001:0002a82c       ?type_case_p@?$output_processor@_WV?$string_output_adapter@_W@__crt_stdio_output@@V?$positional_parameter_base@_WV?$string_output_adapter@_W@__crt_stdio_output@@@2@@__crt_stdio_output@@AEAA_NXZ 000000014002b82c f i libucrt:output.obj
 0001:0002a844       ?type_case_p@?$output_processor@_WV?$string_output_adapter@_W@__crt_stdio_output@@V?$standard_base@_WV?$string_output_adapter@_W@__crt_stdio_output@@@2@@__crt_stdio_output@@AEAA_NXZ 000000014002b844 f i libucrt:output.obj
 0001:0002a85c       ?type_case_s@?$output_processor@DV?$stream_output_adapter@D@__crt_stdio_output@@V?$format_validation_base@DV?$stream_output_adapter@D@__crt_stdio_output@@@2@@__crt_stdio_output@@AEAA_NXZ 000000014002b85c f i libucrt:output.obj
 0001:0002a8f8       ?type_case_s@?$output_processor@DV?$stream_output_adapter@D@__crt_stdio_output@@V?$positional_parameter_base@DV?$stream_output_adapter@D@__crt_stdio_output@@@2@@__crt_stdio_output@@AEAA_NXZ 000000014002b8f8 f i libucrt:output.obj
 0001:0002a9b4       ?type_case_s@?$output_processor@DV?$stream_output_adapter@D@__crt_stdio_output@@V?$standard_base@DV?$stream_output_adapter@D@__crt_stdio_output@@@2@@__crt_stdio_output@@AEAA_NXZ 000000014002b9b4 f i libucrt:output.obj
 0001:0002aa50       ?type_case_s@?$output_processor@DV?$string_output_adapter@D@__crt_stdio_output@@V?$format_validation_base@DV?$string_output_adapter@D@__crt_stdio_output@@@2@@__crt_stdio_output@@AEAA_NXZ 000000014002ba50 f i libucrt:output.obj
 0001:0002aaec       ?type_case_s@?$output_processor@DV?$string_output_adapter@D@__crt_stdio_output@@V?$positional_parameter_base@DV?$string_output_adapter@D@__crt_stdio_output@@@2@@__crt_stdio_output@@AEAA_NXZ 000000014002baec f i libucrt:output.obj
 0001:0002aba8       ?type_case_s@?$output_processor@DV?$string_output_adapter@D@__crt_stdio_output@@V?$standard_base@DV?$string_output_adapter@D@__crt_stdio_output@@@2@@__crt_stdio_output@@AEAA_NXZ 000000014002bba8 f i libucrt:output.obj
 0001:0002ac44       ?type_case_s@?$output_processor@_WV?$stream_output_adapter@_W@__crt_stdio_output@@V?$format_validation_base@_WV?$stream_output_adapter@_W@__crt_stdio_output@@@2@@__crt_stdio_output@@AEAA_NXZ 000000014002bc44 f i libucrt:output.obj
 0001:0002ace0       ?type_case_s@?$output_processor@_WV?$stream_output_adapter@_W@__crt_stdio_output@@V?$positional_parameter_base@_WV?$stream_output_adapter@_W@__crt_stdio_output@@@2@@__crt_stdio_output@@AEAA_NXZ 000000014002bce0 f i libucrt:output.obj
 0001:0002ad94       ?type_case_s@?$output_processor@_WV?$stream_output_adapter@_W@__crt_stdio_output@@V?$standard_base@_WV?$stream_output_adapter@_W@__crt_stdio_output@@@2@@__crt_stdio_output@@AEAA_NXZ 000000014002bd94 f i libucrt:output.obj
 0001:0002ae30       ?type_case_s@?$output_processor@_WV?$string_output_adapter@_W@__crt_stdio_output@@V?$format_validation_base@_WV?$string_output_adapter@_W@__crt_stdio_output@@@2@@__crt_stdio_output@@AEAA_NXZ 000000014002be30 f i libucrt:output.obj
 0001:0002aecc       ?type_case_s@?$output_processor@_WV?$string_output_adapter@_W@__crt_stdio_output@@V?$positional_parameter_base@_WV?$string_output_adapter@_W@__crt_stdio_output@@@2@@__crt_stdio_output@@AEAA_NXZ 000000014002becc f i libucrt:output.obj
 0001:0002af80       ?type_case_s@?$output_processor@_WV?$string_output_adapter@_W@__crt_stdio_output@@V?$standard_base@_WV?$string_output_adapter@_W@__crt_stdio_output@@@2@@__crt_stdio_output@@AEAA_NXZ 000000014002bf80 f i libucrt:output.obj
 0001:0002b01c       ?type_case_s_compute_narrow_string_length@?$output_processor@DV?$stream_output_adapter@D@__crt_stdio_output@@V?$format_validation_base@DV?$stream_output_adapter@D@__crt_stdio_output@@@2@@__crt_stdio_output@@AEAAHHD@Z 000000014002c01c f i libucrt:output.obj
 0001:0002b028       ?type_case_s_compute_narrow_string_length@?$output_processor@DV?$stream_output_adapter@D@__crt_stdio_output@@V?$positional_parameter_base@DV?$stream_output_adapter@D@__crt_stdio_output@@@2@@__crt_stdio_output@@AEAAHHD@Z 000000014002c028 f i libucrt:output.obj
 0001:0002b034       ?type_case_s_compute_narrow_string_length@?$output_processor@DV?$stream_output_adapter@D@__crt_stdio_output@@V?$standard_base@DV?$stream_output_adapter@D@__crt_stdio_output@@@2@@__crt_stdio_output@@AEAAHHD@Z 000000014002c034 f i libucrt:output.obj
 0001:0002b040       ?type_case_s_compute_narrow_string_length@?$output_processor@DV?$string_output_adapter@D@__crt_stdio_output@@V?$format_validation_base@DV?$string_output_adapter@D@__crt_stdio_output@@@2@@__crt_stdio_output@@AEAAHHD@Z 000000014002c040 f i libucrt:output.obj
 0001:0002b04c       ?type_case_s_compute_narrow_string_length@?$output_processor@DV?$string_output_adapter@D@__crt_stdio_output@@V?$positional_parameter_base@DV?$string_output_adapter@D@__crt_stdio_output@@@2@@__crt_stdio_output@@AEAAHHD@Z 000000014002c04c f i libucrt:output.obj
 0001:0002b058       ?type_case_s_compute_narrow_string_length@?$output_processor@DV?$string_output_adapter@D@__crt_stdio_output@@V?$standard_base@DV?$string_output_adapter@D@__crt_stdio_output@@@2@@__crt_stdio_output@@AEAAHHD@Z 000000014002c058 f i libucrt:output.obj
 0001:0002b064       ?type_case_s_compute_narrow_string_length@?$output_processor@_WV?$stream_output_adapter@_W@__crt_stdio_output@@V?$format_validation_base@_WV?$stream_output_adapter@_W@__crt_stdio_output@@@2@@__crt_stdio_output@@AEAAHH_W@Z 000000014002c064 f i libucrt:output.obj
 0001:0002b0d8       ?type_case_s_compute_narrow_string_length@?$output_processor@_WV?$stream_output_adapter@_W@__crt_stdio_output@@V?$positional_parameter_base@_WV?$stream_output_adapter@_W@__crt_stdio_output@@@2@@__crt_stdio_output@@AEAAHH_W@Z 000000014002c0d8 f i libucrt:output.obj
 0001:0002b14c       ?type_case_s_compute_narrow_string_length@?$output_processor@_WV?$stream_output_adapter@_W@__crt_stdio_output@@V?$standard_base@_WV?$stream_output_adapter@_W@__crt_stdio_output@@@2@@__crt_stdio_output@@AEAAHH_W@Z 000000014002c14c f i libucrt:output.obj
 0001:0002b1c0       ?type_case_s_compute_narrow_string_length@?$output_processor@_WV?$string_output_adapter@_W@__crt_stdio_output@@V?$format_validation_base@_WV?$string_output_adapter@_W@__crt_stdio_output@@@2@@__crt_stdio_output@@AEAAHH_W@Z 000000014002c1c0 f i libucrt:output.obj
 0001:0002b234       ?type_case_s_compute_narrow_string_length@?$output_processor@_WV?$string_output_adapter@_W@__crt_stdio_output@@V?$positional_parameter_base@_WV?$string_output_adapter@_W@__crt_stdio_output@@@2@@__crt_stdio_output@@AEAAHH_W@Z 000000014002c234 f i libucrt:output.obj
 0001:0002b2a8       ?type_case_s_compute_narrow_string_length@?$output_processor@_WV?$string_output_adapter@_W@__crt_stdio_output@@V?$standard_base@_WV?$string_output_adapter@_W@__crt_stdio_output@@@2@@__crt_stdio_output@@AEAAHH_W@Z 000000014002c2a8 f i libucrt:output.obj
 0001:0002b31c       ?type_case_u@?$output_processor@DV?$stream_output_adapter@D@__crt_stdio_output@@V?$format_validation_base@DV?$stream_output_adapter@D@__crt_stdio_output@@@2@@__crt_stdio_output@@AEAA_NXZ 000000014002c31c f i libucrt:output.obj
 0001:0002b324       ?type_case_u@?$output_processor@DV?$stream_output_adapter@D@__crt_stdio_output@@V?$positional_parameter_base@DV?$stream_output_adapter@D@__crt_stdio_output@@@2@@__crt_stdio_output@@AEAA_NXZ 000000014002c324 f i libucrt:output.obj
 0001:0002b32c       ?type_case_u@?$output_processor@DV?$stream_output_adapter@D@__crt_stdio_output@@V?$standard_base@DV?$stream_output_adapter@D@__crt_stdio_output@@@2@@__crt_stdio_output@@AEAA_NXZ 000000014002c32c f i libucrt:output.obj
 0001:0002b334       ?type_case_u@?$output_processor@DV?$string_output_adapter@D@__crt_stdio_output@@V?$format_validation_base@DV?$string_output_adapter@D@__crt_stdio_output@@@2@@__crt_stdio_output@@AEAA_NXZ 000000014002c334 f i libucrt:output.obj
 0001:0002b33c       ?type_case_u@?$output_processor@DV?$string_output_adapter@D@__crt_stdio_output@@V?$positional_parameter_base@DV?$string_output_adapter@D@__crt_stdio_output@@@2@@__crt_stdio_output@@AEAA_NXZ 000000014002c33c f i libucrt:output.obj
 0001:0002b344       ?type_case_u@?$output_processor@DV?$string_output_adapter@D@__crt_stdio_output@@V?$standard_base@DV?$string_output_adapter@D@__crt_stdio_output@@@2@@__crt_stdio_output@@AEAA_NXZ 000000014002c344 f i libucrt:output.obj
 0001:0002b34c       ?type_case_u@?$output_processor@_WV?$stream_output_adapter@_W@__crt_stdio_output@@V?$format_validation_base@_WV?$stream_output_adapter@_W@__crt_stdio_output@@@2@@__crt_stdio_output@@AEAA_NXZ 000000014002c34c f i libucrt:output.obj
 0001:0002b354       ?type_case_u@?$output_processor@_WV?$stream_output_adapter@_W@__crt_stdio_output@@V?$positional_parameter_base@_WV?$stream_output_adapter@_W@__crt_stdio_output@@@2@@__crt_stdio_output@@AEAA_NXZ 000000014002c354 f i libucrt:output.obj
 0001:0002b35c       ?type_case_u@?$output_processor@_WV?$stream_output_adapter@_W@__crt_stdio_output@@V?$standard_base@_WV?$stream_output_adapter@_W@__crt_stdio_output@@@2@@__crt_stdio_output@@AEAA_NXZ 000000014002c35c f i libucrt:output.obj
 0001:0002b364       ?type_case_u@?$output_processor@_WV?$string_output_adapter@_W@__crt_stdio_output@@V?$format_validation_base@_WV?$string_output_adapter@_W@__crt_stdio_output@@@2@@__crt_stdio_output@@AEAA_NXZ 000000014002c364 f i libucrt:output.obj
 0001:0002b36c       ?type_case_u@?$output_processor@_WV?$string_output_adapter@_W@__crt_stdio_output@@V?$positional_parameter_base@_WV?$string_output_adapter@_W@__crt_stdio_output@@@2@@__crt_stdio_output@@AEAA_NXZ 000000014002c36c f i libucrt:output.obj
 0001:0002b374       ?type_case_u@?$output_processor@_WV?$string_output_adapter@_W@__crt_stdio_output@@V?$standard_base@_WV?$string_output_adapter@_W@__crt_stdio_output@@@2@@__crt_stdio_output@@AEAA_NXZ 000000014002c374 f i libucrt:output.obj
 0001:0002b37c       ?type_case_x@?$output_processor@DV?$stream_output_adapter@D@__crt_stdio_output@@V?$format_validation_base@DV?$stream_output_adapter@D@__crt_stdio_output@@@2@@__crt_stdio_output@@AEAA_NXZ 000000014002c37c f i libucrt:output.obj
 0001:0002b384       ?type_case_x@?$output_processor@DV?$stream_output_adapter@D@__crt_stdio_output@@V?$positional_parameter_base@DV?$stream_output_adapter@D@__crt_stdio_output@@@2@@__crt_stdio_output@@AEAA_NXZ 000000014002c384 f i libucrt:output.obj
 0001:0002b38c       ?type_case_x@?$output_processor@DV?$stream_output_adapter@D@__crt_stdio_output@@V?$standard_base@DV?$stream_output_adapter@D@__crt_stdio_output@@@2@@__crt_stdio_output@@AEAA_NXZ 000000014002c38c f i libucrt:output.obj
 0001:0002b394       ?type_case_x@?$output_processor@DV?$string_output_adapter@D@__crt_stdio_output@@V?$format_validation_base@DV?$string_output_adapter@D@__crt_stdio_output@@@2@@__crt_stdio_output@@AEAA_NXZ 000000014002c394 f i libucrt:output.obj
 0001:0002b39c       ?type_case_x@?$output_processor@DV?$string_output_adapter@D@__crt_stdio_output@@V?$positional_parameter_base@DV?$string_output_adapter@D@__crt_stdio_output@@@2@@__crt_stdio_output@@AEAA_NXZ 000000014002c39c f i libucrt:output.obj
 0001:0002b3a4       ?type_case_x@?$output_processor@DV?$string_output_adapter@D@__crt_stdio_output@@V?$standard_base@DV?$string_output_adapter@D@__crt_stdio_output@@@2@@__crt_stdio_output@@AEAA_NXZ 000000014002c3a4 f i libucrt:output.obj
 0001:0002b3ac       ?type_case_x@?$output_processor@_WV?$stream_output_adapter@_W@__crt_stdio_output@@V?$format_validation_base@_WV?$stream_output_adapter@_W@__crt_stdio_output@@@2@@__crt_stdio_output@@AEAA_NXZ 000000014002c3ac f i libucrt:output.obj
 0001:0002b3b4       ?type_case_x@?$output_processor@_WV?$stream_output_adapter@_W@__crt_stdio_output@@V?$positional_parameter_base@_WV?$stream_output_adapter@_W@__crt_stdio_output@@@2@@__crt_stdio_output@@AEAA_NXZ 000000014002c3b4 f i libucrt:output.obj
 0001:0002b3bc       ?type_case_x@?$output_processor@_WV?$stream_output_adapter@_W@__crt_stdio_output@@V?$standard_base@_WV?$stream_output_adapter@_W@__crt_stdio_output@@@2@@__crt_stdio_output@@AEAA_NXZ 000000014002c3bc f i libucrt:output.obj
 0001:0002b3c4       ?type_case_x@?$output_processor@_WV?$string_output_adapter@_W@__crt_stdio_output@@V?$format_validation_base@_WV?$string_output_adapter@_W@__crt_stdio_output@@@2@@__crt_stdio_output@@AEAA_NXZ 000000014002c3c4 f i libucrt:output.obj
 0001:0002b3cc       ?type_case_x@?$output_processor@_WV?$string_output_adapter@_W@__crt_stdio_output@@V?$positional_parameter_base@_WV?$string_output_adapter@_W@__crt_stdio_output@@@2@@__crt_stdio_output@@AEAA_NXZ 000000014002c3cc f i libucrt:output.obj
 0001:0002b3d4       ?type_case_x@?$output_processor@_WV?$string_output_adapter@_W@__crt_stdio_output@@V?$standard_base@_WV?$string_output_adapter@_W@__crt_stdio_output@@@2@@__crt_stdio_output@@AEAA_NXZ 000000014002c3d4 f i libucrt:output.obj
 0001:0002b3dc       ?unget@?$c_string_character_source@D@__crt_strtox@@QEAAXD@Z 000000014002c3dc f i libucrt:output.obj
 0001:0002b408       ?unget@?$c_string_character_source@_W@__crt_strtox@@QEAAX_W@Z 000000014002c408 f i libucrt:output.obj
 0001:0002b438       ?unsafe_value@?$cached@H@__crt_cached_ptd_host@@QEAAHXZ 000000014002c438 f i libucrt:output.obj
 0001:0002b43c       ?unsafe_value@?$cached@K@__crt_cached_ptd_host@@QEAAKXZ 000000014002c43c f i libucrt:output.obj
 0001:0002b440       ?unset_flag@?$output_processor@DV?$stream_output_adapter@D@__crt_stdio_output@@V?$format_validation_base@DV?$stream_output_adapter@D@__crt_stdio_output@@@2@@__crt_stdio_output@@AEAAXI@Z 000000014002c440 f i libucrt:output.obj
 0001:0002b448       ?unset_flag@?$output_processor@DV?$stream_output_adapter@D@__crt_stdio_output@@V?$positional_parameter_base@DV?$stream_output_adapter@D@__crt_stdio_output@@@2@@__crt_stdio_output@@AEAAXI@Z 000000014002c448 f i libucrt:output.obj
 0001:0002b450       ?unset_flag@?$output_processor@DV?$stream_output_adapter@D@__crt_stdio_output@@V?$standard_base@DV?$stream_output_adapter@D@__crt_stdio_output@@@2@@__crt_stdio_output@@AEAAXI@Z 000000014002c450 f i libucrt:output.obj
 0001:0002b458       ?unset_flag@?$output_processor@DV?$string_output_adapter@D@__crt_stdio_output@@V?$format_validation_base@DV?$string_output_adapter@D@__crt_stdio_output@@@2@@__crt_stdio_output@@AEAAXI@Z 000000014002c458 f i libucrt:output.obj
 0001:0002b460       ?unset_flag@?$output_processor@DV?$string_output_adapter@D@__crt_stdio_output@@V?$positional_parameter_base@DV?$string_output_adapter@D@__crt_stdio_output@@@2@@__crt_stdio_output@@AEAAXI@Z 000000014002c460 f i libucrt:output.obj
 0001:0002b468       ?unset_flag@?$output_processor@DV?$string_output_adapter@D@__crt_stdio_output@@V?$standard_base@DV?$string_output_adapter@D@__crt_stdio_output@@@2@@__crt_stdio_output@@AEAAXI@Z 000000014002c468 f i libucrt:output.obj
 0001:0002b470       ?unset_flag@?$output_processor@_WV?$stream_output_adapter@_W@__crt_stdio_output@@V?$format_validation_base@_WV?$stream_output_adapter@_W@__crt_stdio_output@@@2@@__crt_stdio_output@@AEAAXI@Z 000000014002c470 f i libucrt:output.obj
 0001:0002b478       ?unset_flag@?$output_processor@_WV?$stream_output_adapter@_W@__crt_stdio_output@@V?$positional_parameter_base@_WV?$stream_output_adapter@_W@__crt_stdio_output@@@2@@__crt_stdio_output@@AEAAXI@Z 000000014002c478 f i libucrt:output.obj
 0001:0002b480       ?unset_flag@?$output_processor@_WV?$stream_output_adapter@_W@__crt_stdio_output@@V?$standard_base@_WV?$stream_output_adapter@_W@__crt_stdio_output@@@2@@__crt_stdio_output@@AEAAXI@Z 000000014002c480 f i libucrt:output.obj
 0001:0002b488       ?unset_flag@?$output_processor@_WV?$string_output_adapter@_W@__crt_stdio_output@@V?$format_validation_base@_WV?$string_output_adapter@_W@__crt_stdio_output@@@2@@__crt_stdio_output@@AEAAXI@Z 000000014002c488 f i libucrt:output.obj
 0001:0002b490       ?unset_flag@?$output_processor@_WV?$string_output_adapter@_W@__crt_stdio_output@@V?$positional_parameter_base@_WV?$string_output_adapter@_W@__crt_stdio_output@@@2@@__crt_stdio_output@@AEAAXI@Z 000000014002c490 f i libucrt:output.obj
 0001:0002b498       ?unset_flag@?$output_processor@_WV?$string_output_adapter@_W@__crt_stdio_output@@V?$standard_base@_WV?$string_output_adapter@_W@__crt_stdio_output@@@2@@__crt_stdio_output@@AEAAXI@Z 000000014002c498 f i libucrt:output.obj
 0001:0002b4a0       ?update_field_width@?$positional_parameter_base@DV?$stream_output_adapter@D@__crt_stdio_output@@@__crt_stdio_output@@IEAA_NXZ 000000014002c4a0 f i libucrt:output.obj
 0001:0002b610       ?update_field_width@?$positional_parameter_base@DV?$string_output_adapter@D@__crt_stdio_output@@@__crt_stdio_output@@IEAA_NXZ 000000014002c610 f i libucrt:output.obj
 0001:0002b780       ?update_field_width@?$positional_parameter_base@_WV?$stream_output_adapter@_W@__crt_stdio_output@@@__crt_stdio_output@@IEAA_NXZ 000000014002c780 f i libucrt:output.obj
 0001:0002b8f4       ?update_field_width@?$positional_parameter_base@_WV?$string_output_adapter@_W@__crt_stdio_output@@@__crt_stdio_output@@IEAA_NXZ 000000014002c8f4 f i libucrt:output.obj
 0001:0002ba68       ?update_field_width@?$standard_base@DV?$stream_output_adapter@D@__crt_stdio_output@@@__crt_stdio_output@@IEAA_NXZ 000000014002ca68 f i libucrt:output.obj
 0001:0002ba7c       ?update_field_width@?$standard_base@DV?$string_output_adapter@D@__crt_stdio_output@@@__crt_stdio_output@@IEAA_NXZ 000000014002ca7c f i libucrt:output.obj
 0001:0002ba90       ?update_field_width@?$standard_base@_WV?$stream_output_adapter@_W@__crt_stdio_output@@@__crt_stdio_output@@IEAA_NXZ 000000014002ca90 f i libucrt:output.obj
 0001:0002baa4       ?update_field_width@?$standard_base@_WV?$string_output_adapter@_W@__crt_stdio_output@@@__crt_stdio_output@@IEAA_NXZ 000000014002caa4 f i libucrt:output.obj
 0001:0002bac0       ?update_locale@__crt_cached_ptd_host@@AEAAXXZ 000000014002cac0 f i libucrt:output.obj
 0001:0002bad0       ?update_locale_slow@__crt_cached_ptd_host@@AEAAXXZ 000000014002cad0 f i libucrt:output.obj
 0001:0002bb48       ?update_precision@?$positional_parameter_base@DV?$stream_output_adapter@D@__crt_stdio_output@@@__crt_stdio_output@@IEAA_NXZ 000000014002cb48 f i libucrt:output.obj
 0001:0002bcb8       ?update_precision@?$positional_parameter_base@DV?$string_output_adapter@D@__crt_stdio_output@@@__crt_stdio_output@@IEAA_NXZ 000000014002ccb8 f i libucrt:output.obj
 0001:0002be28       ?update_precision@?$positional_parameter_base@_WV?$stream_output_adapter@_W@__crt_stdio_output@@@__crt_stdio_output@@IEAA_NXZ 000000014002ce28 f i libucrt:output.obj
 0001:0002bf9c       ?update_precision@?$positional_parameter_base@_WV?$string_output_adapter@_W@__crt_stdio_output@@@__crt_stdio_output@@IEAA_NXZ 000000014002cf9c f i libucrt:output.obj
 0001:0002c110       ?update_precision@?$standard_base@DV?$stream_output_adapter@D@__crt_stdio_output@@@__crt_stdio_output@@IEAA_NXZ 000000014002d110 f i libucrt:output.obj
 0001:0002c124       ?update_precision@?$standard_base@DV?$string_output_adapter@D@__crt_stdio_output@@@__crt_stdio_output@@IEAA_NXZ 000000014002d124 f i libucrt:output.obj
 0001:0002c138       ?update_precision@?$standard_base@_WV?$stream_output_adapter@_W@__crt_stdio_output@@@__crt_stdio_output@@IEAA_NXZ 000000014002d138 f i libucrt:output.obj
 0001:0002c14c       ?update_precision@?$standard_base@_WV?$string_output_adapter@_W@__crt_stdio_output@@@__crt_stdio_output@@IEAA_NXZ 000000014002d14c f i libucrt:output.obj
 0001:0002c160       ?valid@?$cached@H@__crt_cached_ptd_host@@QEBA_NXZ 000000014002d160 f i libucrt:output.obj
 0001:0002c164       ?valid@?$cached@K@__crt_cached_ptd_host@@QEBA_NXZ 000000014002d164 f i libucrt:output.obj
 0001:0002c168       ?valid@__crt_stdio_stream@@QEBA_NXZ 000000014002d168 f i libucrt:output.obj
 0001:0002c170       ?validate@?$c_string_character_source@D@__crt_strtox@@QEBA_NXZ 000000014002d170 f i libucrt:output.obj
 0001:0002c198       ?validate@?$c_string_character_source@_W@__crt_strtox@@QEBA_NXZ 000000014002d198 f i libucrt:output.obj
 0001:0002c1c0       ?validate@?$stream_output_adapter@D@__crt_stdio_output@@QEBA_NAEAV__crt_cached_ptd_host@@@Z 000000014002d1c0 f i libucrt:output.obj
 0001:0002c200       ?validate@?$stream_output_adapter@_W@__crt_stdio_output@@QEBA_NAEAV__crt_cached_ptd_host@@@Z 000000014002d200 f i libucrt:output.obj
 0001:0002c23c       ?validate@?$string_output_adapter@D@__crt_stdio_output@@QEBA_NAEAV__crt_cached_ptd_host@@@Z 000000014002d23c f i libucrt:output.obj
 0001:0002c278       ?validate@?$string_output_adapter@_W@__crt_stdio_output@@QEBA_NAEAV__crt_cached_ptd_host@@@Z 000000014002d278 f i libucrt:output.obj
 0001:0002c2b4       ?validate_and_store_parameter_data@?$positional_parameter_base@DV?$stream_output_adapter@D@__crt_stdio_output@@@__crt_stdio_output@@AEAA_NAEAUparameter_data@12@W4parameter_type@12@DW4length_modifier@2@@Z 000000014002d2b4 f i libucrt:output.obj
 0001:0002c318       ?validate_and_store_parameter_data@?$positional_parameter_base@DV?$string_output_adapter@D@__crt_stdio_output@@@__crt_stdio_output@@AEAA_NAEAUparameter_data@12@W4parameter_type@12@DW4length_modifier@2@@Z 000000014002d318 f i libucrt:output.obj
 0001:0002c37c       ?validate_and_store_parameter_data@?$positional_parameter_base@_WV?$stream_output_adapter@_W@__crt_stdio_output@@@__crt_stdio_output@@AEAA_NAEAUparameter_data@12@W4parameter_type@12@_WW4length_modifier@2@@Z 000000014002d37c f i libucrt:output.obj
 0001:0002c3e0       ?validate_and_store_parameter_data@?$positional_parameter_base@_WV?$string_output_adapter@_W@__crt_stdio_output@@@__crt_stdio_output@@AEAA_NAEAUparameter_data@12@W4parameter_type@12@_WW4length_modifier@2@@Z 000000014002d3e0 f i libucrt:output.obj
 0001:0002c444       ?validate_and_update_state_at_beginning_of_format_character@?$positional_parameter_base@DV?$stream_output_adapter@D@__crt_stdio_output@@@__crt_stdio_output@@IEAA_NXZ 000000014002d444 f i libucrt:output.obj
 0001:0002c588       ?validate_and_update_state_at_beginning_of_format_character@?$positional_parameter_base@DV?$string_output_adapter@D@__crt_stdio_output@@@__crt_stdio_output@@IEAA_NXZ 000000014002d588 f i libucrt:output.obj
 0001:0002c6cc       ?validate_and_update_state_at_beginning_of_format_character@?$positional_parameter_base@_WV?$stream_output_adapter@_W@__crt_stdio_output@@@__crt_stdio_output@@IEAA_NXZ 000000014002d6cc f i libucrt:output.obj
 0001:0002c81c       ?validate_and_update_state_at_beginning_of_format_character@?$positional_parameter_base@_WV?$string_output_adapter@_W@__crt_stdio_output@@@__crt_stdio_output@@IEAA_NXZ 000000014002d81c f i libucrt:output.obj
 0001:0002c96c       ?validate_and_update_state_at_beginning_of_format_character@?$standard_base@DV?$stream_output_adapter@D@__crt_stdio_output@@@__crt_stdio_output@@IEAA_NXZ 000000014002d96c f i libucrt:output.obj
 0001:0002c970       ?validate_and_update_state_at_beginning_of_format_character@?$standard_base@DV?$string_output_adapter@D@__crt_stdio_output@@@__crt_stdio_output@@IEAA_NXZ 000000014002d970 f i libucrt:output.obj
 0001:0002c974       ?validate_and_update_state_at_beginning_of_format_character@?$standard_base@_WV?$stream_output_adapter@_W@__crt_stdio_output@@@__crt_stdio_output@@IEAA_NXZ 000000014002d974 f i libucrt:output.obj
 0001:0002c978       ?validate_and_update_state_at_beginning_of_format_character@?$standard_base@_WV?$string_output_adapter@_W@__crt_stdio_output@@@__crt_stdio_output@@IEAA_NXZ 000000014002d978 f i libucrt:output.obj
 0001:0002c97c       ?validate_and_update_state_at_end_of_format_string@?$format_validation_base@DV?$stream_output_adapter@D@__crt_stdio_output@@@__crt_stdio_output@@IEAA_NXZ 000000014002d97c f i libucrt:output.obj
 0001:0002c9c4       ?validate_and_update_state_at_end_of_format_string@?$format_validation_base@DV?$string_output_adapter@D@__crt_stdio_output@@@__crt_stdio_output@@IEAA_NXZ 000000014002d9c4 f i libucrt:output.obj
 0001:0002ca0c       ?validate_and_update_state_at_end_of_format_string@?$format_validation_base@_WV?$stream_output_adapter@_W@__crt_stdio_output@@@__crt_stdio_output@@IEAA_NXZ 000000014002da0c f i libucrt:output.obj
 0001:0002ca54       ?validate_and_update_state_at_end_of_format_string@?$format_validation_base@_WV?$string_output_adapter@_W@__crt_stdio_output@@@__crt_stdio_output@@IEAA_NXZ 000000014002da54 f i libucrt:output.obj
 0001:0002ca9c       ?validate_and_update_state_at_end_of_format_string@?$positional_parameter_base@DV?$stream_output_adapter@D@__crt_stdio_output@@@__crt_stdio_output@@IEAA_NXZ 000000014002da9c f i libucrt:output.obj
 0001:0002cb54       ?validate_and_update_state_at_end_of_format_string@?$positional_parameter_base@DV?$string_output_adapter@D@__crt_stdio_output@@@__crt_stdio_output@@IEAA_NXZ 000000014002db54 f i libucrt:output.obj
 0001:0002cc0c       ?validate_and_update_state_at_end_of_format_string@?$positional_parameter_base@_WV?$stream_output_adapter@_W@__crt_stdio_output@@@__crt_stdio_output@@IEAA_NXZ 000000014002dc0c f i libucrt:output.obj
 0001:0002ccc4       ?validate_and_update_state_at_end_of_format_string@?$positional_parameter_base@_WV?$string_output_adapter@_W@__crt_stdio_output@@@__crt_stdio_output@@IEAA_NXZ 000000014002dcc4 f i libucrt:output.obj
 0001:0002cd7c       ?validate_and_update_state_at_end_of_format_string@?$standard_base@DV?$stream_output_adapter@D@__crt_stdio_output@@@__crt_stdio_output@@IEBA_NXZ 000000014002dd7c f i libucrt:output.obj
 0001:0002cd80       ?validate_and_update_state_at_end_of_format_string@?$standard_base@DV?$string_output_adapter@D@__crt_stdio_output@@@__crt_stdio_output@@IEBA_NXZ 000000014002dd80 f i libucrt:output.obj
 0001:0002cd84       ?validate_and_update_state_at_end_of_format_string@?$standard_base@_WV?$stream_output_adapter@_W@__crt_stdio_output@@@__crt_stdio_output@@IEBA_NXZ 000000014002dd84 f i libucrt:output.obj
 0001:0002cd88       ?validate_and_update_state_at_end_of_format_string@?$standard_base@_WV?$string_output_adapter@_W@__crt_stdio_output@@@__crt_stdio_output@@IEBA_NXZ 000000014002dd88 f i libucrt:output.obj
 0001:0002cd8c       ?validate_state_for_type_case_a@?$positional_parameter_base@DV?$stream_output_adapter@D@__crt_stdio_output@@@__crt_stdio_output@@IEAA_NXZ 000000014002dd8c f i libucrt:output.obj
 0001:0002ce70       ?validate_state_for_type_case_a@?$positional_parameter_base@DV?$string_output_adapter@D@__crt_stdio_output@@@__crt_stdio_output@@IEAA_NXZ 000000014002de70 f i libucrt:output.obj
 0001:0002cf54       ?validate_state_for_type_case_a@?$positional_parameter_base@_WV?$stream_output_adapter@_W@__crt_stdio_output@@@__crt_stdio_output@@IEAA_NXZ 000000014002df54 f i libucrt:output.obj
 0001:0002d038       ?validate_state_for_type_case_a@?$positional_parameter_base@_WV?$string_output_adapter@_W@__crt_stdio_output@@@__crt_stdio_output@@IEAA_NXZ 000000014002e038 f i libucrt:output.obj
 0001:0002d11c       ?validate_state_for_type_case_a@?$standard_base@DV?$stream_output_adapter@D@__crt_stdio_output@@@__crt_stdio_output@@IEBA_NXZ 000000014002e11c f i libucrt:output.obj
 0001:0002d120       ?validate_state_for_type_case_a@?$standard_base@DV?$string_output_adapter@D@__crt_stdio_output@@@__crt_stdio_output@@IEBA_NXZ 000000014002e120 f i libucrt:output.obj
 0001:0002d124       ?validate_state_for_type_case_a@?$standard_base@_WV?$stream_output_adapter@_W@__crt_stdio_output@@@__crt_stdio_output@@IEBA_NXZ 000000014002e124 f i libucrt:output.obj
 0001:0002d128       ?validate_state_for_type_case_a@?$standard_base@_WV?$string_output_adapter@_W@__crt_stdio_output@@@__crt_stdio_output@@IEBA_NXZ 000000014002e128 f i libucrt:output.obj
 0001:0002d12c       ?validate_stream_is_ansi_if_required@?$__acrt_stdio_char_traits@D@@SA_NQEAU_iobuf@@@Z 000000014002e12c f i libucrt:output.obj
 0001:0002d1c8       ?validate_stream_is_ansi_if_required@?$__acrt_stdio_char_traits@_W@@SA_NQEAU_iobuf@@@Z 000000014002e1c8 f i libucrt:output.obj
 0001:0002d1cc       ?wide_character_to_digit@__crt_strtox@@YAH_W@Z 000000014002e1cc f i libucrt:output.obj
 0001:0002d36c       ?wide_null_string@?$output_processor@DV?$stream_output_adapter@D@__crt_stdio_output@@V?$format_validation_base@DV?$stream_output_adapter@D@__crt_stdio_output@@@2@@__crt_stdio_output@@CAPEA_WXZ 000000014002e36c f i libucrt:output.obj
 0001:0002d374       ?wide_null_string@?$output_processor@DV?$stream_output_adapter@D@__crt_stdio_output@@V?$positional_parameter_base@DV?$stream_output_adapter@D@__crt_stdio_output@@@2@@__crt_stdio_output@@CAPEA_WXZ 000000014002e374 f i libucrt:output.obj
 0001:0002d37c       ?wide_null_string@?$output_processor@DV?$stream_output_adapter@D@__crt_stdio_output@@V?$standard_base@DV?$stream_output_adapter@D@__crt_stdio_output@@@2@@__crt_stdio_output@@CAPEA_WXZ 000000014002e37c f i libucrt:output.obj
 0001:0002d384       ?wide_null_string@?$output_processor@DV?$string_output_adapter@D@__crt_stdio_output@@V?$format_validation_base@DV?$string_output_adapter@D@__crt_stdio_output@@@2@@__crt_stdio_output@@CAPEA_WXZ 000000014002e384 f i libucrt:output.obj
 0001:0002d38c       ?wide_null_string@?$output_processor@DV?$string_output_adapter@D@__crt_stdio_output@@V?$positional_parameter_base@DV?$string_output_adapter@D@__crt_stdio_output@@@2@@__crt_stdio_output@@CAPEA_WXZ 000000014002e38c f i libucrt:output.obj
 0001:0002d394       ?wide_null_string@?$output_processor@DV?$string_output_adapter@D@__crt_stdio_output@@V?$standard_base@DV?$string_output_adapter@D@__crt_stdio_output@@@2@@__crt_stdio_output@@CAPEA_WXZ 000000014002e394 f i libucrt:output.obj
 0001:0002d39c       ?wide_null_string@?$output_processor@_WV?$stream_output_adapter@_W@__crt_stdio_output@@V?$format_validation_base@_WV?$stream_output_adapter@_W@__crt_stdio_output@@@2@@__crt_stdio_output@@CAPEA_WXZ 000000014002e39c f i libucrt:output.obj
 0001:0002d3a4       ?wide_null_string@?$output_processor@_WV?$stream_output_adapter@_W@__crt_stdio_output@@V?$positional_parameter_base@_WV?$stream_output_adapter@_W@__crt_stdio_output@@@2@@__crt_stdio_output@@CAPEA_WXZ 000000014002e3a4 f i libucrt:output.obj
 0001:0002d3ac       ?wide_null_string@?$output_processor@_WV?$stream_output_adapter@_W@__crt_stdio_output@@V?$standard_base@_WV?$stream_output_adapter@_W@__crt_stdio_output@@@2@@__crt_stdio_output@@CAPEA_WXZ 000000014002e3ac f i libucrt:output.obj
 0001:0002d3b4       ?wide_null_string@?$output_processor@_WV?$string_output_adapter@_W@__crt_stdio_output@@V?$format_validation_base@_WV?$string_output_adapter@_W@__crt_stdio_output@@@2@@__crt_stdio_output@@CAPEA_WXZ 000000014002e3b4 f i libucrt:output.obj
 0001:0002d3bc       ?wide_null_string@?$output_processor@_WV?$string_output_adapter@_W@__crt_stdio_output@@V?$positional_parameter_base@_WV?$string_output_adapter@_W@__crt_stdio_output@@@2@@__crt_stdio_output@@CAPEA_WXZ 000000014002e3bc f i libucrt:output.obj
 0001:0002d3c4       ?wide_null_string@?$output_processor@_WV?$string_output_adapter@_W@__crt_stdio_output@@V?$standard_base@_WV?$string_output_adapter@_W@__crt_stdio_output@@@2@@__crt_stdio_output@@CAPEA_WXZ 000000014002e3c4 f i libucrt:output.obj
 0001:0002d3cc       ?write_character@?$output_adapter_common@DV?$stream_output_adapter@D@__crt_stdio_output@@@__crt_stdio_output@@QEBAXDQEAHAEAV__crt_cached_ptd_host@@@Z 000000014002e3cc f i libucrt:output.obj
 0001:0002d418       ?write_character@?$output_adapter_common@_WV?$stream_output_adapter@_W@__crt_stdio_output@@@__crt_stdio_output@@QEBAX_WQEAHAEAV__crt_cached_ptd_host@@@Z 000000014002e418 f i libucrt:output.obj
 0001:0002d468       ?write_character@?$string_output_adapter@D@__crt_stdio_output@@QEBA_NDQEAHAEAV__crt_cached_ptd_host@@@Z 000000014002e468 f i libucrt:output.obj
 0001:0002d4b0       ?write_character@?$string_output_adapter@_W@__crt_stdio_output@@QEBA_N_WQEAHAEAV__crt_cached_ptd_host@@@Z 000000014002e4b0 f i libucrt:output.obj
 0001:0002d4f8       ?write_character_without_count_update@?$stream_output_adapter@D@__crt_stdio_output@@QEBA_NDAEAV__crt_cached_ptd_host@@@Z 000000014002e4f8 f i libucrt:output.obj
 0001:0002d538       ?write_character_without_count_update@?$stream_output_adapter@_W@__crt_stdio_output@@QEBA_N_WAEAV__crt_cached_ptd_host@@@Z 000000014002e538 f i libucrt:output.obj
 0001:0002d57c       ?write_stored_string_tchar@?$output_processor@DV?$stream_output_adapter@D@__crt_stdio_output@@V?$format_validation_base@DV?$stream_output_adapter@D@__crt_stdio_output@@@2@@__crt_stdio_output@@AEAA_ND@Z 000000014002e57c f i libucrt:output.obj
 0001:0002d6b0       ?write_stored_string_tchar@?$output_processor@DV?$stream_output_adapter@D@__crt_stdio_output@@V?$positional_parameter_base@DV?$stream_output_adapter@D@__crt_stdio_output@@@2@@__crt_stdio_output@@AEAA_ND@Z 000000014002e6b0 f i libucrt:output.obj
 0001:0002d7e4       ?write_stored_string_tchar@?$output_processor@DV?$stream_output_adapter@D@__crt_stdio_output@@V?$standard_base@DV?$stream_output_adapter@D@__crt_stdio_output@@@2@@__crt_stdio_output@@AEAA_ND@Z 000000014002e7e4 f i libucrt:output.obj
 0001:0002d918       ?write_stored_string_tchar@?$output_processor@DV?$string_output_adapter@D@__crt_stdio_output@@V?$format_validation_base@DV?$string_output_adapter@D@__crt_stdio_output@@@2@@__crt_stdio_output@@AEAA_ND@Z 000000014002e918 f i libucrt:output.obj
 0001:0002da00       ?write_stored_string_tchar@?$output_processor@DV?$string_output_adapter@D@__crt_stdio_output@@V?$positional_parameter_base@DV?$string_output_adapter@D@__crt_stdio_output@@@2@@__crt_stdio_output@@AEAA_ND@Z 000000014002ea00 f i libucrt:output.obj
 0001:0002dae8       ?write_stored_string_tchar@?$output_processor@DV?$string_output_adapter@D@__crt_stdio_output@@V?$standard_base@DV?$string_output_adapter@D@__crt_stdio_output@@@2@@__crt_stdio_output@@AEAA_ND@Z 000000014002eae8 f i libucrt:output.obj
 0001:0002dbd0       ?write_stored_string_tchar@?$output_processor@_WV?$stream_output_adapter@_W@__crt_stdio_output@@V?$format_validation_base@_WV?$stream_output_adapter@_W@__crt_stdio_output@@@2@@__crt_stdio_output@@AEAA_N_W@Z 000000014002ebd0 f i libucrt:output.obj
 0001:0002dd04       ?write_stored_string_tchar@?$output_processor@_WV?$stream_output_adapter@_W@__crt_stdio_output@@V?$positional_parameter_base@_WV?$stream_output_adapter@_W@__crt_stdio_output@@@2@@__crt_stdio_output@@AEAA_N_W@Z 000000014002ed04 f i libucrt:output.obj
 0001:0002de38       ?write_stored_string_tchar@?$output_processor@_WV?$stream_output_adapter@_W@__crt_stdio_output@@V?$standard_base@_WV?$stream_output_adapter@_W@__crt_stdio_output@@@2@@__crt_stdio_output@@AEAA_N_W@Z 000000014002ee38 f i libucrt:output.obj
 0001:0002df6c       ?write_stored_string_tchar@?$output_processor@_WV?$string_output_adapter@_W@__crt_stdio_output@@V?$format_validation_base@_WV?$string_output_adapter@_W@__crt_stdio_output@@@2@@__crt_stdio_output@@AEAA_N_W@Z 000000014002ef6c f i libucrt:output.obj
 0001:0002e080       ?write_stored_string_tchar@?$output_processor@_WV?$string_output_adapter@_W@__crt_stdio_output@@V?$positional_parameter_base@_WV?$string_output_adapter@_W@__crt_stdio_output@@@2@@__crt_stdio_output@@AEAA_N_W@Z 000000014002f080 f i libucrt:output.obj
 0001:0002e194       ?write_stored_string_tchar@?$output_processor@_WV?$string_output_adapter@_W@__crt_stdio_output@@V?$standard_base@_WV?$string_output_adapter@_W@__crt_stdio_output@@@2@@__crt_stdio_output@@AEAA_N_W@Z 000000014002f194 f i libucrt:output.obj
 0001:0002e2a8       ?write_string@?$stream_output_adapter@D@__crt_stdio_output@@QEBAXQEBDHQEAHAEAV__crt_cached_ptd_host@@@Z 000000014002f2a8 f i libucrt:output.obj
 0001:0002e2d0       ?write_string@?$stream_output_adapter@_W@__crt_stdio_output@@QEBAXQEB_WHQEAHAEAV__crt_cached_ptd_host@@@Z 000000014002f2d0 f i libucrt:output.obj
 0001:0002e2f8       ?write_string@?$string_output_adapter@D@__crt_stdio_output@@QEBAXQEBDHQEAHAEAV__crt_cached_ptd_host@@@Z 000000014002f2f8 f i libucrt:output.obj
 0001:0002e39c       ?write_string@?$string_output_adapter@_W@__crt_stdio_output@@QEBAXQEB_WHQEAHAEAV__crt_cached_ptd_host@@@Z 000000014002f39c f i libucrt:output.obj
 0001:0002e444       ?write_string_impl@?$output_adapter_common@DV?$stream_output_adapter@D@__crt_stdio_output@@@__crt_stdio_output@@IEBAXQEBDHQEAHAEAV__crt_cached_ptd_host@@@Z 000000014002f444 f i libucrt:output.obj
 0001:0002e510       ?write_string_impl@?$output_adapter_common@_WV?$stream_output_adapter@_W@__crt_stdio_output@@@__crt_stdio_output@@IEBAXQEB_WHQEAHAEAV__crt_cached_ptd_host@@@Z 000000014002f510 f i libucrt:output.obj
 0001:0002e5f0       __acrt_disable_global_locale_sync 000000014002f5f0 f i libucrt:output.obj
 0001:0002e5f8       __acrt_enable_global_locale_sync 000000014002f5f8 f i libucrt:output.obj
 0001:0002e604       __acrt_isleadbyte_l_noupdate 000000014002f604 f i libucrt:output.obj
 0001:0002e628       __acrt_locale_changed      000000014002f628 f i libucrt:output.obj
 0001:0002e634       __acrt_locale_get_ctype_array_value 000000014002f634 f i libucrt:output.obj
 0001:0002e64c       __ascii_iswalpha           000000014002f64c f i libucrt:output.obj
 0001:0002e668       __ascii_toupper            000000014002f668 f i libucrt:output.obj
 0001:0002e678       __ascii_towupper           000000014002f678 f i libucrt:output.obj
 0001:0002e688       __stdio_common_vfprintf    000000014002f688 f   libucrt:output.obj
 0001:0002e7ac       __stdio_common_vfprintf_p  000000014002f7ac f   libucrt:output.obj
 0001:0002e8d0       __stdio_common_vfprintf_s  000000014002f8d0 f   libucrt:output.obj
 0001:0002e9f4       __stdio_common_vfwprintf   000000014002f9f4 f   libucrt:output.obj
 0001:0002eb18       __stdio_common_vfwprintf_p 000000014002fb18 f   libucrt:output.obj
 0001:0002ec3c       __stdio_common_vfwprintf_s 000000014002fc3c f   libucrt:output.obj
 0001:0002ed60       __stdio_common_vsnprintf_s 000000014002fd60 f   libucrt:output.obj
 0001:0002ef38       __stdio_common_vsnwprintf_s 000000014002ff38 f   libucrt:output.obj
 0001:0002f114       __stdio_common_vsprintf    0000000140030114 f   libucrt:output.obj
 0001:0002f368       __stdio_common_vsprintf_p  0000000140030368 f   libucrt:output.obj
 0001:0002f420       __stdio_common_vsprintf_s  0000000140030420 f   libucrt:output.obj
 0001:0002f534       __stdio_common_vswprintf   0000000140030534 f   libucrt:output.obj
 0001:0002f790       __stdio_common_vswprintf_p 0000000140030790 f   libucrt:output.obj
 0001:0002f848       __stdio_common_vswprintf_s 0000000140030848 f   libucrt:output.obj
 0001:0002f95c       _ctype_fast_check_internal 000000014003095c f i libucrt:output.obj
 0001:0002f970       _isdigit_fast_internal     0000000140030970 f i libucrt:output.obj
 0001:0002f984       _tolower_fast_internal     0000000140030984 f i libucrt:output.obj
 0001:0002f9b8       _seh_filter_dll            00000001400309b8 f   libucrt:exception_filter.obj
 0001:0002f9cc       _seh_filter_exe            00000001400309cc f   libucrt:exception_filter.obj
 0001:0002fc2c       __acrt_report_runtime_error 0000000140030c2c f   libucrt:report_runtime_error.obj
 0001:0002fd8c       _invoke_watson_if_error    0000000140030d8c f i libucrt:report_runtime_error.obj
 0001:0002fdc0       _query_app_type            0000000140030dc0 f   libucrt:report_runtime_error.obj
 0001:0002fdc8       _set_app_type              0000000140030dc8 f   libucrt:report_runtime_error.obj
 0001:0002fdd0       ??$__crt_fast_decode_pointer@P6AHPEAU_exception@@@Z@@YAP6AHPEAU_exception@@@ZQ6AH0@Z@Z 0000000140030dd0 f i libucrt:matherr.obj
 0001:0002fde8       ??$__crt_fast_encode_pointer@P6AHPEAU_exception@@@Z@@YAP6AHPEAU_exception@@@ZQ6AH0@Z@Z 0000000140030de8 f i libucrt:matherr.obj
 0001:0002fe08       ?get_current_state_index@__crt_state_management@@YA_KXZ 0000000140030e08 f i libucrt:matherr.obj
 0001:0002fe0c       ?initialize@?$dual_state_global@P6AHPEAU_exception@@@Z@__crt_state_management@@QEAAXQ6AHPEAU_exception@@@Z@Z 0000000140030e0c f i libucrt:matherr.obj
 0001:0002fe1c       ?value@?$dual_state_global@P6AHPEAU_exception@@@Z@__crt_state_management@@QEAAAEAP6AHPEAU_exception@@@ZXZ 0000000140030e1c f i libucrt:matherr.obj
 0001:0002fe20       __acrt_has_user_matherr    0000000140030e20 f   libucrt:matherr.obj
 0001:0002fe40       __acrt_initialize_user_matherr 0000000140030e40 f   libucrt:matherr.obj
 0001:0002fe48       __acrt_invoke_user_matherr 0000000140030e48 f   libucrt:matherr.obj
 0001:0002fe84       __setusermatherr           0000000140030e84 f   libucrt:matherr.obj
 0001:0002feac       ??$?RE@__crt_internal_free_policy@@QEBAXQEBE@Z 0000000140030eac f i libucrt:argv_parsing.obj
 0001:0002feb4       ??$?RPEAD@__crt_internal_free_policy@@QEBAXQEBQEAD@Z 0000000140030eb4 f i libucrt:argv_parsing.obj
 0001:0002febc       ??$?RPEA_W@__crt_internal_free_policy@@QEBAXQEBQEA_W@Z 0000000140030ebc f i libucrt:argv_parsing.obj
 0001:000301b8       ??$get_module_file_name@$$TAEAY0BAF@DH@?$__crt_char_traits@D@@SAK$$QEA$$TAEAY0BAF@D$$QEAH@Z 00000001400311b8 f i libucrt:argv_parsing.obj
 0001:000301c4       ??$get_module_file_name@$$TAEAY0BAF@_WH@?$__crt_char_traits@_W@@SAK$$QEA$$TAEAY0BAF@_W$$QEAH@Z 00000001400311c4 f i libucrt:argv_parsing.obj
 0001:00030540       ??$set_program_name@PEAD@?$__crt_char_traits@D@@SAX$$QEAPEAD@Z 0000000140031540 f i libucrt:argv_parsing.obj
 0001:0003054c       ??$set_program_name@PEA_W@?$__crt_char_traits@_W@@SAX$$QEAPEA_W@Z 000000014003154c f i libucrt:argv_parsing.obj
 0001:00030568       ??0?$__crt_unique_heap_ptr@EU__crt_internal_free_policy@@@@QEAA@QEAE@Z 0000000140031568 f i libucrt:argv_parsing.obj
 0001:00030570       ??0?$__crt_unique_heap_ptr@PEADU__crt_internal_free_policy@@@@QEAA@QEAPEAD@Z 0000000140031570 f i libucrt:argv_parsing.obj
 0001:00030578       ??0?$__crt_unique_heap_ptr@PEA_WU__crt_internal_free_policy@@@@QEAA@QEAPEA_W@Z 0000000140031578 f i libucrt:argv_parsing.obj
 0001:00030580       ??1?$__crt_unique_heap_ptr@EU__crt_internal_free_policy@@@@QEAA@XZ 0000000140031580 f i libucrt:argv_parsing.obj
 0001:0003059c       ??1?$__crt_unique_heap_ptr@PEADU__crt_internal_free_policy@@@@QEAA@XZ 000000014003159c f i libucrt:argv_parsing.obj
 0001:000305b8       ??1?$__crt_unique_heap_ptr@PEA_WU__crt_internal_free_policy@@@@QEAA@XZ 00000001400315b8 f i libucrt:argv_parsing.obj
 0001:000305d4       ??B?$__crt_unique_heap_ptr@EU__crt_internal_free_policy@@@@QEBA_NXZ 00000001400315d4 f i libucrt:argv_parsing.obj
 0001:00030614       ?detach@?$__crt_unique_heap_ptr@EU__crt_internal_free_policy@@@@QEAAPEAEXZ 0000000140031614 f i libucrt:argv_parsing.obj
 0001:0003061c       ?detach@?$__crt_unique_heap_ptr@PEADU__crt_internal_free_policy@@@@QEAAPEAPEADXZ 000000014003161c f i libucrt:argv_parsing.obj
 0001:00030624       ?detach@?$__crt_unique_heap_ptr@PEA_WU__crt_internal_free_policy@@@@QEAAPEAPEA_WXZ 0000000140031624 f i libucrt:argv_parsing.obj
 0001:00030648       ?get@?$__crt_unique_heap_ptr@EU__crt_internal_free_policy@@@@QEBAPEAEXZ 0000000140031648 f i libucrt:argv_parsing.obj
 0001:0003064c       ?get@?$__crt_unique_heap_ptr@PEADU__crt_internal_free_policy@@@@QEBAPEAPEADXZ 000000014003164c f i libucrt:argv_parsing.obj
 0001:00030650       ?get@?$__crt_unique_heap_ptr@PEA_WU__crt_internal_free_policy@@@@QEBAPEAPEA_WXZ 0000000140031650 f i libucrt:argv_parsing.obj
 0001:00030654       ?get_address_of@?$__crt_unique_heap_ptr@PEADU__crt_internal_free_policy@@@@QEAAPEAPEAPEADXZ 0000000140031654 f i libucrt:argv_parsing.obj
 0001:00030658       ?get_address_of@?$__crt_unique_heap_ptr@PEA_WU__crt_internal_free_policy@@@@QEAAPEAPEAPEA_WXZ 0000000140031658 f i libucrt:argv_parsing.obj
 0001:0003067c       ?is_valid@?$__crt_unique_heap_ptr@EU__crt_internal_free_policy@@@@QEBA_NXZ 000000014003167c f i libucrt:argv_parsing.obj
 0001:00030684       ?release@?$__crt_unique_heap_ptr@EU__crt_internal_free_policy@@@@QEAAXXZ 0000000140031684 f i libucrt:argv_parsing.obj
 0001:000306a0       ?release@?$__crt_unique_heap_ptr@PEADU__crt_internal_free_policy@@@@QEAAXXZ 00000001400316a0 f i libucrt:argv_parsing.obj
 0001:000306bc       ?release@?$__crt_unique_heap_ptr@PEA_WU__crt_internal_free_policy@@@@QEAAXXZ 00000001400316bc f i libucrt:argv_parsing.obj
 0001:000306f4       __acrt_allocate_buffer_for_argv 00000001400316f4 f   libucrt:argv_parsing.obj
 0001:00030754       _configure_narrow_argv     0000000140031754 f   libucrt:argv_parsing.obj
 0001:000308dc       _configure_wide_argv       00000001400318dc f   libucrt:argv_parsing.obj
 0001:00030a60       _set_pgmptr                0000000140031a60 f i libucrt:argv_parsing.obj
 0001:00030a68       _set_wpgmptr               0000000140031a68 f i libucrt:argv_parsing.obj
 0001:00030a70       ??$?R_W@__crt_internal_free_policy@@QEBAXQEB_W@Z 0000000140031a70 f i libucrt:environment_initialization.obj
 0001:00030f98       ??$get_environment_from_os@$$V@?$__crt_char_traits@D@@SAPEADXZ 0000000140031f98 f i libucrt:environment_initialization.obj
 0001:00030fa0       ??$get_environment_from_os@$$V@?$__crt_char_traits@_W@@SAPEA_WXZ 0000000140031fa0 f i libucrt:environment_initialization.obj
 0001:00031144       ??$set_variable_in_environment_nolock@PEADH@?$__crt_char_traits@D@@SAH$$QEAPEAD$$QEAH@Z 0000000140032144 f i libucrt:environment_initialization.obj
 0001:00031150       ??$set_variable_in_environment_nolock@PEA_WH@?$__crt_char_traits@_W@@SAH$$QEAPEA_W$$QEAH@Z 0000000140032150 f i libucrt:environment_initialization.obj
 0001:0003115c       ??$tcscpy_s@PEADAEB_KAEAPEAD@?$__crt_char_traits@D@@SAH$$QEAPEADAEB_KAEAPEAD@Z 000000014003215c f i libucrt:environment_initialization.obj
 0001:0003116c       ??$tcscpy_s@PEA_WAEB_KAEAPEA_W@?$__crt_char_traits@_W@@SAH$$QEAPEA_WAEB_KAEAPEA_W@Z 000000014003216c f i libucrt:environment_initialization.obj
 0001:0003117c       ??$tcslen@AEAPEAD@?$__crt_char_traits@D@@SA_KAEAPEAD@Z 000000014003217c f i libucrt:environment_initialization.obj
 0001:00031190       ??$tcslen@AEAPEA_W@?$__crt_char_traits@_W@@SA_KAEAPEA_W@Z 0000000140032190 f i libucrt:environment_initialization.obj
 0001:000311a4       ??$uninitialize@A6AXAEAPEAPEAD@_E@?$dual_state_global@PEAPEAD@__crt_state_management@@QEAAXA6AXAEAPEAPEAD@_E@Z 00000001400321a4 f i libucrt:environment_initialization.obj
 0001:000311fc       ??$uninitialize@A6AXAEAPEAPEA_W@_E@?$dual_state_global@PEAPEA_W@__crt_state_management@@QEAAXA6AXAEAPEAPEA_W@_E@Z 00000001400321fc f i libucrt:environment_initialization.obj
 0001:0003128c       ??0?$__crt_unique_heap_ptr@_WU__crt_internal_free_policy@@@@QEAA@QEA_W@Z 000000014003228c f i libucrt:environment_initialization.obj
 0001:00031294       ??1?$__crt_unique_heap_ptr@_WU__crt_internal_free_policy@@@@QEAA@XZ 0000000140032294 f i libucrt:environment_initialization.obj
 0001:000312b0       ??B?$__crt_unique_heap_ptr@PEADU__crt_internal_free_policy@@@@QEBA_NXZ 00000001400322b0 f i libucrt:environment_initialization.obj
 0001:000312b8       ??B?$__crt_unique_heap_ptr@PEA_WU__crt_internal_free_policy@@@@QEBA_NXZ 00000001400322b8 f i libucrt:environment_initialization.obj
 0001:000312c0       ??B?$__crt_unique_heap_ptr@_WU__crt_internal_free_policy@@@@QEBA_NXZ 00000001400322c0 f i libucrt:environment_initialization.obj
 0001:000312c8       ?__crt_compute_required_transform_buffer_count@@YA_KIQEBD@Z 00000001400322c8 f i libucrt:environment_initialization.obj
 0001:000312ec       ?__crt_compute_required_transform_buffer_count@@YA_KIQEB_W@Z 00000001400322ec f i libucrt:environment_initialization.obj
 0001:0003131c       ?__crt_transform_string@@YA_KIQEBDQEA_W_K@Z 000000014003231c f i libucrt:environment_initialization.obj
 0001:00031340       ?__crt_transform_string@@YA_KIQEB_WQEAD_K@Z 0000000140032340 f i libucrt:environment_initialization.obj
 0001:00031370       ?detach@?$__crt_unique_heap_ptr@DU__crt_internal_free_policy@@@@QEAAPEADXZ 0000000140032370 f i libucrt:environment_initialization.obj
 0001:00031378       ?detach@?$__crt_unique_heap_ptr@_WU__crt_internal_free_policy@@@@QEAAPEA_WXZ 0000000140032378 f i libucrt:environment_initialization.obj
 0001:00031380       ?get@?$__crt_unique_heap_ptr@_WU__crt_internal_free_policy@@@@QEBAPEA_WXZ 0000000140032380 f i libucrt:environment_initialization.obj
 0001:000313b4       ?initialize@?$dual_state_global@PEAPEAD@__crt_state_management@@QEAAXQEAPEAD@Z 00000001400323b4 f i libucrt:environment_initialization.obj
 0001:000313c4       ?initialize@?$dual_state_global@PEAPEA_W@__crt_state_management@@QEAAXQEAPEA_W@Z 00000001400323c4 f i libucrt:environment_initialization.obj
 0001:000313d4       ?is_valid@?$__crt_unique_heap_ptr@PEADU__crt_internal_free_policy@@@@QEBA_NXZ 00000001400323d4 f i libucrt:environment_initialization.obj
 0001:000313dc       ?is_valid@?$__crt_unique_heap_ptr@PEA_WU__crt_internal_free_policy@@@@QEBA_NXZ 00000001400323dc f i libucrt:environment_initialization.obj
 0001:000313e4       ?is_valid@?$__crt_unique_heap_ptr@_WU__crt_internal_free_policy@@@@QEBA_NXZ 00000001400323e4 f i libucrt:environment_initialization.obj
 0001:000313f8       ?release@?$__crt_unique_heap_ptr@_WU__crt_internal_free_policy@@@@QEAAXXZ 00000001400323f8 f i libucrt:environment_initialization.obj
 0001:00031414       ?value@?$dual_state_global@PEAPEAD@__crt_state_management@@QEAAAEAPEAPEADXZ 0000000140032414 f i libucrt:environment_initialization.obj
 0001:00031418       ?value@?$dual_state_global@PEAPEA_W@__crt_state_management@@QEAAAEAPEAPEA_WXZ 0000000140032418 f i libucrt:environment_initialization.obj
 0001:0003141c       __dcrt_get_or_create_narrow_environment_nolock 000000014003241c f   libucrt:environment_initialization.obj
 0001:00031458       __dcrt_get_or_create_wide_environment_nolock 0000000140032458 f   libucrt:environment_initialization.obj
 0001:00031494       __dcrt_uninitialize_environments_nolock 0000000140032494 f   libucrt:environment_initialization.obj
 0001:000314d8       __p__environ               00000001400324d8 f   libucrt:environment_initialization.obj
 0001:000314e0       __p__wenviron              00000001400324e0 f   libucrt:environment_initialization.obj
 0001:000314e8       _get_initial_narrow_environment 00000001400324e8 f   libucrt:environment_initialization.obj
 0001:00031538       _get_initial_wide_environment 0000000140032538 f   libucrt:environment_initialization.obj
 0001:00031588       _initialize_narrow_environment 0000000140032588 f   libucrt:environment_initialization.obj
 0001:00031590       _initialize_wide_environment 0000000140032590 f   libucrt:environment_initialization.obj
 0001:00031598       _initterm                  0000000140032598 f   libucrt:initterm.obj
 0001:000315dc       _initterm_e                00000001400325dc f   libucrt:initterm.obj
 0001:00031624       ??$?B$$A6AXPEAXK0@Z@__crt_fast_encoded_nullptr_t@@QEBAP6AXPEAXK0@ZXZ 0000000140032624 f i libucrt:exit.obj
 0001:00031694       ??$__crt_fast_decode_pointer@P6AXPEAXK0@Z@@YAP6AXPEAXK0@ZQ6AX0K0@Z@Z 0000000140032694 f i libucrt:exit.obj
 0001:000316ac       ??$__crt_fast_encode_pointer@P6AXPEAXK0@Z@@YAP6AXPEAXK0@ZQ6AX0K0@Z@Z 00000001400326ac f i libucrt:exit.obj
 0001:000316cc       ??$__crt_get_proc_address@P6AXI@Z@@YAP6AXI@ZQEAUHINSTANCE__@@QEBD@Z 00000001400326cc f i libucrt:exit.obj
 0001:000316f4       ??0?$__crt_unique_handle_t@U__crt_hmodule_traits@@@@QEAA@QEAUHINSTANCE__@@@Z 00000001400326f4 f i libucrt:exit.obj
 0001:000316fc       ??1?$__crt_unique_handle_t@U__crt_hmodule_traits@@@@QEAA@XZ 00000001400326fc f i libucrt:exit.obj
 0001:000317fc       ?__acrt_select_exit_lock@@YA?AW4__acrt_lock_id@@XZ 00000001400327fc f i libucrt:exit.obj
 0001:00031810       ?close@?$__crt_unique_handle_t@U__crt_hmodule_traits@@@@QEAAXXZ 0000000140032810 f i libucrt:exit.obj
 0001:00031834       ?close@__crt_hmodule_traits@@SA_NPEAUHINSTANCE__@@@Z 0000000140032834 f i libucrt:exit.obj
 0001:00031944       ?get@?$__crt_unique_handle_t@U__crt_hmodule_traits@@@@QEBAPEAUHINSTANCE__@@XZ 0000000140032944 f i libucrt:exit.obj
 0001:00031948       ?get_address_of@?$__crt_unique_handle_t@U__crt_hmodule_traits@@@@QEAAPEAPEAUHINSTANCE__@@XZ 0000000140032948 f i libucrt:exit.obj
 0001:0003194c       ?get_invalid_value@__crt_hmodule_traits@@SAPEAUHINSTANCE__@@XZ 000000014003294c f i libucrt:exit.obj
 0001:00031a38       _Exit                      0000000140032a38 f   libucrt:exit.obj
 0001:00031a44       __acrt_initialize_thread_local_exit_callback 0000000140032a44 f   libucrt:exit.obj
 0001:00031a4c       _c_exit                    0000000140032a4c f   libucrt:exit.obj
 0001:00031a5c       _cexit                     0000000140032a5c f   libucrt:exit.obj
 0001:00031a6c       _exit                      0000000140032a6c f   libucrt:exit.obj
 0001:00031a78       _is_c_termination_complete 0000000140032a78 f   libucrt:exit.obj
 0001:00031a80       _register_thread_local_exe_atexit_callback 0000000140032a80 f   libucrt:exit.obj
 0001:00031ac0       exit                       0000000140032ac0 f   libucrt:exit.obj
 0001:00031acc       quick_exit                 0000000140032acc f   libucrt:exit.obj
 0001:00031ad8       ??$__crt_interlocked_read@H@@YAHPEDH@Z 0000000140032ad8 f i libucrt:setmode.obj
 0001:00031adc       ?value@?$dual_state_global@H@__crt_state_management@@QEAAAEAHXZ 0000000140032adc f i libucrt:setmode.obj
 0001:00031ae0       _get_fmode                 0000000140032ae0 f   libucrt:setmode.obj
 0001:00031b10       _set_fmode                 0000000140032b10 f   libucrt:setmode.obj
 0001:00031b50       _setmode                   0000000140032b50 f   libucrt:setmode.obj
 0001:00031c6c       _setmode_nolock            0000000140032c6c f   libucrt:setmode.obj
 0001:00031d50       __acrt_initialize_command_line 0000000140032d50 f   libucrt:argv_data.obj
 0001:00031d78       __acrt_uninitialize_command_line 0000000140032d78 f   libucrt:argv_data.obj
 0001:00031d7c       __p___argc                 0000000140032d7c f   libucrt:argv_data.obj
 0001:00031d84       __p___argv                 0000000140032d84 f   libucrt:argv_data.obj
 0001:00031d8c       __p___wargv                0000000140032d8c f   libucrt:argv_data.obj
 0001:00031d94       __p__acmdln                0000000140032d94 f   libucrt:argv_data.obj
 0001:00031d9c       __p__pgmptr                0000000140032d9c f   libucrt:argv_data.obj
 0001:00031da4       __p__wcmdln                0000000140032da4 f   libucrt:argv_data.obj
 0001:00031dac       __p__wpgmptr               0000000140032dac f   libucrt:argv_data.obj
 0001:00031db4       _get_pgmptr                0000000140032db4 f   libucrt:argv_data.obj
 0001:00031dec       _get_wpgmptr               0000000140032dec f   libucrt:argv_data.obj
 0001:00031e28       ??$?RU__crt_locale_data@@@__crt_internal_free_policy@@QEBAXQEBU__crt_locale_data@@@Z 0000000140032e28 f i libucrt:wsetlocale.obj
 0001:00031e30       ??$?RU__crt_locale_pointers@@@__crt_internal_free_policy@@QEBAXQEBU__crt_locale_pointers@@@Z 0000000140032e30 f i libucrt:wsetlocale.obj
 0001:00031e38       ??$?RU__crt_multibyte_data@@@__crt_internal_free_policy@@QEBAXQEBU__crt_multibyte_data@@@Z 0000000140032e38 f i libucrt:wsetlocale.obj
 0001:0003223c       ??0?$__crt_unique_heap_ptr@U__crt_locale_data@@U__crt_internal_free_policy@@@@QEAA@QEAU__crt_locale_data@@@Z 000000014003323c f i libucrt:wsetlocale.obj
 0001:00032244       ??0?$__crt_unique_heap_ptr@U__crt_locale_pointers@@U__crt_internal_free_policy@@@@QEAA@QEAU__crt_locale_pointers@@@Z 0000000140033244 f i libucrt:wsetlocale.obj
 0001:0003224c       ??0?$__crt_unique_heap_ptr@U__crt_multibyte_data@@U__crt_internal_free_policy@@@@QEAA@QEAU__crt_multibyte_data@@@Z 000000014003324c f i libucrt:wsetlocale.obj
 0001:00032254       ??0_expandlocale_locale_name_cache@@QEAA@QEA_W_KQEAU__crt_qualified_locale_data@@@Z 0000000140033254 f i libucrt:wsetlocale.obj
 0001:000322b0       ??1?$__crt_unique_heap_ptr@U__crt_locale_data@@U__crt_internal_free_policy@@@@QEAA@XZ 00000001400332b0 f i libucrt:wsetlocale.obj
 0001:000322cc       ??1?$__crt_unique_heap_ptr@U__crt_locale_pointers@@U__crt_internal_free_policy@@@@QEAA@XZ 00000001400332cc f i libucrt:wsetlocale.obj
 0001:000322e8       ??1?$__crt_unique_heap_ptr@U__crt_multibyte_data@@U__crt_internal_free_policy@@@@QEAA@XZ 00000001400332e8 f i libucrt:wsetlocale.obj
 0001:00032304       ??1_expandlocale_locale_name_cache@@QEAA@XZ 0000000140033304 f i libucrt:wsetlocale.obj
 0001:0003234c       ??B?$__crt_unique_heap_ptr@U__crt_locale_data@@U__crt_internal_free_policy@@@@QEBA_NXZ 000000014003334c f i libucrt:wsetlocale.obj
 0001:00032354       ??B?$__crt_unique_heap_ptr@U__crt_locale_pointers@@U__crt_internal_free_policy@@@@QEBA_NXZ 0000000140033354 f i libucrt:wsetlocale.obj
 0001:0003235c       ??B?$__crt_unique_heap_ptr@U__crt_multibyte_data@@U__crt_internal_free_policy@@@@QEBA_NXZ 000000014003335c f i libucrt:wsetlocale.obj
 0001:000325dc       ?commit_locale_name@_expandlocale_locale_name_cache@@QEAAXQEB_W_K@Z 00000001400335dc f i libucrt:wsetlocale.obj
 0001:00032654       ?commit_locale_name_cache_already_updated@_expandlocale_locale_name_cache@@QEAAXQEB_W_K@Z 0000000140033654 f i libucrt:wsetlocale.obj
 0001:00032694       ?detach@?$__crt_unique_heap_ptr@U__crt_locale_data@@U__crt_internal_free_policy@@@@QEAAPEAU__crt_locale_data@@XZ 0000000140033694 f i libucrt:wsetlocale.obj
 0001:0003269c       ?detach@?$__crt_unique_heap_ptr@U__crt_locale_pointers@@U__crt_internal_free_policy@@@@QEAAPEAU__crt_locale_pointers@@XZ 000000014003369c f i libucrt:wsetlocale.obj
 0001:000326a4       ?detach@?$__crt_unique_heap_ptr@U__crt_multibyte_data@@U__crt_internal_free_policy@@@@QEAAPEAU__crt_multibyte_data@@XZ 00000001400336a4 f i libucrt:wsetlocale.obj
 0001:000326ac       ?get@?$__crt_unique_heap_ptr@U__crt_locale_data@@U__crt_internal_free_policy@@@@QEBAPEAU__crt_locale_data@@XZ 00000001400336ac f i libucrt:wsetlocale.obj
 0001:000326b0       ?get@?$__crt_unique_heap_ptr@U__crt_locale_pointers@@U__crt_internal_free_policy@@@@QEBAPEAU__crt_locale_pointers@@XZ 00000001400336b0 f i libucrt:wsetlocale.obj
 0001:000326b4       ?get@?$__crt_unique_heap_ptr@U__crt_multibyte_data@@U__crt_internal_free_policy@@@@QEBAPEAU__crt_multibyte_data@@XZ 00000001400336b4 f i libucrt:wsetlocale.obj
 0001:000326b8       ?is_valid@?$__crt_unique_heap_ptr@U__crt_locale_data@@U__crt_internal_free_policy@@@@QEBA_NXZ 00000001400336b8 f i libucrt:wsetlocale.obj
 0001:000326c0       ?is_valid@?$__crt_unique_heap_ptr@U__crt_locale_pointers@@U__crt_internal_free_policy@@@@QEBA_NXZ 00000001400336c0 f i libucrt:wsetlocale.obj
 0001:000326c8       ?is_valid@?$__crt_unique_heap_ptr@U__crt_multibyte_data@@U__crt_internal_free_policy@@@@QEBA_NXZ 00000001400336c8 f i libucrt:wsetlocale.obj
 0001:000326d0       ?release@?$__crt_unique_heap_ptr@U__crt_locale_data@@U__crt_internal_free_policy@@@@QEAAXXZ 00000001400336d0 f i libucrt:wsetlocale.obj
 0001:000326ec       ?release@?$__crt_unique_heap_ptr@U__crt_locale_pointers@@U__crt_internal_free_policy@@@@QEAAXXZ 00000001400336ec f i libucrt:wsetlocale.obj
 0001:00032708       ?release@?$__crt_unique_heap_ptr@U__crt_multibyte_data@@U__crt_internal_free_policy@@@@QEAAXXZ 0000000140033708 f i libucrt:wsetlocale.obj
 0001:00032724       ?value@?$dual_state_global@PEAU__crt_locale_data@@@__crt_state_management@@QEAAAEAPEAU__crt_locale_data@@XZ 0000000140033724 f i libucrt:wsetlocale.obj
 0001:00032728       __acrt_copy_locale_name    0000000140033728 f   libucrt:wsetlocale.obj
 0001:000327ac       __acrt_set_locale_changed  00000001400337ac f   libucrt:wsetlocale.obj
 0001:000327b8       __acrt_uninitialize_locale 00000001400337b8 f   libucrt:wsetlocale.obj
 0001:000327e8       __ascii_tolower            00000001400337e8 f i libucrt:wsetlocale.obj
 0001:000327f8       __ascii_towlower           00000001400337f8 f i libucrt:wsetlocale.obj
 0001:00032808       __lc_lctowcs               0000000140033808 f   libucrt:wsetlocale.obj
 0001:000328ac       __lc_wcstolc               00000001400338ac f   libucrt:wsetlocale.obj
 0001:00032a14       _configthreadlocale        0000000140033a14 f   libucrt:wsetlocale.obj
 0001:00032b40       _create_locale             0000000140033b40 f   libucrt:wsetlocale.obj
 0001:00033038       _free_locale               0000000140034038 f   libucrt:wsetlocale.obj
 0001:000330dc       _get_current_locale        00000001400340dc f   libucrt:wsetlocale.obj
 0001:00033198       _wcreate_locale            0000000140034198 f   libucrt:wsetlocale.obj
 0001:000332e0       _wcscats                   00000001400342e0 f   libucrt:wsetlocale.obj
 0001:00033348       _wsetlocale                0000000140034348 f   libucrt:wsetlocale.obj
 0001:00034164       ?value@?$dual_state_global@J@__crt_state_management@@QEAAAEAJXZ 0000000140035164 f i libucrt:new_mode.obj
 0001:00034168       _query_new_mode            0000000140035168 f   libucrt:new_mode.obj
 0001:00034170       _set_new_mode              0000000140035170 f   libucrt:new_mode.obj
 0001:0003419c       __p__commode               000000014003519c f   libucrt:ncommode.obj
 0001:000341a4       ??$?BP6AXXZ@__crt_fast_encoded_nullptr_t@@QEBAPEAP6AXXZXZ 00000001400351a4 f i libucrt:onexit.obj
 0001:000341ac       ??$?RP6AXXZ@__crt_internal_free_policy@@QEBAXQEBQ6AXXZ@Z 00000001400351ac f i libucrt:onexit.obj
 0001:00034284       ??$__crt_fast_encode_pointer@P6AHXZ@@YAP6AHXZQ6AHXZ@Z 0000000140035284 f i libucrt:onexit.obj
 0001:000342d8       ??0?$__crt_unique_heap_ptr@P6AXXZU__crt_internal_free_policy@@@@QEAA@QEAP6AXXZ@Z 00000001400352d8 f i libucrt:onexit.obj
 0001:000342e0       ??1?$__crt_unique_heap_ptr@P6AXXZU__crt_internal_free_policy@@@@QEAA@XZ 00000001400352e0 f i libucrt:onexit.obj
 0001:000342fc       ??1scoped_global_state_reset@__crt_state_management@@QEAA@XZ 00000001400352fc f i libucrt:onexit.obj
 0001:000345f0       ?detach@?$__crt_unique_heap_ptr@P6AXXZU__crt_internal_free_policy@@@@QEAAPEAP6AXXZXZ 00000001400355f0 f i libucrt:onexit.obj
 0001:000345f8       ?release@?$__crt_unique_heap_ptr@P6AXXZU__crt_internal_free_policy@@@@QEAAXXZ 00000001400355f8 f i libucrt:onexit.obj
 0001:00034614       _crt_at_quick_exit         0000000140035614 f   libucrt:onexit.obj
 0001:00034624       _crt_atexit                0000000140035624 f   libucrt:onexit.obj
 0001:00034634       _execute_onexit_table      0000000140035634 f   libucrt:onexit.obj
 0001:00034678       _initialize_onexit_table   0000000140035678 f   libucrt:onexit.obj
 0001:000346a0       _register_onexit_function  00000001400356a0 f   libucrt:onexit.obj
 0001:000348c4       ?__acrt_stdio_is_initialized@@YA_NXZ 00000001400358c4 f i libucrt:initialization.obj
 0001:000348d0       ?initialize@?$dual_state_global@PEAU__crt_locale_data@@@__crt_state_management@@QEAAXQEAU__crt_locale_data@@@Z 00000001400358d0 f i libucrt:initialization.obj
 0001:000348e0       __acrt_initialize          00000001400358e0 f   libucrt:initialization.obj
 0001:000348f4       __acrt_thread_attach       00000001400358f4 f   libucrt:initialization.obj
 0001:00034908       __acrt_thread_detach       0000000140035908 f   libucrt:initialization.obj
 0001:00034918       __acrt_uninitialize        0000000140035918 f   libucrt:initialization.obj
 0001:00034950       __acrt_uninitialize_critical 0000000140035950 f   libucrt:initialization.obj
 0001:00034974       _get_terminate             0000000140035974 f   libucrt:terminate.obj
 0001:00034998       set_terminate              0000000140035998 f   libucrt:terminate.obj
 0001:000349c4       terminate                  00000001400359c4 f   libucrt:terminate.obj
 0001:000349f0       free                       00000001400359f0 f   libucrt:free.obj
 0001:00034a0c       _free_base                 0000000140035a0c f   libucrt:free_base.obj
 0001:00034a48       _malloc_base               0000000140035a48 f   libucrt:malloc_base.obj
 0001:00034b0c       strcpy_s                   0000000140035b0c f   libucrt:strcpy_s.obj
 0001:00034b6c       _set_abort_behavior        0000000140035b6c f   libucrt:abort.obj
 0001:00034b88       abort                      0000000140035b88 f   libucrt:abort.obj
 0001:00034be0       _calloc_base               0000000140035be0 f   libucrt:calloc_base.obj
 0001:00034c58       ??$is_overflow_condition@_K@__crt_strtox@@YA_NI_K@Z 0000000140035c58 f i libucrt:atox.obj
 0001:00034c90       ??$make_c_string_character_source@D$$T@__crt_strtox@@YA?AV?$c_string_character_source@D@0@QEBD$$T@Z 0000000140035c90 f i libucrt:atox.obj
 0001:00034ca4       ??$make_c_string_character_source@_W$$T@__crt_strtox@@YA?AV?$c_string_character_source@_W@0@QEB_W$$T@Z 0000000140035ca4 f i libucrt:atox.obj
 0001:00034cb8       ??$parse_integer@KV?$c_string_character_source@D@__crt_strtox@@$00@__crt_strtox@@YAKAEAV__crt_cached_ptd_host@@V?$c_string_character_source@D@0@H_N@Z 0000000140035cb8 f i libucrt:atox.obj
 0001:00034fa8       ??$parse_integer@KV?$c_string_character_source@_W@__crt_strtox@@$00@__crt_strtox@@YAKAEAV__crt_cached_ptd_host@@V?$c_string_character_source@_W@0@H_N@Z 0000000140035fa8 f i libucrt:atox.obj
 0001:00035744       ??$parse_integer@_KV?$c_string_character_source@D@__crt_strtox@@$00@__crt_strtox@@YA_KAEAV__crt_cached_ptd_host@@V?$c_string_character_source@D@0@H_N@Z 0000000140036744 f i libucrt:atox.obj
 0001:00035a20       ??$parse_integer@_KV?$c_string_character_source@_W@__crt_strtox@@$00@__crt_strtox@@YA_KAEAV__crt_cached_ptd_host@@V?$c_string_character_source@_W@0@H_N@Z 0000000140036a20 f i libucrt:atox.obj
 0001:000361a4       ??$parse_integer_from_string@JD$$T@__crt_strtox@@YAJQEBD$$THQEAU__crt_locale_pointers@@@Z 00000001400371a4 f i libucrt:atox.obj
 0001:00036260       ??$parse_integer_from_string@J_W$$T@__crt_strtox@@YAJQEB_W$$THQEAU__crt_locale_pointers@@@Z 0000000140037260 f i libucrt:atox.obj
 0001:0003631c       ??$parse_integer_from_string@_JD$$T@__crt_strtox@@YA_JQEBD$$THQEAU__crt_locale_pointers@@@Z 000000014003731c f i libucrt:atox.obj
 0001:000363dc       ??$parse_integer_from_string@_J_W$$T@__crt_strtox@@YA_JQEB_W$$THQEAU__crt_locale_pointers@@@Z 00000001400373dc f i libucrt:atox.obj
 0001:0003649c       ?is_space@__crt_strtox@@YA_NDQEAU__crt_locale_pointers@@@Z 000000014003749c f i libucrt:atox.obj
 0001:000364bc       ?is_space@__crt_strtox@@YA_N_WPEAU__crt_locale_pointers@@@Z 00000001400374bc f i libucrt:atox.obj
 0001:000364d4       ?maximum_signed_value@__crt_strtox@@YA_J_K@Z 00000001400374d4 f i libucrt:atox.obj
 0001:000364e0       ?minimum_signed_value@__crt_strtox@@YA_J_K@Z 00000001400374e0 f i libucrt:atox.obj
 0001:000364ec       __acrt_get_locale_data_prefix 00000001400374ec f i libucrt:atox.obj
 0001:000364f0       _atoi64                    00000001400374f0 f   libucrt:atox.obj
 0001:000365a4       _atoi64_l                  00000001400375a4 f   libucrt:atox.obj
 0001:00036660       _atoi_l                    0000000140037660 f   libucrt:atox.obj
 0001:0003671c       _atol_l                    000000014003771c f   libucrt:atox.obj
 0001:000367d8       _atoll_l                   00000001400377d8 f   libucrt:atox.obj
 0001:00036894       _chvalidchk_l              0000000140037894 f i libucrt:atox.obj
 0001:000368f8       _ischartype_l              00000001400378f8 f i libucrt:atox.obj
 0001:00036970       _wtoi                      0000000140037970 f   libucrt:atox.obj
 0001:00036a20       _wtoi64                    0000000140037a20 f   libucrt:atox.obj
 0001:00036ad4       _wtoi64_l                  0000000140037ad4 f   libucrt:atox.obj
 0001:00036b90       _wtoi_l                    0000000140037b90 f   libucrt:atox.obj
 0001:00036c4c       _wtol                      0000000140037c4c f   libucrt:atox.obj
 0001:00036cfc       _wtol_l                    0000000140037cfc f   libucrt:atox.obj
 0001:00036db8       _wtoll                     0000000140037db8 f   libucrt:atox.obj
 0001:00036e6c       _wtoll_l                   0000000140037e6c f   libucrt:atox.obj
 0001:00036f28       atoi                       0000000140037f28 f   libucrt:atox.obj
 0001:00036fd8       atol                       0000000140037fd8 f   libucrt:atox.obj
 0001:00037088       atoll                      0000000140038088 f   libucrt:atox.obj
 0001:0003713c       malloc                     000000014003813c f   libucrt:malloc.obj
 0001:00037144       ??$__crt_fast_decode_pointer@P6AXPEB_W00I_K@Z@@YAP6AXPEB_W00I_K@ZQ6AX000I1@Z@Z 0000000140038144 f i libucrt:invalid_parameter.obj
 0001:0003715c       ??$__crt_fast_encode_pointer@P6AXPEB_W00I_K@Z@@YAP6AXPEB_W00I_K@ZQ6AX000I1@Z@Z 000000014003815c f i libucrt:invalid_parameter.obj
 0001:0003717c       ??$initialize_from_array@$$BY00Q6AXPEB_W00I_K@Z@?$dual_state_global@P6AXPEB_W00I_K@Z@__crt_state_management@@QEAAXAEAY00Q6AXPEB_W00I_K@Z@Z 000000014003817c f i libucrt:invalid_parameter.obj
 0001:000371f4       ?check_synchronize_global_state_index@__crt_cached_ptd_host@@AEAA_KXZ 00000001400381f4 f i libucrt:invalid_parameter.obj
 0001:00037228       ?dangerous_get_state_array@?$dual_state_global@P6AXPEB_W00I_K@Z@__crt_state_management@@QEAAPEAP6AXPEB_W00I_K@ZXZ 0000000140038228 f i libucrt:invalid_parameter.obj
 0001:0003722c       ?get_current_global_state_index@__crt_cached_ptd_host@@QEAA_KXZ 000000014003822c f i libucrt:invalid_parameter.obj
 0001:0003726c       ?get_raw_ptd_noexit@__crt_cached_ptd_host@@QEAAPEAU__acrt_ptd@@XZ 000000014003826c f i libucrt:invalid_parameter.obj
 0001:000372d8       ?try_synchronize_per_thread_data@__crt_cached_ptd_host@@AEAAPEAU__acrt_ptd@@XZ 00000001400382d8 f i libucrt:invalid_parameter.obj
 0001:0003733c       ?value@?$dual_state_global@P6AXPEB_W00I_K@Z@__crt_state_management@@QEAAAEAP6AXPEB_W00I_K@ZAEAV__crt_cached_ptd_host@@@Z 000000014003833c f i libucrt:invalid_parameter.obj
 0001:00037388       ?value@?$dual_state_global@P6AXPEB_W00I_K@Z@__crt_state_management@@QEAAAEAP6AXPEB_W00I_K@ZXZ 0000000140038388 f i libucrt:invalid_parameter.obj
 0001:0003738c       __acrt_call_reportfault    000000014003838c f   libucrt:invalid_parameter.obj
 0001:000374e8       __acrt_initialize_invalid_parameter_handler 00000001400384e8 f   libucrt:invalid_parameter.obj
 0001:000374f0       _get_invalid_parameter_handler 00000001400384f0 f   libucrt:invalid_parameter.obj
 0001:0003750c       _get_thread_local_invalid_parameter_handler 000000014003850c f   libucrt:invalid_parameter.obj
 0001:00037528       _invalid_parameter         0000000140038528 f   libucrt:invalid_parameter.obj
 0001:000375c4       _invalid_parameter_internal 00000001400385c4 f   libucrt:invalid_parameter.obj
 0001:00037690       _invalid_parameter_noinfo  0000000140038690 f   libucrt:invalid_parameter.obj
 0001:000376b0       _invalid_parameter_noinfo_noreturn 00000001400386b0 f   libucrt:invalid_parameter.obj
 0001:000376e0       _invoke_watson             00000001400386e0 f   libucrt:invalid_parameter.obj
 0001:00037728       _set_invalid_parameter_handler 0000000140038728 f   libucrt:invalid_parameter.obj
 0001:0003775c       _set_thread_local_invalid_parameter_handler 000000014003875c f   libucrt:invalid_parameter.obj
 0001:00037784       ?get_doserrno@__crt_cached_ptd_host@@QEAA@XZ 0000000140038784 f i libucrt:errno.obj
 0001:0003778c       ?set@?$cached@K@__crt_cached_ptd_host@@QEAAKK@Z 000000014003878c f i libucrt:errno.obj
 0001:00037798       __acrt_errno_from_os_error 0000000140038798 f   libucrt:errno.obj
 0001:000377e0       __acrt_errno_map_os_error  00000001400387e0 f   libucrt:errno.obj
 0001:00037828       __acrt_errno_map_os_error_ptd 0000000140038828 f   libucrt:errno.obj
 0001:0003784c       __doserrno                 000000014003884c f   libucrt:errno.obj
 0001:0003786c       _errno                     000000014003886c f   libucrt:errno.obj
 0001:0003788c       _get_doserrno              000000014003888c f   libucrt:errno.obj
 0001:000378c8       _get_errno                 00000001400388c8 f   libucrt:errno.obj
 0001:00037904       _set_doserrno              0000000140038904 f   libucrt:errno.obj
 0001:00037940       _set_errno                 0000000140038940 f   libucrt:errno.obj
 0001:000379b4       ??$?B$$A6AHPEA_WK_J@Z@__crt_fast_encoded_nullptr_t@@QEBAP6AHPEA_WK_J@ZXZ 00000001400389b4 f i libucrt:winapi_thunks.obj
 0001:00037a60       ??$__crt_fast_decode_pointer@P6AHPEA_WK_J@Z@@YAP6AHPEA_WK_J@ZQ6AH0K1@Z@Z 0000000140038a60 f i libucrt:winapi_thunks.obj
 0001:00037a78       ??$__crt_fast_encode_pointer@P6AHPEA_WK_J@Z@@YAP6AHPEA_WK_J@ZQ6AH0K1@Z@Z 0000000140038a78 f i libucrt:winapi_thunks.obj
 0001:00037b54       ?__crt_interlocked_read_64@@YA_JPED_J@Z 0000000140038b54 f i libucrt:winapi_thunks.obj
 0001:000384fc       GetCurrentThreadEffectiveToken 00000001400394fc f i libucrt:winapi_thunks.obj
 0001:00038504       __acrt_AppPolicyGetProcessTerminationMethodInternal 0000000140039504 f   libucrt:winapi_thunks.obj
 0001:0003855c       __acrt_AppPolicyGetShowDeveloperDiagnosticInternal 000000014003955c f   libucrt:winapi_thunks.obj
 0001:000385b4       __acrt_AppPolicyGetThreadInitializationTypeInternal 00000001400395b4 f   libucrt:winapi_thunks.obj
 0001:0003860c       __acrt_AppPolicyGetWindowingModelInternal 000000014003960c f   libucrt:winapi_thunks.obj
 0001:00038664       __acrt_AreFileApisANSI     0000000140039664 f   libucrt:winapi_thunks.obj
 0001:000386a8       __acrt_CompareStringEx     00000001400396a8 f   libucrt:winapi_thunks.obj
 0001:00038794       __acrt_EnumSystemLocalesEx 0000000140039794 f   libucrt:winapi_thunks.obj
 0001:00038834       __acrt_FlsAlloc            0000000140039834 f   libucrt:winapi_thunks.obj
 0001:0003883c       __acrt_FlsFree             000000014003983c f   libucrt:winapi_thunks.obj
 0001:00038844       __acrt_FlsGetValue         0000000140039844 f   libucrt:winapi_thunks.obj
 0001:0003884c       __acrt_FlsSetValue         000000014003984c f   libucrt:winapi_thunks.obj
 0001:00038854       __acrt_GetDateFormatEx     0000000140039854 f   libucrt:winapi_thunks.obj
 0001:00038914       __acrt_GetEnabledXStateFeatures 0000000140039914 f   libucrt:winapi_thunks.obj
 0001:00038958       __acrt_GetLocaleInfoEx     0000000140039958 f   libucrt:winapi_thunks.obj
 0001:000389e8       __acrt_GetSystemTimePreciseAsFileTime 00000001400399e8 f   libucrt:winapi_thunks.obj
 0001:00038a40       __acrt_GetTempPath2W       0000000140039a40 f   libucrt:winapi_thunks.obj
 0001:00038aa0       __acrt_GetTimeFormatEx     0000000140039aa0 f   libucrt:winapi_thunks.obj
 0001:00038b54       __acrt_GetUserDefaultLocaleName 0000000140039b54 f   libucrt:winapi_thunks.obj
 0001:00038bc0       __acrt_GetXStateFeaturesMask 0000000140039bc0 f   libucrt:winapi_thunks.obj
 0001:00038c1c       __acrt_InitializeCriticalSectionEx 0000000140039c1c f   libucrt:winapi_thunks.obj
 0001:00038c8c       __acrt_IsValidLocaleName   0000000140039c8c f   libucrt:winapi_thunks.obj
 0001:00038cf0       __acrt_LCIDToLocaleName    0000000140039cf0 f   libucrt:winapi_thunks.obj
 0001:00038d74       __acrt_LCMapStringEx       0000000140039d74 f   libucrt:winapi_thunks.obj
 0001:00038e60       __acrt_LocaleNameToLCID    0000000140039e60 f   libucrt:winapi_thunks.obj
 0001:00038ec0       __acrt_LocateXStateFeature 0000000140039ec0 f   libucrt:winapi_thunks.obj
 0001:00038f2c       __acrt_MessageBoxA         0000000140039f2c f   libucrt:winapi_thunks.obj
 0001:00038fa8       __acrt_MessageBoxW         0000000140039fa8 f   libucrt:winapi_thunks.obj
 0001:00039024       __acrt_RoInitialize        000000014003a024 f   libucrt:winapi_thunks.obj
 0001:00039070       __acrt_RoUninitialize      000000014003a070 f   libucrt:winapi_thunks.obj
 0001:000390b0       __acrt_RtlGenRandom        000000014003a0b0 f   libucrt:winapi_thunks.obj
 0001:0003910c       __acrt_SetThreadStackGuarantee 000000014003a10c f   libucrt:winapi_thunks.obj
 0001:00039158       __acrt_can_show_message_box 000000014003a158 f   libucrt:winapi_thunks.obj
 0001:000391c8       __acrt_can_use_vista_locale_apis 000000014003a1c8 f   libucrt:winapi_thunks.obj
 0001:000391f8       __acrt_can_use_xstate_apis 000000014003a1f8 f   libucrt:winapi_thunks.obj
 0001:00039228       __acrt_eagerly_load_locale_apis 000000014003a228 f   libucrt:winapi_thunks.obj
 0001:00039384       __acrt_get_parent_window   000000014003a384 f   libucrt:winapi_thunks.obj
 0001:00039410       __acrt_initialize_winapi_thunks 000000014003a410 f   libucrt:winapi_thunks.obj
 0001:00039434       __acrt_is_interactive      000000014003a434 f   libucrt:winapi_thunks.obj
 0001:00039514       __acrt_uninitialize_winapi_thunks 000000014003a514 f   libucrt:winapi_thunks.obj
 0001:00039558       ??0__crt_stdio_stream@@QEAA@QEAU__crt_stdio_stream_data@@@Z 000000014003a558 f i libucrt:closeall.obj
 0001:00039560       ?is_in_use@__crt_stdio_stream@@QEBA_NXZ 000000014003a560 f i libucrt:closeall.obj
 0001:00039570       _fcloseall                 000000014003a570 f   libucrt:closeall.obj
 0001:00039a34       ?__acrt_stdio_reset_buffer@@YAXV__crt_stdio_stream@@@Z 000000014003aa34 f i libucrt:fflush.obj
 0001:00039b24       ?has_all_of@__crt_stdio_stream@@QEBA_NJ@Z 000000014003ab24 f i libucrt:fflush.obj
 0001:00039b70       ?set_flags@__crt_stdio_stream@@QEBA_NJ@Z 000000014003ab70 f i libucrt:fflush.obj
 0001:00039b90       ?unset_flags@__crt_stdio_stream@@QEBA_NJ@Z 000000014003ab90 f i libucrt:fflush.obj
 0001:00039bb8       __acrt_stdio_flush_nolock  000000014003abb8 f   libucrt:fflush.obj
 0001:00039c44       _fflush_nolock             000000014003ac44 f   libucrt:fflush.obj
 0001:00039d18       _flushall                  000000014003ad18 f   libucrt:fflush.obj
 0001:00039d20       fflush                     000000014003ad20 f   libucrt:fflush.obj
 0001:00039d88       ?has_any_of@__crt_stdio_stream@@QEBA_NJ@Z 000000014003ad88 f i libucrt:_freebuf.obj
 0001:00039d98       ?has_crt_buffer@__crt_stdio_stream@@QEBA_NXZ 000000014003ad98 f i libucrt:_freebuf.obj
 0001:00039da8       __acrt_stdio_free_buffer_nolock 000000014003ada8 f   libucrt:_freebuf.obj
 0001:0003a000       __acrt_initialize_lowio    000000014003b000 f   libucrt:ioinit.obj
 0001:0003a03c       __acrt_uninitialize_lowio  000000014003b03c f   libucrt:ioinit.obj
 0001:0003a930       ??1?$__crt_simd_cleanup_guard@$00@@QEAA@XZ 000000014003b930 f i libucrt:strnlen.obj
 0001:0003a934       ??1?$__crt_simd_cleanup_guard@$0A@@@QEAA@XZ 000000014003b934 f i libucrt:strnlen.obj
 0001:0003a938       ?compare_equals@?$__crt_simd_traits@$00E@@SA?AT__m256i@@T2@0@Z 000000014003b938 f i libucrt:strnlen.obj
 0001:0003a944       ?compare_equals@?$__crt_simd_traits@$00G@@SA?AT__m256i@@T2@0@Z 000000014003b944 f i libucrt:strnlen.obj
 0001:0003a950       ?compare_equals@?$__crt_simd_traits@$0A@E@@SA?AT__m128i@@T2@0@Z 000000014003b950 f i libucrt:strnlen.obj
 0001:0003a95c       ?compare_equals@?$__crt_simd_traits@$0A@G@@SA?AT__m128i@@T2@0@Z 000000014003b95c f i libucrt:strnlen.obj
 0001:0003a968       ?compute_byte_mask@?$__crt_simd_pack_traits@$00@@SAHT__m256i@@@Z 000000014003b968 f i libucrt:strnlen.obj
 0001:0003a974       ?compute_byte_mask@?$__crt_simd_pack_traits@$0A@@@SAHT__m128i@@@Z 000000014003b974 f i libucrt:strnlen.obj
 0001:0003a980       ?get_zero_pack@?$__crt_simd_pack_traits@$00@@SA?AT__m256i@@XZ 000000014003b980 f i libucrt:strnlen.obj
 0001:0003a988       ?get_zero_pack@?$__crt_simd_pack_traits@$0A@@@SA?AT__m128i@@XZ 000000014003b988 f i libucrt:strnlen.obj
 0001:0003a98c       strnlen                    000000014003b98c f   libucrt:strnlen.obj
 0001:0003aadc       wcslen                     000000014003badc f   libucrt:strnlen.obj
 0001:0003ac08       wcsnlen                    000000014003bc08 f   libucrt:strnlen.obj
 0001:0003ade0       ?value@?$dual_state_global@PEAU__crt_multibyte_data@@@__crt_state_management@@QEAAAEAPEAU__crt_multibyte_data@@XZ 000000014003bde0 f i libucrt:locale_update.obj
 0001:0003ade4       ?value_explicit@?$dual_state_global@PEAU__crt_locale_data@@@__crt_state_management@@QEAAAEAPEAU__crt_locale_data@@_K@Z 000000014003bde4 f i libucrt:locale_update.obj
 0001:0003adec       ?value_explicit@?$dual_state_global@PEAU__crt_multibyte_data@@@__crt_state_management@@QEAAAEAPEAU__crt_multibyte_data@@_K@Z 000000014003bdec f i libucrt:locale_update.obj
 0001:0003adf4       __acrt_should_sync_with_global_locale 000000014003bdf4 f i libucrt:locale_update.obj
 0001:0003ae04       __acrt_update_locale_info  000000014003be04 f   libucrt:locale_update.obj
 0001:0003ae38       __acrt_update_locale_info_explicit 000000014003be38 f   libucrt:locale_update.obj
 0001:0003ae70       __acrt_update_multibyte_info 000000014003be70 f   libucrt:locale_update.obj
 0001:0003aea4       __acrt_update_multibyte_info_explicit 000000014003bea4 f   libucrt:locale_update.obj
 0001:0003aedc       ?__acrt_fp_classify@@YA?AW4__acrt_fp_class@@AEBN@Z 000000014003bedc f i libucrt:cvt.obj
 0001:0003af38       ?__acrt_fp_is_negative@@YA_NAEBN@Z 000000014003bf38 f i libucrt:cvt.obj
 0001:0003bba4       ?strrchr@@YAPEADQEADH@Z    000000014003cba4 f i libucrt:cvt.obj
 0001:0003bbac       __acrt_fp_format           000000014003cbac f   libucrt:cvt.obj
 0001:0003be94       ?value_or@?$cached@H@__crt_cached_ptd_host@@QEBAHH@Z 000000014003ce94 f i libucrt:wctomb.obj
 0001:0003bea0       _wctomb_internal           000000014003cea0 f   libucrt:wctomb.obj
 0001:0003c050       _wctomb_l                  000000014003d050 f   libucrt:wctomb.obj
 0001:0003c13c       _wctomb_s_l                000000014003d13c f   libucrt:wctomb.obj
 0001:0003c1ec       wctomb                     000000014003d1ec f   libucrt:wctomb.obj
 0001:0003c2b4       wctomb_s                   000000014003d2b4 f   libucrt:wctomb.obj
 0001:0003c354       _isleadbyte_fast_internal  000000014003d354 f i libucrt:mbtowc.obj
 0001:0003c36c       _mbtowc_internal           000000014003d36c f   libucrt:mbtowc.obj
 0001:0003c4e4       _mbtowc_l                  000000014003d4e4 f   libucrt:mbtowc.obj
 0001:0003c588       mbtowc                     000000014003d588 f   libucrt:mbtowc.obj
 0001:0003c620       ?lowio_handle@__crt_stdio_stream@@QEBAHXZ 000000014003d620 f i libucrt:fileno.obj
 0001:0003c628       _fileno                    000000014003d628 f   libucrt:fileno.obj
 0001:0003c650       _get_printf_count_output   000000014003d650 f   libucrt:printf_count_output.obj
 0001:0003c668       _set_printf_count_output   000000014003d668 f   libucrt:printf_count_output.obj
 0001:0003c72c       _fputwc_nolock             000000014003d72c f   libucrt:fputwc.obj
 0001:0003c7c8       _fputwc_nolock_internal    000000014003d7c8 f   libucrt:fputwc.obj
 0001:0003c954       _fputwchar                 000000014003d954 f   libucrt:fputwc.obj
 0001:0003c978       _putwc_nolock              000000014003d978 f   libucrt:fputwc.obj
 0001:0003c980       fputwc                     000000014003d980 f   libucrt:fputwc.obj
 0001:0003ca1c       putwc                      000000014003da1c f   libucrt:fputwc.obj
 0001:0003ca24       putwchar                   000000014003da24 f   libucrt:fputwc.obj
 0001:0003cb94       _fputc_nolock              000000014003db94 f   libucrt:fputc.obj
 0001:0003cc40       _fputc_nolock_internal     000000014003dc40 f   libucrt:fputc.obj
 0001:0003cc58       _fputchar                  000000014003dc58 f   libucrt:fputc.obj
 0001:0003cc7c       _putc_nolock               000000014003dc7c f   libucrt:fputc.obj
 0001:0003cc84       fputc                      000000014003dc84 f   libucrt:fputc.obj
 0001:0003cd1c       putc                       000000014003dd1c f   libucrt:fputc.obj
 0001:0003cd24       putchar                    000000014003dd24 f   libucrt:fputc.obj
 0001:0003cd2c       ?has_any_buffer@__crt_stdio_stream@@QEBA_NXZ 000000014003dd2c f i libucrt:_sftbuf.obj
 0001:0003cd40       ?has_temporary_buffer@__crt_stdio_stream@@QEBA_NXZ 000000014003dd40 f i libucrt:_sftbuf.obj
 0001:0003cd50       __acrt_should_use_temporary_buffer 000000014003dd50 f   libucrt:_sftbuf.obj
 0001:0003cd9c       __acrt_stdio_begin_temporary_buffering_nolock 000000014003dd9c f   libucrt:_sftbuf.obj
 0001:0003ce64       __acrt_stdio_end_temporary_buffering_nolock 000000014003de64 f   libucrt:_sftbuf.obj
 0001:0003cea4       ??$?RU__acrt_ptd@@@__crt_internal_free_policy@@QEBAXQEBU__acrt_ptd@@@Z 000000014003dea4 f i libucrt:per_thread_data.obj
 0001:0003d0d8       ??0?$__crt_unique_heap_ptr@U__acrt_ptd@@U__crt_internal_free_policy@@@@QEAA@QEAU__acrt_ptd@@@Z 000000014003e0d8 f i libucrt:per_thread_data.obj
 0001:0003d0e0       ??1?$__crt_unique_heap_ptr@U__acrt_ptd@@U__crt_internal_free_policy@@@@QEAA@XZ 000000014003e0e0 f i libucrt:per_thread_data.obj
 0001:0003d0fc       ??B?$__crt_unique_heap_ptr@U__acrt_ptd@@U__crt_internal_free_policy@@@@QEBA_NXZ 000000014003e0fc f i libucrt:per_thread_data.obj
 0001:0003d350       ?dangerous_get_state_array@?$dual_state_global@PEAU__crt_locale_data@@@__crt_state_management@@QEAAPEAPEAU__crt_locale_data@@XZ 000000014003e350 f i libucrt:per_thread_data.obj
 0001:0003d564       ?detach@?$__crt_unique_heap_ptr@U__acrt_ptd@@U__crt_internal_free_policy@@@@QEAAPEAU__acrt_ptd@@XZ 000000014003e564 f i libucrt:per_thread_data.obj
 0001:0003d56c       ?get@?$__crt_unique_heap_ptr@U__acrt_ptd@@U__crt_internal_free_policy@@@@QEBAPEAU__acrt_ptd@@XZ 000000014003e56c f i libucrt:per_thread_data.obj
 0001:0003d78c       ?is_valid@?$__crt_unique_heap_ptr@U__acrt_ptd@@U__crt_internal_free_policy@@@@QEBA_NXZ 000000014003e78c f i libucrt:per_thread_data.obj
 0001:0003d794       ?release@?$__crt_unique_heap_ptr@U__acrt_ptd@@U__crt_internal_free_policy@@@@QEAAXXZ 000000014003e794 f i libucrt:per_thread_data.obj
 0001:0003d82c       __acrt_freeptd             000000014003e82c f   libucrt:per_thread_data.obj
 0001:0003d870       __acrt_getptd              000000014003e870 f   libucrt:per_thread_data.obj
 0001:0003d944       __acrt_getptd_head         000000014003e944 f   libucrt:per_thread_data.obj
 0001:0003d9e8       __acrt_getptd_noexit       000000014003e9e8 f   libucrt:per_thread_data.obj
 0001:0003dab0       __acrt_getptd_noexit_explicit 000000014003eab0 f   libucrt:per_thread_data.obj
 0001:0003db70       __acrt_initialize_ptd      000000014003eb70 f   libucrt:per_thread_data.obj
 0001:0003dbac       __acrt_uninitialize_ptd    000000014003ebac f   libucrt:per_thread_data.obj
 0001:0003dbd0       __threadhandle             000000014003ebd0 f   libucrt:per_thread_data.obj
 0001:0003dbd8       __threadid                 000000014003ebd8 f   libucrt:per_thread_data.obj
 0001:0003dbe0       __p___mb_cur_max           000000014003ebe0 f   libucrt:nlsdata.obj
 0001:0003dc10       ReadNoFence64              000000014003ec10 f i libucrt:guard_support.obj
 0001:0003dc18       ReadPointerNoFence         000000014003ec18 f i libucrt:guard_support.obj
 0001:0003dc20       __castguard_check_failure_debugbreak 000000014003ec20 f i libucrt:guard_support.obj
 0001:0003dc3c       __castguard_check_failure_fastfail 000000014003ec3c f i libucrt:guard_support.obj
 0001:0003dc60       __castguard_check_failure_nop 000000014003ec60 f i libucrt:guard_support.obj
 0001:0003dc64       __castguard_check_failure_os_handled 000000014003ec64 f i libucrt:guard_support.obj
 0001:0003dce8       __castguard_slow_path_check_debugbreak 000000014003ece8 f i libucrt:guard_support.obj
 0001:0003dd20       __castguard_slow_path_check_fastfail 000000014003ed20 f i libucrt:guard_support.obj
 0001:0003dd5c       __castguard_slow_path_check_nop 000000014003ed5c f i libucrt:guard_support.obj
 0001:0003dd60       __castguard_slow_path_check_os_handled 000000014003ed60 f i libucrt:guard_support.obj
 0001:0003ddd4       _guard_rf_checks_enforced  000000014003edd4 f i libucrt:guard_support.obj
 0001:0003ddd8       _set_error_mode            000000014003edd8 f   libucrt:set_error_mode.obj
 0001:0003de9c       wcscat_s                   000000014003ee9c f   libucrt:wcscat_s.obj
 0001:0003df80       wcscpy_s                   000000014003ef80 f   libucrt:wcscpy_s.obj
 0001:0003e0dc       wcsncpy_s                  000000014003f0dc f   libucrt:wcsncpy_s.obj
 0001:0003e320       ??$message_box@$$TAEBQEBDAEBQEBDK@?$__crt_char_traits@D@@SAH$$QEA$$TAEBQEBD1$$QEAK@Z 000000014003f320 f i libucrt:crtmbox.obj
 0001:0003e334       ??$message_box@$$TAEBQEB_WAEBQEB_WK@?$__crt_char_traits@_W@@SAH$$QEA$$TAEBQEB_W1$$QEAK@Z 000000014003f334 f i libucrt:crtmbox.obj
 0001:0003e348       ??$message_box@PEAUHWND__@@AEBQEBDAEBQEBDAEBI@?$__crt_char_traits@D@@SAH$$QEAPEAUHWND__@@AEBQEBD1AEBI@Z 000000014003f348 f i libucrt:crtmbox.obj
 0001:0003e35c       ??$message_box@PEAUHWND__@@AEBQEB_WAEBQEB_WAEBI@?$__crt_char_traits@_W@@SAH$$QEAPEAUHWND__@@AEBQEB_W1AEBI@Z 000000014003f35c f i libucrt:crtmbox.obj
 0001:0003e370       ??$output_debug_string@AEBQEBD@?$__crt_char_traits@D@@SAXAEBQEBD@Z 000000014003f370 f i libucrt:crtmbox.obj
 0001:0003e378       ??$output_debug_string@AEBQEB_W@?$__crt_char_traits@_W@@SAXAEBQEB_W@Z 000000014003f378 f i libucrt:crtmbox.obj
 0001:0003e384       __acrt_show_narrow_message_box 000000014003f384 f   libucrt:crtmbox.obj
 0001:0003e428       __acrt_show_wide_message_box 000000014003f428 f   libucrt:crtmbox.obj
 0001:0003e4f4       ??$__acrt_convert_wcs_mbs_cp@D_WV<lambda_7c9dea7b4ca7285d2cdb541a38da6275>@@U__crt_win32_buffer_internal_dynamic_resizing@@@@YAHQEBDAEAV?$__crt_win32_buffer@_WU__crt_win32_buffer_internal_dynamic_resizing@@@@AEBV<lambda_7c9dea7b4ca7285d2cdb541a38da6275>@@I@Z 000000014003f4f4 f i libucrt:argv_wildcards.obj
 0001:0003e670       ??$__acrt_convert_wcs_mbs_cp@_WDV<lambda_d8593a27d1aa8c02be35c86a17d324c4>@@U__crt_win32_buffer_internal_dynamic_resizing@@@@YAHQEB_WAEAV?$__crt_win32_buffer@DU__crt_win32_buffer_internal_dynamic_resizing@@@@AEBV<lambda_d8593a27d1aa8c02be35c86a17d324c4>@@I@Z 000000014003f670 f i libucrt:argv_wildcards.obj
 0001:0003e7fc       ??$__acrt_mbs_to_wcs_cp@U__crt_win32_buffer_internal_dynamic_resizing@@@@YAHQEBDAEAV?$__crt_win32_buffer@_WU__crt_win32_buffer_internal_dynamic_resizing@@@@I@Z 000000014003f7fc f i libucrt:argv_wildcards.obj
 0001:0003e80c       ??$__acrt_wcs_to_mbs_cp@U__crt_win32_buffer_internal_dynamic_resizing@@@@YAHQEB_WAEAV?$__crt_win32_buffer@DU__crt_win32_buffer_internal_dynamic_resizing@@@@I@Z 000000014003f80c f i libucrt:argv_wildcards.obj
 0001:0003f63c       ??$tcslen@AEBQEBD@?$__crt_char_traits@D@@SA_KAEBQEBD@Z 000000014004063c f i libucrt:argv_wildcards.obj
 0001:0003f650       ??$tcslen@AEBQEB_W@?$__crt_char_traits@_W@@SA_KAEBQEB_W@Z 0000000140040650 f i libucrt:argv_wildcards.obj
 0001:0003f664       ??$tcsncpy_s@AEAPEAD_KAEAPEADAEB_K@?$__crt_char_traits@D@@SAHAEAPEAD$$QEA_K0AEB_K@Z 0000000140040664 f i libucrt:argv_wildcards.obj
 0001:0003f678       ??$tcsncpy_s@AEAPEA_W_KAEAPEA_WAEB_K@?$__crt_char_traits@_W@@SAHAEAPEA_W$$QEA_K0AEB_K@Z 0000000140040678 f i libucrt:argv_wildcards.obj
 0001:0003f68c       ??$tcsncpy_s@PEADAEB_KAEBQEBDAEB_K@?$__crt_char_traits@D@@SAH$$QEAPEADAEB_KAEBQEBD1@Z 000000014004068c f i libucrt:argv_wildcards.obj
 0001:0003f6a0       ??$tcsncpy_s@PEAD_KAEBQEBDAEB_K@?$__crt_char_traits@D@@SAH$$QEAPEAD$$QEA_KAEBQEBDAEB_K@Z 00000001400406a0 f i libucrt:argv_wildcards.obj
 0001:0003f6b4       ??$tcsncpy_s@PEA_WAEB_KAEBQEB_WAEB_K@?$__crt_char_traits@_W@@SAH$$QEAPEA_WAEB_KAEBQEB_W1@Z 00000001400406b4 f i libucrt:argv_wildcards.obj
 0001:0003f6c8       ??$tcsncpy_s@PEA_W_KAEBQEB_WAEB_K@?$__crt_char_traits@_W@@SAH$$QEAPEA_W$$QEA_KAEBQEB_WAEB_K@Z 00000001400406c8 f i libucrt:argv_wildcards.obj
 0001:0003f6dc       ??$tcspbrk@AEAPEADAEAY02$$CBD@?$__crt_char_traits@D@@SAPEADAEAPEADAEAY02$$CBD@Z 00000001400406dc f i libucrt:argv_wildcards.obj
 0001:0003f6e4       ??$tcspbrk@AEAPEA_WAEAY02$$CB_W@?$__crt_char_traits@_W@@SAPEA_WAEAPEA_WAEAY02$$CB_W@Z 00000001400406e4 f i libucrt:argv_wildcards.obj
 0001:0003f6ec       ??0?$__crt_unique_handle_t@U__crt_findfile_traits@@@@QEAA@QEAX@Z 00000001400406ec f i libucrt:argv_wildcards.obj
 0001:0003f6f4       ??0?$__crt_win32_buffer@DU__crt_win32_buffer_internal_dynamic_resizing@@@@QEAA@XZ 00000001400406f4 f i libucrt:argv_wildcards.obj
 0001:0003f710       ??0?$__crt_win32_buffer@_WU__crt_win32_buffer_internal_dynamic_resizing@@@@QEAA@XZ 0000000140040710 f i libucrt:argv_wildcards.obj
 0001:0003f754       ??0_LocaleUpdate@@QEAA@QEAU__crt_locale_pointers@@@Z 0000000140040754 f i libucrt:argv_wildcards.obj
 0001:0003f7f0       ??1?$__crt_unique_handle_t@U__crt_findfile_traits@@@@QEAA@XZ 00000001400407f0 f i libucrt:argv_wildcards.obj
 0001:0003f814       ??1?$__crt_win32_buffer@DU__crt_win32_buffer_internal_dynamic_resizing@@@@QEAA@XZ 0000000140040814 f i libucrt:argv_wildcards.obj
 0001:0003f838       ??1?$__crt_win32_buffer@_WU__crt_win32_buffer_internal_dynamic_resizing@@@@QEAA@XZ 0000000140040838 f i libucrt:argv_wildcards.obj
 0001:0003f8d4       ??1_LocaleUpdate@@QEAA@XZ  00000001400408d4 f i libucrt:argv_wildcards.obj
 0001:0003f8f8       ??R<lambda_7c9dea7b4ca7285d2cdb541a38da6275>@@QEBA@IQEBDQEA_W_K@Z 00000001400408f8 f i libucrt:argv_wildcards.obj
 0001:0003f988       ??R<lambda_d8593a27d1aa8c02be35c86a17d324c4>@@QEBA@IQEB_WQEAD_K@Z 0000000140040988 f i libucrt:argv_wildcards.obj
 0001:0003f9b8       ?GetLocaleT@_LocaleUpdate@@QEAAPEAU__crt_locale_pointers@@XZ 00000001400409b8 f i libucrt:argv_wildcards.obj
 0001:0003f9c0       ?__acrt_get_utf8_acp_compatibility_codepage@@YAIXZ 00000001400409c0 f i libucrt:argv_wildcards.obj
 0001:0003fa0c       ?_deallocate@?$__crt_win32_buffer@DU__crt_win32_buffer_internal_dynamic_resizing@@@@AEAAXXZ 0000000140040a0c f i libucrt:argv_wildcards.obj
 0001:0003fa30       ?_deallocate@?$__crt_win32_buffer@_WU__crt_win32_buffer_internal_dynamic_resizing@@@@AEAAXXZ 0000000140040a30 f i libucrt:argv_wildcards.obj
 0001:0003fa54       ?allocate@?$__crt_win32_buffer@DU__crt_win32_buffer_internal_dynamic_resizing@@@@QEAAH_K@Z 0000000140040a54 f i libucrt:argv_wildcards.obj
 0001:0003fab8       ?allocate@?$__crt_win32_buffer@_WU__crt_win32_buffer_internal_dynamic_resizing@@@@QEAAH_K@Z 0000000140040ab8 f i libucrt:argv_wildcards.obj
 0001:0003fb1c       ?allocate@__crt_win32_buffer_internal_dynamic_resizing@@SAHQEAPEAX_KAEBV__crt_win32_buffer_empty_debug_info@@@Z 0000000140040b1c f i libucrt:argv_wildcards.obj
 0001:0003fd08       ?capacity@?$__crt_win32_buffer@DU__crt_win32_buffer_internal_dynamic_resizing@@@@QEBA_KXZ 0000000140040d08 f i libucrt:argv_wildcards.obj
 0001:0003fd10       ?capacity@?$__crt_win32_buffer@_WU__crt_win32_buffer_internal_dynamic_resizing@@@@QEBA_KXZ 0000000140040d10 f i libucrt:argv_wildcards.obj
 0001:0003fd18       ?close@?$__crt_unique_handle_t@U__crt_findfile_traits@@@@QEAAXXZ 0000000140040d18 f i libucrt:argv_wildcards.obj
 0001:0003fd3c       ?close@__crt_findfile_traits@@SA_NPEAX@Z 0000000140040d3c f i libucrt:argv_wildcards.obj
 0001:0003fd50       ?data@?$__crt_win32_buffer@DU__crt_win32_buffer_internal_dynamic_resizing@@@@QEAAPEADXZ 0000000140040d50 f i libucrt:argv_wildcards.obj
 0001:0003fd58       ?data@?$__crt_win32_buffer@_WU__crt_win32_buffer_internal_dynamic_resizing@@@@QEAAPEA_WXZ 0000000140040d58 f i libucrt:argv_wildcards.obj
 0001:0003fd60       ?deallocate@__crt_win32_buffer_internal_dynamic_resizing@@SAXQEAXAEBV__crt_win32_buffer_empty_debug_info@@@Z 0000000140040d60 f i libucrt:argv_wildcards.obj
 0001:0003fd68       ?debug_info@?$__crt_win32_buffer@DU__crt_win32_buffer_internal_dynamic_resizing@@@@QEBAAEBV__crt_win32_buffer_empty_debug_info@@XZ 0000000140040d68 f i libucrt:argv_wildcards.obj
 0001:0003fd6c       ?debug_info@?$__crt_win32_buffer@_WU__crt_win32_buffer_internal_dynamic_resizing@@@@QEBAAEBV__crt_win32_buffer_empty_debug_info@@XZ 0000000140040d6c f i libucrt:argv_wildcards.obj
 0001:0003ff10       ?get@?$__crt_unique_handle_t@U__crt_findfile_traits@@@@QEBAPEAXXZ 0000000140040f10 f i libucrt:argv_wildcards.obj
 0001:0003ffbc       ?get_invalid_value@__crt_findfile_traits@@SAPEAXXZ 0000000140040fbc f i libucrt:argv_wildcards.obj
 0001:0004007c       ?set_to_nullptr@?$__crt_win32_buffer@DU__crt_win32_buffer_internal_dynamic_resizing@@@@QEAAXXZ 000000014004107c f i libucrt:argv_wildcards.obj
 0001:000400b8       ?set_to_nullptr@?$__crt_win32_buffer@_WU__crt_win32_buffer_internal_dynamic_resizing@@@@QEAAXXZ 00000001400410b8 f i libucrt:argv_wildcards.obj
 0001:000400f4       ?size@?$__crt_win32_buffer@DU__crt_win32_buffer_internal_dynamic_resizing@@@@QEAAX_K@Z 00000001400410f4 f i libucrt:argv_wildcards.obj
 0001:000400fc       ?size@?$__crt_win32_buffer@_WU__crt_win32_buffer_internal_dynamic_resizing@@@@QEAAX_K@Z 00000001400410fc f i libucrt:argv_wildcards.obj
 0001:0004011c       ?strpbrk@@YAPEADQEADQEBD@Z 000000014004111c f i libucrt:argv_wildcards.obj
 0001:00040124       ?wcspbrk@@YAPEA_WPEA_WPEB_W@Z 0000000140041124 f i libucrt:argv_wildcards.obj
 0001:0004012c       __acrt_expand_narrow_argv_wildcards 000000014004112c f   libucrt:argv_wildcards.obj
 0001:00040134       __acrt_expand_wide_argv_wildcards 0000000140041134 f   libucrt:argv_wildcards.obj
 0001:0004013c       ??$__acrt_convert_wcs_mbs_cp@_WDV<lambda_f788ae46380686e8b737efdd8c720d07>@@U__crt_win32_buffer_no_resizing@@@@YAHQEB_WAEAV?$__crt_win32_buffer@DU__crt_win32_buffer_no_resizing@@@@AEBV<lambda_f788ae46380686e8b737efdd8c720d07>@@I@Z 000000014004113c f i libucrt:getmodulefilenamea.obj
 0001:00040258       ??$__acrt_wcs_to_mbs_cp@U__crt_win32_buffer_no_resizing@@@@YAHQEB_WAEAV?$__crt_win32_buffer@DU__crt_win32_buffer_no_resizing@@@@I@Z 0000000140041258 f i libucrt:getmodulefilenamea.obj
 0001:00040268       ??0?$__crt_win32_buffer@DU__crt_win32_buffer_no_resizing@@@@QEAA@QEAD_K@Z 0000000140041268 f i libucrt:getmodulefilenamea.obj
 0001:00040284       ??1?$__crt_win32_buffer@DU__crt_win32_buffer_no_resizing@@@@QEAA@XZ 0000000140041284 f i libucrt:getmodulefilenamea.obj
 0001:00040290       ??R<lambda_f788ae46380686e8b737efdd8c720d07>@@QEBA@IQEB_WQEAD_K@Z 0000000140041290 f i libucrt:getmodulefilenamea.obj
 0001:000402c0       ?_deallocate@?$__crt_win32_buffer@DU__crt_win32_buffer_no_resizing@@@@AEAAXXZ 00000001400412c0 f i libucrt:getmodulefilenamea.obj
 0001:000402cc       ?allocate@?$__crt_win32_buffer@DU__crt_win32_buffer_no_resizing@@@@QEAAH_K@Z 00000001400412cc f i libucrt:getmodulefilenamea.obj
 0001:000402fc       ?allocate@__crt_win32_buffer_no_resizing@@SAHQEAPEAX_KAEBV__crt_win32_buffer_empty_debug_info@@@Z 00000001400412fc f i libucrt:getmodulefilenamea.obj
 0001:00040314       ?capacity@?$__crt_win32_buffer@DU__crt_win32_buffer_no_resizing@@@@QEBA_KXZ 0000000140041314 f i libucrt:getmodulefilenamea.obj
 0001:0004031c       ?data@?$__crt_win32_buffer@DU__crt_win32_buffer_no_resizing@@@@QEAAPEADXZ 000000014004131c f i libucrt:getmodulefilenamea.obj
 0001:00040324       ?deallocate@__crt_win32_buffer_no_resizing@@SAXQEAXAEBV__crt_win32_buffer_empty_debug_info@@@Z 0000000140041324 f i libucrt:getmodulefilenamea.obj
 0001:00040328       ?debug_info@?$__crt_win32_buffer@DU__crt_win32_buffer_no_resizing@@@@QEBAAEBV__crt_win32_buffer_empty_debug_info@@XZ 0000000140041328 f i libucrt:getmodulefilenamea.obj
 0001:0004032c       ?set_to_nullptr@?$__crt_win32_buffer@DU__crt_win32_buffer_no_resizing@@@@QEAAXXZ 000000014004132c f i libucrt:getmodulefilenamea.obj
 0001:00040344       ?size@?$__crt_win32_buffer@DU__crt_win32_buffer_no_resizing@@@@QEAAX_K@Z 0000000140041344 f i libucrt:getmodulefilenamea.obj
 0001:0004034c       ?size@?$__crt_win32_buffer@DU__crt_win32_buffer_no_resizing@@@@QEBA_KXZ 000000014004134c f i libucrt:getmodulefilenamea.obj
 0001:00040354       __acrt_GetModuleFileNameA  0000000140041354 f   libucrt:getmodulefilenamea.obj
 0001:00040670       ??$initialize_from_array@$$BY10BAA@E@?$dual_state_global@PEAE@__crt_state_management@@QEAAXAEAY10BAA@E@Z 0000000140041670 f i libucrt:mbctype.obj
 0001:00040674       ??$initialize_from_array@$$BY10BAB@E@?$dual_state_global@PEAE@__crt_state_management@@QEAAXAEAY10BAB@E@Z 0000000140041674 f i libucrt:mbctype.obj
 0001:00040880       ?dangerous_get_state_array@?$dual_state_global@PEAE@__crt_state_management@@QEAAPEAPEAEXZ 0000000140041880 f i libucrt:mbctype.obj
 0001:00040884       ?dangerous_get_state_array@?$dual_state_global@PEAU__crt_multibyte_data@@@__crt_state_management@@QEAAPEAPEAU__crt_multibyte_data@@XZ 0000000140041884 f i libucrt:mbctype.obj
 0001:00040908       ?initialize@?$dual_state_global@PEAU__crt_multibyte_data@@@__crt_state_management@@QEAAXQEAU__crt_multibyte_data@@@Z 0000000140041908 f i libucrt:mbctype.obj
 0001:00040ec0       ?value@?$dual_state_global@PEAE@__crt_state_management@@QEAAAEAPEAEXZ 0000000140041ec0 f i libucrt:mbctype.obj
 0001:00040ec4       __acrt_initialize_multibyte 0000000140041ec4 f   libucrt:mbctype.obj
 0001:00040f24       __acrt_update_thread_multibyte_data 0000000140041f24 f   libucrt:mbctype.obj
 0001:00040f40       __p__mbcasemap             0000000140041f40 f   libucrt:mbctype.obj
 0001:00040f48       __p__mbctype               0000000140041f48 f   libucrt:mbctype.obj
 0001:00040f50       _getmbcp                   0000000140041f50 f   libucrt:mbctype.obj
 0001:00040f8c       _setmbcp                   0000000140041f8c f   libucrt:mbctype.obj
 0001:00040fb4       _setmbcp_nolock            0000000140041fb4 f   libucrt:mbctype.obj
 0001:00041370       _ismbbalnum                0000000140042370 f   libucrt:ismbbyte.obj
 0001:00041388       _ismbbalnum_l              0000000140042388 f   libucrt:ismbbyte.obj
 0001:000413a4       _ismbbalpha                00000001400423a4 f   libucrt:ismbbyte.obj
 0001:000413bc       _ismbbalpha_l              00000001400423bc f   libucrt:ismbbyte.obj
 0001:000413d8       _ismbbblank                00000001400423d8 f   libucrt:ismbbyte.obj
 0001:000413f4       _ismbbblank_l              00000001400423f4 f   libucrt:ismbbyte.obj
 0001:00041414       _ismbbgraph                0000000140042414 f   libucrt:ismbbyte.obj
 0001:0004142c       _ismbbgraph_l              000000014004242c f   libucrt:ismbbyte.obj
 0001:00041448       _ismbbkalnum               0000000140042448 f   libucrt:ismbbyte.obj
 0001:0004145c       _ismbbkalnum_l             000000014004245c f   libucrt:ismbbyte.obj
 0001:00041474       _ismbbkana                 0000000140042474 f   libucrt:ismbbyte.obj
 0001:0004147c       _ismbbkana_l               000000014004247c f   libucrt:ismbbyte.obj
 0001:000414e4       _ismbbkprint               00000001400424e4 f   libucrt:ismbbyte.obj
 0001:000414f8       _ismbbkprint_l             00000001400424f8 f   libucrt:ismbbyte.obj
 0001:00041510       _ismbbkpunct               0000000140042510 f   libucrt:ismbbyte.obj
 0001:00041524       _ismbbkpunct_l             0000000140042524 f   libucrt:ismbbyte.obj
 0001:0004153c       _ismbblead                 000000014004253c f   libucrt:ismbbyte.obj
 0001:00041550       _ismbblead_l               0000000140042550 f   libucrt:ismbbyte.obj
 0001:00041568       _ismbbprint                0000000140042568 f   libucrt:ismbbyte.obj
 0001:00041580       _ismbbprint_l              0000000140042580 f   libucrt:ismbbyte.obj
 0001:0004159c       _ismbbpunct                000000014004259c f   libucrt:ismbbyte.obj
 0001:000415b0       _ismbbpunct_l              00000001400425b0 f   libucrt:ismbbyte.obj
 0001:000415c8       _ismbbtrail                00000001400425c8 f   libucrt:ismbbyte.obj
 0001:000415dc       _ismbbtrail_l              00000001400425dc f   libucrt:ismbbyte.obj
 0001:00041680       __acrt_MultiByteToWideChar 0000000140042680 f   libucrt:multibytetowidechar.obj
 0001:00041798       __acrt_WideCharToMultiByte 0000000140042798 f   libucrt:widechartomultibyte.obj
 0001:00041918       __dcrt_get_narrow_environment_from_os 0000000140042918 f   libucrt:get_environment_from_os.obj
 0001:00041a28       __dcrt_get_wide_environment_from_os 0000000140042a28 f   libucrt:get_environment_from_os.obj
 0001:000424c0       ??$get_or_create_environment_nolock@$$V@?$__crt_char_traits@D@@SAPEAPEADXZ 00000001400434c0 f i libucrt:setenv.obj
 0001:000424c8       ??$get_or_create_environment_nolock@$$V@?$__crt_char_traits@_W@@SAPEAPEA_WXZ 00000001400434c8 f i libucrt:setenv.obj
 0001:000424d0       ??$set_environment_variable@AEBQEADQEAD@?$__crt_char_traits@D@@SAHAEBQEAD$$QEBQEAD@Z 00000001400434d0 f i libucrt:setenv.obj
 0001:000424dc       ??$set_environment_variable@AEBQEA_WQEA_W@?$__crt_char_traits@_W@@SAHAEBQEA_W$$QEBQEA_W@Z 00000001400434dc f i libucrt:setenv.obj
 0001:000424ec       ??$tcschr@AEBQEADD@?$__crt_char_traits@D@@SAPEADAEBQEAD$$QEAD@Z 00000001400434ec f i libucrt:setenv.obj
 0001:000424f8       ??$tcschr@AEBQEA_WD@?$__crt_char_traits@_W@@SAPEA_WAEBQEA_W$$QEAD@Z 00000001400434f8 f i libucrt:setenv.obj
 0001:00042504       ??$tcscpy_s@AEAPEADAEB_KAEAPEAD@?$__crt_char_traits@D@@SAHAEAPEADAEB_K0@Z 0000000140043504 f i libucrt:setenv.obj
 0001:00042514       ??$tcscpy_s@AEAPEA_WAEB_KAEAPEA_W@?$__crt_char_traits@_W@@SAHAEAPEA_WAEB_K0@Z 0000000140043514 f i libucrt:setenv.obj
 0001:00042524       ??$tcscpy_s@AEBQEADAEB_KAEBQEAD@?$__crt_char_traits@D@@SAHAEBQEADAEB_K0@Z 0000000140043524 f i libucrt:setenv.obj
 0001:00042534       ??$tcscpy_s@AEBQEA_WAEB_KAEBQEA_W@?$__crt_char_traits@_W@@SAHAEBQEA_WAEB_K0@Z 0000000140043534 f i libucrt:setenv.obj
 0001:00042544       ??$tcslen@AEBQEAD@?$__crt_char_traits@D@@SA_KAEBQEAD@Z 0000000140043544 f i libucrt:setenv.obj
 0001:00042558       ??$tcslen@AEBQEA_W@?$__crt_char_traits@_W@@SA_KAEBQEA_W@Z 0000000140043558 f i libucrt:setenv.obj
 0001:0004256c       ??$tcsnicoll@AEBQEBDAEAPEADAEB_K@?$__crt_char_traits@D@@SAHAEBQEBDAEAPEADAEB_K@Z 000000014004356c f i libucrt:setenv.obj
 0001:0004257c       ??$tcsnicoll@AEBQEB_WAEAPEA_WAEB_K@?$__crt_char_traits@_W@@SAHAEBQEB_WAEAPEA_WAEB_K@Z 000000014004357c f i libucrt:setenv.obj
 0001:000425bc       ?strchr@@YAPEADQEADH@Z     00000001400435bc f i libucrt:setenv.obj
 0001:000425c4       ?wcschr@@YAPEA_WPEA_W_W@Z  00000001400435c4 f i libucrt:setenv.obj
 0001:000425cc       __dcrt_set_variable_in_narrow_environment_nolock 00000001400435cc f   libucrt:setenv.obj
 0001:000425d4       __dcrt_set_variable_in_wide_environment_nolock 00000001400435d4 f   libucrt:setenv.obj
 0001:000425dc       __acrt_initialize_locks    00000001400435dc f   libucrt:locks.obj
 0001:00042624       __acrt_lock                0000000140043624 f   libucrt:locks.obj
 0001:00042640       __acrt_uninitialize_locks  0000000140043640 f   libucrt:locks.obj
 0001:00042678       __acrt_unlock              0000000140043678 f   libucrt:locks.obj
 0001:00042694       _lock_locales              0000000140043694 f   libucrt:locks.obj
 0001:000426b0       _unlock_locales            00000001400436b0 f   libucrt:locks.obj
 0001:000426c0       __acrt_app_verifier_enabled 00000001400436c0 f   libucrt:peb_access.obj
 0001:000426dc       __acrt_is_secure_process   00000001400436dc f   libucrt:peb_access.obj
 0001:00042880       __acrt_get_begin_thread_init_policy 0000000140043880 f   libucrt:win_policies.obj
 0001:000428c0       __acrt_get_developer_information_policy 00000001400438c0 f   libucrt:win_policies.obj
 0001:00042904       __acrt_get_process_end_policy 0000000140043904 f   libucrt:win_policies.obj
 0001:00042934       __acrt_get_windowing_model_policy 0000000140043934 f   libucrt:win_policies.obj
 0001:0004299c       ??$?RU__crt_lowio_handle_data@@@__crt_internal_free_policy@@QEBAXQEBU__crt_lowio_handle_data@@@Z 000000014004399c f i libucrt:osfinfo.obj
 0001:000429a4       ??0?$__crt_unique_heap_ptr@U__crt_lowio_handle_data@@U__crt_internal_free_policy@@@@QEAA@QEAU__crt_lowio_handle_data@@@Z 00000001400439a4 f i libucrt:osfinfo.obj
 0001:000429ac       ??1?$__crt_unique_heap_ptr@U__crt_lowio_handle_data@@U__crt_internal_free_policy@@@@QEAA@XZ 00000001400439ac f i libucrt:osfinfo.obj
 0001:000429c8       ??B?$__crt_unique_heap_ptr@U__crt_lowio_handle_data@@U__crt_internal_free_policy@@@@QEBA_NXZ 00000001400439c8 f i libucrt:osfinfo.obj
 0001:000429d0       ?detach@?$__crt_unique_heap_ptr@U__crt_lowio_handle_data@@U__crt_internal_free_policy@@@@QEAAPEAU__crt_lowio_handle_data@@XZ 00000001400439d0 f i libucrt:osfinfo.obj
 0001:000429d8       ?get@?$__crt_unique_heap_ptr@U__crt_lowio_handle_data@@U__crt_internal_free_policy@@@@QEBAPEAU__crt_lowio_handle_data@@XZ 00000001400439d8 f i libucrt:osfinfo.obj
 0001:000429dc       ?is_valid@?$__crt_unique_heap_ptr@U__crt_lowio_handle_data@@U__crt_internal_free_policy@@@@QEBA_NXZ 00000001400439dc f i libucrt:osfinfo.obj
 0001:000429e4       ?release@?$__crt_unique_heap_ptr@U__crt_lowio_handle_data@@U__crt_internal_free_policy@@@@QEAAXXZ 00000001400439e4 f i libucrt:osfinfo.obj
 0001:00042a00       __acrt_lowio_create_handle_array 0000000140043a00 f   libucrt:osfinfo.obj
 0001:00042aa8       __acrt_lowio_destroy_handle_array 0000000140043aa8 f   libucrt:osfinfo.obj
 0001:00042af8       __acrt_lowio_ensure_fh_exists 0000000140043af8 f   libucrt:osfinfo.obj
 0001:00042ba0       __acrt_lowio_lock_fh       0000000140043ba0 f   libucrt:osfinfo.obj
 0001:00042bc8       __acrt_lowio_set_os_handle 0000000140043bc8 f   libucrt:osfinfo.obj
 0001:00042c88       __acrt_lowio_unlock_fh     0000000140043c88 f   libucrt:osfinfo.obj
 0001:00042cb0       _alloc_osfhnd              0000000140043cb0 f   libucrt:osfinfo.obj
 0001:00042df0       _free_osfhnd               0000000140043df0 f   libucrt:osfinfo.obj
 0001:00042eac       _get_osfhandle             0000000140043eac f   libucrt:osfinfo.obj
 0001:00042f24       _open_osfhandle            0000000140043f24 f   libucrt:osfinfo.obj
 0001:00043024       ?dangerous_get_state_array@?$dual_state_global@H@__crt_state_management@@QEAAPEAHXZ 0000000140044024 f i libucrt:txtmode.obj
 0001:00043028       __acrt_initialize_fmode    0000000140044028 f   libucrt:txtmode.obj
 0001:00043044       __p__fmode                 0000000140044044 f   libucrt:txtmode.obj
 0001:0004304c       ??$?RG@__crt_internal_free_policy@@QEBAXQEBG@Z 000000014004404c f i libucrt:initctype.obj
 0001:00043054       ??$?RJ@__crt_internal_free_policy@@QEBAXQEBJ@Z 0000000140044054 f i libucrt:initctype.obj
 0001:0004305c       ??0?$__crt_unique_heap_ptr@GU__crt_internal_free_policy@@@@QEAA@QEAG@Z 000000014004405c f i libucrt:initctype.obj
 0001:00043064       ??0?$__crt_unique_heap_ptr@JU__crt_internal_free_policy@@@@QEAA@QEAJ@Z 0000000140044064 f i libucrt:initctype.obj
 0001:0004306c       ??1?$__crt_unique_heap_ptr@GU__crt_internal_free_policy@@@@QEAA@XZ 000000014004406c f i libucrt:initctype.obj
 0001:00043088       ??1?$__crt_unique_heap_ptr@JU__crt_internal_free_policy@@@@QEAA@XZ 0000000140044088 f i libucrt:initctype.obj
 0001:000430a4       ?detach@?$__crt_unique_heap_ptr@GU__crt_internal_free_policy@@@@QEAAPEAGXZ 00000001400440a4 f i libucrt:initctype.obj
 0001:000430ac       ?detach@?$__crt_unique_heap_ptr@JU__crt_internal_free_policy@@@@QEAAPEAJXZ 00000001400440ac f i libucrt:initctype.obj
 0001:000430b4       ?release@?$__crt_unique_heap_ptr@GU__crt_internal_free_policy@@@@QEAAXXZ 00000001400440b4 f i libucrt:initctype.obj
 0001:000430d0       ?release@?$__crt_unique_heap_ptr@JU__crt_internal_free_policy@@@@QEAAXXZ 00000001400440d0 f i libucrt:initctype.obj
 0001:000430ec       ___lc_codepage_func        00000001400440ec f   libucrt:initctype.obj
 0001:0004311c       ___lc_collate_cp_func      000000014004411c f   libucrt:initctype.obj
 0001:0004314c       ___lc_locale_name_func     000000014004414c f   libucrt:initctype.obj
 0001:00043180       ___mb_cur_max_func         0000000140044180 f   libucrt:initctype.obj
 0001:000431b0       ___mb_cur_max_l_func       00000001400441b0 f   libucrt:initctype.obj
 0001:000431c0       __acrt_locale_initialize_ctype 00000001400441c0 f   libucrt:initctype.obj
 0001:00043824       ??$?RUlconv@@@__crt_internal_free_policy@@QEBAXQEBUlconv@@@Z 0000000140044824 f i libucrt:initmon.obj
 0001:0004382c       ??0?$__crt_unique_heap_ptr@Ulconv@@U__crt_internal_free_policy@@@@QEAA@QEAUlconv@@@Z 000000014004482c f i libucrt:initmon.obj
 0001:00043834       ??1?$__crt_unique_heap_ptr@Ulconv@@U__crt_internal_free_policy@@@@QEAA@XZ 0000000140044834 f i libucrt:initmon.obj
 0001:00043850       ?detach@?$__crt_unique_heap_ptr@Ulconv@@U__crt_internal_free_policy@@@@QEAAPEAUlconv@@XZ 0000000140044850 f i libucrt:initmon.obj
 0001:00043858       ?release@?$__crt_unique_heap_ptr@Ulconv@@U__crt_internal_free_policy@@@@QEAAXXZ 0000000140044858 f i libucrt:initmon.obj
 0001:00043874       __acrt_locale_free_monetary 0000000140044874 f   libucrt:initmon.obj
 0001:00043980       __acrt_locale_initialize_monetary 0000000140044980 f   libucrt:initmon.obj
 0001:00043ed0       __acrt_locale_free_numeric 0000000140044ed0 f   libucrt:initnum.obj
 0001:00043f3c       __acrt_locale_initialize_numeric 0000000140044f3c f   libucrt:initnum.obj
 0001:00044258       ??$?RU__crt_lc_time_data@@@__crt_internal_free_policy@@QEBAXQEBU__crt_lc_time_data@@@Z 0000000140045258 f i libucrt:inittime.obj
 0001:000442a8       ??0?$__crt_unique_heap_ptr@U__crt_lc_time_data@@U__crt_internal_free_policy@@@@QEAA@QEAU__crt_lc_time_data@@@Z 00000001400452a8 f i libucrt:inittime.obj
 0001:000442b0       ??1?$__crt_unique_heap_ptr@U__crt_lc_time_data@@U__crt_internal_free_policy@@@@QEAA@XZ 00000001400452b0 f i libucrt:inittime.obj
 0001:000442cc       ??B?$__crt_unique_heap_ptr@U__crt_lc_time_data@@U__crt_internal_free_policy@@@@QEBA_NXZ 00000001400452cc f i libucrt:inittime.obj
 0001:000442d4       ?detach@?$__crt_unique_heap_ptr@U__crt_lc_time_data@@U__crt_internal_free_policy@@@@QEAAPEAU__crt_lc_time_data@@XZ 00000001400452d4 f i libucrt:inittime.obj
 0001:00044310       ?get@?$__crt_unique_heap_ptr@U__crt_lc_time_data@@U__crt_internal_free_policy@@@@QEBAPEAU__crt_lc_time_data@@XZ 0000000140045310 f i libucrt:inittime.obj
 0001:000446d4       ?is_valid@?$__crt_unique_heap_ptr@U__crt_lc_time_data@@U__crt_internal_free_policy@@@@QEBA_NXZ 00000001400456d4 f i libucrt:inittime.obj
 0001:000446dc       ?release@?$__crt_unique_heap_ptr@U__crt_lc_time_data@@U__crt_internal_free_policy@@@@QEAAXXZ 00000001400456dc f i libucrt:inittime.obj
 0001:000446f8       __acrt_locale_free_time    00000001400456f8 f   libucrt:inittime.obj
 0001:00044800       __acrt_locale_initialize_time 0000000140045800 f   libucrt:inittime.obj
 0001:0004489c       __pctype_func              000000014004589c f   libucrt:ctype.obj
 0001:000448cc       __pwctype_func             00000001400458cc f   libucrt:ctype.obj
 0001:000449cc       wcsncat_s                  00000001400459cc f   libucrt:wcsncat_s.obj
 0001:00044ac4       wcscspn                    0000000140045ac4 f   libucrt:wcscspn.obj
 0001:00044b04       wcsncmp                    0000000140045b04 f   libucrt:wcsncmp.obj
 0001:00044b30       wcspbrk                    0000000140045b30 f   libucrt:wcspbrk.obj
 0001:00044b64       ??0?$__crt_scoped_stack_ptr@_W@@QEAA@U?$__crt_scoped_stack_ptr_tag@_W@@@Z 0000000140045b64 f i libucrt:getstringtypea.obj
 0001:00044b6c       ??0?$__crt_scoped_stack_ptr_tag@_W@@QEAA@QEA_W@Z 0000000140045b6c f i libucrt:getstringtypea.obj
 0001:00044b74       ??1?$__crt_scoped_stack_ptr@_W@@QEAA@XZ 0000000140045b74 f i libucrt:getstringtypea.obj
 0001:00044b98       ?get@?$__crt_scoped_stack_ptr@_W@@QEBAPEA_WXZ 0000000140045b98 f i libucrt:getstringtypea.obj
 0001:00044b9c       _MallocaComputeSize        0000000140045b9c f i libucrt:getstringtypea.obj
 0001:00044bac       _MarkAllocaS               0000000140045bac f i libucrt:getstringtypea.obj
 0001:00044bbc       __acrt_GetStringTypeA      0000000140045bbc f   libucrt:getstringtypea.obj
 0001:00044d4c       _freea_crt                 0000000140045d4c f i libucrt:getstringtypea.obj
 0001:00044d6c       __acrt_add_locale_ref      0000000140045d6c f   libucrt:locale_refcounting.obj
 0001:00044df8       __acrt_free_locale         0000000140045df8 f   libucrt:locale_refcounting.obj
 0001:00044f70       __acrt_locale_add_lc_time_reference 0000000140045f70 f   libucrt:locale_refcounting.obj
 0001:00044f98       __acrt_locale_free_lc_time_if_unreferenced 0000000140045f98 f   libucrt:locale_refcounting.obj
 0001:00044fd0       __acrt_locale_release_lc_time_reference 0000000140045fd0 f   libucrt:locale_refcounting.obj
 0001:00044ff8       __acrt_release_locale_ref  0000000140045ff8 f   libucrt:locale_refcounting.obj
 0001:000450a0       __acrt_update_thread_locale_data 00000001400460a0 f   libucrt:locale_refcounting.obj
 0001:00045110       _updatetlocinfoEx_nolock   0000000140046110 f   libucrt:locale_refcounting.obj
 0001:000459c4       __acrt_get_qualified_locale 00000001400469c4 f   libucrt:get_qualified_locale.obj
 0001:000464dc       __acrt_get_qualified_locale_downlevel 00000001400474dc f   libucrt:getqloc_downlevel.obj
 0001:0004675c       localeconv                 000000014004775c f   libucrt:localeconv.obj
 0001:00046790       _recalloc                  0000000140047790 f   libucrt:recalloc.obj
 0001:00046798       _recalloc_base             0000000140047798 f   libucrt:recalloc.obj
 0001:00046830       __acrt_getheap             0000000140047830 f   libucrt:heap_handle.obj
 0001:00046838       __acrt_initialize_heap     0000000140047838 f   libucrt:heap_handle.obj
 0001:00046854       __acrt_uninitialize_heap   0000000140047854 f   libucrt:heap_handle.obj
 0001:00046860       _get_heap_handle           0000000140047860 f   libucrt:heap_handle.obj
 0001:00046868       __acrt_execute_initializers 0000000140047868 f   libucrt:shared_initialization.obj
 0001:000468fc       __acrt_execute_uninitializers 00000001400478fc f   libucrt:shared_initialization.obj
 0001:00046944       ??$?B$$A6AH_K@Z@__crt_fast_encoded_nullptr_t@@QEBAP6AH_K@ZXZ 0000000140047944 f i libucrt:new_handler.obj
 0001:0004694c       ??$__crt_fast_decode_pointer@P6AH_K@Z@@YAP6AH_K@ZQ6AH0@Z@Z 000000014004794c f i libucrt:new_handler.obj
 0001:00046964       ??$__crt_fast_encode_pointer@P6AH_K@Z@@YAP6AH_K@ZQ6AH0@Z@Z 0000000140047964 f i libucrt:new_handler.obj
 0001:00046984       ?_set_new_handler@@YAP6AH_K@ZH@Z 0000000140047984 f   libucrt:new_handler.obj
 0001:00046990       ?initialize@?$dual_state_global@P6AH_K@Z@__crt_state_management@@QEAAXQ6AH_K@Z@Z 0000000140047990 f i libucrt:new_handler.obj
 0001:000469a0       ?value@?$dual_state_global@P6AH_K@Z@__crt_state_management@@QEAAAEAP6AH_K@ZXZ 00000001400479a0 f i libucrt:new_handler.obj
 0001:000469a4       __acrt_initialize_new_handler 00000001400479a4 f   libucrt:new_handler.obj
 0001:000469ac       _callnewh                  00000001400479ac f   libucrt:new_handler.obj
 0001:000469ec       _query_new_handler         00000001400479ec f   libucrt:new_handler.obj
 0001:00046a24       _set_new_handler           0000000140047a24 f   libucrt:new_handler.obj
 0001:00046a80       ??$?B$$A6AXH@Z@__crt_fast_encoded_nullptr_t@@QEBAP6AXH@ZXZ 0000000140047a80 f i libucrt:signal.obj
 0001:00046af8       ??$__crt_fast_decode_pointer@P6AXH@Z@@YAP6AXH@ZQ6AXH@Z@Z 0000000140047af8 f i libucrt:signal.obj
 0001:00046b10       ??$__crt_fast_encode_pointer@P6AXH@Z@@YAP6AXH@ZQ6AXH@Z@Z 0000000140047b10 f i libucrt:signal.obj
 0001:00046c44       ?initialize@?$dual_state_global@P6AXH@Z@__crt_state_management@@QEAAXQ6AXH@Z@Z 0000000140047c44 f i libucrt:signal.obj
 0001:00046cd4       ?value@?$dual_state_global@P6AXH@Z@__crt_state_management@@QEAAAEAP6AXH@ZXZ 0000000140047cd4 f i libucrt:signal.obj
 0001:00046cd8       __acrt_get_sigabrt_handler 0000000140047cd8 f   libucrt:signal.obj
 0001:00046d08       __acrt_initialize_signal_handlers 0000000140047d08 f   libucrt:signal.obj
 0001:00046d28       __fpecode                  0000000140047d28 f   libucrt:signal.obj
 0001:00046d3c       __pxcptinfoptrs            0000000140047d3c f   libucrt:signal.obj
 0001:00046d50       raise                      0000000140047d50 f   libucrt:signal.obj
 0001:00046fcc       signal                     0000000140047fcc f   libucrt:signal.obj
 0001:00047190       _iswctype_l                0000000140048190 f   libucrt:iswctype.obj
 0001:00047198       iswctype                   0000000140048198 f   libucrt:iswctype.obj
 0001:00047204       _isctype                   0000000140048204 f   libucrt:isctype.obj
 0001:00047234       _isctype_l                 0000000140048234 f   libucrt:isctype.obj
 0001:0004740c       __acrt_DownlevelLCIDToLocaleName 000000014004840c f   libucrt:lcidtoname_downlevel.obj
 0001:000474f4       __acrt_DownlevelLocaleNameToLCID 00000001400484f4 f   libucrt:lcidtoname_downlevel.obj
 0001:000476bc       _fclose_nolock             00000001400486bc f   libucrt:fclose.obj
 0001:00047754       fclose                     0000000140048754 f   libucrt:fclose.obj
 0001:00047930       _commit                    0000000140048930 f   libucrt:commit.obj
 0001:00048370       _utf8_no_of_trailbytes     0000000140049370 f i libucrt:write.obj
 0001:00048380       _write                     0000000140049380 f   libucrt:write.obj
 0001:00048418       _write_internal            0000000140049418 f   libucrt:write.obj
 0001:00048538       _write_nolock              0000000140049538 f   libucrt:write.obj
 0001:00048928       __acrt_fp_strflt_to_string 0000000140049928 f   libucrt:_fptostr.obj
 0001:00049b80       ??0big_integer@__crt_strtox@@QEAA@AEBU01@@Z 000000014004ab80 f i libucrt:cfout.obj
 0001:00049bb0       ??0big_integer@__crt_strtox@@QEAA@XZ 000000014004abb0 f i libucrt:cfout.obj
 0001:00049c60       ??4big_integer@__crt_strtox@@QEAAAEAU01@AEBU01@@Z 000000014004ac60 f i libucrt:cfout.obj
 0001:00049c90       ??8__crt_strtox@@YA_NAEBUbig_integer@0@0@Z 000000014004ac90 f i libucrt:cfout.obj
 0001:00049cc0       ??9__crt_strtox@@YA_NAEBUbig_integer@0@0@Z 000000014004acc0 f i libucrt:cfout.obj
 0001:00049d00       ?add_carry@__crt_strtox@@YAIAEAIII@Z 000000014004ad00 f i libucrt:cfout.obj
 0001:00049d20       ?add_multiply_carry@__crt_strtox@@YAIAEAIIII@Z 000000014004ad20 f i libucrt:cfout.obj
 0001:00049d40       ?bit_scan_reverse@__crt_strtox@@YAII@Z 000000014004ad40 f i libucrt:cfout.obj
 0001:00049d60       ?count_sequential_high_zeroes@__crt_strtox@@YAII@Z 000000014004ad60 f i libucrt:cfout.obj
 0001:00049d80       ?divide@__crt_strtox@@YA_KAEAUbig_integer@1@AEBU21@@Z 000000014004ad80 f i libucrt:cfout.obj
 0001:0004a220       ?is_zero@__crt_strtox@@YA_NAEBUbig_integer@1@@Z 000000014004b220 f i libucrt:cfout.obj
 0001:0004a230       ?make_big_integer@__crt_strtox@@YA?AUbig_integer@1@_K@Z 000000014004b230 f i libucrt:cfout.obj
 0001:0004a250       ?make_big_integer_power_of_two@__crt_strtox@@YA?AUbig_integer@1@I@Z 000000014004b250 f i libucrt:cfout.obj
 0001:0004a2c0       ?multiply@__crt_strtox@@YA_NAEAUbig_integer@1@AEBU21@@Z 000000014004b2c0 f i libucrt:cfout.obj
 0001:0004a660       ?multiply@__crt_strtox@@YA_NAEAUbig_integer@1@I@Z 000000014004b660 f i libucrt:cfout.obj
 0001:0004a750       ?multiply_64_32@__crt_strtox@@YA_K_KI@Z 000000014004b750 f i libucrt:cfout.obj
 0001:0004a760       ?multiply_by_power_of_ten@__crt_strtox@@YA_NAEAUbig_integer@1@I@Z 000000014004b760 f i libucrt:cfout.obj
 0001:0004acd0       ?multiply_core@__crt_strtox@@YAIQEAIII@Z 000000014004bcd0 f i libucrt:cfout.obj
 0001:0004ad20       ?shift_left@__crt_strtox@@YA_NAEAUbig_integer@1@I@Z 000000014004bd20 f i libucrt:cfout.obj
 0001:0004ae9c       __acrt_fltout              000000014004be9c f   libucrt:cfout.obj
 0001:0004c1b4       __fpe_flt_rounds           000000014004d1b4 f   libucrt:fegetround.obj
 0001:0004c1fc       fegetround                 000000014004d1fc f   libucrt:fegetround.obj
 0001:0004c210       ?__c32rtomb_utf8@__crt_mbstring@@YA_KPEAD_UPEAU_Mbstatet@@AEAV__crt_cached_ptd_host@@@Z 000000014004d210 f   libucrt:c32rtomb.obj
 0001:0004c2b4       c32rtomb                   000000014004d2b4 f   libucrt:c32rtomb.obj
 0001:0004c378       ?__mbrtowc_utf8@__crt_mbstring@@YA_KPEA_WPEBD_KPEAU_Mbstatet@@AEAV__crt_cached_ptd_host@@@Z 000000014004d378 f   libucrt:mbrtowc.obj
 0001:0004c3bc       ?__mbsrtowcs_utf8@__crt_mbstring@@YA_KPEA_WPEAPEBD_KPEAU_Mbstatet@@AEAV__crt_cached_ptd_host@@@Z 000000014004d3bc f   libucrt:mbrtowc.obj
 0001:0004c9ec       btowc                      000000014004d9ec f   libucrt:mbrtowc.obj
 0001:0004cac4       mbrlen                     000000014004dac4 f   libucrt:mbrtowc.obj
 0001:0004cb8c       mbrtowc                    000000014004db8c f   libucrt:mbrtowc.obj
 0001:0004cc74       mbsrtowcs                  000000014004dc74 f   libucrt:mbrtowc.obj
 0001:0004cd18       mbsrtowcs_s                000000014004dd18 f   libucrt:mbrtowc.obj
 0001:0004d204       ?has_big_buffer@__crt_stdio_stream@@QEBA_NXZ 000000014004e204 f i libucrt:_flsbuf.obj
 0001:0004d290       __acrt_stdio_flush_and_write_narrow_nolock 000000014004e290 f   libucrt:_flsbuf.obj
 0001:0004d35c       __acrt_stdio_flush_and_write_wide_nolock 000000014004e35c f   libucrt:_flsbuf.obj
 0001:0004d428       _isatty                    000000014004e428 f   libucrt:isatty.obj
 0001:0004d490       __acrt_OutputDebugStringA  000000014004e490 f   libucrt:outputdebugstringa.obj
 0001:0004d630       qsort                      000000014004e630 f   libucrt:qsort.obj
 0001:0004db20       strncpy_s                  000000014004eb20 f   libucrt:strncpy_s.obj
 0001:0004dcb0       strpbrk                    000000014004ecb0 f   libucrt:strpbrk.obj
 0001:0004e078       _mbsdec                    000000014004f078 f   libucrt:mbsdec.obj
 0001:0004e080       _mbsdec_l                  000000014004f080 f   libucrt:mbsdec.obj
 0001:0004e12c       ??B?$__crt_scoped_stack_ptr@_W@@QEBA_NXZ 000000014004f12c f i libucrt:lcmapstringa.obj
 0001:0004e468       __acrt_LCMapStringA        000000014004f468 f   libucrt:lcmapstringa.obj
 0001:0004e500       _wcsnicoll                 000000014004f500 f   libucrt:wcsnicol.obj
 0001:0004e550       _wcsnicoll_l               000000014004f550 f   libucrt:wcsnicol.obj
 0001:0004e640       _strnicoll                 000000014004f640 f   libucrt:strnicol.obj
 0001:0004e658       _strnicoll_l               000000014004f658 f   libucrt:strnicol.obj
 0001:0004e758       __acrt_SetEnvironmentVariableA 000000014004f758 f   libucrt:setenvironmentvariablea.obj
 0001:0004ea74       __acrt_GetLocaleInfoA      000000014004fa74 f   libucrt:getlocaleinfoa.obj
 0001:0004f164       _i64toa                    0000000140050164 f   libucrt:xtoa.obj
 0001:0004f198       _i64toa_s                  0000000140050198 f   libucrt:xtoa.obj
 0001:0004f1bc       _i64tow                    00000001400501bc f   libucrt:xtoa.obj
 0001:0004f1f0       _i64tow_s                  00000001400501f0 f   libucrt:xtoa.obj
 0001:0004f214       _itoa                      0000000140050214 f   libucrt:xtoa.obj
 0001:0004f244       _itoa_s                    0000000140050244 f   libucrt:xtoa.obj
 0001:0004f264       _itow                      0000000140050264 f   libucrt:xtoa.obj
 0001:0004f294       _itow_s                    0000000140050294 f   libucrt:xtoa.obj
 0001:0004f2b4       _ltoa                      00000001400502b4 f   libucrt:xtoa.obj
 0001:0004f2e4       _ltoa_s                    00000001400502e4 f   libucrt:xtoa.obj
 0001:0004f304       _ltow                      0000000140050304 f   libucrt:xtoa.obj
 0001:0004f334       _ltow_s                    0000000140050334 f   libucrt:xtoa.obj
 0001:0004f354       _ui64toa                   0000000140050354 f   libucrt:xtoa.obj
 0001:0004f378       _ui64toa_s                 0000000140050378 f   libucrt:xtoa.obj
 0001:0004f38c       _ui64tow                   000000014005038c f   libucrt:xtoa.obj
 0001:0004f3b0       _ui64tow_s                 00000001400503b0 f   libucrt:xtoa.obj
 0001:0004f3c4       _ultoa                     00000001400503c4 f   libucrt:xtoa.obj
 0001:0004f3e8       _ultoa_s                   00000001400503e8 f   libucrt:xtoa.obj
 0001:0004f3fc       _ultow                     00000001400503fc f   libucrt:xtoa.obj
 0001:0004f420       _ultow_s                   0000000140050420 f   libucrt:xtoa.obj
 0001:0004f434       __ascii_wcsicmp            0000000140050434 f   libucrt:wcsicmp.obj
 0001:0004f474       _towlower_fast_internal    0000000140050474 f i libucrt:wcsicmp.obj
 0001:0004f49c       _towlower_internal         000000014005049c f i libucrt:wcsicmp.obj
 0001:0004f4d0       _wcsicmp                   00000001400504d0 f   libucrt:wcsicmp.obj
 0001:0004f518       _wcsicmp_l                 0000000140050518 f   libucrt:wcsicmp.obj
 0001:0004f64c       __ascii_wcsnicmp           000000014005064c f   libucrt:wcsnicmp.obj
 0001:0004f698       _wcsnicmp                  0000000140050698 f   libucrt:wcsnicmp.obj
 0001:0004f6e0       _wcsnicmp_l                00000001400506e0 f   libucrt:wcsnicmp.obj
 0001:0004f834       wcscmp                     0000000140050834 f   libucrt:wcscmp.obj
 0001:0004f86c       _msize                     000000014005086c f   libucrt:msize.obj
 0001:0004f874       _msize_base                0000000140050874 f   libucrt:msize.obj
 0001:0004f8b0       _realloc_base              00000001400508b0 f   libucrt:realloc_base.obj
 0001:0004f92c       __acrt_GetStringTypeW      000000014005092c f   libucrt:getstringtypew.obj
 0001:0004fac8       _close                     0000000140050ac8 f   libucrt:close.obj
 0001:0004fb60       _close_internal            0000000140050b60 f   libucrt:close.obj
 0001:0004fc24       _close_nolock              0000000140050c24 f   libucrt:close.obj
 0001:0004fcbc       _close_nolock_internal     0000000140050cbc f   libucrt:close.obj
 0001:0004fd8c       ??$?RU__crt_stdio_stream_data@@@__crt_internal_free_policy@@QEBAXQEBU__crt_stdio_stream_data@@@Z 0000000140050d8c f i libucrt:stream.obj
 0001:0004fd94       ??0?$__crt_unique_heap_ptr@U__crt_stdio_stream_data@@U__crt_internal_free_policy@@@@QEAA@QEAU__crt_stdio_stream_data@@@Z 0000000140050d94 f i libucrt:stream.obj
 0001:0004fd9c       ??0__crt_stdio_stream@@QEAA@XZ 0000000140050d9c f i libucrt:stream.obj
 0001:0004fda4       ??1?$__crt_unique_heap_ptr@U__crt_stdio_stream_data@@U__crt_internal_free_policy@@@@QEAA@XZ 0000000140050da4 f i libucrt:stream.obj
 0001:0004fdc0       ?__acrt_stdio_allocate_stream@@YA?AV__crt_stdio_stream@@XZ 0000000140050dc0 f   libucrt:stream.obj
 0001:0004fe18       ?__acrt_stdio_free_stream@@YAXV__crt_stdio_stream@@@Z 0000000140050e18 f   libucrt:stream.obj
 0001:0004fe34       ?deallocate@__crt_stdio_stream@@QEAAXXZ 0000000140050e34 f i libucrt:stream.obj
 0001:0004fe40       ?detach@?$__crt_unique_heap_ptr@U__crt_stdio_stream_data@@U__crt_internal_free_policy@@@@QEAAPEAU__crt_stdio_stream_data@@XZ 0000000140050e40 f i libucrt:stream.obj
 0001:0004ff34       ?lock@__crt_stdio_stream@@QEBAXXZ 0000000140050f34 f i libucrt:stream.obj
 0001:0004ff3c       ?release@?$__crt_unique_heap_ptr@U__crt_stdio_stream_data@@U__crt_internal_free_policy@@@@QEAAXXZ 0000000140050f3c f i libucrt:stream.obj
 0001:0004ff58       ?try_allocate@__crt_stdio_stream@@QEAA_NXZ 0000000140050f58 f i libucrt:stream.obj
 0001:0004ff78       ?unlock@__crt_stdio_stream@@QEBAXXZ 0000000140050f78 f i libucrt:stream.obj
 0001:00050450       _lseek                     0000000140051450 f   libucrt:lseek.obj
 0001:000504e8       _lseek_internal            00000001400514e8 f   libucrt:lseek.obj
 0001:000504f0       _lseek_nolock              00000001400514f0 f   libucrt:lseek.obj
 0001:00050588       _lseek_nolock_internal     0000000140051588 f   libucrt:lseek.obj
 0001:00050590       _lseeki64                  0000000140051590 f   libucrt:lseek.obj
 0001:0005062c       _lseeki64_internal         000000014005162c f   libucrt:lseek.obj
 0001:00050634       _lseeki64_nolock           0000000140051634 f   libucrt:lseek.obj
 0001:000506d0       _lseeki64_nolock_internal  00000001400516d0 f   libucrt:lseek.obj
 0001:00050774       _putwch                    0000000140051774 f   libucrt:putwch.obj
 0001:000507b0       _putwch_nolock             00000001400517b0 f   libucrt:putwch.obj
 0001:000507ec       _putwch_nolock_internal    00000001400517ec f   libucrt:putwch.obj
 0001:00050efc       _read                      0000000140051efc f   libucrt:read.obj
 0001:0005101c       _read_nolock               000000014005201c f   libucrt:read.obj
 0001:0005146c       _controlfp_s               000000014005246c f   libucrt:contrlfp.obj
 0001:000514d0       fegetenv                   00000001400524d0 f   libucrt:fegetenv.obj
 0001:000514f0       fesetenv                   00000001400524f0 f   libucrt:fesetenv.obj
 0001:00051548       feholdexcept               0000000140052548 f   libucrt:feholdexcept.obj
 0001:00051598       ceil                       0000000140052598 f   libucrt:ceil.obj
 0001:00051660       log10                      0000000140052660 f   libucrt:log10.obj
 0001:00051c0c       ??$__acrt_fenv_shift_bits@W4__acrt_fenv_abstract_control@@@@YA?AW4__acrt_fenv_abstract_control@@W40@0I@Z 0000000140052c0c f i libucrt:_fenvutils.obj
 0001:00051c18       ??$__acrt_fenv_shift_bits@W4__acrt_fenv_abstract_status@@@@YA?AW4__acrt_fenv_abstract_status@@W40@0I@Z 0000000140052c18 f i libucrt:_fenvutils.obj
 0001:00051c24       ??$__acrt_fenv_translate_bit@W4__acrt_fenv_abstract_control@@W4__acrt_fenv_machine_sse_control@@@@YA?AW4__acrt_fenv_abstract_control@@W4__acrt_fenv_machine_sse_control@@0W40@1@Z 0000000140052c24 f i libucrt:_fenvutils.obj
 0001:00051c30       ??$__acrt_fenv_translate_bit@W4__acrt_fenv_abstract_status@@W4__acrt_fenv_machine_sse_status@@@@YA?AW4__acrt_fenv_abstract_status@@W4__acrt_fenv_machine_sse_status@@0W40@1@Z 0000000140052c30 f i libucrt:_fenvutils.obj
 0001:00051c3c       ??$__acrt_fenv_translate_bit@W4__acrt_fenv_machine_sse_control@@W4__acrt_fenv_abstract_control@@@@YA?AW4__acrt_fenv_machine_sse_control@@W4__acrt_fenv_abstract_control@@0W40@1@Z 0000000140052c3c f i libucrt:_fenvutils.obj
 0001:00051c48       ??$__acrt_fenv_translate_bit@W4__acrt_fenv_machine_sse_status@@W4__acrt_fenv_abstract_status@@@@YA?AW4__acrt_fenv_machine_sse_status@@W4__acrt_fenv_abstract_status@@0W40@1@Z 0000000140052c48 f i libucrt:_fenvutils.obj
 0001:00051c54       ??$__acrt_fenv_unshift_bits@W4__acrt_fenv_abstract_control@@@@YA?AW4__acrt_fenv_abstract_control@@W40@0I@Z 0000000140052c54 f i libucrt:_fenvutils.obj
 0001:00051c60       ??$__acrt_fenv_unshift_bits@W4__acrt_fenv_abstract_status@@@@YA?AW4__acrt_fenv_abstract_status@@W40@0I@Z 0000000140052c60 f i libucrt:_fenvutils.obj
 0001:00051e24       ??I@YA?AW4__acrt_fenv_abstract_control@@W40@0@Z 0000000140052e24 f i libucrt:_fenvutils.obj
 0001:00051e2c       ??I@YA?AW4__acrt_fenv_abstract_status@@W40@0@Z 0000000140052e2c f i libucrt:_fenvutils.obj
 0001:00051e34       ??I@YA?AW4__acrt_fenv_machine_sse_control@@W40@0@Z 0000000140052e34 f i libucrt:_fenvutils.obj
 0001:00051e3c       ??I@YA?AW4__acrt_fenv_machine_sse_status@@W40@0@Z 0000000140052e3c f i libucrt:_fenvutils.obj
 0001:00051e44       ??U@YA?AW4__acrt_fenv_abstract_control@@W40@0@Z 0000000140052e44 f i libucrt:_fenvutils.obj
 0001:00051e4c       ??U@YA?AW4__acrt_fenv_abstract_status@@W40@0@Z 0000000140052e4c f i libucrt:_fenvutils.obj
 0001:00051e54       ??U@YA?AW4__acrt_fenv_machine_sse_control@@W40@0@Z 0000000140052e54 f i libucrt:_fenvutils.obj
 0001:00051e5c       ??_5@YAAEAW4__acrt_fenv_abstract_control@@AEAW40@W40@@Z 0000000140052e5c f i libucrt:_fenvutils.obj
 0001:00051e64       ??_5@YAAEAW4__acrt_fenv_abstract_status@@AEAW40@W40@@Z 0000000140052e64 f i libucrt:_fenvutils.obj
 0001:00051e6c       ??_5@YAAEAW4__acrt_fenv_machine_sse_control@@AEAW40@W40@@Z 0000000140052e6c f i libucrt:_fenvutils.obj
 0001:00051e74       ??_5@YAAEAW4__acrt_fenv_machine_sse_status@@AEAW40@W40@@Z 0000000140052e74 f i libucrt:_fenvutils.obj
 0001:00051e7c       ?__acrt_fenv_shift_abstract_sse_control@@YA?AW4__acrt_fenv_abstract_control@@W41@@Z 0000000140052e7c f i libucrt:_fenvutils.obj
 0001:00051e90       ?__acrt_fenv_shift_abstract_sse_status@@YA?AW4__acrt_fenv_abstract_status@@W41@@Z 0000000140052e90 f i libucrt:_fenvutils.obj
 0001:00051e9c       ?__acrt_fenv_unshift_abstract_sse_control@@YA?AW4__acrt_fenv_abstract_control@@W41@@Z 0000000140052e9c f i libucrt:_fenvutils.obj
 0001:00051eb4       ?__acrt_fenv_unshift_abstract_sse_status@@YA?AW4__acrt_fenv_abstract_status@@W41@@Z 0000000140052eb4 f i libucrt:_fenvutils.obj
 0001:00052174       __acrt_fenv_expand_round_control 0000000140053174 f   libucrt:_fenvutils.obj
 0001:0005218c       __acrt_fenv_get_common_round_control 000000014005318c f   libucrt:_fenvutils.obj
 0001:00052198       __acrt_fenv_get_control    0000000140053198 f   libucrt:_fenvutils.obj
 0001:0005227c       __acrt_fenv_get_fp_status_word_from_exception_mask 000000014005327c f   libucrt:_fenvutils.obj
 0001:00052288       __acrt_fenv_get_status     0000000140053288 f   libucrt:_fenvutils.obj
 0001:000522e0       __acrt_fenv_set_control    00000001400532e0 f   libucrt:_fenvutils.obj
 0001:00052418       __acrt_fenv_set_status     0000000140053418 f   libucrt:_fenvutils.obj
 0001:0005248c       ?reset_and_return@__crt_mbstring@@YA_K_KPEAU_Mbstatet@@@Z 000000014005348c f   libucrt:common_utf8.obj
 0001:00052494       ?return_illegal_sequence@__crt_mbstring@@YA_KPEAU_Mbstatet@@AEAV__crt_cached_ptd_host@@@Z 0000000140053494 f   libucrt:common_utf8.obj
 0001:000524a8       ?__mbrtoc32_utf8@__crt_mbstring@@YA_KPEA_UPEBD_KPEAU_Mbstatet@@AEAV__crt_cached_ptd_host@@@Z 00000001400534a8 f   libucrt:mbrtoc32.obj
 0001:00052684       mbrtoc32                   0000000140053684 f   libucrt:mbrtoc32.obj
 0001:00052728       __acrt_stdio_allocate_buffer_nolock 0000000140053728 f   libucrt:_getbuf.obj
 0001:00052ab0       _mbstowcs_l                0000000140053ab0 f   libucrt:mbstowcs.obj
 0001:00052b58       _mbstowcs_s_l              0000000140053b58 f   libucrt:mbstowcs.obj
 0001:00052c10       mbstowcs                   0000000140053c10 f   libucrt:mbstowcs.obj
 0001:00052cac       mbstowcs_s                 0000000140053cac f   libucrt:mbstowcs.obj
 0001:00052d54       __strncnt                  0000000140053d54 f   libucrt:strncnt.obj
 0001:00052d6c       __acrt_CompareStringW      0000000140053d6c f   libucrt:comparestringw.obj
 0001:00052e2c       __ascii_strnicmp           0000000140053e2c f   libucrt:strnicmp.obj
 0001:00052e78       _strnicmp                  0000000140053e78 f   libucrt:strnicmp.obj
 0001:00052ec8       _strnicmp_l                0000000140053ec8 f   libucrt:strnicmp.obj
 0001:000532fc       __acrt_CompareStringA      00000001400542fc f   libucrt:comparestringa.obj
 0001:00053388       _towlower_l                0000000140054388 f   libucrt:towlower.obj
 0001:0005347c       towlower                   000000014005447c f   libucrt:towlower.obj
 0001:000535ac       __dcrt_lowio_ensure_console_output_initialized 00000001400545ac f   libucrt:initcon.obj
 0001:00053600       __dcrt_terminate_console_output 0000000140054600 f   libucrt:initcon.obj
 0001:0005361c       __dcrt_write_console       000000014005461c f   libucrt:initcon.obj
 0001:000537f0       _clearfp                   00000001400547f0 f   libucrt:ieee.obj
 0001:0005385c       _control87                 000000014005485c f   libucrt:ieee.obj
 0001:00053864       _controlfp                 0000000140054864 f   libucrt:ieee.obj
 0001:00053870       _fpreset                   0000000140054870 f   libucrt:ieee.obj
 0001:00053938       _set_controlfp             0000000140054938 f   libucrt:ieee.obj
 0001:0005396c       _statusfp                  000000014005496c f   libucrt:ieee.obj
 0001:00053d8c       _handle_error              0000000140054d8c f   libucrt:libm_error.obj
 0001:00053eb4       _handle_errorf             0000000140054eb4 f   libucrt:libm_error.obj
 0001:00053fe8       _handle_nan                0000000140054fe8 f   libucrt:libm_error.obj
 0001:00054004       _handle_nanf               0000000140055004 f   libucrt:libm_error.obj
 0001:00054020       __acrt_initialize_fma3     0000000140055020 f   libucrt:fma3_available.obj
 0001:00054090       _get_FMA3_enable           0000000140055090 f   libucrt:fma3_available.obj
 0001:00054098       _set_FMA3_enable           0000000140055098 f   libucrt:fma3_available.obj
 0001:000540b0       _log10_special             00000001400550b0 f   libucrt:log_special.obj
 0001:000540d0       _log10f_special            00000001400550d0 f   libucrt:log_special.obj
 0001:000540f0       _log_special               00000001400550f0 f   libucrt:log_special.obj
 0001:000541a8       _logf_special              00000001400551a8 f   libucrt:log_special.obj
 0001:00054264       __acrt_LCMapStringW        0000000140055264 f   libucrt:lcmapstringw.obj
 0001:00054300       _get_fpsr                  0000000140055300 f   libucrt:fpsr.obj
 0001:00054310       _set_fpsr                  0000000140055310 f   libucrt:fpsr.obj
 0001:0005431a       _fclrf                     000000014005531a f   libucrt:fpsr.obj
 0001:0005432e       _frnd                      000000014005532e f   libucrt:fpsr.obj
 0001:00054350       ?should_round_up@__crt_strtox@@YA_N_N000@Z 0000000140055350 f i libucrt:fpexcept.obj
 0001:000543d8       _errcode                   00000001400553d8 f   libucrt:fpexcept.obj
 0001:0005441c       _except1                   000000014005541c f   libucrt:fpexcept.obj
 0001:00054510       _except2                   0000000140055510 f   libucrt:fpexcept.obj
 0001:0005464c       _handle_exc                000000014005564c f   libucrt:fpexcept.obj
 0001:00054940       _handle_qnan2              0000000140055940 f   libucrt:fpexcept.obj
 0001:00054948       _raise_exc                 0000000140055948 f   libucrt:fpexcept.obj
 0001:00054970       _raise_exc_ex              0000000140055970 f   libucrt:fpexcept.obj
 0001:00054c78       _raise_excf                0000000140055c78 f   libucrt:fpexcept.obj
 0001:00054ca4       _set_errno_from_matherr    0000000140055ca4 f   libucrt:fpexcept.obj
 0001:00054cd4       _umatherr                  0000000140055cd4 f   libucrt:fpexcept.obj
 0001:00054da4       _clrfp                     0000000140055da4 f   libucrt:fpctrl.obj
 0001:00054dc4       _ctrlfp                    0000000140055dc4 f   libucrt:fpctrl.obj
 0001:00054e40       _set_statfp                0000000140055e40 f   libucrt:fpctrl.obj
 0001:00054e60       _statfp                    0000000140055e60 f   libucrt:fpctrl.obj
 0001:00054e74       _add_exp                   0000000140055e74 f   libucrt:util.obj
 0001:00054ec4       _decomp                    0000000140055ec4 f   libucrt:util.obj
 0001:00054ff4       _get_exp                   0000000140055ff4 f   libucrt:util.obj
 0001:00055014       _set_bexp                  0000000140056014 f   libucrt:util.obj
 0001:00055044       _set_exp                   0000000140056044 f   libucrt:util.obj
 0001:0005507c       _sptype                    000000014005607c f   libucrt:util.obj
 0001:000550f4       QueryPerformanceCounter    00000001400560f4 f   kernel32:KERNEL32.dll
 0001:000550fa       GetCurrentProcessId        00000001400560fa f   kernel32:KERNEL32.dll
 0001:00055100       GetCurrentThreadId         0000000140056100 f   kernel32:KERNEL32.dll
 0001:00055106       GetSystemTimeAsFileTime    0000000140056106 f   kernel32:KERNEL32.dll
 0001:0005510c       InitializeSListHead        000000014005610c f   kernel32:KERNEL32.dll
 0001:00055112       RtlCaptureContext          0000000140056112 f   kernel32:KERNEL32.dll
 0001:00055118       RtlLookupFunctionEntry     0000000140056118 f   kernel32:KERNEL32.dll
 0001:0005511e       RtlVirtualUnwind           000000014005611e f   kernel32:KERNEL32.dll
 0001:00055124       IsDebuggerPresent          0000000140056124 f   kernel32:KERNEL32.dll
 0001:0005512a       UnhandledExceptionFilter   000000014005612a f   kernel32:KERNEL32.dll
 0001:00055130       SetUnhandledExceptionFilter 0000000140056130 f   kernel32:KERNEL32.dll
 0001:00055136       GetStartupInfoW            0000000140056136 f   kernel32:KERNEL32.dll
 0001:0005513c       IsProcessorFeaturePresent  000000014005613c f   kernel32:KERNEL32.dll
 0001:00055142       GetModuleHandleW           0000000140056142 f   kernel32:KERNEL32.dll
 0001:00055148       RtlPcToFileHeader          0000000140056148 f   kernel32:KERNEL32.dll
 0001:0005514e       RaiseException             000000014005614e f   kernel32:KERNEL32.dll
 0001:00055154       RtlUnwindEx                0000000140056154 f   kernel32:KERNEL32.dll
 0001:0005515a       InterlockedPushEntrySList  000000014005615a f   kernel32:KERNEL32.dll
 0001:00055160       InterlockedFlushSList      0000000140056160 f   kernel32:KERNEL32.dll
 0001:00055166       GetLastError               0000000140056166 f   kernel32:KERNEL32.dll
 0001:0005516c       SetLastError               000000014005616c f   kernel32:KERNEL32.dll
 0001:00055172       EncodePointer              0000000140056172 f   kernel32:KERNEL32.dll
 0001:00055178       EnterCriticalSection       0000000140056178 f   kernel32:KERNEL32.dll
 0001:0005517e       LeaveCriticalSection       000000014005617e f   kernel32:KERNEL32.dll
 0001:00055184       DeleteCriticalSection      0000000140056184 f   kernel32:KERNEL32.dll
 0001:0005518a       InitializeCriticalSectionAndSpinCount 000000014005618a f   kernel32:KERNEL32.dll
 0001:00055190       TlsAlloc                   0000000140056190 f   kernel32:KERNEL32.dll
 0001:00055196       TlsGetValue                0000000140056196 f   kernel32:KERNEL32.dll
 0001:0005519c       TlsSetValue                000000014005619c f   kernel32:KERNEL32.dll
 0001:000551a2       TlsFree                    00000001400561a2 f   kernel32:KERNEL32.dll
 0001:000551a8       FreeLibrary                00000001400561a8 f   kernel32:KERNEL32.dll
 0001:000551ae       GetProcAddress             00000001400561ae f   kernel32:KERNEL32.dll
 0001:000551b4       LoadLibraryExW             00000001400561b4 f   kernel32:KERNEL32.dll
 0001:000551ba       GetStdHandle               00000001400561ba f   kernel32:KERNEL32.dll
 0001:000551c0       WriteFile                  00000001400561c0 f   kernel32:KERNEL32.dll
 0001:000551c6       GetModuleFileNameW         00000001400561c6 f   kernel32:KERNEL32.dll
 0001:000551cc       GetCurrentProcess          00000001400561cc f   kernel32:KERNEL32.dll
 0001:000551d2       ExitProcess                00000001400561d2 f   kernel32:KERNEL32.dll
 0001:000551d8       TerminateProcess           00000001400561d8 f   kernel32:KERNEL32.dll
 0001:000551de       GetModuleHandleExW         00000001400561de f   kernel32:KERNEL32.dll
 0001:000551e4       GetCommandLineA            00000001400561e4 f   kernel32:KERNEL32.dll
 0001:000551ea       GetCommandLineW            00000001400561ea f   kernel32:KERNEL32.dll
 0001:000551f0       HeapFree                   00000001400561f0 f   kernel32:KERNEL32.dll
 0001:000551f6       HeapAlloc                  00000001400561f6 f   kernel32:KERNEL32.dll
 0001:000551fc       GetTempPathW               00000001400561fc f   kernel32:KERNEL32.dll
 0001:00055202       FlsAlloc                   0000000140056202 f   kernel32:KERNEL32.dll
 0001:00055208       FlsGetValue                0000000140056208 f   kernel32:KERNEL32.dll
 0001:0005520e       FlsSetValue                000000014005620e f   kernel32:KERNEL32.dll
 0001:00055214       FlsFree                    0000000140056214 f   kernel32:KERNEL32.dll
 0001:0005521a       GetDateFormatW             000000014005621a f   kernel32:KERNEL32.dll
 0001:00055220       GetTimeFormatW             0000000140056220 f   kernel32:KERNEL32.dll
 0001:00055226       CompareStringW             0000000140056226 f   kernel32:KERNEL32.dll
 0001:0005522c       LCMapStringW               000000014005622c f   kernel32:KERNEL32.dll
 0001:00055232       GetLocaleInfoW             0000000140056232 f   kernel32:KERNEL32.dll
 0001:00055238       IsValidLocale              0000000140056238 f   kernel32:KERNEL32.dll
 0001:0005523e       GetUserDefaultLCID         000000014005623e f   kernel32:KERNEL32.dll
 0001:00055244       EnumSystemLocalesW         0000000140056244 f   kernel32:KERNEL32.dll
 0001:0005524a       GetFileType                000000014005624a f   kernel32:KERNEL32.dll
 0001:00055250       GetCurrentThread           0000000140056250 f   kernel32:KERNEL32.dll
 0001:00055256       OutputDebugStringW         0000000140056256 f   kernel32:KERNEL32.dll
 0001:0005525c       FindClose                  000000014005625c f   kernel32:KERNEL32.dll
 0001:00055262       FindFirstFileExW           0000000140056262 f   kernel32:KERNEL32.dll
 0001:00055268       FindNextFileW              0000000140056268 f   kernel32:KERNEL32.dll
 0001:0005526e       IsValidCodePage            000000014005626e f   kernel32:KERNEL32.dll
 0001:00055274       GetACP                     0000000140056274 f   kernel32:KERNEL32.dll
 0001:0005527a       GetOEMCP                   000000014005627a f   kernel32:KERNEL32.dll
 0001:00055280       GetCPInfo                  0000000140056280 f   kernel32:KERNEL32.dll
 0001:00055286       MultiByteToWideChar        0000000140056286 f   kernel32:KERNEL32.dll
 0001:0005528c       WideCharToMultiByte        000000014005628c f   kernel32:KERNEL32.dll
 0001:00055292       GetEnvironmentStringsW     0000000140056292 f   kernel32:KERNEL32.dll
 0001:00055298       FreeEnvironmentStringsW    0000000140056298 f   kernel32:KERNEL32.dll
 0001:0005529e       SetEnvironmentVariableW    000000014005629e f   kernel32:KERNEL32.dll
 0001:000552a4       SetStdHandle               00000001400562a4 f   kernel32:KERNEL32.dll
 0001:000552aa       GetStringTypeW             00000001400562aa f   kernel32:KERNEL32.dll
 0001:000552b0       GetProcessHeap             00000001400562b0 f   kernel32:KERNEL32.dll
 0001:000552b6       SetConsoleCtrlHandler      00000001400562b6 f   kernel32:KERNEL32.dll
 0001:000552bc       FlushFileBuffers           00000001400562bc f   kernel32:KERNEL32.dll
 0001:000552c2       GetConsoleOutputCP         00000001400562c2 f   kernel32:KERNEL32.dll
 0001:000552c8       GetConsoleMode             00000001400562c8 f   kernel32:KERNEL32.dll
 0001:000552ce       GetFileSizeEx              00000001400562ce f   kernel32:KERNEL32.dll
 0001:000552d4       SetFilePointerEx           00000001400562d4 f   kernel32:KERNEL32.dll
 0001:000552da       HeapSize                   00000001400562da f   kernel32:KERNEL32.dll
 0001:000552e0       HeapReAlloc                00000001400562e0 f   kernel32:KERNEL32.dll
 0001:000552e6       CloseHandle                00000001400562e6 f   kernel32:KERNEL32.dll
 0001:000552ec       ReadFile                   00000001400562ec f   kernel32:KERNEL32.dll
 0001:000552f2       ReadConsoleW               00000001400562f2 f   kernel32:KERNEL32.dll
 0001:000552f8       CreateFileW                00000001400562f8 f   kernel32:KERNEL32.dll
 0001:000552fe       WriteConsoleW              00000001400562fe f   kernel32:KERNEL32.dll
 0001:00055304       __GSHandlerCheck           0000000140056304 f   LIBCMT:_gshandler_.obj
 0001:00055324       __GSHandlerCheckCommon     0000000140056324 f   LIBCMT:_gshandler_.obj
 0001:00055390       __security_check_cookie    0000000140056390 f   LIBCMT:_amdsecgs_.obj
 0001:000553c0       _FindPESection             00000001400563c0 f   LIBCMT:pesect.obj
 0001:00055410       _IsNonwritableInCurrentImage 0000000140056410 f   LIBCMT:pesect.obj
 0001:00055460       _ValidateImageBase         0000000140056460 f   LIBCMT:pesect.obj
 0001:00055490       __raise_securityfailure    0000000140056490 f   LIBCMT:gs_report.obj
 0001:000554c4       __report_gsfailure         00000001400564c4 f   LIBCMT:gs_report.obj
 0001:00055598       __report_rangecheckfailure 0000000140056598 f   LIBCMT:gs_report.obj
 0001:000555ac       __report_securityfailure   00000001400565ac f   LIBCMT:gs_report.obj
 0001:00055648       __report_securityfailureEx 0000000140056648 f   LIBCMT:gs_report.obj
 0001:00055850       __chkstk                   0000000140056850 f   LIBCMT:_chkstk_.obj
 0001:00055850       _alloca_probe              0000000140056850 f   LIBCMT:_chkstk_.obj
 0001:000558a4       __GSHandlerCheck_EH        00000001400568a4 f   LIBCMT:gshandlereh.obj
 0001:00055940       memcmp                     0000000140056940 f   libvcruntime:memcmp.obj
 0001:00055a08       __C_specific_handler_noexcept 0000000140056a08 f   libvcruntime:chandler_noexcept.obj
 0001:00055a38       strrchr                    0000000140056a38 f   libvcruntime:strrchr.obj
 0001:00055b78       strchr                     0000000140056b78 f   libvcruntime:strchr.obj
 0001:00055c04       wcschr                     0000000140056c04 f   libvcruntime:wcschr.obj
 0001:00055cb0       _guard_dispatch_icall_nop  0000000140056cb0 f   LIBCMT:_guard_dispatch_.obj
 0001:00055cd0       _guard_xfg_dispatch_icall_nop 0000000140056cd0 f   libucrt:guard_xfg_dispatch.obj
 0002:00000000       __imp_QueryPerformanceCounter 0000000140058000     kernel32:KERNEL32.dll
 0002:00000008       __imp_GetCurrentProcessId  0000000140058008     kernel32:KERNEL32.dll
 0002:00000010       __imp_GetCurrentThreadId   0000000140058010     kernel32:KERNEL32.dll
 0002:00000018       __imp_GetSystemTimeAsFileTime 0000000140058018     kernel32:KERNEL32.dll
 0002:00000020       __imp_InitializeSListHead  0000000140058020     kernel32:KERNEL32.dll
 0002:00000028       __imp_RtlCaptureContext    0000000140058028     kernel32:KERNEL32.dll
 0002:00000030       __imp_RtlLookupFunctionEntry 0000000140058030     kernel32:KERNEL32.dll
 0002:00000038       __imp_RtlVirtualUnwind     0000000140058038     kernel32:KERNEL32.dll
 0002:00000040       __imp_IsDebuggerPresent    0000000140058040     kernel32:KERNEL32.dll
 0002:00000048       __imp_UnhandledExceptionFilter 0000000140058048     kernel32:KERNEL32.dll
 0002:00000050       __imp_SetUnhandledExceptionFilter 0000000140058050     kernel32:KERNEL32.dll
 0002:00000058       __imp_GetStartupInfoW      0000000140058058     kernel32:KERNEL32.dll
 0002:00000060       __imp_IsProcessorFeaturePresent 0000000140058060     kernel32:KERNEL32.dll
 0002:00000068       __imp_GetModuleHandleW     0000000140058068     kernel32:KERNEL32.dll
 0002:00000070       __imp_RtlPcToFileHeader    0000000140058070     kernel32:KERNEL32.dll
 0002:00000078       __imp_RaiseException       0000000140058078     kernel32:KERNEL32.dll
 0002:00000080       __imp_RtlUnwindEx          0000000140058080     kernel32:KERNEL32.dll
 0002:00000088       __imp_InterlockedPushEntrySList 0000000140058088     kernel32:KERNEL32.dll
 0002:00000090       __imp_InterlockedFlushSList 0000000140058090     kernel32:KERNEL32.dll
 0002:00000098       __imp_GetLastError         0000000140058098     kernel32:KERNEL32.dll
 0002:000000a0       __imp_SetLastError         00000001400580a0     kernel32:KERNEL32.dll
 0002:000000a8       __imp_EncodePointer        00000001400580a8     kernel32:KERNEL32.dll
 0002:000000b0       __imp_EnterCriticalSection 00000001400580b0     kernel32:KERNEL32.dll
 0002:000000b8       __imp_LeaveCriticalSection 00000001400580b8     kernel32:KERNEL32.dll
 0002:000000c0       __imp_DeleteCriticalSection 00000001400580c0     kernel32:KERNEL32.dll
 0002:000000c8       __imp_InitializeCriticalSectionAndSpinCount 00000001400580c8     kernel32:KERNEL32.dll
 0002:000000d0       __imp_TlsAlloc             00000001400580d0     kernel32:KERNEL32.dll
 0002:000000d8       __imp_TlsGetValue          00000001400580d8     kernel32:KERNEL32.dll
 0002:000000e0       __imp_TlsSetValue          00000001400580e0     kernel32:KERNEL32.dll
 0002:000000e8       __imp_TlsFree              00000001400580e8     kernel32:KERNEL32.dll
 0002:000000f0       __imp_FreeLibrary          00000001400580f0     kernel32:KERNEL32.dll
 0002:000000f8       __imp_GetProcAddress       00000001400580f8     kernel32:KERNEL32.dll
 0002:00000100       __imp_LoadLibraryExW       0000000140058100     kernel32:KERNEL32.dll
 0002:00000108       __imp_GetStdHandle         0000000140058108     kernel32:KERNEL32.dll
 0002:00000110       __imp_WriteFile            0000000140058110     kernel32:KERNEL32.dll
 0002:00000118       __imp_GetModuleFileNameW   0000000140058118     kernel32:KERNEL32.dll
 0002:00000120       __imp_GetCurrentProcess    0000000140058120     kernel32:KERNEL32.dll
 0002:00000128       __imp_ExitProcess          0000000140058128     kernel32:KERNEL32.dll
 0002:00000130       __imp_TerminateProcess     0000000140058130     kernel32:KERNEL32.dll
 0002:00000138       __imp_GetModuleHandleExW   0000000140058138     kernel32:KERNEL32.dll
 0002:00000140       __imp_GetCommandLineA      0000000140058140     kernel32:KERNEL32.dll
 0002:00000148       __imp_GetCommandLineW      0000000140058148     kernel32:KERNEL32.dll
 0002:00000150       __imp_HeapFree             0000000140058150     kernel32:KERNEL32.dll
 0002:00000158       __imp_HeapAlloc            0000000140058158     kernel32:KERNEL32.dll
 0002:00000160       __imp_GetTempPathW         0000000140058160     kernel32:KERNEL32.dll
 0002:00000168       __imp_FlsAlloc             0000000140058168     kernel32:KERNEL32.dll
 0002:00000170       __imp_FlsGetValue          0000000140058170     kernel32:KERNEL32.dll
 0002:00000178       __imp_FlsSetValue          0000000140058178     kernel32:KERNEL32.dll
 0002:00000180       __imp_FlsFree              0000000140058180     kernel32:KERNEL32.dll
 0002:00000188       __imp_GetDateFormatW       0000000140058188     kernel32:KERNEL32.dll
 0002:00000190       __imp_GetTimeFormatW       0000000140058190     kernel32:KERNEL32.dll
 0002:00000198       __imp_CompareStringW       0000000140058198     kernel32:KERNEL32.dll
 0002:000001a0       __imp_LCMapStringW         00000001400581a0     kernel32:KERNEL32.dll
 0002:000001a8       __imp_GetLocaleInfoW       00000001400581a8     kernel32:KERNEL32.dll
 0002:000001b0       __imp_IsValidLocale        00000001400581b0     kernel32:KERNEL32.dll
 0002:000001b8       __imp_GetUserDefaultLCID   00000001400581b8     kernel32:KERNEL32.dll
 0002:000001c0       __imp_EnumSystemLocalesW   00000001400581c0     kernel32:KERNEL32.dll
 0002:000001c8       __imp_GetFileType          00000001400581c8     kernel32:KERNEL32.dll
 0002:000001d0       __imp_GetCurrentThread     00000001400581d0     kernel32:KERNEL32.dll
 0002:000001d8       __imp_OutputDebugStringW   00000001400581d8     kernel32:KERNEL32.dll
 0002:000001e0       __imp_FindClose            00000001400581e0     kernel32:KERNEL32.dll
 0002:000001e8       __imp_FindFirstFileExW     00000001400581e8     kernel32:KERNEL32.dll
 0002:000001f0       __imp_FindNextFileW        00000001400581f0     kernel32:KERNEL32.dll
 0002:000001f8       __imp_IsValidCodePage      00000001400581f8     kernel32:KERNEL32.dll
 0002:00000200       __imp_GetACP               0000000140058200     kernel32:KERNEL32.dll
 0002:00000208       __imp_GetOEMCP             0000000140058208     kernel32:KERNEL32.dll
 0002:00000210       __imp_GetCPInfo            0000000140058210     kernel32:KERNEL32.dll
 0002:00000218       __imp_MultiByteToWideChar  0000000140058218     kernel32:KERNEL32.dll
 0002:00000220       __imp_WideCharToMultiByte  0000000140058220     kernel32:KERNEL32.dll
 0002:00000228       __imp_GetEnvironmentStringsW 0000000140058228     kernel32:KERNEL32.dll
 0002:00000230       __imp_FreeEnvironmentStringsW 0000000140058230     kernel32:KERNEL32.dll
 0002:00000238       __imp_SetEnvironmentVariableW 0000000140058238     kernel32:KERNEL32.dll
 0002:00000240       __imp_SetStdHandle         0000000140058240     kernel32:KERNEL32.dll
 0002:00000248       __imp_GetStringTypeW       0000000140058248     kernel32:KERNEL32.dll
 0002:00000250       __imp_GetProcessHeap       0000000140058250     kernel32:KERNEL32.dll
 0002:00000258       __imp_SetConsoleCtrlHandler 0000000140058258     kernel32:KERNEL32.dll
 0002:00000260       __imp_FlushFileBuffers     0000000140058260     kernel32:KERNEL32.dll
 0002:00000268       __imp_GetConsoleOutputCP   0000000140058268     kernel32:KERNEL32.dll
 0002:00000270       __imp_GetConsoleMode       0000000140058270     kernel32:KERNEL32.dll
 0002:00000278       __imp_GetFileSizeEx        0000000140058278     kernel32:KERNEL32.dll
 0002:00000280       __imp_SetFilePointerEx     0000000140058280     kernel32:KERNEL32.dll
 0002:00000288       __imp_HeapSize             0000000140058288     kernel32:KERNEL32.dll
 0002:00000290       __imp_HeapReAlloc          0000000140058290     kernel32:KERNEL32.dll
 0002:00000298       __imp_CloseHandle          0000000140058298     kernel32:KERNEL32.dll
 0002:000002a0       __imp_ReadFile             00000001400582a0     kernel32:KERNEL32.dll
 0002:000002a8       __imp_ReadConsoleW         00000001400582a8     kernel32:KERNEL32.dll
 0002:000002b0       __imp_CreateFileW          00000001400582b0     kernel32:KERNEL32.dll
 0002:000002b8       __imp_WriteConsoleW        00000001400582b8     kernel32:KERNEL32.dll
 0002:000002c0       \177KERNEL32_NULL_THUNK_DATA 00000001400582c0     kernel32:KERNEL32.dll
 0002:000002c8       __guard_check_icall_fptr   00000001400582c8     LIBCMT:guard_support.obj
 0002:000002d0       __guard_dispatch_icall_fptr 00000001400582d0     LIBCMT:guard_support.obj
 0002:000002d8       __guard_xfg_check_icall_fptr 00000001400582d8     libucrt:guard_support.obj
 0002:000002e0       __guard_xfg_dispatch_icall_fptr 00000001400582e0     libucrt:guard_support.obj
 0002:000002e8       __guard_xfg_table_dispatch_icall_fptr 00000001400582e8     libucrt:guard_support.obj
 0002:000002f0       __castguard_check_failure_os_handled_fptr 00000001400582f0     libucrt:guard_support.obj
 0002:000002f8       __xc_a                     00000001400582f8     LIBCMT:initializers.obj
 0002:00000308       __xc_z                     0000000140058308     LIBCMT:initializers.obj
 0002:00000310       __xi_a                     0000000140058310     LIBCMT:initializers.obj
 0002:00000328       __acrt_stdio_initializer   0000000140058328     libucrt:stdio_initializer.obj
 0002:00000330       __acrt_multibyte_initializer 0000000140058330     libucrt:multibyte_initializer.obj
 0002:00000338       __acrt_fmode_initializer   0000000140058338     libucrt:fmode_initializer.obj
 0002:00000340       __acrt_tran_fma3_initializer 0000000140058340     libucrt:fma3_initializer.obj
 0002:00000348       __xi_z                     0000000140058348     LIBCMT:initializers.obj
 0002:00000350       __xp_a                     0000000140058350     LIBCMT:initializers.obj
 0002:00000358       __acrt_locale_terminator   0000000140058358     libucrt:locale_initializer.obj
 0002:00000360       __dcrt_console_output_terminator 0000000140058360     libucrt:console_output_initializer.obj
 0002:00000368       __acrt_stdio_terminator    0000000140058368     libucrt:stdio_initializer.obj
 0002:00000370       __xp_z                     0000000140058370     LIBCMT:initializers.obj
 0002:00000378       __xt_a                     0000000140058378     LIBCMT:initializers.obj
 0002:00000380       __xt_z                     0000000140058380     LIBCMT:initializers.obj
 0002:00000430       ??_C@_0BC@PEGFHAFH@msvc_CXX_1?5begin?6?$AA@ 0000000140058430     main.obj
 0002:00000448       ??_C@_0BG@BJCCIMP@msvc_CXX_1?3goto?5try?5?6?$AA@ 0000000140058448     main.obj
 0002:00000460       ??_C@_0BK@BOKJHFBK@msvc_CXX_1?3goto?5catch?3?$CFd?6?$AA@ 0000000140058460     main.obj
 0002:00000480       ??_C@_0BA@ENFCKDEC@msvc_CXX_1?5end?6?$AA@ 0000000140058480     main.obj
 0002:00000490       ??_C@_0BC@MNOIEMJC@msvc_CXX_2?5begin?6?$AA@ 0000000140058490     main.obj
 0002:000004a8       ??_C@_0BG@LMFIEEAB@msvc_CXX_2?3goto?5try?5?6?$AA@ 00000001400584a8     main.obj
 0002:000004c0       ??_C@_0BN@NIOKFMII@msvc_CXX_2?3goto?5catch?5?$CI?4?4?4?$CJ?6?$AA@ 00000001400584c0     main.obj
 0002:000004e0       ??_C@_0BA@HMLKLJNP@msvc_CXX_2?5end?6?$AA@ 00000001400584e0     main.obj
 0002:000004f0       ??_C@_0BC@NKJDFINB@msvc_CXX_3?5begin?6?$AA@ 00000001400584f0     main.obj
 0002:00000508       ??_C@_0BG@GBMOJNIE@msvc_CXX_3?3goto?5try?5?6?$AA@ 0000000140058508     main.obj
 0002:00000520       ??_C@_0BK@FAOCIEOJ@msvc_CXX_3?3goto?5int?5a?3?$CFd?6?$AA@ 0000000140058520     main.obj
 0002:00000540       ??_C@_0BM@PDMNDBPK@msvc_CXX_3?3goto?5float?5a?3?$CFf?6?$AA@ 0000000140058540     main.obj
 0002:00000560       ??_C@_0BN@LNINGHMO@msvc_CXX_3?3goto?5catch?5?$CI?4?4?4?$CJ?6?$AA@ 0000000140058560     main.obj
 0002:00000580       ??_C@_0BA@NKMNLCGL@msvc_CXX_3?5end?6?$AA@ 0000000140058580     main.obj
 0002:00000590       ??_C@_0BC@LOPCDFBI@msvc_CXX_4?5begin?6?$AA@ 0000000140058590     main.obj
 0002:000005a8       ??_C@_0BJ@OCNGCBNG@msvc_CXX_4?3goto?5try?5111?6?$AA@ 00000001400585a8     main.obj
 0002:000005c8       ??_C@_0BO@HCHEBCLL@msvc_CXX_4?3goto?5catch?5111?3?$CFd?6?$AA@ 00000001400585c8     main.obj
 0002:000005e8       ??_C@_0BJ@LFIFEKLB@msvc_CXX_4?3goto?5try?5222?6?$AA@ 00000001400585e8     main.obj
 0002:00000608       ??_C@_0BO@ELIHHNGL@msvc_CXX_4?3goto?5catch?5222?3?$CFd?6?$AA@ 0000000140058608     main.obj
 0002:00000628       ??_C@_0BA@BPGKIMOF@msvc_CXX_4?5end?6?$AA@ 0000000140058628     main.obj
 0002:00000640       ??_7type_info@@6B@         0000000140058640     LIBCMT:std_type_info_static.obj
 0002:00000728       _pDestructExceptionObject  0000000140058728     libvcruntime:frame.obj
 0002:00000738       ??_7exception@std@@6B@     0000000140058738     libvcruntime:frame.obj
 0002:00000748       ??_C@_0BC@EOODALEL@Unknown?5exception?$AA@ 0000000140058748     libvcruntime:frame.obj
 0002:00000768       ??_7bad_exception@std@@6B@ 0000000140058768     libvcruntime:frame.obj
 0002:00000778       ??_C@_0O@DPKOEFFH@bad?5exception?$AA@ 0000000140058778     libvcruntime:frame.obj
 0002:000007a8       ??_C@_1BC@DNHGCMLG@?$AAa?$AAd?$AAv?$AAa?$AAp?$AAi?$AA3?$AA2?$AA?$AA@ 00000001400587a8     libvcruntime:winapi_downlevel.obj
 0002:000007c0       ??_C@_1DM@KHCHBNEB@?$AAa?$AAp?$AAi?$AA?9?$AAm?$AAs?$AA?9?$AAw?$AAi?$AAn?$AA?9?$AAc?$AAo?$AAr?$AAe?$AA?9?$AAf?$AAi?$AAb?$AAe?$AAr?$AAs?$AA?9?$AAl?$AA1?$AA?9?$AA1?$AA?9?$AA1?$AA?$AA@ 00000001400587c0     libvcruntime:winapi_downlevel.obj
 0002:00000800       ??_C@_1DK@LPPGFMPP@?$AAa?$AAp?$AAi?$AA?9?$AAm?$AAs?$AA?9?$AAw?$AAi?$AAn?$AA?9?$AAc?$AAo?$AAr?$AAe?$AA?9?$AAs?$AAy?$AAn?$AAc?$AAh?$AA?9?$AAl?$AA1?$AA?9?$AA2?$AA?9?$AA0?$AA?$AA@ 0000000140058800     libvcruntime:winapi_downlevel.obj
 0002:00000840       ??_C@_1BC@GDMECMAK@?$AAk?$AAe?$AAr?$AAn?$AAe?$AAl?$AA3?$AA2?$AA?$AA@ 0000000140058840     libvcruntime:winapi_downlevel.obj
 0002:00000858       ??_C@_0O@BAMBGLIE@EventRegister?$AA@ 0000000140058858     libvcruntime:winapi_downlevel.obj
 0002:00000870       ??_C@_0BE@BJEEGHGK@EventSetInformation?$AA@ 0000000140058870     libvcruntime:winapi_downlevel.obj
 0002:00000888       ??_C@_0BA@FAKLIPIC@EventUnregister?$AA@ 0000000140058888     libvcruntime:winapi_downlevel.obj
 0002:000008a0       ??_C@_0BD@PKLHJPHD@EventWriteTransfer?$AA@ 00000001400588a0     libvcruntime:winapi_downlevel.obj
 0002:000008c0       ??_C@_08KNHFBNJ@FlsAlloc?$AA@ 00000001400588c0     libvcruntime:winapi_downlevel.obj
 0002:000008d8       ??_C@_07PEJMOBNF@FlsFree?$AA@ 00000001400588d8     libvcruntime:winapi_downlevel.obj
 0002:000008e8       ??_C@_0M@GDNOONDI@FlsGetValue?$AA@ 00000001400588e8     libvcruntime:winapi_downlevel.obj
 0002:00000900       ??_C@_0M@JCPCPOEF@FlsSetValue?$AA@ 0000000140058900     libvcruntime:winapi_downlevel.obj
 0002:00000918       ??_C@_0BM@HCFOFFN@InitializeCriticalSectionEx?$AA@ 0000000140058918     libvcruntime:winapi_downlevel.obj
 0002:00000c60       ??_C@_08EHJDFFNH@__based?$CI?$AA@ 0000000140058c60     libvcruntime:undname.obj
 0002:00000c70       ??_C@_07KOLFKCDI@__cdecl?$AA@ 0000000140058c70     libvcruntime:undname.obj
 0002:00000c78       ??_C@_08GHMPAG@__pascal?$AA@ 0000000140058c78     libvcruntime:undname.obj
 0002:00000c88       ??_C@_09IFJBGAPI@__stdcall?$AA@ 0000000140058c88     libvcruntime:undname.obj
 0002:00000c98       ??_C@_0L@NPHFGOKO@__thiscall?$AA@ 0000000140058c98     libvcruntime:undname.obj
 0002:00000ca8       ??_C@_0L@JMKHOMEK@__fastcall?$AA@ 0000000140058ca8     libvcruntime:undname.obj
 0002:00000cb8       ??_C@_0N@BCKKPABJ@__vectorcall?$AA@ 0000000140058cb8     libvcruntime:undname.obj
 0002:00000cc8       ??_C@_09HIJEGCPM@__clrcall?$AA@ 0000000140058cc8     libvcruntime:undname.obj
 0002:00000cd4       ??_C@_06GHPCKEAG@__eabi?$AA@ 0000000140058cd4     libvcruntime:undname.obj
 0002:00000ce0       ??_C@_07JOMMBBKO@__ptr64?$AA@ 0000000140058ce0     libvcruntime:undname.obj
 0002:00000ce8       ??_C@_0L@PILCLIHE@__restrict?$AA@ 0000000140058ce8     libvcruntime:undname.obj
 0002:00000cf8       ??_C@_0M@GFIIJFMG@__unaligned?$AA@ 0000000140058cf8     libvcruntime:undname.obj
 0002:00000d08       ??_C@_09DHDLOLLB@restrict?$CI?$AA@ 0000000140058d08     libvcruntime:undname.obj
 0002:00000d12       ??_C@_00CNPNBAHC@?$AA@     0000000140058d12     libvcruntime:undname.obj
 0002:00000d14       ??_C@_04NIHEBCM@?5new?$AA@ 0000000140058d14     libvcruntime:undname.obj
 0002:00000d20       ??_C@_07FPCDHGMM@?5delete?$AA@ 0000000140058d20     libvcruntime:undname.obj
 0002:00000d28       ??_C@_01NEMOKFLO@?$DN?$AA@ 0000000140058d28     libvcruntime:undname.obj
 0002:00000d2c       ??_C@_02GPIOPFAK@?$DO?$DO?$AA@ 0000000140058d2c     libvcruntime:undname.obj
 0002:00000d30       ??_C@_02FODMEDOG@?$DM?$DM?$AA@ 0000000140058d30     libvcruntime:undname.obj
 0002:00000d34       ??_C@_01DCLJPIOD@?$CB?$AA@ 0000000140058d34     libvcruntime:undname.obj
 0002:00000d38       ??_C@_02EGOFBIJA@?$DN?$DN?$AA@ 0000000140058d38     libvcruntime:undname.obj
 0002:00000d3c       ??_C@_02FDNJECIE@?$CB?$DN?$AA@ 0000000140058d3c     libvcruntime:undname.obj
 0002:00000d40       ??_C@_02GPECMEKF@?$FL?$FN?$AA@ 0000000140058d40     libvcruntime:undname.obj
 0002:00000d48       ??_C@_08LHJFAFGD@operator?$AA@ 0000000140058d48     libvcruntime:undname.obj
 0002:00000d54       ??_C@_02HBOOOICD@?9?$DO?$AA@ 0000000140058d54     libvcruntime:undname.obj
 0002:00000d58       ??_C@_01NBENCBCI@?$CK?$AA@ 0000000140058d58     libvcruntime:undname.obj
 0002:00000d5c       ??_C@_02ECNGHCIF@?$CL?$CL?$AA@ 0000000140058d5c     libvcruntime:undname.obj
 0002:00000d60       ??_C@_02BAABKJLB@?9?9?$AA@ 0000000140058d60     libvcruntime:undname.obj
 0002:00000d64       ??_C@_01JOAMLHOP@?9?$AA@   0000000140058d64     libvcruntime:undname.obj
 0002:00000d68       ??_C@_01MIFGBAGJ@?$CL?$AA@ 0000000140058d68     libvcruntime:undname.obj
 0002:00000d6c       ??_C@_01HNPIGOCE@?$CG?$AA@ 0000000140058d6c     libvcruntime:undname.obj
 0002:00000d70       ??_C@_03MNHNFDLC@?9?$DO?$CK?$AA@ 0000000140058d70     libvcruntime:undname.obj
 0002:00000d74       ??_C@_01KMDKNFGN@?1?$AA@   0000000140058d74     libvcruntime:undname.obj
 0002:00000d78       ??_C@_01FGNFDNOH@?$CF?$AA@ 0000000140058d78     libvcruntime:undname.obj
 0002:00000d7c       ??_C@_01MNNFJEPP@?$DM?$AA@ 0000000140058d7c     libvcruntime:undname.obj
 0002:00000d80       ??_C@_02EHCHHCKH@?$DM?$DN?$AA@ 0000000140058d80     libvcruntime:undname.obj
 0002:00000d84       ??_C@_01PPODPGHN@?$DO?$AA@ 0000000140058d84     libvcruntime:undname.obj
 0002:00000d88       ??_C@_02EEKDKGMJ@?$DO?$DN?$AA@ 0000000140058d88     libvcruntime:undname.obj
 0002:00000d8c       ??_C@_01IHBHIGKO@?0?$AA@   0000000140058d8c     libvcruntime:undname.obj
 0002:00000d90       ??_C@_02HCKGKOFO@?$CI?$CJ?$AA@ 0000000140058d90     libvcruntime:undname.obj
 0002:00000d94       ??_C@_01PJKLJHI@?$HO?$AA@  0000000140058d94     libvcruntime:undname.obj
 0002:00000d98       ??_C@_01JKBOJNNK@?$FO?$AA@ 0000000140058d98     libvcruntime:undname.obj
 0002:00000d9c       ??_C@_01DNKMNLPK@?$HM?$AA@ 0000000140058d9c     libvcruntime:undname.obj
 0002:00000da0       ??_C@_02PPKAJPJL@?$CG?$CG?$AA@ 0000000140058da0     libvcruntime:undname.obj
 0002:00000da4       ??_C@_02NONPIBCD@?$HM?$HM?$AA@ 0000000140058da4     libvcruntime:undname.obj
 0002:00000da8       ??_C@_02FPIMKNGF@?$CK?$DN?$AA@ 0000000140058da8     libvcruntime:undname.obj
 0002:00000dac       ??_C@_02FOEOMHFC@?$CL?$DN?$AA@ 0000000140058dac     libvcruntime:undname.obj
 0002:00000db0       ??_C@_02FKMDLLOA@?9?$DN?$AA@ 0000000140058db0     libvcruntime:undname.obj
 0002:00000db4       ??_C@_02FJEHGPIO@?1?$DN?$AA@ 0000000140058db4     libvcruntime:undname.obj
 0002:00000db8       ??_C@_02FENAOKFI@?$CF?$DN?$AA@ 0000000140058db8     libvcruntime:undname.obj
 0002:00000dbc       ??_C@_03IKFCCPFF@?$DO?$DO?$DN?$AA@ 0000000140058dbc     libvcruntime:undname.obj
 0002:00000dc0       ??_C@_03CDNPDDLA@?$DM?$DM?$DN?$AA@ 0000000140058dc0     libvcruntime:undname.obj
 0002:00000dc4       ??_C@_02FGJGFEAB@?$CG?$DN?$AA@ 0000000140058dc4     libvcruntime:undname.obj
 0002:00000dc8       ??_C@_02DHLNPPGH@?$HM?$DN?$AA@ 0000000140058dc8     libvcruntime:undname.obj
 0002:00000dcc       ??_C@_02MHEGNOJ@?$FO?$DN?$AA@ 0000000140058dcc     libvcruntime:undname.obj
 0002:00000dd0       ??_C@_09IFPLHPGF@?$GAvftable?8?$AA@ 0000000140058dd0     libvcruntime:undname.obj
 0002:00000de0       ??_C@_09BLBHBJP@?$GAvbtable?8?$AA@ 0000000140058de0     libvcruntime:undname.obj
 0002:00000df0       ??_C@_07FEEIOKP@?$GAvcall?8?$AA@ 0000000140058df0     libvcruntime:undname.obj
 0002:00000df8       ??_C@_08LLFFHHDJ@?$GAtypeof?8?$AA@ 0000000140058df8     libvcruntime:undname.obj
 0002:00000e08       ??_C@_0BF@KDPPACIK@?$GAlocal?5static?5guard?8?$AA@ 0000000140058e08     libvcruntime:undname.obj
 0002:00000e20       ??_C@_08OBABFOLI@?$GAstring?8?$AA@ 0000000140058e20     libvcruntime:undname.obj
 0002:00000e30       ??_C@_0BD@JDLKDPAB@?$GAvbase?5destructor?8?$AA@ 0000000140058e30     libvcruntime:undname.obj
 0002:00000e48       ??_C@_0BN@DEGPLNFK@?$GAvector?5deleting?5destructor?8?$AA@ 0000000140058e48     libvcruntime:undname.obj
 0002:00000e68       ??_C@_0BO@OBMKPJIG@?$GAdefault?5constructor?5closure?8?$AA@ 0000000140058e68     libvcruntime:undname.obj
 0002:00000e88       ??_C@_0BN@IMDCHIKM@?$GAscalar?5deleting?5destructor?8?$AA@ 0000000140058e88     libvcruntime:undname.obj
 0002:00000ea8       ??_C@_0BO@PFGOCPJJ@?$GAvector?5constructor?5iterator?8?$AA@ 0000000140058ea8     libvcruntime:undname.obj
 0002:00000ec8       ??_C@_0BN@LFPFMEDL@?$GAvector?5destructor?5iterator?8?$AA@ 0000000140058ec8     libvcruntime:undname.obj
 0002:00000ee8       ??_C@_0CE@IKBNEHA@?$GAvector?5vbase?5constructor?5iterat@ 0000000140058ee8     libvcruntime:undname.obj
 0002:00000f10       ??_C@_0BL@NILFHHPC@?$GAvirtual?5displacement?5map?8?$AA@ 0000000140058f10     libvcruntime:undname.obj
 0002:00000f30       ??_C@_0CB@JONCMFFK@?$GAeh?5vector?5constructor?5iterator?8@ 0000000140058f30     libvcruntime:undname.obj
 0002:00000f58       ??_C@_0CA@GCEOPDGL@?$GAeh?5vector?5destructor?5iterator?8?$AA@ 0000000140058f58     libvcruntime:undname.obj
 0002:00000f78       ??_C@_0CH@OOJPLCPH@?$GAeh?5vector?5vbase?5constructor?5ite@ 0000000140058f78     libvcruntime:undname.obj
 0002:00000fa0       ??_C@_0BL@LLKPOHJI@?$GAcopy?5constructor?5closure?8?$AA@ 0000000140058fa0     libvcruntime:undname.obj
 0002:00000fc0       ??_C@_0BA@KBCDOMBN@?$GAudt?5returning?8?$AA@ 0000000140058fc0     libvcruntime:undname.obj
 0002:00000fd0       ??_C@_03KLGMFNMG@?$GAEH?$AA@ 0000000140058fd0     libvcruntime:undname.obj
 0002:00000fd4       ??_C@_05KHLCHHI@?$GARTTI?$AA@ 0000000140058fd4     libvcruntime:undname.obj
 0002:00000fe0       ??_C@_0BA@KKLDJDLB@?$GAlocal?5vftable?8?$AA@ 0000000140058fe0     libvcruntime:undname.obj
 0002:00000ff0       ??_C@_0CE@IIHCMGGL@?$GAlocal?5vftable?5constructor?5closu@ 0000000140058ff0     libvcruntime:undname.obj
 0002:00001014       ??_C@_06FHBGPFGH@?5new?$FL?$FN?$AA@ 0000000140059014     libvcruntime:undname.obj
 0002:00001020       ??_C@_09LBNFPBCA@?5delete?$FL?$FN?$AA@ 0000000140059020     libvcruntime:undname.obj
 0002:00001030       ??_C@_0P@HJKNJFNN@?$GAomni?5callsig?8?$AA@ 0000000140059030     libvcruntime:undname.obj
 0002:00001040       ??_C@_0BL@CNOONJFP@?$GAplacement?5delete?5closure?8?$AA@ 0000000140059040     libvcruntime:undname.obj
 0002:00001060       ??_C@_0BN@CKNJLHMB@?$GAplacement?5delete?$FL?$FN?5closure?8?$AA@ 0000000140059060     libvcruntime:undname.obj
 0002:00001080       ??_C@_0CG@CFDHKGGD@?$GAmanaged?5vector?5constructor?5iter@ 0000000140059080     libvcruntime:undname.obj
 0002:000010a8       ??_C@_0CF@IMGKMJNO@?$GAmanaged?5vector?5destructor?5itera@ 00000001400590a8     libvcruntime:undname.obj
 0002:000010d0       ??_C@_0CG@HLDDJMAG@?$GAeh?5vector?5copy?5constructor?5iter@ 00000001400590d0     libvcruntime:undname.obj
 0002:000010f8       ??_C@_0CM@FCBBDIGB@?$GAeh?5vector?5vbase?5copy?5constructo@ 00000001400590f8     libvcruntime:undname.obj
 0002:00001128       ??_C@_0BL@CLIPGLGB@?$GAdynamic?5initializer?5for?5?8?$AA@ 0000000140059128     libvcruntime:undname.obj
 0002:00001148       ??_C@_0CB@PDBIFEP@?$GAdynamic?5atexit?5destructor?5for?5?8@ 0000000140059148     libvcruntime:undname.obj
 0002:00001170       ??_C@_0CD@CGAJBKEJ@?$GAvector?5copy?5constructor?5iterato@ 0000000140059170     libvcruntime:undname.obj
 0002:00001198       ??_C@_0CJ@GJELGAMM@?$GAvector?5vbase?5copy?5constructor?5i@ 0000000140059198     libvcruntime:undname.obj
 0002:000011c8       ??_C@_0CL@FGIJHLCE@?$GAmanaged?5vector?5copy?5constructor@ 00000001400591c8     libvcruntime:undname.obj
 0002:000011f8       ??_C@_0BM@PMGGMLDN@?$GAlocal?5static?5thread?5guard?8?$AA@ 00000001400591f8     libvcruntime:undname.obj
 0002:00001218       ??_C@_0N@BDNMDMOL@operator?5?$CC?$CC?5?$AA@ 0000000140059218     libvcruntime:undname.obj
 0002:00001228       ??_C@_0BC@DAFEJGAK@?5Type?5Descriptor?8?$AA@ 0000000140059228     libvcruntime:undname.obj
 0002:00001240       ??_C@_0BM@LDKODKLH@?5Base?5Class?5Descriptor?5at?5?$CI?$AA@ 0000000140059240     libvcruntime:undname.obj
 0002:00001260       ??_C@_0BD@LGICGFMM@?5Base?5Class?5Array?8?$AA@ 0000000140059260     libvcruntime:undname.obj
 0002:00001278       ??_C@_0BN@MECKDCOJ@?5Class?5Hierarchy?5Descriptor?8?$AA@ 0000000140059278     libvcruntime:undname.obj
 0002:00001298       ??_C@_0BK@CFCOFLF@?5Complete?5Object?5Locator?8?$AA@ 0000000140059298     libvcruntime:undname.obj
 0002:000012b4       ??_C@_04HEJADOOB@CV?3?5?$AA@ 00000001400592b4     libvcruntime:undname.obj
 0002:000012bc       ??_C@_02MOLJINC@?3?3?$AA@  00000001400592bc     libvcruntime:undname.obj
 0002:000012c0       ??_C@_0BE@JAEOCHPE@template?9parameter?9?$AA@ 00000001400592c0     libvcruntime:undname.obj
 0002:000012d8       ??_C@_0O@KHGCOMHP@generic?9type?9?$AA@ 00000001400592d8     libvcruntime:undname.obj
 0002:000012e8       ??_C@_01NLNLIGKH@?$GA?$AA@ 00000001400592e8     libvcruntime:undname.obj
 0002:000012ec       ??_C@_01GEODFPGF@?8?$AA@   00000001400592ec     libvcruntime:undname.obj
 0002:000012f0       ??_C@_0BG@JNJLAMPM@?$GAanonymous?5namespace?8?$AA@ 00000001400592f0     libvcruntime:undname.obj
 0002:00001308       ??_C@_02OHHJMEON@?8?8?$AA@ 0000000140059308     libvcruntime:undname.obj
 0002:00001310       ??_C@_0BN@IBLMMFAP@?$GAnon?9type?9template?9parameter?$AA@ 0000000140059310     libvcruntime:undname.obj
 0002:00001330       ??_C@_04GKJNKENE@void?$AA@ 0000000140059330     libvcruntime:undname.obj
 0002:00001338       ??_C@_0BE@EODMJLIF@?$GAtemplate?9parameter?$AA@ 0000000140059338     libvcruntime:undname.obj
 0002:0000134c       ??_C@_03KHICJKCI@?4?4?4?$AA@ 000000014005934c     libvcruntime:undname.obj
 0002:00001350       ??_C@_04HIBGFPH@NULL?$AA@  0000000140059350     libvcruntime:undname.obj
 0002:00001358       ??_C@_02DPKJAMEF@?$CFd?$AA@ 0000000140059358     libvcruntime:undname.obj
 0002:00001360       ??_C@_0BK@IHCCFNEL@?$GAtemplate?9type?9parameter?9?$AA@ 0000000140059360     libvcruntime:undname.obj
 0002:00001380       ??_C@_0BK@OFCNNNKO@?$GAgeneric?9class?9parameter?9?$AA@ 0000000140059380     libvcruntime:undname.obj
 0002:000013a0       ??_C@_0BL@NGJBLFIL@?$GAgeneric?9method?9parameter?9?$AA@ 00000001400593a0     libvcruntime:undname.obj
 0002:000013bc       ??_C@_03OPGICMGF@?$HN?8?5?$AA@ 00000001400593bc     libvcruntime:undname.obj
 0002:000013c0       ??_C@_02IGFCGPIL@?$HN?8?$AA@ 00000001400593c0     libvcruntime:undname.obj
 0002:000013c4       ??_C@_01CLKCMJKC@?5?$AA@   00000001400593c4     libvcruntime:undname.obj
 0002:000013c8       ??_C@_0N@CBHHHENL@?$GAvtordispex?$HL?$AA@ 00000001400593c8     libvcruntime:undname.obj
 0002:000013d8       ??_C@_0L@GHPFDFH@?$GAvtordisp?$HL?$AA@ 00000001400593d8     libvcruntime:undname.obj
 0002:000013e8       ??_C@_0L@HNGCOGAE@?$GAadjustor?$HL?$AA@ 00000001400593e8     libvcruntime:undname.obj
 0002:000013f8       ??_C@_0CB@KJDOOODE@?$GAlocal?5static?5destructor?5helper?8@ 00000001400593f8     libvcruntime:undname.obj
 0002:00001420       ??_C@_0DB@ILEFOCIJ@?$GAtemplate?5static?5data?5member?5con@ 0000000140059420     libvcruntime:undname.obj
 0002:00001458       ??_C@_0DA@HGFJFBBE@?$GAtemplate?5static?5data?5member?5des@ 0000000140059458     libvcruntime:undname.obj
 0002:00001488       ??_C@_07PGOEDBHP@static?5?$AA@ 0000000140059488     libvcruntime:undname.obj
 0002:00001490       ??_C@_08NIEOINHE@virtual?5?$AA@ 0000000140059490     libvcruntime:undname.obj
 0002:000014a0       ??_C@_09LAPHOOG@private?3?5?$AA@ 00000001400594a0     libvcruntime:undname.obj
 0002:000014b0       ??_C@_0M@GAIFPFIP@protected?3?5?$AA@ 00000001400594b0     libvcruntime:undname.obj
 0002:000014c0       ??_C@_08GPDDCMKI@public?3?5?$AA@ 00000001400594c0     libvcruntime:undname.obj
 0002:000014d0       ??_C@_08KJLFOPNE@?$FLthunk?$FN?3?$AA@ 00000001400594d0     libvcruntime:undname.obj
 0002:000014e0       ??_C@_0M@DHNBOJMP@extern?5?$CCC?$CC?5?$AA@ 00000001400594e0     libvcruntime:undname.obj
 0002:000014ec       ??_C@_02KCKGHPCA@?$CJ?5?$AA@ 00000001400594ec     libvcruntime:undname.obj
 0002:000014f0       ??_C@_05CIHEBHNO@char?5?$AA@ 00000001400594f0     libvcruntime:undname.obj
 0002:000014f8       ??_C@_06EHJMALKF@short?5?$AA@ 00000001400594f8     libvcruntime:undname.obj
 0002:00001500       ??_C@_04LAHKHJMA@int?5?$AA@ 0000000140059500     libvcruntime:undname.obj
 0002:00001508       ??_C@_05CJIMAING@long?5?$AA@ 0000000140059508     libvcruntime:undname.obj
 0002:00001510       ??_C@_09EBBEKKIH@unsigned?5?$AA@ 0000000140059510     libvcruntime:undname.obj
 0002:0000151c       ??_C@_05BEFAKPML@void?5?$AA@ 000000014005951c     libvcruntime:undname.obj
 0002:00001528       ??_C@_08PABEKFH@volatile?$AA@ 0000000140059528     libvcruntime:undname.obj
 0002:00001538       ??_C@_0BA@LKIJLKPP@std?3?3nullptr_t?5?$AA@ 0000000140059538     libvcruntime:undname.obj
 0002:00001548       ??_C@_0P@GCOCNKDM@std?3?3nullptr_t?$AA@ 0000000140059548     libvcruntime:undname.obj
 0002:00001558       ??_C@_0L@EGPHHEKN@?$DMellipsis?$DO?$AA@ 0000000140059558     libvcruntime:undname.obj
 0002:00001564       ??_C@_04EENFHACM@?0?4?4?4?$AA@ 0000000140059564     libvcruntime:undname.obj
 0002:00001570       ??_C@_0M@ELJOJFFH@?0?$DMellipsis?$DO?$AA@ 0000000140059570     libvcruntime:undname.obj
 0002:00001580       ??_C@_07HDJPLPEK@?5throw?$CI?$AA@ 0000000140059580     libvcruntime:undname.obj
 0002:00001588       ??_C@_03PBJBJNON@cpu?$AA@  0000000140059588     libvcruntime:undname.obj
 0002:0000158c       ??_C@_03DCBBJBAA@amp?$AA@  000000014005958c     libvcruntime:undname.obj
 0002:00001590       ??_C@_02KEGNLNML@?0?5?$AA@ 0000000140059590     libvcruntime:undname.obj
 0002:00001594       ??_C@_04ENMBGAPA@char?$AA@ 0000000140059594     libvcruntime:undname.obj
 0002:0000159c       ??_C@_05BFKKPKCG@short?$AA@ 000000014005959c     libvcruntime:undname.obj
 0002:000015a4       ??_C@_03JBIPMCLC@int?$AA@  00000001400595a4     libvcruntime:undname.obj
 0002:000015a8       ??_C@_04GOKPGOLB@long?$AA@ 00000001400595a8     libvcruntime:undname.obj
 0002:000015b0       ??_C@_05KNFBNCOH@float?$AA@ 00000001400595b0     libvcruntime:undname.obj
 0002:000015b8       ??_C@_06BNJCAIGJ@double?$AA@ 00000001400595b8     libvcruntime:undname.obj
 0002:000015c0       ??_C@_04DDKJGDCM@bool?$AA@ 00000001400595c0     libvcruntime:undname.obj
 0002:000015c8       ??_C@_06EBGKOKIG@__int8?$AA@ 00000001400595c8     libvcruntime:undname.obj
 0002:000015d0       ??_C@_07ICFHOGAF@__int16?$AA@ 00000001400595d0     libvcruntime:undname.obj
 0002:000015d8       ??_C@_07OFLPPHGP@__int32?$AA@ 00000001400595d8     libvcruntime:undname.obj
 0002:000015e0       ??_C@_07LFCOJCAC@__int64?$AA@ 00000001400595e0     libvcruntime:undname.obj
 0002:000015e8       ??_C@_08GAHOLHEO@__int128?$AA@ 00000001400595e8     libvcruntime:undname.obj
 0002:000015f8       ??_C@_09EEKGDCPH@?$DMunknown?$DO?$AA@ 00000001400595f8     libvcruntime:undname.obj
 0002:00001608       ??_C@_08HBIPOFJB@char16_t?$AA@ 0000000140059608     libvcruntime:undname.obj
 0002:00001618       ??_C@_08IECNCBKG@char32_t?$AA@ 0000000140059618     libvcruntime:undname.obj
 0002:00001628       ??_C@_07CLGGIAMF@wchar_t?$AA@ 0000000140059628     libvcruntime:undname.obj
 0002:00001630       ??_C@_06GCICPBLB@__w64?5?$AA@ 0000000140059630     libvcruntime:undname.obj
 0002:00001638       ??_C@_07NFANNNEC@UNKNOWN?$AA@ 0000000140059638     libvcruntime:undname.obj
 0002:00001640       ??_C@_07EDHNAJHC@signed?5?$AA@ 0000000140059640     libvcruntime:undname.obj
 0002:00001648       ??_C@_05BNCCCJPP@const?$AA@ 0000000140059648     libvcruntime:undname.obj
 0002:00001650       ??_C@_09EFNPDFFP@?5volatile?$AA@ 0000000140059650     libvcruntime:undname.obj
 0002:00001660       ??_C@_0P@GCIFDJCJ@?$GAunknown?5ecsu?8?$AA@ 0000000140059660     libvcruntime:undname.obj
 0002:00001670       ??_C@_06MOJHIBMG@union?5?$AA@ 0000000140059670     libvcruntime:undname.obj
 0002:00001678       ??_C@_07DIBCDNGL@struct?5?$AA@ 0000000140059678     libvcruntime:undname.obj
 0002:00001680       ??_C@_06LJBABKPM@class?5?$AA@ 0000000140059680     libvcruntime:undname.obj
 0002:00001688       ??_C@_08KOFANOFK@coclass?5?$AA@ 0000000140059688     libvcruntime:undname.obj
 0002:00001698       ??_C@_0N@DLIEFKNA@cointerface?5?$AA@ 0000000140059698     libvcruntime:undname.obj
 0002:000016a8       ??_C@_05LJGMCFOG@enum?5?$AA@ 00000001400596a8     libvcruntime:undname.obj
 0002:000016b0       ??_C@_09GAIEOBLP@volatile?5?$AA@ 00000001400596b0     libvcruntime:undname.obj
 0002:000016bc       ??_C@_06LIJLOJAG@const?5?$AA@ 00000001400596bc     libvcruntime:undname.obj
 0002:000016c4       ??_C@_02KJPKDIBN@?$CG?5?$AA@ 00000001400596c4     libvcruntime:undname.obj
 0002:000016c8       ??_C@_03PCKGMOPB@?$CG?$CG?5?$AA@ 00000001400596c8     libvcruntime:undname.obj
 0002:000016d0       ??_C@_0M@EALIELKG@cli?3?3array?$DM?$AA@ 00000001400596d0     libvcruntime:undname.obj
 0002:000016e0       ??_C@_0O@GKABPPIF@cli?3?3pin_ptr?$DM?$AA@ 00000001400596e0     libvcruntime:undname.obj
 0002:000016f0       ??_C@_02GOGNNPBN@?$CJ?$FL?$AA@ 00000001400596f0     libvcruntime:undname.obj
 0002:000016f4       ??_C@_06EEGAIFAK@?$HLflat?$HN?$AA@ 00000001400596f4     libvcruntime:undname.obj
 0002:000016fc       ??_C@_05JIBOFOHK@?$HLfor?5?$AA@ 00000001400596fc     libvcruntime:undname.obj
 0002:00001704       ??_C@_02MDINNEEG@s?5?$AA@  0000000140059704     libvcruntime:undname.obj
 0002:00001710       ??_7DNameNode@@6B@         0000000140059710     libvcruntime:undname.obj
 0002:00001730       ??_7charNode@@6B@          0000000140059730     libvcruntime:undname.obj
 0002:00001750       ??_7pcharNode@@6B@         0000000140059750     libvcruntime:undname.obj
 0002:00001770       ??_7pDNameNode@@6B@        0000000140059770     libvcruntime:undname.obj
 0002:00001790       ??_7DNameStatusNode@@6B@   0000000140059790     libvcruntime:undname.obj
 0002:000017b0       ??_7pairNode@@6B@          00000001400597b0     libvcruntime:undname.obj
 0002:000017c8       ??_C@_04OKOHEJBO@?5?$DP?$DP?5?$AA@ 00000001400597c8     libvcruntime:undname.obj
 0002:000017d0       _Fenv1                     00000001400597d0     libucrt:output.obj
 0002:000017e0       ?standard_lookup_table_spectre@__crt_stdio_output@@3V?$spectre_mitigated_lookup_table@Ustate_transition_pair@__crt_stdio_output@@$0IA@@1@B 00000001400597e0     libucrt:output.obj
 0002:000018e0       ?format_validation_lookup_table_spectre@__crt_stdio_output@@3V?$spectre_mitigated_lookup_table@Ustate_transition_pair@__crt_stdio_output@@$0IA@@1@B 00000001400598e0     libucrt:output.obj
 0002:000019e0       ??_C@_1O@CEDCILHN@?$AA?$CI?$AAn?$AAu?$AAl?$AAl?$AA?$CJ@ 00000001400599e0     libucrt:output.obj
 0002:000019f0       ??_C@_06OJHGLDPL@?$CInull?$CJ@ 00000001400599f0     libucrt:output.obj
 0002:00001a00       __acrt_exception_action_table 0000000140059a00     libucrt:exception_filter.obj
 0002:00001ac0       __acrt_signal_action_table_count 0000000140059ac0     libucrt:exception_filter.obj
 0002:00001ac8       __acrt_signal_action_table_size 0000000140059ac8     libucrt:exception_filter.obj
 0002:00001ad0       __acrt_signal_action_first_fpe_index 0000000140059ad0     libucrt:exception_filter.obj
 0002:00001ad8       __acrt_signal_action_fpe_count 0000000140059ad8     libucrt:exception_filter.obj
 0002:00001ae0       ??_C@_1DE@JNGNBFGO@?$AAR?$AAu?$AAn?$AAt?$AAi?$AAm?$AAe?$AA?5?$AAE?$AAr?$AAr?$AAo?$AAr?$AA?$CB?$AA?6@ 0000000140059ae0     libucrt:report_runtime_error.obj
 0002:00001b18       ??_C@_1CO@EAEJAADC@?$AA?$DM?$AAp?$AAr?$AAo?$AAg?$AAr?$AAa?$AAm?$AA?5?$AAn?$AAa?$AAm?$AAe?$AA?5?$AAu@ 0000000140059b18     libucrt:report_runtime_error.obj
 0002:00001b48       ??_C@_17LGKOMLJ@?$AA?4?$AA?4?$AA?4@ 0000000140059b48     libucrt:report_runtime_error.obj
 0002:00001b50       ??_C@_15IABLJNFO@?$AA?6?$AA?6@ 0000000140059b50     libucrt:report_runtime_error.obj
 0002:00001b60       ??_C@_1EK@MBDPDCGA@?$AAM?$AAi?$AAc?$AAr?$AAo?$AAs?$AAo?$AAf?$AAt?$AA?5?$AAV?$AAi?$AAs?$AAu?$AAa@ 0000000140059b60     libucrt:report_runtime_error.obj
 0002:00001ca0       ??_C@_1BI@BGOHAHKC@?$AAm?$AAs?$AAc?$AAo?$AAr?$AAe?$AAe?$AA?4?$AAd?$AAl?$AAl@ 0000000140059ca0     libucrt:exit.obj
 0002:00001cb8       ??_C@_0P@MIGLKIOC@CorExitProcess@ 0000000140059cb8     libucrt:exit.obj
 0002:00001d50       __lc_category              0000000140059d50     libucrt:wsetlocale.obj
 0002:00001de0       ??_C@_1O@GIFLHMA@?$AAL?$AAC?$AA_?$AAA?$AAL?$AAL@ 0000000140059de0     libucrt:wsetlocale.obj
 0002:00001df0       ??_C@_1BG@PPOMIBNJ@?$AAL?$AAC?$AA_?$AAC?$AAO?$AAL?$AAL?$AAA?$AAT?$AAE@ 0000000140059df0     libucrt:wsetlocale.obj
 0002:00001e08       ??_C@_1BC@FFJGAPJM@?$AAL?$AAC?$AA_?$AAC?$AAT?$AAY?$AAP?$AAE@ 0000000140059e08     libucrt:wsetlocale.obj
 0002:00001e20       ??_C@_1BI@PCKFNJFB@?$AAL?$AAC?$AA_?$AAM?$AAO?$AAN?$AAE?$AAT?$AAA?$AAR?$AAY@ 0000000140059e20     libucrt:wsetlocale.obj
 0002:00001e38       ??_C@_1BG@ENIEDKID@?$AAL?$AAC?$AA_?$AAN?$AAU?$AAM?$AAE?$AAR?$AAI?$AAC@ 0000000140059e38     libucrt:wsetlocale.obj
 0002:00001e50       ??_C@_1BA@HAAOMIIG@?$AAL?$AAC?$AA_?$AAT?$AAI?$AAM?$AAE@ 0000000140059e50     libucrt:wsetlocale.obj
 0002:00001e60       ??_C@_15NBPDDFIP@?$AA?$DN?$AA?$DL@ 0000000140059e60     libucrt:wsetlocale.obj
 0002:00001e68       ??_C@_13PJJBFPED@?$AA?$DL@ 0000000140059e68     libucrt:wsetlocale.obj
 0002:00001e6c       ??_C@_13NMPKAAJP@?$AA?$DN@ 0000000140059e6c     libucrt:wsetlocale.obj
 0002:00001e70       ??_C@_13IMODFHAA@?$AA?9@   0000000140059e70     libucrt:wsetlocale.obj
 0002:00001e78       ??_C@_17EFJLDFDO@?$AA?9?$AA_?$AA?4@ 0000000140059e78     libucrt:wsetlocale.obj
 0002:00001e80       ??_C@_13FHBKNHDA@?$AAC@    0000000140059e80     libucrt:wsetlocale.obj
 0002:00001e88       ??_C@_17MBJJLFDM@?$AA_?$AA?4?$AA?0@ 0000000140059e88     libucrt:wsetlocale.obj
 0002:00001e90       ??_C@_13ENNFDPBH@?$AA_@    0000000140059e90     libucrt:wsetlocale.obj
 0002:00001e94       ??_C@_13JOFGPIOO@?$AA?4@   0000000140059e94     libucrt:wsetlocale.obj
 0002:00002158       RtlNtPathSeperatorString   000000014005a158     libucrt:winapi_thunks.obj
 0002:00002168       ??_C@_13FPGAJAPJ@?$AA?2@   000000014005a168     libucrt:winapi_thunks.obj
 0002:00002170       RtlDosPathSeperatorsString 000000014005a170     libucrt:winapi_thunks.obj
 0002:00002180       ??_C@_15MNCACJLI@?$AA?2?$AA?1@ 000000014005a180     libucrt:winapi_thunks.obj
 0002:00002188       RtlAlternateDosPathSeperatorString 000000014005a188     libucrt:winapi_thunks.obj
 0002:00002198       ??_C@_13CGOKJPIL@?$AA?1@   000000014005a198     libucrt:winapi_thunks.obj
 0002:00002250       ??_C@_1EA@JGEFHKEI@?$AAa?$AAp?$AAi?$AA?9?$AAm?$AAs?$AA?9?$AAw?$AAi?$AAn?$AA?9?$AAc?$AAo?$AAr?$AAe@ 000000014005a250     libucrt:winapi_thunks.obj
 0002:00002290       ??_C@_1DI@KMEPCBPN@?$AAa?$AAp?$AAi?$AA?9?$AAm?$AAs?$AA?9?$AAw?$AAi?$AAn?$AA?9?$AAc?$AAo?$AAr?$AAe@ 000000014005a290     libucrt:winapi_thunks.obj
 0002:000022c8       ??_C@_1DI@IJCEHOCB@?$AAa?$AAp?$AAi?$AA?9?$AAm?$AAs?$AA?9?$AAw?$AAi?$AAn?$AA?9?$AAc?$AAo?$AAr?$AAe@ 000000014005a2c8     libucrt:winapi_thunks.obj
 0002:00002300       ??_C@_1EI@MPIAOHOC@?$AAa?$AAp?$AAi?$AA?9?$AAm?$AAs?$AA?9?$AAw?$AAi?$AAn?$AA?9?$AAc?$AAo?$AAr?$AAe@ 000000014005a300     libucrt:winapi_thunks.obj
 0002:00002350       ??_C@_1FK@FPHCKFIE@?$AAa?$AAp?$AAi?$AA?9?$AAm?$AAs?$AA?9?$AAw?$AAi?$AAn?$AA?9?$AAc?$AAo?$AAr?$AAe@ 000000014005a350     libucrt:winapi_thunks.obj
 0002:000023b0       ??_C@_1EM@DILCGIIO@?$AAa?$AAp?$AAi?$AA?9?$AAm?$AAs?$AA?9?$AAw?$AAi?$AAn?$AA?9?$AAc?$AAo?$AAr?$AAe@ 000000014005a3b0     libucrt:winapi_thunks.obj
 0002:00002400       ??_C@_1DM@LNCGDDPN@?$AAa?$AAp?$AAi?$AA?9?$AAm?$AAs?$AA?9?$AAw?$AAi?$AAn?$AA?9?$AAc?$AAo?$AAr?$AAe@ 000000014005a400     libucrt:winapi_thunks.obj
 0002:00002440       ??_C@_1DK@LPPGFMPP@?$AAa?$AAp?$AAi?$AA?9?$AAm?$AAs?$AA?9?$AAw?$AAi?$AAn?$AA?9?$AAc?$AAo?$AAr?$AAe@ 000000014005a440     libucrt:winapi_thunks.obj
 0002:00002480       ??_C@_1DO@FPAPJEMD@?$AAa?$AAp?$AAi?$AA?9?$AAm?$AAs?$AA?9?$AAw?$AAi?$AAn?$AA?9?$AAc?$AAo?$AAr?$AAe@ 000000014005a480     libucrt:winapi_thunks.obj
 0002:000024c0       ??_C@_1DK@NDHNAHIO@?$AAa?$AAp?$AAi?$AA?9?$AAm?$AAs?$AA?9?$AAw?$AAi?$AAn?$AA?9?$AAc?$AAo?$AAr?$AAe@ 000000014005a4c0     libucrt:winapi_thunks.obj
 0002:00002500       ??_C@_1DM@KGHDGBCM@?$AAa?$AAp?$AAi?$AA?9?$AAm?$AAs?$AA?9?$AAw?$AAi?$AAn?$AA?9?$AAc?$AAo?$AAr?$AAe@ 000000014005a500     libucrt:winapi_thunks.obj
 0002:00002540       ??_C@_1EO@IJIOEFOH@?$AAa?$AAp?$AAi?$AA?9?$AAm?$AAs?$AA?9?$AAw?$AAi?$AAn?$AA?9?$AAr?$AAt?$AAc?$AAo@ 000000014005a540     libucrt:winapi_thunks.obj
 0002:00002590       ??_C@_1FG@HHGEKANL@?$AAa?$AAp?$AAi?$AA?9?$AAm?$AAs?$AA?9?$AAw?$AAi?$AAn?$AA?9?$AAs?$AAe?$AAc?$AAu@ 000000014005a590     libucrt:winapi_thunks.obj
 0002:000025f0       ??_C@_1EG@DBIOJECG@?$AAe?$AAx?$AAt?$AA?9?$AAm?$AAs?$AA?9?$AAw?$AAi?$AAn?$AA?9?$AAn?$AAt?$AAu?$AAs@ 000000014005a5f0     libucrt:winapi_thunks.obj
 0002:00002640       ??_C@_1EO@FIHMJCLF@?$AAe?$AAx?$AAt?$AA?9?$AAm?$AAs?$AA?9?$AAw?$AAi?$AAn?$AA?9?$AAn?$AAt?$AAu?$AAs@ 000000014005a640     libucrt:winapi_thunks.obj
 0002:00002690       ??_C@_1BC@DNHGCMLG@?$AAa?$AAd?$AAv?$AAa?$AAp?$AAi?$AA3?$AA2@ 000000014005a690     libucrt:winapi_thunks.obj
 0002:000026a8       ??_C@_1BC@GDMECMAK@?$AAk?$AAe?$AAr?$AAn?$AAe?$AAl?$AA3?$AA2@ 000000014005a6a8     libucrt:winapi_thunks.obj
 0002:000026c0       ??_C@_1BG@CJPGBMEF@?$AAk?$AAe?$AAr?$AAn?$AAe?$AAl?$AAb?$AAa?$AAs?$AAe@ 000000014005a6c0     libucrt:winapi_thunks.obj
 0002:000026d8       ??_C@_1M@OAIMIKLP@?$AAn?$AAt?$AAd?$AAl?$AAl@ 000000014005a6d8     libucrt:winapi_thunks.obj
 0002:000026f0       ??_C@_1EG@DPGNFKGC@?$AAa?$AAp?$AAi?$AA?9?$AAm?$AAs?$AA?9?$AAw?$AAi?$AAn?$AA?9?$AAa?$AAp?$AAp?$AAm@ 000000014005a6f0     libucrt:winapi_thunks.obj
 0002:00002738       ??_C@_1O@BCCLBEOE@?$AAu?$AAs?$AAe?$AAr?$AA3?$AA2@ 000000014005a738     libucrt:winapi_thunks.obj
 0002:00002748       ??_C@_1BA@PFFKHIOG@?$AAa?$AAp?$AAi?$AA?9?$AAm?$AAs?$AA?9@ 000000014005a748     libucrt:winapi_thunks.obj
 0002:00002758       ??_C@_1BA@IAIFMGEF@?$AAe?$AAx?$AAt?$AA?9?$AAm?$AAs?$AA?9@ 000000014005a758     libucrt:winapi_thunks.obj
 0002:00002770       ??_C@_0BA@FHFNEAED@AreFileApisANSI@ 000000014005a770     libucrt:winapi_thunks.obj
 0002:00002788       ??_C@_0BA@IHGNDAEB@CompareStringEx@ 000000014005a788     libucrt:winapi_thunks.obj
 0002:000027a0       ??_C@_0BE@LJANKFHF@EnumSystemLocalesEx@ 000000014005a7a0     libucrt:winapi_thunks.obj
 0002:000027c0       ??_C@_0BA@HNOPNCHB@GetActiveWindow@ 000000014005a7c0     libucrt:winapi_thunks.obj
 0002:000027d8       ??_C@_0BA@EPCJIIPD@GetDateFormatEx@ 000000014005a7d8     libucrt:winapi_thunks.obj
 0002:000027f0       ??_C@_0O@NNMIPI@GetTempPath2W@ 000000014005a7f0     libucrt:winapi_thunks.obj
 0002:00002808       ??_C@_0BJ@DIBIJBHA@GetEnabledXStateFeatures@ 000000014005a808     libucrt:winapi_thunks.obj
 0002:00002830       ??_C@_0BD@HHGDFDBJ@GetLastActivePopup@ 000000014005a830     libucrt:winapi_thunks.obj
 0002:00002850       ??_C@_0BA@ONOKGCMP@GetLocaleInfoEx@ 000000014005a850     libucrt:winapi_thunks.obj
 0002:00002868       ??_C@_0BI@DFKBFLJE@GetProcessWindowStation@ 000000014005a868     libucrt:winapi_thunks.obj
 0002:00002888       ??_C@_0BP@FPNJPEJC@GetSystemTimePreciseAsFileTime@ 000000014005a888     libucrt:winapi_thunks.obj
 0002:000028b0       ??_C@_0BA@CIJJKCJJ@GetTimeFormatEx@ 000000014005a8b0     libucrt:winapi_thunks.obj
 0002:000028c8       ??_C@_0BJ@PBCCBIPI@GetUserDefaultLocaleName@ 000000014005a8c8     libucrt:winapi_thunks.obj
 0002:000028f0       ??_C@_0BK@DEKFELLI@GetUserObjectInformationW@ 000000014005a8f0     libucrt:winapi_thunks.obj
 0002:00002918       ??_C@_0BG@IKLDMBLM@GetXStateFeaturesMask@ 000000014005a918     libucrt:winapi_thunks.obj
 0002:00002938       ??_C@_0BM@HCFOFFN@InitializeCriticalSectionEx@ 000000014005a938     libucrt:winapi_thunks.obj
 0002:00002960       ??_C@_0BC@CELBKLLA@IsValidLocaleName@ 000000014005a960     libucrt:winapi_thunks.obj
 0002:00002980       ??_C@_0O@KKBNKAPF@LCMapStringEx@ 000000014005a980     libucrt:winapi_thunks.obj
 0002:00002998       ??_C@_0BB@CDHDDLLP@LCIDToLocaleName@ 000000014005a998     libucrt:winapi_thunks.obj
 0002:000029b8       ??_C@_0BB@HBDEELFH@LocaleNameToLCID@ 000000014005a9b8     libucrt:winapi_thunks.obj
 0002:000029d8       ??_C@_0BE@KINNKFDA@LocateXStateFeature@ 000000014005a9d8     libucrt:winapi_thunks.obj
 0002:000029f8       ??_C@_0M@CHKKJDAI@MessageBoxA@ 000000014005a9f8     libucrt:winapi_thunks.obj
 0002:00002a10       ??_C@_0M@DLDCCGNP@MessageBoxW@ 000000014005aa10     libucrt:winapi_thunks.obj
 0002:00002a20       ??_C@_0N@PPOMPGGK@RoInitialize@ 000000014005aa20     libucrt:winapi_thunks.obj
 0002:00002a38       ??_C@_0P@LLFHBIJD@RoUninitialize@ 000000014005aa38     libucrt:winapi_thunks.obj
 0002:00002a50       ??_C@_0CF@OJOFEIGO@AppPolicyGetProcessTerminationM@ 000000014005aa50     libucrt:winapi_thunks.obj
 0002:00002a80       ??_C@_0CF@NNDFDCOC@AppPolicyGetThreadInitializatio@ 000000014005aa80     libucrt:winapi_thunks.obj
 0002:00002ab0       ??_C@_0CE@OICFMIKE@AppPolicyGetShowDeveloperDiagno@ 000000014005aab0     libucrt:winapi_thunks.obj
 0002:00002ad8       ??_C@_0BL@ODDJNEDA@AppPolicyGetWindowingModel@ 000000014005aad8     libucrt:winapi_thunks.obj
 0002:00002b00       ??_C@_0BI@BKLFFAPO@SetThreadStackGuarantee@ 000000014005ab00     libucrt:winapi_thunks.obj
 0002:00002b20       ??_C@_0BC@JEAENNKH@SystemFunction036@ 000000014005ab20     libucrt:winapi_thunks.obj
 0002:00002bc0       ??_C@_03OEIAHPBN@INF@      000000014005abc0     libucrt:cvt.obj
 0002:00002bc4       ??_C@_03OJHLLCGB@inf@      000000014005abc4     libucrt:cvt.obj
 0002:00002bc8       ??_C@_03LKNCIKJB@NAN@      000000014005abc8     libucrt:cvt.obj
 0002:00002bcc       ??_C@_03LHCJEHON@nan@      000000014005abcc     libucrt:cvt.obj
 0002:00002bd0       ??_C@_09OFJJIMPC@NAN?$CISNAN?$CJ@ 000000014005abd0     libucrt:cvt.obj
 0002:00002be0       ??_C@_09IPFBKMDL@nan?$CIsnan?$CJ@ 000000014005abe0     libucrt:cvt.obj
 0002:00002bf0       ??_C@_08IKHNHAJ@NAN?$CIIND?$CJ@ 000000014005abf0     libucrt:cvt.obj
 0002:00002c00       ??_C@_08OFCDMILK@nan?$CIind?$CJ@ 000000014005ac00     libucrt:cvt.obj
 0002:00002c0c       ??_C@_05KLBDPFGC@e?$CL000@ 000000014005ac0c     libucrt:cvt.obj
 0002:00002c20       __lc_time_c                000000014005ac20     libucrt:nlsdata.obj
 0002:00002ee0       ??_C@_03KOEHGMDN@Sun@      000000014005aee0     libucrt:nlsdata.obj
 0002:00002ee4       ??_C@_03PDAGKDH@Mon@       000000014005aee4     libucrt:nlsdata.obj
 0002:00002ee8       ??_C@_03NAGEINEP@Tue@      000000014005aee8     libucrt:nlsdata.obj
 0002:00002eec       ??_C@_03MHOMLAJA@Wed@      000000014005aeec     libucrt:nlsdata.obj
 0002:00002ef0       ??_C@_03IOFIKPDN@Thu@      000000014005aef0     libucrt:nlsdata.obj
 0002:00002ef4       ??_C@_03IDIOELNC@Fri@      000000014005aef4     libucrt:nlsdata.obj
 0002:00002ef8       ??_C@_03FEFJNEK@Sat@       000000014005aef8     libucrt:nlsdata.obj
 0002:00002efc       ??_C@_06OOPIFAJ@Sunday@    000000014005aefc     libucrt:nlsdata.obj
 0002:00002f04       ??_C@_06JLEDEDGH@Monday@   000000014005af04     libucrt:nlsdata.obj
 0002:00002f10       ??_C@_07BAAGCFCM@Tuesday@  000000014005af10     libucrt:nlsdata.obj
 0002:00002f18       ??_C@_09DLIGFAKA@Wednesday@ 000000014005af18     libucrt:nlsdata.obj
 0002:00002f28       ??_C@_08HACCIKIA@Thursday@ 000000014005af28     libucrt:nlsdata.obj
 0002:00002f34       ??_C@_06JECMNKMI@Friday@   000000014005af34     libucrt:nlsdata.obj
 0002:00002f40       ??_C@_08INBOOONO@Saturday@ 000000014005af40     libucrt:nlsdata.obj
 0002:00002f4c       ??_C@_03JIHJHPIE@Jan@      000000014005af4c     libucrt:nlsdata.obj
 0002:00002f50       ??_C@_03HJBDCHOM@Feb@      000000014005af50     libucrt:nlsdata.obj
 0002:00002f54       ??_C@_03ODNJBKGA@Mar@      000000014005af54     libucrt:nlsdata.obj
 0002:00002f58       ??_C@_03LEOLGMJP@Apr@      000000014005af58     libucrt:nlsdata.obj
 0002:00002f5c       ??_C@_03CNMDKL@May@        000000014005af5c     libucrt:nlsdata.obj
 0002:00002f60       ??_C@_03IDFGHECI@Jun@      000000014005af60     libucrt:nlsdata.obj
 0002:00002f64       ??_C@_03LBGABGKK@Jul@      000000014005af64     libucrt:nlsdata.obj
 0002:00002f68       ??_C@_03IFJFEIGA@Aug@      000000014005af68     libucrt:nlsdata.obj
 0002:00002f6c       ??_C@_03GGCAPAJC@Sep@      000000014005af6c     libucrt:nlsdata.obj
 0002:00002f70       ??_C@_03BMAOKBAD@Oct@      000000014005af70     libucrt:nlsdata.obj
 0002:00002f74       ??_C@_03JPJOFNIA@Nov@      000000014005af74     libucrt:nlsdata.obj
 0002:00002f78       ??_C@_03MKABNOCG@Dec@      000000014005af78     libucrt:nlsdata.obj
 0002:00002f80       ??_C@_07CGJPFGJA@January@  000000014005af80     libucrt:nlsdata.obj
 0002:00002f88       ??_C@_08GNJGEPFN@February@ 000000014005af88     libucrt:nlsdata.obj
 0002:00002f94       ??_C@_05HPCKOFNC@March@    000000014005af94     libucrt:nlsdata.obj
 0002:00002f9c       ??_C@_05DMJDNLEJ@April@    000000014005af9c     libucrt:nlsdata.obj
 0002:00002fa4       ??_C@_04CNLMGBGM@June@     000000014005afa4     libucrt:nlsdata.obj
 0002:00002fac       ??_C@_04MIEPOIFP@July@     000000014005afac     libucrt:nlsdata.obj
 0002:00002fb4       ??_C@_06LBBHFDDG@August@   000000014005afb4     libucrt:nlsdata.obj
 0002:00002fc0       ??_C@_09BHHEALKD@September@ 000000014005afc0     libucrt:nlsdata.obj
 0002:00002fd0       ??_C@_07JJNFCEND@October@  000000014005afd0     libucrt:nlsdata.obj
 0002:00002fd8       ??_C@_08HCHEGEOA@November@ 000000014005afd8     libucrt:nlsdata.obj
 0002:00002fe8       ??_C@_08EDHMEBNP@December@ 000000014005afe8     libucrt:nlsdata.obj
 0002:00002ff4       ??_C@_02DEDBPAFC@AM@       000000014005aff4     libucrt:nlsdata.obj
 0002:00002ff8       ??_C@_02CJNFDJBF@PM@       000000014005aff8     libucrt:nlsdata.obj
 0002:00003000       ??_C@_08BPBNCDIB@MM?1dd?1yy@ 000000014005b000     libucrt:nlsdata.obj
 0002:00003010       ??_C@_0BE@CKGJFCPC@dddd?0?5MMMM?5dd?0?5yyyy@ 000000014005b010     libucrt:nlsdata.obj
 0002:00003028       ??_C@_08JCCMCCIL@HH?3mm?3ss@ 000000014005b028     libucrt:nlsdata.obj
 0002:00003038       ??_C@_17MBGCMIPB@?$AAS?$AAu?$AAn@ 000000014005b038     libucrt:nlsdata.obj
 0002:00003040       ??_C@_17KBOMKBF@?$AAM?$AAo?$AAn@ 000000014005b040     libucrt:nlsdata.obj
 0002:00003048       ??_C@_17BMKGEGOJ@?$AAT?$AAu?$AAe@ 000000014005b048     libucrt:nlsdata.obj
 0002:00003050       ??_C@_17CJEDCEPE@?$AAW?$AAe?$AAd@ 000000014005b050     libucrt:nlsdata.obj
 0002:00003058       ??_C@_17PDPHAADD@?$AAT?$AAh?$AAu@ 000000014005b058     libucrt:nlsdata.obj
 0002:00003060       ??_C@_17HFOLPPLP@?$AAF?$AAr?$AAi@ 000000014005b060     libucrt:nlsdata.obj
 0002:00003068       ??_C@_17GGIBDPIH@?$AAS?$AAa?$AAt@ 000000014005b068     libucrt:nlsdata.obj
 0002:00003070       ??_C@_1O@IHNHDHPB@?$AAS?$AAu?$AAn?$AAd?$AAa?$AAy@ 000000014005b070     libucrt:nlsdata.obj
 0002:00003080       ??_C@_1O@MMNBFLIA@?$AAM?$AAo?$AAn?$AAd?$AAa?$AAy@ 000000014005b080     libucrt:nlsdata.obj
 0002:00003090       ??_C@_1BA@ENFBFFEK@?$AAT?$AAu?$AAe?$AAs?$AAd?$AAa?$AAy@ 000000014005b090     libucrt:nlsdata.obj
 0002:000030a0       ??_C@_1BE@EBOGMDOH@?$AAW?$AAe?$AAd?$AAn?$AAe?$AAs?$AAd?$AAa?$AAy@ 000000014005b0a0     libucrt:nlsdata.obj
 0002:000030b8       ??_C@_1BC@HHMNLIHE@?$AAT?$AAh?$AAu?$AAr?$AAs?$AAd?$AAa?$AAy@ 000000014005b0b8     libucrt:nlsdata.obj
 0002:000030d0       ??_C@_1O@PDICJHAG@?$AAF?$AAr?$AAi?$AAd?$AAa?$AAy@ 000000014005b0d0     libucrt:nlsdata.obj
 0002:000030e0       ??_C@_1BC@ENMNNPAJ@?$AAS?$AAa?$AAt?$AAu?$AAr?$AAd?$AAa?$AAy@ 000000014005b0e0     libucrt:nlsdata.obj
 0002:000030f8       ??_C@_17DKNBKCHM@?$AAJ?$AAa?$AAn@ 000000014005b0f8     libucrt:nlsdata.obj
 0002:00003100       ??_C@_17LMDJEKJN@?$AAF?$AAe?$AAb@ 000000014005b100     libucrt:nlsdata.obj
 0002:00003108       ??_C@_17CKNLEDEC@?$AAM?$AAa?$AAr@ 000000014005b108     libucrt:nlsdata.obj
 0002:00003110       ??_C@_17LFPOIHDD@?$AAA?$AAp?$AAr@ 000000014005b110     libucrt:nlsdata.obj
 0002:00003118       ??_C@_17PNNKMEED@?$AAM?$AAa?$AAy@ 000000014005b118     libucrt:nlsdata.obj
 0002:00003120       ??_C@_17KCJGOCPB@?$AAJ?$AAu?$AAn@ 000000014005b120     libucrt:nlsdata.obj
 0002:00003128       ??_C@_17IJPCKHK@?$AAJ?$AAu?$AAl@ 000000014005b128     libucrt:nlsdata.obj
 0002:00003130       ??_C@_17ICPELBCN@?$AAA?$AAu?$AAg@ 000000014005b130     libucrt:nlsdata.obj
 0002:00003138       ??_C@_17HCHCOKMG@?$AAS?$AAe?$AAp@ 000000014005b138     libucrt:nlsdata.obj
 0002:00003140       ??_C@_17FNLKOI@?$AAO?$AAc?$AAt@ 000000014005b140     libucrt:nlsdata.obj
 0002:00003148       ??_C@_17BBDMLCIG@?$AAN?$AAo?$AAv@ 000000014005b148     libucrt:nlsdata.obj
 0002:00003150       ??_C@_17EGKACKIF@?$AAD?$AAe?$AAc@ 000000014005b150     libucrt:nlsdata.obj
 0002:00003158       ??_C@_1BA@EFMEIEBA@?$AAJ?$AAa?$AAn?$AAu?$AAa?$AAr?$AAy@ 000000014005b158     libucrt:nlsdata.obj
 0002:00003168       ??_C@_1BC@JGDDFFAM@?$AAF?$AAe?$AAb?$AAr?$AAu?$AAa?$AAr?$AAy@ 000000014005b168     libucrt:nlsdata.obj
 0002:00003180       ??_C@_1M@IKEENEDF@?$AAM?$AAa?$AAr?$AAc?$AAh@ 000000014005b180     libucrt:nlsdata.obj
 0002:00003190       ??_C@_1M@GJNLMHFD@?$AAA?$AAp?$AAr?$AAi?$AAl@ 000000014005b190     libucrt:nlsdata.obj
 0002:000031a0       ??_C@_19EPFLPGAP@?$AAJ?$AAu?$AAn?$AAe@ 000000014005b1a0     libucrt:nlsdata.obj
 0002:000031b0       ??_C@_19BIFMLPCD@?$AAJ?$AAu?$AAl?$AAy@ 000000014005b1b0     libucrt:nlsdata.obj
 0002:000031c0       ??_C@_1O@PAHLKOAC@?$AAA?$AAu?$AAg?$AAu?$AAs?$AAt@ 000000014005b1c0     libucrt:nlsdata.obj
 0002:000031d0       ??_C@_1BE@DKAAMBJL@?$AAS?$AAe?$AAp?$AAt?$AAe?$AAm?$AAb?$AAe?$AAr@ 000000014005b1d0     libucrt:nlsdata.obj
 0002:000031e8       ??_C@_1BA@EPANDLNG@?$AAO?$AAc?$AAt?$AAo?$AAb?$AAe?$AAr@ 000000014005b1e8     libucrt:nlsdata.obj
 0002:000031f8       ??_C@_1BC@BGLIFPF@?$AAN?$AAo?$AAv?$AAe?$AAm?$AAb?$AAe?$AAr@ 000000014005b1f8     libucrt:nlsdata.obj
 0002:00003210       ??_C@_1BC@FEMKIFH@?$AAD?$AAe?$AAc?$AAe?$AAm?$AAb?$AAe?$AAr@ 000000014005b210     libucrt:nlsdata.obj
 0002:00003224       ??_C@_15ODEHAHHF@?$AAA?$AAM@ 000000014005b224     libucrt:nlsdata.obj
 0002:0000322c       ??_C@_15CLMNNGEL@?$AAP?$AAM@ 000000014005b22c     libucrt:nlsdata.obj
 0002:00003238       ??_C@_1BC@IEBCMHCM@?$AAM?$AAM?$AA?1?$AAd?$AAd?$AA?1?$AAy?$AAy@ 000000014005b238     libucrt:nlsdata.obj
 0002:00003250       ??_C@_1CI@KNAKOEBC@?$AAd?$AAd?$AAd?$AAd?$AA?0?$AA?5?$AAM?$AAM?$AAM?$AAM?$AA?5?$AAd?$AAd?$AA?0?$AA?5@ 000000014005b250     libucrt:nlsdata.obj
 0002:00003278       ??_C@_1BC@GDGBMEMK@?$AAH?$AAH?$AA?3?$AAm?$AAm?$AA?3?$AAs?$AAs@ 000000014005b278     libucrt:nlsdata.obj
 0002:00003290       ??_C@_1M@BMHNFIME@?$AAe?$AAn?$AA?9?$AAU?$AAS@ 000000014005b290     libucrt:nlsdata.obj
 0002:000032c0       ??_C@_1M@HPNHIDJI@?$AAj?$AAa?$AA?9?$AAJ?$AAP@ 000000014005b2c0     libucrt:mbctype.obj
 0002:000032d0       ??_C@_1M@BIBDDEMK@?$AAz?$AAh?$AA?9?$AAC?$AAN@ 000000014005b2d0     libucrt:mbctype.obj
 0002:000032e0       ??_C@_1M@JLOOOEGK@?$AAk?$AAo?$AA?9?$AAK?$AAR@ 000000014005b2e0     libucrt:mbctype.obj
 0002:000032f0       ??_C@_1M@CLNBBOPM@?$AAz?$AAh?$AA?9?$AAT?$AAW@ 000000014005b2f0     libucrt:mbctype.obj
 0002:00003300       __newctype                 000000014005b300     libucrt:ctype.obj
 0002:00003600       __newclmap                 000000014005b600     libucrt:ctype.obj
 0002:00003780       __newcumap                 000000014005b780     libucrt:ctype.obj
 0002:00003900       _wctype                    000000014005b900     libucrt:ctype.obj
 0002:00003b10       __acrt_rg_language         000000014005bb10     libucrt:get_qualified_locale.obj
 0002:00003f20       __acrt_rg_language_count   000000014005bf20     libucrt:get_qualified_locale.obj
 0002:00003f30       __acrt_rg_country          000000014005bf30     libucrt:get_qualified_locale.obj
 0002:000040a0       __acrt_rg_country_count    000000014005c0a0     libucrt:get_qualified_locale.obj
 0002:000040a8       ??_C@_1BC@LLOKLNP@?$AAa?$AAm?$AAe?$AAr?$AAi?$AAc?$AAa?$AAn@ 000000014005c0a8     libucrt:get_qualified_locale.obj
 0002:000040c0       ??_C@_1CC@HEIGCDGG@?$AAa?$AAm?$AAe?$AAr?$AAi?$AAc?$AAa?$AAn?$AA?5?$AAe?$AAn?$AAg?$AAl?$AAi?$AAs@ 000000014005c0c0     libucrt:get_qualified_locale.obj
 0002:000040e8       ??_C@_1CC@IHCNOMIN@?$AAa?$AAm?$AAe?$AAr?$AAi?$AAc?$AAa?$AAn?$AA?9?$AAe?$AAn?$AAg?$AAl?$AAi?$AAs@ 000000014005c0e8     libucrt:get_qualified_locale.obj
 0002:00004110       ??_C@_1BG@GKAGPCGG@?$AAa?$AAu?$AAs?$AAt?$AAr?$AAa?$AAl?$AAi?$AAa?$AAn@ 000000014005c110     libucrt:get_qualified_locale.obj
 0002:00004128       ??_C@_1BA@GMENCENF@?$AAb?$AAe?$AAl?$AAg?$AAi?$AAa?$AAn@ 000000014005c128     libucrt:get_qualified_locale.obj
 0002:00004138       ??_C@_1BC@PJMIIAAN@?$AAc?$AAa?$AAn?$AAa?$AAd?$AAi?$AAa?$AAn@ 000000014005c138     libucrt:get_qualified_locale.obj
 0002:00004150       ??_C@_17NOIMNFBF@?$AAc?$AAh?$AAh@ 000000014005c150     libucrt:get_qualified_locale.obj
 0002:00004158       ??_C@_17GGDALCHA@?$AAc?$AAh?$AAi@ 000000014005c158     libucrt:get_qualified_locale.obj
 0002:00004160       ??_C@_1BA@NPNJKIBL@?$AAc?$AAh?$AAi?$AAn?$AAe?$AAs?$AAe@ 000000014005c160     libucrt:get_qualified_locale.obj
 0002:00004170       ??_C@_1CC@DINBAMMJ@?$AAc?$AAh?$AAi?$AAn?$AAe?$AAs?$AAe?$AA?9?$AAh?$AAo?$AAn?$AAg?$AAk?$AAo?$AAn@ 000000014005c170     libucrt:get_qualified_locale.obj
 0002:00004198       ??_C@_1CG@IOBJPACO@?$AAc?$AAh?$AAi?$AAn?$AAe?$AAs?$AAe?$AA?9?$AAs?$AAi?$AAm?$AAp?$AAl?$AAi?$AAf@ 000000014005c198     libucrt:get_qualified_locale.obj
 0002:000041c0       ??_C@_1CE@GAJNDCKG@?$AAc?$AAh?$AAi?$AAn?$AAe?$AAs?$AAe?$AA?9?$AAs?$AAi?$AAn?$AAg?$AAa?$AAp?$AAo@ 000000014005c1c0     libucrt:get_qualified_locale.obj
 0002:000041e8       ??_C@_1CI@PAJPIOOD@?$AAc?$AAh?$AAi?$AAn?$AAe?$AAs?$AAe?$AA?9?$AAt?$AAr?$AAa?$AAd?$AAi?$AAt?$AAi@ 000000014005c1e8     libucrt:get_qualified_locale.obj
 0002:00004210       ??_C@_1BM@NILJBMMD@?$AAd?$AAu?$AAt?$AAc?$AAh?$AA?9?$AAb?$AAe?$AAl?$AAg?$AAi?$AAa?$AAn@ 000000014005c210     libucrt:get_qualified_locale.obj
 0002:00004230       ??_C@_1CC@OOJPJNEJ@?$AAe?$AAn?$AAg?$AAl?$AAi?$AAs?$AAh?$AA?9?$AAa?$AAm?$AAe?$AAr?$AAi?$AAc?$AAa@ 000000014005c230     libucrt:get_qualified_locale.obj
 0002:00004258       ??_C@_1BI@IOLFEEM@?$AAe?$AAn?$AAg?$AAl?$AAi?$AAs?$AAh?$AA?9?$AAa?$AAu?$AAs@ 000000014005c258     libucrt:get_qualified_locale.obj
 0002:00004270       ??_C@_1BO@HFFNLENJ@?$AAe?$AAn?$AAg?$AAl?$AAi?$AAs?$AAh?$AA?9?$AAb?$AAe?$AAl?$AAi?$AAz?$AAe@ 000000014005c270     libucrt:get_qualified_locale.obj
 0002:00004290       ??_C@_1BI@HAPKJMPO@?$AAe?$AAn?$AAg?$AAl?$AAi?$AAs?$AAh?$AA?9?$AAc?$AAa?$AAn@ 000000014005c290     libucrt:get_qualified_locale.obj
 0002:000042a8       ??_C@_1CE@HLNDMIOJ@?$AAe?$AAn?$AAg?$AAl?$AAi?$AAs?$AAh?$AA?9?$AAc?$AAa?$AAr?$AAi?$AAb?$AAb?$AAe@ 000000014005c2a8     libucrt:get_qualified_locale.obj
 0002:000042d0       ??_C@_1BI@LDHJHHAC@?$AAe?$AAn?$AAg?$AAl?$AAi?$AAs?$AAh?$AA?9?$AAi?$AAr?$AAe@ 000000014005c2d0     libucrt:get_qualified_locale.obj
 0002:000042e8       ??_C@_1CA@NJMMCFOC@?$AAe?$AAn?$AAg?$AAl?$AAi?$AAs?$AAh?$AA?9?$AAj?$AAa?$AAm?$AAa?$AAi?$AAc?$AAa@ 000000014005c2e8     libucrt:get_qualified_locale.obj
 0002:00004308       ??_C@_1BG@BHJEBBGG@?$AAe?$AAn?$AAg?$AAl?$AAi?$AAs?$AAh?$AA?9?$AAn?$AAz@ 000000014005c308     libucrt:get_qualified_locale.obj
 0002:00004320       ??_C@_1CK@FGOEJJCO@?$AAe?$AAn?$AAg?$AAl?$AAi?$AAs?$AAh?$AA?9?$AAs?$AAo?$AAu?$AAt?$AAh?$AA?5?$AAa@ 000000014005c320     libucrt:get_qualified_locale.obj
 0002:00004350       ??_C@_1DE@PDBJPCJ@?$AAe?$AAn?$AAg?$AAl?$AAi?$AAs?$AAh?$AA?9?$AAt?$AAr?$AAi?$AAn?$AAi?$AAd?$AAa@ 000000014005c350     libucrt:get_qualified_locale.obj
 0002:00004388       ??_C@_1BG@JGCANDME@?$AAe?$AAn?$AAg?$AAl?$AAi?$AAs?$AAh?$AA?9?$AAu?$AAk@ 000000014005c388     libucrt:get_qualified_locale.obj
 0002:000043a0       ??_C@_1BG@DINKMLE@?$AAe?$AAn?$AAg?$AAl?$AAi?$AAs?$AAh?$AA?9?$AAu?$AAs@ 000000014005c3a0     libucrt:get_qualified_locale.obj
 0002:000043b8       ??_C@_1BI@NMFDBHJE@?$AAe?$AAn?$AAg?$AAl?$AAi?$AAs?$AAh?$AA?9?$AAu?$AAs?$AAa@ 000000014005c3b8     libucrt:get_qualified_locale.obj
 0002:000043d0       ??_C@_1BO@OIHKJKII@?$AAf?$AAr?$AAe?$AAn?$AAc?$AAh?$AA?9?$AAb?$AAe?$AAl?$AAg?$AAi?$AAa?$AAn@ 000000014005c3d0     libucrt:get_qualified_locale.obj
 0002:000043f0       ??_C@_1CA@NKAELJKI@?$AAf?$AAr?$AAe?$AAn?$AAc?$AAh?$AA?9?$AAc?$AAa?$AAn?$AAa?$AAd?$AAi?$AAa?$AAn@ 000000014005c3f0     libucrt:get_qualified_locale.obj
 0002:00004410       ??_C@_1CE@MGKCNLGN@?$AAf?$AAr?$AAe?$AAn?$AAc?$AAh?$AA?9?$AAl?$AAu?$AAx?$AAe?$AAm?$AAb?$AAo?$AAu@ 000000014005c410     libucrt:get_qualified_locale.obj
 0002:00004438       ??_C@_1BK@CEGEAILM@?$AAf?$AAr?$AAe?$AAn?$AAc?$AAh?$AA?9?$AAs?$AAw?$AAi?$AAs?$AAs@ 000000014005c438     libucrt:get_qualified_locale.obj
 0002:00004458       ??_C@_1CA@PAFKEOCC@?$AAg?$AAe?$AAr?$AAm?$AAa?$AAn?$AA?9?$AAa?$AAu?$AAs?$AAt?$AAr?$AAi?$AAa?$AAn@ 000000014005c458     libucrt:get_qualified_locale.obj
 0002:00004478       ??_C@_1CI@HCFHGOFD@?$AAg?$AAe?$AAr?$AAm?$AAa?$AAn?$AA?9?$AAl?$AAi?$AAc?$AAh?$AAt?$AAe?$AAn?$AAs@ 000000014005c478     libucrt:get_qualified_locale.obj
 0002:000044a0       ??_C@_1CE@FEDDNPDG@?$AAg?$AAe?$AAr?$AAm?$AAa?$AAn?$AA?9?$AAl?$AAu?$AAx?$AAe?$AAm?$AAb?$AAo?$AAu@ 000000014005c4a0     libucrt:get_qualified_locale.obj
 0002:000044c8       ??_C@_1BK@LIMINNMN@?$AAg?$AAe?$AAr?$AAm?$AAa?$AAn?$AA?9?$AAs?$AAw?$AAi?$AAs?$AAs@ 000000014005c4c8     libucrt:get_qualified_locale.obj
 0002:000044e8       ??_C@_1BM@LGMDBEPD@?$AAi?$AAr?$AAi?$AAs?$AAh?$AA?9?$AAe?$AAn?$AAg?$AAl?$AAi?$AAs?$AAh@ 000000014005c4e8     libucrt:get_qualified_locale.obj
 0002:00004508       ??_C@_1BM@NNCFBAEE@?$AAi?$AAt?$AAa?$AAl?$AAi?$AAa?$AAn?$AA?9?$AAs?$AAw?$AAi?$AAs?$AAs@ 000000014005c508     libucrt:get_qualified_locale.obj
 0002:00004528       ??_C@_1BE@FEDJNPIB@?$AAn?$AAo?$AAr?$AAw?$AAe?$AAg?$AAi?$AAa?$AAn@ 000000014005c528     libucrt:get_qualified_locale.obj
 0002:00004540       ??_C@_1CC@CILKDEIE@?$AAn?$AAo?$AAr?$AAw?$AAe?$AAg?$AAi?$AAa?$AAn?$AA?9?$AAb?$AAo?$AAk?$AAm?$AAa@ 000000014005c540     libucrt:get_qualified_locale.obj
 0002:00004568       ??_C@_1CE@DHMMHEPL@?$AAn?$AAo?$AAr?$AAw?$AAe?$AAg?$AAi?$AAa?$AAn?$AA?9?$AAn?$AAy?$AAn?$AAo?$AAr@ 000000014005c568     libucrt:get_qualified_locale.obj
 0002:00004590       ??_C@_1CK@OPNMHECD@?$AAp?$AAo?$AAr?$AAt?$AAu?$AAg?$AAu?$AAe?$AAs?$AAe?$AA?9?$AAb?$AAr?$AAa?$AAz@ 000000014005c590     libucrt:get_qualified_locale.obj
 0002:000045c0       ??_C@_1CE@KEEHCDB@?$AAs?$AAp?$AAa?$AAn?$AAi?$AAs?$AAh?$AA?9?$AAa?$AAr?$AAg?$AAe?$AAn?$AAt?$AAi@ 000000014005c5c0     libucrt:get_qualified_locale.obj
 0002:000045e8       ??_C@_1CA@GIAOLHJD@?$AAs?$AAp?$AAa?$AAn?$AAi?$AAs?$AAh?$AA?9?$AAb?$AAo?$AAl?$AAi?$AAv?$AAi?$AAa@ 000000014005c5e8     libucrt:get_qualified_locale.obj
 0002:00004608       ??_C@_1BM@OJNDFNPD@?$AAs?$AAp?$AAa?$AAn?$AAi?$AAs?$AAh?$AA?9?$AAc?$AAh?$AAi?$AAl?$AAe@ 000000014005c608     libucrt:get_qualified_locale.obj
 0002:00004628       ??_C@_1CC@OCOLPALL@?$AAs?$AAp?$AAa?$AAn?$AAi?$AAs?$AAh?$AA?9?$AAc?$AAo?$AAl?$AAo?$AAm?$AAb?$AAi@ 000000014005c628     libucrt:get_qualified_locale.obj
 0002:00004650       ??_C@_1CG@BPOFMKBB@?$AAs?$AAp?$AAa?$AAn?$AAi?$AAs?$AAh?$AA?9?$AAc?$AAo?$AAs?$AAt?$AAa?$AA?5?$AAr@ 000000014005c650     libucrt:get_qualified_locale.obj
 0002:00004678       ??_C@_1DG@IGOBAPBB@?$AAs?$AAp?$AAa?$AAn?$AAi?$AAs?$AAh?$AA?9?$AAd?$AAo?$AAm?$AAi?$AAn?$AAi?$AAc@ 000000014005c678     libucrt:get_qualified_locale.obj
 0002:000046b0       ??_C@_1CA@JHAPGEGI@?$AAs?$AAp?$AAa?$AAn?$AAi?$AAs?$AAh?$AA?9?$AAe?$AAc?$AAu?$AAa?$AAd?$AAo?$AAr@ 000000014005c6b0     libucrt:get_qualified_locale.obj
 0002:000046d0       ??_C@_1CI@LAPALJPP@?$AAs?$AAp?$AAa?$AAn?$AAi?$AAs?$AAh?$AA?9?$AAe?$AAl?$AA?5?$AAs?$AAa?$AAl?$AAv@ 000000014005c6d0     libucrt:get_qualified_locale.obj
 0002:000046f8       ??_C@_1CE@PDGBOFOM@?$AAs?$AAp?$AAa?$AAn?$AAi?$AAs?$AAh?$AA?9?$AAg?$AAu?$AAa?$AAt?$AAe?$AAm?$AAa@ 000000014005c6f8     libucrt:get_qualified_locale.obj
 0002:00004720       ??_C@_1CC@NBEBAODI@?$AAs?$AAp?$AAa?$AAn?$AAi?$AAs?$AAh?$AA?9?$AAh?$AAo?$AAn?$AAd?$AAu?$AAr?$AAa@ 000000014005c720     libucrt:get_qualified_locale.obj
 0002:00004748       ??_C@_1CA@LLKGHBMF@?$AAs?$AAp?$AAa?$AAn?$AAi?$AAs?$AAh?$AA?9?$AAm?$AAe?$AAx?$AAi?$AAc?$AAa?$AAn@ 000000014005c748     libucrt:get_qualified_locale.obj
 0002:00004768       ??_C@_1BO@LKNDOIGD@?$AAs?$AAp?$AAa?$AAn?$AAi?$AAs?$AAh?$AA?9?$AAm?$AAo?$AAd?$AAe?$AAr?$AAn@ 000000014005c768     libucrt:get_qualified_locale.obj
 0002:00004788       ??_C@_1CE@NMDMOEEB@?$AAs?$AAp?$AAa?$AAn?$AAi?$AAs?$AAh?$AA?9?$AAn?$AAi?$AAc?$AAa?$AAr?$AAa?$AAg@ 000000014005c788     libucrt:get_qualified_locale.obj
 0002:000047b0       ??_C@_1BO@LLCBEJGB@?$AAs?$AAp?$AAa?$AAn?$AAi?$AAs?$AAh?$AA?9?$AAp?$AAa?$AAn?$AAa?$AAm?$AAa@ 000000014005c7b0     libucrt:get_qualified_locale.obj
 0002:000047d0       ??_C@_1CC@FKPGGIHO@?$AAs?$AAp?$AAa?$AAn?$AAi?$AAs?$AAh?$AA?9?$AAp?$AAa?$AAr?$AAa?$AAg?$AAu?$AAa@ 000000014005c7d0     libucrt:get_qualified_locale.obj
 0002:000047f8       ??_C@_1BK@CDEIHOOP@?$AAs?$AAp?$AAa?$AAn?$AAi?$AAs?$AAh?$AA?9?$AAp?$AAe?$AAr?$AAu@ 000000014005c7f8     libucrt:get_qualified_locale.obj
 0002:00004818       ??_C@_1CI@GAHAKKGP@?$AAs?$AAp?$AAa?$AAn?$AAi?$AAs?$AAh?$AA?9?$AAp?$AAu?$AAe?$AAr?$AAt?$AAo?$AA?5@ 000000014005c818     libucrt:get_qualified_locale.obj
 0002:00004840       ??_C@_1CA@NKJBCAGP@?$AAs?$AAp?$AAa?$AAn?$AAi?$AAs?$AAh?$AA?9?$AAu?$AAr?$AAu?$AAg?$AAu?$AAa?$AAy@ 000000014005c840     libucrt:get_qualified_locale.obj
 0002:00004860       ??_C@_1CE@ODILCONM@?$AAs?$AAp?$AAa?$AAn?$AAi?$AAs?$AAh?$AA?9?$AAv?$AAe?$AAn?$AAe?$AAz?$AAu?$AAe@ 000000014005c860     libucrt:get_qualified_locale.obj
 0002:00004888       ??_C@_1CA@OBNMCGFO@?$AAs?$AAw?$AAe?$AAd?$AAi?$AAs?$AAh?$AA?9?$AAf?$AAi?$AAn?$AAl?$AAa?$AAn?$AAd@ 000000014005c888     libucrt:get_qualified_locale.obj
 0002:000048a8       ??_C@_1M@PIPDDPPI@?$AAs?$AAw?$AAi?$AAs?$AAs@ 000000014005c8a8     libucrt:get_qualified_locale.obj
 0002:000048b4       ??_C@_15PJPFLCCM@?$AAu?$AAk@ 000000014005c8b4     libucrt:get_qualified_locale.obj
 0002:000048bc       ??_C@_15GMFIMNFM@?$AAu?$AAs@ 000000014005c8bc     libucrt:get_qualified_locale.obj
 0002:000048c8       ??_C@_17HAEBFAGL@?$AAu?$AAs?$AAa@ 000000014005c8c8     libucrt:get_qualified_locale.obj
 0002:000048d0       ??_C@_1BA@DPFJEPHB@?$AAa?$AAm?$AAe?$AAr?$AAi?$AAc?$AAa@ 000000014005c8d0     libucrt:get_qualified_locale.obj
 0002:000048e0       ??_C@_1BA@ELOGGFK@?$AAb?$AAr?$AAi?$AAt?$AAa?$AAi?$AAn@ 000000014005c8e0     libucrt:get_qualified_locale.obj
 0002:000048f0       ??_C@_1M@GHBGIGDA@?$AAc?$AAh?$AAi?$AAn?$AAa@ 000000014005c8f0     libucrt:get_qualified_locale.obj
 0002:00004900       ??_C@_1M@NCHEJOPO@?$AAc?$AAz?$AAe?$AAc?$AAh@ 000000014005c900     libucrt:get_qualified_locale.obj
 0002:00004910       ??_C@_1BA@BKPAPBLA@?$AAe?$AAn?$AAg?$AAl?$AAa?$AAn?$AAd@ 000000014005c910     libucrt:get_qualified_locale.obj
 0002:00004920       ??_C@_1BM@HKBCKIPC@?$AAg?$AAr?$AAe?$AAa?$AAt?$AA?5?$AAb?$AAr?$AAi?$AAt?$AAa?$AAi?$AAn@ 000000014005c920     libucrt:get_qualified_locale.obj
 0002:00004940       ??_C@_1BA@PPCHPGJB@?$AAh?$AAo?$AAl?$AAl?$AAa?$AAn?$AAd@ 000000014005c940     libucrt:get_qualified_locale.obj
 0002:00004950       ??_C@_1BE@JBMPEGDG@?$AAh?$AAo?$AAn?$AAg?$AA?9?$AAk?$AAo?$AAn?$AAg@ 000000014005c950     libucrt:get_qualified_locale.obj
 0002:00004968       ??_C@_1BI@KOELBBPJ@?$AAn?$AAe?$AAw?$AA?9?$AAz?$AAe?$AAa?$AAl?$AAa?$AAn?$AAd@ 000000014005c968     libucrt:get_qualified_locale.obj
 0002:00004980       ??_C@_15HIEBHAIO@?$AAn?$AAz@ 000000014005c980     libucrt:get_qualified_locale.obj
 0002:00004988       ??_C@_1BC@CHBCPFPI@?$AAp?$AAr?$AA?5?$AAc?$AAh?$AAi?$AAn?$AAa@ 000000014005c988     libucrt:get_qualified_locale.obj
 0002:000049a0       ??_C@_1BC@JAOIIFKD@?$AAp?$AAr?$AA?9?$AAc?$AAh?$AAi?$AAn?$AAa@ 000000014005c9a0     libucrt:get_qualified_locale.obj
 0002:000049b8       ??_C@_1BI@BEHPPHKC@?$AAp?$AAu?$AAe?$AAr?$AAt?$AAo?$AA?9?$AAr?$AAi?$AAc?$AAo@ 000000014005c9b8     libucrt:get_qualified_locale.obj
 0002:000049d0       ??_C@_1O@PAEOFKDI@?$AAs?$AAl?$AAo?$AAv?$AAa?$AAk@ 000000014005c9d0     libucrt:get_qualified_locale.obj
 0002:000049e0       ??_C@_1BK@FIHMCKAM@?$AAs?$AAo?$AAu?$AAt?$AAh?$AA?5?$AAa?$AAf?$AAr?$AAi?$AAc?$AAa@ 000000014005c9e0     libucrt:get_qualified_locale.obj
 0002:00004a00       ??_C@_1BI@NAEOODKB@?$AAs?$AAo?$AAu?$AAt?$AAh?$AA?5?$AAk?$AAo?$AAr?$AAe?$AAa@ 000000014005ca00     libucrt:get_qualified_locale.obj
 0002:00004a18       ??_C@_1BK@FBDGGIFF@?$AAs?$AAo?$AAu?$AAt?$AAh?$AA?9?$AAa?$AAf?$AAr?$AAi?$AAc?$AAa@ 000000014005ca18     libucrt:get_qualified_locale.obj
 0002:00004a38       ??_C@_1BI@GHLEJDPK@?$AAs?$AAo?$AAu?$AAt?$AAh?$AA?9?$AAk?$AAo?$AAr?$AAe?$AAa@ 000000014005ca38     libucrt:get_qualified_locale.obj
 0002:00004a50       ??_C@_1CE@PLHLOMJF@?$AAt?$AAr?$AAi?$AAn?$AAi?$AAd?$AAa?$AAd?$AA?5?$AA?$CG?$AA?5?$AAt?$AAo?$AAb?$AAa@ 000000014005ca50     libucrt:get_qualified_locale.obj
 0002:00004a78       ??_C@_1BO@MODIMHHI@?$AAu?$AAn?$AAi?$AAt?$AAe?$AAd?$AA?9?$AAk?$AAi?$AAn?$AAg?$AAd?$AAo?$AAm@ 000000014005ca78     libucrt:get_qualified_locale.obj
 0002:00004a98       ??_C@_1BM@FFHJONBJ@?$AAu?$AAn?$AAi?$AAt?$AAe?$AAd?$AA?9?$AAs?$AAt?$AAa?$AAt?$AAe?$AAs@ 000000014005ca98     libucrt:get_qualified_locale.obj
 0002:00004ab8       ??_C@_19MPDNHKDG@?$AAu?$AAt?$AAf?$AA8@ 000000014005cab8     libucrt:get_qualified_locale.obj
 0002:00004ac8       ??_C@_17DNCLJFIF@?$AAA?$AAC?$AAP@ 000000014005cac8     libucrt:get_qualified_locale.obj
 0002:00004ad0       ??_C@_1M@FPEIIFAM@?$AAu?$AAt?$AAf?$AA?9?$AA8@ 000000014005cad0     libucrt:get_qualified_locale.obj
 0002:00004ae0       ??_C@_17CIKBIHLH@?$AAO?$AAC?$AAP@ 000000014005cae0     libucrt:get_qualified_locale.obj
 0002:00004ae8       __rglangidNotDefault       000000014005cae8     libucrt:getqloc_downlevel.obj
 0002:00005940       ??_C@_15EMKDOKLE@?$AAa?$AAr@ 000000014005d940     libucrt:lcidtoname_downlevel.obj
 0002:00005948       ??_C@_15KNPADPLH@?$AAb?$AAg@ 000000014005d948     libucrt:lcidtoname_downlevel.obj
 0002:00005950       ??_C@_15EDMHLDMO@?$AAc?$AAa@ 000000014005d950     libucrt:lcidtoname_downlevel.obj
 0002:00005958       ??_C@_1O@BPEAJADD@?$AAz?$AAh?$AA?9?$AAC?$AAH?$AAS@ 000000014005d958     libucrt:lcidtoname_downlevel.obj
 0002:00005968       ??_C@_15LJNHCMNK@?$AAc?$AAs@ 000000014005d968     libucrt:lcidtoname_downlevel.obj
 0002:00005970       ??_C@_15FOMCIDHG@?$AAd?$AAa@ 000000014005d970     libucrt:lcidtoname_downlevel.obj
 0002:00005978       ??_C@_15NBKABECB@?$AAd?$AAe@ 000000014005d978     libucrt:lcidtoname_downlevel.obj
 0002:00005980       ??_C@_15GHPEIIAO@?$AAe?$AAl@ 000000014005d980     libucrt:lcidtoname_downlevel.obj
 0002:00005988       ??_C@_15MNPNEAIF@?$AAe?$AAn@ 000000014005d988     libucrt:lcidtoname_downlevel.obj
 0002:00005990       ??_C@_15GPIOMPMH@?$AAe?$AAs@ 000000014005d990     libucrt:lcidtoname_downlevel.obj
 0002:00005998       ??_C@_15NGLOAKJC@?$AAf?$AAi@ 000000014005d998     libucrt:lcidtoname_downlevel.obj
 0002:000059a0       ??_C@_15FBKGNKAM@?$AAf?$AAr@ 000000014005d9a0     libucrt:lcidtoname_downlevel.obj
 0002:000059a8       ??_C@_15KGGCNEFK@?$AAh?$AAe@ 000000014005d9a8     libucrt:lcidtoname_downlevel.obj
 0002:000059b0       ??_C@_15PGHLIDMF@?$AAh?$AAu@ 000000014005d9b0     libucrt:lcidtoname_downlevel.obj
 0002:000059b8       ??_C@_15BIEMAPLM@?$AAi?$AAs@ 000000014005d9b8     libucrt:lcidtoname_downlevel.obj
 0002:000059c0       ??_C@_15IFJLDHAF@?$AAi?$AAt@ 000000014005d9c0     libucrt:lcidtoname_downlevel.obj
 0002:000059c8       ??_C@_15GEMIOCAG@?$AAj?$AAa@ 000000014005d9c8     libucrt:lcidtoname_downlevel.obj
 0002:000059d0       ??_C@_15EPELEGJA@?$AAk?$AAo@ 000000014005d9d0     libucrt:lcidtoname_downlevel.obj
 0002:000059d8       ??_C@_15NDDHIMN@?$AAn?$AAl@ 000000014005d9d8     libucrt:lcidtoname_downlevel.obj
 0002:000059e0       ??_C@_15BPIGNHCD@?$AAn?$AAo@ 000000014005d9e0     libucrt:lcidtoname_downlevel.obj
 0002:000059e8       ??_C@_15DEOPBLCG@?$AAp?$AAl@ 000000014005d9e8     libucrt:lcidtoname_downlevel.obj
 0002:000059f0       ??_C@_15KBECGEFG@?$AAp?$AAt@ 000000014005d9f0     libucrt:lcidtoname_downlevel.obj
 0002:000059f8       ??_C@_15GLJCBFMD@?$AAr?$AAo@ 000000014005d9f8     libucrt:lcidtoname_downlevel.obj
 0002:00005a00       ??_C@_15FEDGKCDI@?$AAr?$AAu@ 000000014005da00     libucrt:lcidtoname_downlevel.obj
 0002:00005a08       ??_C@_15GLKMLLHM@?$AAh?$AAr@ 000000014005da08     libucrt:lcidtoname_downlevel.obj
 0002:00005a10       ??_C@_15CPKMFBDB@?$AAs?$AAk@ 000000014005da10     libucrt:lcidtoname_downlevel.obj
 0002:00005a18       ??_C@_15BAAIOGMK@?$AAs?$AAq@ 000000014005da18     libucrt:lcidtoname_downlevel.obj
 0002:00005a20       ??_C@_15INNPNOHD@?$AAs?$AAv@ 000000014005da20     libucrt:lcidtoname_downlevel.obj
 0002:00005a28       ??_C@_15CABMMOGH@?$AAt?$AAh@ 000000014005da28     libucrt:lcidtoname_downlevel.obj
 0002:00005a30       ??_C@_15BPLIHJJM@?$AAt?$AAr@ 000000014005da30     libucrt:lcidtoname_downlevel.obj
 0002:00005a38       ??_C@_15NEOEKKDJ@?$AAu?$AAr@ 000000014005da38     libucrt:lcidtoname_downlevel.obj
 0002:00005a40       ??_C@_15NFICGAJK@?$AAi?$AAd@ 000000014005da40     libucrt:lcidtoname_downlevel.obj
 0002:00005a48       ??_C@_15HPJPHDM@?$AAb?$AAe@ 000000014005da48     libucrt:lcidtoname_downlevel.obj
 0002:00005a50       ??_C@_15LCHLGJII@?$AAs?$AAl@ 000000014005da50     libucrt:lcidtoname_downlevel.obj
 0002:00005a58       ??_C@_15PCFJPHHO@?$AAe?$AAt@ 000000014005da58     libucrt:lcidtoname_downlevel.obj
 0002:00005a60       ??_C@_15HPFPGODN@?$AAl?$AAv@ 000000014005da60     libucrt:lcidtoname_downlevel.obj
 0002:00005a68       ??_C@_15NFFGKGLG@?$AAl?$AAt@ 000000014005da68     libucrt:lcidtoname_downlevel.obj
 0002:00005a70       ??_C@_15BDAKCCHN@?$AAf?$AAa@ 000000014005da70     libucrt:lcidtoname_downlevel.obj
 0002:00005a78       ??_C@_15NFGIAIAJ@?$AAv?$AAi@ 000000014005da78     libucrt:lcidtoname_downlevel.obj
 0002:00005a80       ??_C@_15LMKNDMHN@?$AAh?$AAy@ 000000014005da80     libucrt:lcidtoname_downlevel.obj
 0002:00005a88       ??_C@_15IJBHMCFL@?$AAa?$AAz@ 000000014005da88     libucrt:lcidtoname_downlevel.obj
 0002:00005a90       ??_C@_15EKOFJABL@?$AAe?$AAu@ 000000014005da90     libucrt:lcidtoname_downlevel.obj
 0002:00005a98       ??_C@_15BGHADCNK@?$AAm?$AAk@ 000000014005da98     libucrt:lcidtoname_downlevel.obj
 0002:00005aa0       ??_C@_15JDNICKHM@?$AAa?$AAf@ 000000014005daa0     libucrt:lcidtoname_downlevel.obj
 0002:00005aa8       ??_C@_15KPJEDBKD@?$AAk?$AAa@ 000000014005daa8     libucrt:lcidtoname_downlevel.obj
 0002:00005ab0       ??_C@_15PDNFFFEO@?$AAf?$AAo@ 000000014005dab0     libucrt:lcidtoname_downlevel.obj
 0002:00005ab8       ??_C@_15OMLEGLOC@?$AAh?$AAi@ 000000014005dab8     libucrt:lcidtoname_downlevel.obj
 0002:00005ac0       ??_C@_15IDNNENKK@?$AAm?$AAs@ 000000014005dac0     libucrt:lcidtoname_downlevel.obj
 0002:00005ac8       ??_C@_15MACJNBMH@?$AAk?$AAk@ 000000014005dac8     libucrt:lcidtoname_downlevel.obj
 0002:00005ad0       ??_C@_15DKDJEOND@?$AAk?$AAy@ 000000014005dad0     libucrt:lcidtoname_downlevel.obj
 0002:00005ad8       ??_C@_15DFGDLJBG@?$AAs?$AAw@ 000000014005dad8     libucrt:lcidtoname_downlevel.obj
 0002:00005ae0       ??_C@_15BBFAICNG@?$AAu?$AAz@ 000000014005dae0     libucrt:lcidtoname_downlevel.obj
 0002:00005ae8       ??_C@_15DKNDCGEA@?$AAt?$AAt@ 000000014005dae8     libucrt:lcidtoname_downlevel.obj
 0002:00005af0       ??_C@_15MGIFMDPL@?$AAp?$AAa@ 000000014005daf0     libucrt:lcidtoname_downlevel.obj
 0002:00005af8       ??_C@_15HCNDBBA@?$AAg?$AAu@ 000000014005daf8     libucrt:lcidtoname_downlevel.obj
 0002:00005b00       ??_C@_15FNBEIBON@?$AAt?$AAa@ 000000014005db00     libucrt:lcidtoname_downlevel.obj
 0002:00005b08       ??_C@_15NCHGBGLK@?$AAt?$AAe@ 000000014005db08     libucrt:lcidtoname_downlevel.obj
 0002:00005b10       ??_C@_15PHPHCBPF@?$AAk?$AAn@ 000000014005db10     libucrt:lcidtoname_downlevel.obj
 0002:00005b18       ??_C@_15DLGBCKMP@?$AAm?$AAr@ 000000014005db18     libucrt:lcidtoname_downlevel.obj
 0002:00005b20       ??_C@_15EABBLBFF@?$AAs?$AAa@ 000000014005db20     libucrt:lcidtoname_downlevel.obj
 0002:00005b28       ??_C@_15CBKOMCOI@?$AAm?$AAn@ 000000014005db28     libucrt:lcidtoname_downlevel.obj
 0002:00005b30       ??_C@_15CKDMCJAF@?$AAg?$AAl@ 000000014005db30     libucrt:lcidtoname_downlevel.obj
 0002:00005b38       ??_C@_17CNJFBPG@?$AAk?$AAo?$AAk@ 000000014005db38     libucrt:lcidtoname_downlevel.obj
 0002:00005b40       ??_C@_17FFBJICPL@?$AAs?$AAy?$AAr@ 000000014005db40     libucrt:lcidtoname_downlevel.obj
 0002:00005b48       ??_C@_17KPNDCPAF@?$AAd?$AAi?$AAv@ 000000014005db48     libucrt:lcidtoname_downlevel.obj
 0002:00005b50       ??_C@_11LOCGONAA@@         000000014005db50     libucrt:lcidtoname_downlevel.obj
 0002:00005b58       ??_C@_1M@OKAHONE@?$AAa?$AAr?$AA?9?$AAS?$AAA@ 000000014005db58     libucrt:lcidtoname_downlevel.obj
 0002:00005b68       ??_C@_1M@FFFIGIGK@?$AAb?$AAg?$AA?9?$AAB?$AAG@ 000000014005db68     libucrt:lcidtoname_downlevel.obj
 0002:00005b78       ??_C@_1M@BJNKEDC@?$AAc?$AAa?$AA?9?$AAE?$AAS@ 000000014005db78     libucrt:lcidtoname_downlevel.obj
 0002:00005b88       ??_C@_1M@IJJHFJHA@?$AAc?$AAs?$AA?9?$AAC?$AAZ@ 000000014005db88     libucrt:lcidtoname_downlevel.obj
 0002:00005b98       ??_C@_1M@CLPEOBGI@?$AAd?$AAa?$AA?9?$AAD?$AAK@ 000000014005db98     libucrt:lcidtoname_downlevel.obj
 0002:00005ba8       ??_C@_1M@MCMADGCB@?$AAd?$AAe?$AA?9?$AAD?$AAE@ 000000014005dba8     libucrt:lcidtoname_downlevel.obj
 0002:00005bb8       ??_C@_1M@OOCKEMAM@?$AAe?$AAl?$AA?9?$AAG?$AAR@ 000000014005dbb8     libucrt:lcidtoname_downlevel.obj
 0002:00005bc8       ??_C@_1M@DDNJFGID@?$AAf?$AAi?$AA?9?$AAF?$AAI@ 000000014005dbc8     libucrt:lcidtoname_downlevel.obj
 0002:00005bd8       ??_C@_1M@GLIPPMAC@?$AAf?$AAr?$AA?9?$AAF?$AAR@ 000000014005dbd8     libucrt:lcidtoname_downlevel.obj
 0002:00005be8       ??_C@_1M@GFMCHPE@?$AAh?$AAe?$AA?9?$AAI?$AAL@ 000000014005dbe8     libucrt:lcidtoname_downlevel.obj
 0002:00005bf8       ??_C@_1M@MHLPGNKM@?$AAh?$AAu?$AA?9?$AAH?$AAU@ 000000014005dbf8     libucrt:lcidtoname_downlevel.obj
 0002:00005c08       ??_C@_1M@LPDDNNPN@?$AAi?$AAs?$AA?9?$AAI?$AAS@ 000000014005dc08     libucrt:lcidtoname_downlevel.obj
 0002:00005c18       ??_C@_1M@MADIPODN@?$AAi?$AAt?$AA?9?$AAI?$AAT@ 000000014005dc18     libucrt:lcidtoname_downlevel.obj
 0002:00005c28       ??_C@_1M@IHBJJGG@?$AAn?$AAl?$AA?9?$AAN?$AAL@ 000000014005dc28     libucrt:lcidtoname_downlevel.obj
 0002:00005c38       ??_C@_1M@EANAGDL@?$AAn?$AAb?$AA?9?$AAN?$AAO@ 000000014005dc38     libucrt:lcidtoname_downlevel.obj
 0002:00005c48       ??_C@_1M@NEIEMEGP@?$AAp?$AAl?$AA?9?$AAP?$AAL@ 000000014005dc48     libucrt:lcidtoname_downlevel.obj
 0002:00005c58       ??_C@_1M@BOCFIGEP@?$AAp?$AAt?$AA?9?$AAB?$AAR@ 000000014005dc58     libucrt:lcidtoname_downlevel.obj
 0002:00005c68       ??_C@_1M@IMPFOPBG@?$AAr?$AAo?$AA?9?$AAR?$AAO@ 000000014005dc68     libucrt:lcidtoname_downlevel.obj
 0002:00005c78       ??_C@_1M@IDNNEJMM@?$AAr?$AAu?$AA?9?$AAR?$AAU@ 000000014005dc78     libucrt:lcidtoname_downlevel.obj
 0002:00005c88       ??_C@_1M@LILEEOGM@?$AAh?$AAr?$AA?9?$AAH?$AAR@ 000000014005dc88     libucrt:lcidtoname_downlevel.obj
 0002:00005c98       ??_C@_1M@FKIFEHPB@?$AAs?$AAk?$AA?9?$AAS?$AAK@ 000000014005dc98     libucrt:lcidtoname_downlevel.obj
 0002:00005ca8       ??_C@_1M@LJMAMNPJ@?$AAs?$AAq?$AA?9?$AAA?$AAL@ 000000014005dca8     libucrt:lcidtoname_downlevel.obj
 0002:00005cb8       ??_C@_1M@GIAKDKJK@?$AAs?$AAv?$AA?9?$AAS?$AAE@ 000000014005dcb8     libucrt:lcidtoname_downlevel.obj
 0002:00005cc8       ??_C@_1M@MKJKIKCL@?$AAt?$AAh?$AA?9?$AAT?$AAH@ 000000014005dcc8     libucrt:lcidtoname_downlevel.obj
 0002:00005cd8       ??_C@_1M@MFLCCMPB@?$AAt?$AAr?$AA?9?$AAT?$AAR@ 000000014005dcd8     libucrt:lcidtoname_downlevel.obj
 0002:00005ce8       ??_C@_1M@OIJHDKJN@?$AAu?$AAr?$AA?9?$AAP?$AAK@ 000000014005dce8     libucrt:lcidtoname_downlevel.obj
 0002:00005cf8       ??_C@_1M@LHIPCIEK@?$AAi?$AAd?$AA?9?$AAI?$AAD@ 000000014005dcf8     libucrt:lcidtoname_downlevel.obj
 0002:00005d08       ??_C@_1M@MFMOBGI@?$AAu?$AAk?$AA?9?$AAU?$AAA@ 000000014005dd08     libucrt:lcidtoname_downlevel.obj
 0002:00005d18       ??_C@_1M@OBGLJIPL@?$AAb?$AAe?$AA?9?$AAB?$AAY@ 000000014005dd18     libucrt:lcidtoname_downlevel.obj
 0002:00005d28       ??_C@_1M@BCFAJEAD@?$AAs?$AAl?$AA?9?$AAS?$AAI@ 000000014005dd28     libucrt:lcidtoname_downlevel.obj
 0002:00005d38       ??_C@_1M@FKFFEDDN@?$AAe?$AAt?$AA?9?$AAE?$AAE@ 000000014005dd38     libucrt:lcidtoname_downlevel.obj
 0002:00005d48       ??_C@_1M@KGKKAACI@?$AAl?$AAv?$AA?9?$AAL?$AAV@ 000000014005dd48     libucrt:lcidtoname_downlevel.obj
 0002:00005d58       ??_C@_1M@IFGBIJO@?$AAl?$AAt?$AA?9?$AAL?$AAT@ 000000014005dd58     libucrt:lcidtoname_downlevel.obj
 0002:00005d68       ??_C@_1M@FGEAHEDM@?$AAf?$AAa?$AA?9?$AAI?$AAR@ 000000014005dd68     libucrt:lcidtoname_downlevel.obj
 0002:00005d78       ??_C@_1M@KBMAIBFN@?$AAv?$AAi?$AA?9?$AAV?$AAN@ 000000014005dd78     libucrt:lcidtoname_downlevel.obj
 0002:00005d88       ??_C@_1M@GPCBKDJK@?$AAh?$AAy?$AA?9?$AAA?$AAM@ 000000014005dd88     libucrt:lcidtoname_downlevel.obj
 0002:00005d98       ??_C@_1BG@BECMDDJB@?$AAa?$AAz?$AA?9?$AAA?$AAZ?$AA?9?$AAL?$AAa?$AAt?$AAn@ 000000014005dd98     libucrt:lcidtoname_downlevel.obj
 0002:00005db0       ??_C@_1M@MAOFCAEA@?$AAe?$AAu?$AA?9?$AAE?$AAS@ 000000014005ddb0     libucrt:lcidtoname_downlevel.obj
 0002:00005dc0       ??_C@_1M@IGHABKPI@?$AAm?$AAk?$AA?9?$AAM?$AAK@ 000000014005ddc0     libucrt:lcidtoname_downlevel.obj
 0002:00005dd0       ??_C@_1M@IAIGNEJG@?$AAt?$AAn?$AA?9?$AAZ?$AAA@ 000000014005ddd0     libucrt:lcidtoname_downlevel.obj
 0002:00005de0       ??_C@_1M@IIJCOJFA@?$AAx?$AAh?$AA?9?$AAZ?$AAA@ 000000014005dde0     libucrt:lcidtoname_downlevel.obj
 0002:00005df0       ??_C@_1M@LGPJHNJH@?$AAz?$AAu?$AA?9?$AAZ?$AAA@ 000000014005ddf0     libucrt:lcidtoname_downlevel.obj
 0002:00005e00       ??_C@_1M@HOKAOIO@?$AAa?$AAf?$AA?9?$AAZ?$AAA@ 000000014005de00     libucrt:lcidtoname_downlevel.obj
 0002:00005e10       ??_C@_1M@DPCLHLIE@?$AAk?$AAa?$AA?9?$AAG?$AAE@ 000000014005de10     libucrt:lcidtoname_downlevel.obj
 0002:00005e20       ??_C@_1M@BLKMHJBI@?$AAf?$AAo?$AA?9?$AAF?$AAO@ 000000014005de20     libucrt:lcidtoname_downlevel.obj
 0002:00005e30       ??_C@_1M@LGGJAPPB@?$AAh?$AAi?$AA?9?$AAI?$AAN@ 000000014005de30     libucrt:lcidtoname_downlevel.obj
 0002:00005e40       ??_C@_1M@FIKPIHFE@?$AAm?$AAt?$AA?9?$AAM?$AAT@ 000000014005de40     libucrt:lcidtoname_downlevel.obj
 0002:00005e50       ??_C@_1M@HEGGPBFA@?$AAs?$AAe?$AA?9?$AAN?$AAO@ 000000014005de50     libucrt:lcidtoname_downlevel.obj
 0002:00005e60       ??_C@_1M@EIBJEEPA@?$AAm?$AAs?$AA?9?$AAM?$AAY@ 000000014005de60     libucrt:lcidtoname_downlevel.obj
 0002:00005e70       ??_C@_1M@FHLBGMPP@?$AAk?$AAk?$AA?9?$AAK?$AAZ@ 000000014005de70     libucrt:lcidtoname_downlevel.obj
 0002:00005e80       ??_C@_1M@NGJJLCGI@?$AAk?$AAy?$AA?9?$AAK?$AAG@ 000000014005de80     libucrt:lcidtoname_downlevel.obj
 0002:00005e90       ??_C@_1M@GIENNBFC@?$AAs?$AAw?$AA?9?$AAK?$AAE@ 000000014005de90     libucrt:lcidtoname_downlevel.obj
 0002:00005ea0       ??_C@_1BG@NDGMJIMJ@?$AAu?$AAz?$AA?9?$AAU?$AAZ?$AA?9?$AAL?$AAa?$AAt?$AAn@ 000000014005dea0     libucrt:lcidtoname_downlevel.obj
 0002:00005eb8       ??_C@_1M@IDCCIHBC@?$AAt?$AAt?$AA?9?$AAR?$AAU@ 000000014005deb8     libucrt:lcidtoname_downlevel.obj
 0002:00005ec8       ??_C@_1M@LOICPMOJ@?$AAb?$AAn?$AA?9?$AAI?$AAN@ 000000014005dec8     libucrt:lcidtoname_downlevel.obj
 0002:00005ed8       ??_C@_1M@KPKKNEAH@?$AAp?$AAa?$AA?9?$AAI?$AAN@ 000000014005ded8     libucrt:lcidtoname_downlevel.obj
 0002:00005ee8       ??_C@_1M@PJGPPBOG@?$AAg?$AAu?$AA?9?$AAI?$AAN@ 000000014005dee8     libucrt:lcidtoname_downlevel.obj
 0002:00005ef8       ??_C@_1M@KMKMOPHI@?$AAt?$AAa?$AA?9?$AAI?$AAN@ 000000014005def8     libucrt:lcidtoname_downlevel.obj
 0002:00005f08       ??_C@_1M@KFEHEPAC@?$AAt?$AAe?$AA?9?$AAI?$AAN@ 000000014005df08     libucrt:lcidtoname_downlevel.obj
 0002:00005f18       ??_C@_1M@CDCLMGHI@?$AAk?$AAn?$AA?9?$AAI?$AAN@ 000000014005df18     libucrt:lcidtoname_downlevel.obj
 0002:00005f28       ??_C@_1M@MIODLDKF@?$AAm?$AAl?$AA?9?$AAI?$AAN@ 000000014005df28     libucrt:lcidtoname_downlevel.obj
 0002:00005f38       ??_C@_1M@PBIEACPO@?$AAm?$AAr?$AA?9?$AAI?$AAN@ 000000014005df38     libucrt:lcidtoname_downlevel.obj
 0002:00005f48       ??_C@_1M@NIDEAGPH@?$AAs?$AAa?$AA?9?$AAI?$AAN@ 000000014005df48     libucrt:lcidtoname_downlevel.obj
 0002:00005f58       ??_C@_1M@FHIHCBIO@?$AAm?$AAn?$AA?9?$AAM?$AAN@ 000000014005df58     libucrt:lcidtoname_downlevel.obj
 0002:00005f68       ??_C@_1M@JAIJPENP@?$AAc?$AAy?$AA?9?$AAG?$AAB@ 000000014005df68     libucrt:lcidtoname_downlevel.obj
 0002:00005f78       ??_C@_1M@PHGFBEPN@?$AAg?$AAl?$AA?9?$AAE?$AAS@ 000000014005df78     libucrt:lcidtoname_downlevel.obj
 0002:00005f88       ??_C@_1O@KPIPDNCP@?$AAk?$AAo?$AAk?$AA?9?$AAI?$AAN@ 000000014005df88     libucrt:lcidtoname_downlevel.obj
 0002:00005f98       ??_C@_1O@KNHJLDJA@?$AAs?$AAy?$AAr?$AA?9?$AAS?$AAY@ 000000014005df98     libucrt:lcidtoname_downlevel.obj
 0002:00005fa8       ??_C@_1O@MKEKBLAH@?$AAd?$AAi?$AAv?$AA?9?$AAM?$AAV@ 000000014005dfa8     libucrt:lcidtoname_downlevel.obj
 0002:00005fb8       ??_C@_1O@OHDCKDDF@?$AAq?$AAu?$AAz?$AA?9?$AAB?$AAO@ 000000014005dfb8     libucrt:lcidtoname_downlevel.obj
 0002:00005fc8       ??_C@_1M@LEPJNLFD@?$AAn?$AAs?$AA?9?$AAZ?$AAA@ 000000014005dfc8     libucrt:lcidtoname_downlevel.obj
 0002:00005fd8       ??_C@_1M@OMLEIIJB@?$AAm?$AAi?$AA?9?$AAN?$AAZ@ 000000014005dfd8     libucrt:lcidtoname_downlevel.obj
 0002:00005fe8       ??_C@_1M@PMPEAILG@?$AAa?$AAr?$AA?9?$AAI?$AAQ@ 000000014005dfe8     libucrt:lcidtoname_downlevel.obj
 0002:00005ff8       ??_C@_1M@CNKPNOEE@?$AAd?$AAe?$AA?9?$AAC?$AAH@ 000000014005dff8     libucrt:lcidtoname_downlevel.obj
 0002:00006008       ??_C@_1M@LKMGMLKO@?$AAe?$AAn?$AA?9?$AAG?$AAB@ 000000014005e008     libucrt:lcidtoname_downlevel.obj
 0002:00006018       ??_C@_1M@PGKJFFGL@?$AAe?$AAs?$AA?9?$AAM?$AAX@ 000000014005e018     libucrt:lcidtoname_downlevel.obj
 0002:00006028       ??_C@_1M@DNNANBDC@?$AAf?$AAr?$AA?9?$AAB?$AAE@ 000000014005e028     libucrt:lcidtoname_downlevel.obj
 0002:00006038       ??_C@_1M@HLGMDFHM@?$AAi?$AAt?$AA?9?$AAC?$AAH@ 000000014005e038     libucrt:lcidtoname_downlevel.obj
 0002:00006048       ??_C@_1M@CLLBGJH@?$AAn?$AAl?$AA?9?$AAB?$AAE@ 000000014005e048     libucrt:lcidtoname_downlevel.obj
 0002:00006058       ??_C@_1M@BODBOGLF@?$AAn?$AAn?$AA?9?$AAN?$AAO@ 000000014005e058     libucrt:lcidtoname_downlevel.obj
 0002:00006068       ??_C@_1M@HFFAHKAD@?$AAp?$AAt?$AA?9?$AAP?$AAT@ 000000014005e068     libucrt:lcidtoname_downlevel.obj
 0002:00006078       ??_C@_1BG@LNOAKHIE@?$AAs?$AAr?$AA?9?$AAS?$AAP?$AA?9?$AAL?$AAa?$AAt?$AAn@ 000000014005e078     libucrt:lcidtoname_downlevel.obj
 0002:00006090       ??_C@_1M@HBMHBGAK@?$AAs?$AAv?$AA?9?$AAF?$AAI@ 000000014005e090     libucrt:lcidtoname_downlevel.obj
 0002:000060a0       ??_C@_1BG@DGCJGJBE@?$AAa?$AAz?$AA?9?$AAA?$AAZ?$AA?9?$AAC?$AAy?$AAr?$AAl@ 000000014005e0a0     libucrt:lcidtoname_downlevel.obj
 0002:000060b8       ??_C@_1M@KEJDAAHB@?$AAs?$AAe?$AA?9?$AAS?$AAE@ 000000014005e0b8     libucrt:lcidtoname_downlevel.obj
 0002:000060c8       ??_C@_1M@HEIBJJAD@?$AAm?$AAs?$AA?9?$AAB?$AAN@ 000000014005e0c8     libucrt:lcidtoname_downlevel.obj
 0002:000060d8       ??_C@_1BG@PBGJMCEM@?$AAu?$AAz?$AA?9?$AAU?$AAZ?$AA?9?$AAC?$AAy?$AAr?$AAl@ 000000014005e0d8     libucrt:lcidtoname_downlevel.obj
 0002:000060f0       ??_C@_1O@LAOBCMDF@?$AAq?$AAu?$AAz?$AA?9?$AAE?$AAC@ 000000014005e0f0     libucrt:lcidtoname_downlevel.obj
 0002:00006100       ??_C@_1M@POEEMAIO@?$AAa?$AAr?$AA?9?$AAE?$AAG@ 000000014005e100     libucrt:lcidtoname_downlevel.obj
 0002:00006110       ??_C@_1M@EFAKDEDL@?$AAz?$AAh?$AA?9?$AAH?$AAK@ 000000014005e110     libucrt:lcidtoname_downlevel.obj
 0002:00006120       ??_C@_1M@HKKIJHGI@?$AAd?$AAe?$AA?9?$AAA?$AAT@ 000000014005e120     libucrt:lcidtoname_downlevel.obj
 0002:00006130       ??_C@_1M@KBFBEHJF@?$AAe?$AAn?$AA?9?$AAA?$AAU@ 000000014005e130     libucrt:lcidtoname_downlevel.obj
 0002:00006140       ??_C@_1M@MNPLFAAH@?$AAe?$AAs?$AA?9?$AAE?$AAS@ 000000014005e140     libucrt:lcidtoname_downlevel.obj
 0002:00006150       ??_C@_1M@HJOOJFMA@?$AAf?$AAr?$AA?9?$AAC?$AAA@ 000000014005e150     libucrt:lcidtoname_downlevel.obj
 0002:00006160       ??_C@_1BG@JPOFPNAB@?$AAs?$AAr?$AA?9?$AAS?$AAP?$AA?9?$AAC?$AAy?$AAr?$AAl@ 000000014005e160     libucrt:lcidtoname_downlevel.obj
 0002:00006178       ??_C@_1M@LNFOCMOB@?$AAs?$AAe?$AA?9?$AAF?$AAI@ 000000014005e178     libucrt:lcidtoname_downlevel.obj
 0002:00006188       ??_C@_1O@MGJBOAMB@?$AAq?$AAu?$AAz?$AA?9?$AAP?$AAE@ 000000014005e188     libucrt:lcidtoname_downlevel.obj
 0002:00006198       ??_C@_1M@GJINLBOK@?$AAa?$AAr?$AA?9?$AAL?$AAY@ 000000014005e198     libucrt:lcidtoname_downlevel.obj
 0002:000061a8       ??_C@_1M@GGMNHJNL@?$AAz?$AAh?$AA?9?$AAS?$AAG@ 000000014005e1a8     libucrt:lcidtoname_downlevel.obj
 0002:000061b8       ??_C@_1M@HOIKODND@?$AAd?$AAe?$AA?9?$AAL?$AAU@ 000000014005e1b8     libucrt:lcidtoname_downlevel.obj
 0002:000061c8       ??_C@_1M@DDOCCGFG@?$AAe?$AAn?$AA?9?$AAC?$AAA@ 000000014005e1c8     libucrt:lcidtoname_downlevel.obj
 0002:000061d8       ??_C@_1M@BNOEMJLF@?$AAe?$AAs?$AA?9?$AAG?$AAT@ 000000014005e1d8     libucrt:lcidtoname_downlevel.obj
 0002:000061e8       ??_C@_1M@EOGNKEK@?$AAf?$AAr?$AA?9?$AAC?$AAH@ 000000014005e1e8     libucrt:lcidtoname_downlevel.obj
 0002:000061f8       ??_C@_1M@FLIDJFHL@?$AAh?$AAr?$AA?9?$AAB?$AAA@ 000000014005e1f8     libucrt:lcidtoname_downlevel.obj
 0002:00006208       ??_C@_1O@FMCELNAJ@?$AAs?$AAm?$AAj?$AA?9?$AAN?$AAO@ 000000014005e208     libucrt:lcidtoname_downlevel.obj
 0002:00006218       ??_C@_1M@JHGLJMGJ@?$AAa?$AAr?$AA?9?$AAD?$AAZ@ 000000014005e218     libucrt:lcidtoname_downlevel.obj
 0002:00006228       ??_C@_1M@JKKFDCNP@?$AAz?$AAh?$AA?9?$AAM?$AAO@ 000000014005e228     libucrt:lcidtoname_downlevel.obj
 0002:00006238       ??_C@_1M@GEEFALPE@?$AAd?$AAe?$AA?9?$AAL?$AAI@ 000000014005e238     libucrt:lcidtoname_downlevel.obj
 0002:00006248       ??_C@_1M@IGEOFBG@?$AAe?$AAn?$AA?9?$AAN?$AAZ@ 000000014005e248     libucrt:lcidtoname_downlevel.obj
 0002:00006258       ??_C@_1M@KDBONEHP@?$AAe?$AAs?$AA?9?$AAC?$AAR@ 000000014005e258     libucrt:lcidtoname_downlevel.obj
 0002:00006268       ??_C@_1M@FHMDOHNN@?$AAf?$AAr?$AA?9?$AAL?$AAU@ 000000014005e268     libucrt:lcidtoname_downlevel.obj
 0002:00006278       ??_C@_1BG@NFKKMAFG@?$AAb?$AAs?$AA?9?$AAB?$AAA?$AA?9?$AAL?$AAa?$AAt?$AAn@ 000000014005e278     libucrt:lcidtoname_downlevel.obj
 0002:00006290       ??_C@_1O@IMNBEMCI@?$AAs?$AAm?$AAj?$AA?9?$AAS?$AAE@ 000000014005e290     libucrt:lcidtoname_downlevel.obj
 0002:000062a0       ??_C@_1M@DHHMBNDP@?$AAa?$AAr?$AA?9?$AAM?$AAA@ 000000014005e2a0     libucrt:lcidtoname_downlevel.obj
 0002:000062b0       ??_C@_1M@BNBLJCGH@?$AAe?$AAn?$AA?9?$AAI?$AAE@ 000000014005e2b0     libucrt:lcidtoname_downlevel.obj
 0002:000062c0       ??_C@_1M@GEPAFMDL@?$AAe?$AAs?$AA?9?$AAP?$AAA@ 000000014005e2c0     libucrt:lcidtoname_downlevel.obj
 0002:000062d0       ??_C@_1M@OJONDMDL@?$AAf?$AAr?$AA?9?$AAM?$AAC@ 000000014005e2d0     libucrt:lcidtoname_downlevel.obj
 0002:000062e0       ??_C@_1BG@OBCNFJB@?$AAs?$AAr?$AA?9?$AAB?$AAA?$AA?9?$AAL?$AAa?$AAt?$AAn@ 000000014005e2e0     libucrt:lcidtoname_downlevel.obj
 0002:000062f8       ??_C@_1O@KEMEEGPO@?$AAs?$AAm?$AAa?$AA?9?$AAN?$AAO@ 000000014005e2f8     libucrt:lcidtoname_downlevel.obj
 0002:00006308       ??_C@_1M@ELMGFODK@?$AAa?$AAr?$AA?9?$AAT?$AAN@ 000000014005e308     libucrt:lcidtoname_downlevel.obj
 0002:00006318       ??_C@_1M@BHDLHFAF@?$AAe?$AAn?$AA?9?$AAZ?$AAA@ 000000014005e318     libucrt:lcidtoname_downlevel.obj
 0002:00006328       ??_C@_1M@BMGIGLIF@?$AAe?$AAs?$AA?9?$AAD?$AAO@ 000000014005e328     libucrt:lcidtoname_downlevel.obj
 0002:00006338       ??_C@_1BG@CMBHIPBE@?$AAs?$AAr?$AA?9?$AAB?$AAA?$AA?9?$AAC?$AAy?$AAr?$AAl@ 000000014005e338     libucrt:lcidtoname_downlevel.obj
 0002:00006350       ??_C@_1O@HEDBLHNP@?$AAs?$AAm?$AAa?$AA?9?$AAS?$AAE@ 000000014005e350     libucrt:lcidtoname_downlevel.obj
 0002:00006360       ??_C@_1M@DAGCADIM@?$AAa?$AAr?$AA?9?$AAO?$AAM@ 000000014005e360     libucrt:lcidtoname_downlevel.obj
 0002:00006370       ??_C@_1M@FODLMICG@?$AAe?$AAn?$AA?9?$AAJ?$AAM@ 000000014005e370     libucrt:lcidtoname_downlevel.obj
 0002:00006380       ??_C@_1M@DNMLCIHB@?$AAe?$AAs?$AA?9?$AAV?$AAE@ 000000014005e380     libucrt:lcidtoname_downlevel.obj
 0002:00006390       ??_C@_1O@EOKHMKJK@?$AAs?$AAm?$AAs?$AA?9?$AAF?$AAI@ 000000014005e390     libucrt:lcidtoname_downlevel.obj
 0002:000063a0       ??_C@_1M@CAFJMKOF@?$AAa?$AAr?$AA?9?$AAY?$AAE@ 000000014005e3a0     libucrt:lcidtoname_downlevel.obj
 0002:000063b0       ??_C@_1M@CBFHIJLI@?$AAe?$AAn?$AA?9?$AAC?$AAB@ 000000014005e3b0     libucrt:lcidtoname_downlevel.obj
 0002:000063c0       ??_C@_1M@BGNFLDN@?$AAe?$AAs?$AA?9?$AAC?$AAO@ 000000014005e3c0     libucrt:lcidtoname_downlevel.obj
 0002:000063d0       ??_C@_1O@JMPHMAMC@?$AAs?$AAm?$AAn?$AA?9?$AAF?$AAI@ 000000014005e3d0     libucrt:lcidtoname_downlevel.obj
 0002:000063e0       ??_C@_1M@JLANABKE@?$AAa?$AAr?$AA?9?$AAS?$AAY@ 000000014005e3e0     libucrt:lcidtoname_downlevel.obj
 0002:000063f0       ??_C@_1M@HPKGCFGN@?$AAe?$AAn?$AA?9?$AAB?$AAZ@ 000000014005e3f0     libucrt:lcidtoname_downlevel.obj
 0002:00006400       ??_C@_1M@OLJCMLGM@?$AAe?$AAs?$AA?9?$AAP?$AAE@ 000000014005e400     libucrt:lcidtoname_downlevel.obj
 0002:00006410       ??_C@_1M@MKKGFKLE@?$AAa?$AAr?$AA?9?$AAJ?$AAO@ 000000014005e410     libucrt:lcidtoname_downlevel.obj
 0002:00006420       ??_C@_1M@EKPGLDNI@?$AAe?$AAn?$AA?9?$AAT?$AAT@ 000000014005e420     libucrt:lcidtoname_downlevel.obj
 0002:00006430       ??_C@_1M@OONGHFHE@?$AAe?$AAs?$AA?9?$AAA?$AAR@ 000000014005e430     libucrt:lcidtoname_downlevel.obj
 0002:00006440       ??_C@_1M@OOJFGBHE@?$AAa?$AAr?$AA?9?$AAL?$AAB@ 000000014005e440     libucrt:lcidtoname_downlevel.obj
 0002:00006450       ??_C@_1M@GCEJHNEG@?$AAe?$AAn?$AA?9?$AAZ?$AAW@ 000000014005e450     libucrt:lcidtoname_downlevel.obj
 0002:00006460       ??_C@_1M@JNOCAHJI@?$AAe?$AAs?$AA?9?$AAE?$AAC@ 000000014005e460     libucrt:lcidtoname_downlevel.obj
 0002:00006470       ??_C@_1M@JEFHPGGB@?$AAa?$AAr?$AA?9?$AAK?$AAW@ 000000014005e470     libucrt:lcidtoname_downlevel.obj
 0002:00006480       ??_C@_1M@MLKIBJOJ@?$AAe?$AAn?$AA?9?$AAP?$AAH@ 000000014005e480     libucrt:lcidtoname_downlevel.obj
 0002:00006490       ??_C@_1M@BDNIPEND@?$AAe?$AAs?$AA?9?$AAC?$AAL@ 000000014005e490     libucrt:lcidtoname_downlevel.obj
 0002:000064a0       ??_C@_1M@MPNMEKBD@?$AAa?$AAr?$AA?9?$AAA?$AAE@ 000000014005e4a0     libucrt:lcidtoname_downlevel.obj
 0002:000064b0       ??_C@_1M@KBJALCPI@?$AAe?$AAs?$AA?9?$AAU?$AAY@ 000000014005e4b0     libucrt:lcidtoname_downlevel.obj
 0002:000064c0       ??_C@_1M@LLCCOAGA@?$AAa?$AAr?$AA?9?$AAB?$AAH@ 000000014005e4c0     libucrt:lcidtoname_downlevel.obj
 0002:000064d0       ??_C@_1M@PBFNCDEL@?$AAe?$AAs?$AA?9?$AAP?$AAY@ 000000014005e4d0     libucrt:lcidtoname_downlevel.obj
 0002:000064e0       ??_C@_1M@EDGINPNP@?$AAa?$AAr?$AA?9?$AAQ?$AAA@ 000000014005e4e0     libucrt:lcidtoname_downlevel.obj
 0002:000064f0       ??_C@_1M@MKDBIIJI@?$AAe?$AAs?$AA?9?$AAB?$AAO@ 000000014005e4f0     libucrt:lcidtoname_downlevel.obj
 0002:00006500       ??_C@_1M@CPKKEBLD@?$AAe?$AAs?$AA?9?$AAS?$AAV@ 000000014005e500     libucrt:lcidtoname_downlevel.obj
 0002:00006510       ??_C@_1M@NDBGMMJL@?$AAe?$AAs?$AA?9?$AAH?$AAN@ 000000014005e510     libucrt:lcidtoname_downlevel.obj
 0002:00006520       ??_C@_1M@JIJIBHDP@?$AAe?$AAs?$AA?9?$AAN?$AAI@ 000000014005e520     libucrt:lcidtoname_downlevel.obj
 0002:00006530       ??_C@_1M@CGFMKEEK@?$AAe?$AAs?$AA?9?$AAP?$AAR@ 000000014005e530     libucrt:lcidtoname_downlevel.obj
 0002:00006540       ??_C@_1O@ICJHKIIK@?$AAz?$AAh?$AA?9?$AAC?$AAH?$AAT@ 000000014005e540     libucrt:lcidtoname_downlevel.obj
 0002:00006550       ??_C@_15CLNEJCE@?$AAs?$AAr@ 000000014005e550     libucrt:lcidtoname_downlevel.obj
 0002:000073a0       ??_C@_1M@KAHEKEIG@?$AAa?$AAf?$AA?9?$AAz?$AAa@ 000000014005f3a0     libucrt:lcidtoname_downlevel.obj
 0002:000073b0       ??_C@_1M@GIECOABL@?$AAa?$AAr?$AA?9?$AAa?$AAe@ 000000014005f3b0     libucrt:lcidtoname_downlevel.obj
 0002:000073c0       ??_C@_1M@BMLMEKGI@?$AAa?$AAr?$AA?9?$AAb?$AAh@ 000000014005f3c0     libucrt:lcidtoname_downlevel.obj
 0002:000073d0       ??_C@_1M@DAPFDGGB@?$AAa?$AAr?$AA?9?$AAd?$AAz@ 000000014005f3d0     libucrt:lcidtoname_downlevel.obj
 0002:000073e0       ??_C@_1M@FJNKGKIG@?$AAa?$AAr?$AA?9?$AAe?$AAg@ 000000014005f3e0     libucrt:lcidtoname_downlevel.obj
 0002:000073f0       ??_C@_1M@FLGKKCLO@?$AAa?$AAr?$AA?9?$AAi?$AAq@ 000000014005f3f0     libucrt:lcidtoname_downlevel.obj
 0002:00007400       ??_C@_1M@GNDIPALM@?$AAa?$AAr?$AA?9?$AAj?$AAo@ 000000014005f400     libucrt:lcidtoname_downlevel.obj
 0002:00007410       ??_C@_1M@DDMJFMGJ@?$AAa?$AAr?$AA?9?$AAk?$AAw@ 000000014005f410     libucrt:lcidtoname_downlevel.obj
 0002:00007420       ??_C@_1M@EJALMLHM@?$AAa?$AAr?$AA?9?$AAl?$AAb@ 000000014005f420     libucrt:lcidtoname_downlevel.obj
 0002:00007430       ??_C@_1M@MOBDBLOC@?$AAa?$AAr?$AA?9?$AAl?$AAy@ 000000014005f430     libucrt:lcidtoname_downlevel.obj
 0002:00007440       ??_C@_1M@JAOCLHDH@?$AAa?$AAr?$AA?9?$AAm?$AAa@ 000000014005f440     libucrt:lcidtoname_downlevel.obj
 0002:00007450       ??_C@_1M@JHPMKJIE@?$AAa?$AAr?$AA?9?$AAo?$AAm@ 000000014005f450     libucrt:lcidtoname_downlevel.obj
 0002:00007460       ??_C@_1M@OEPGHFNH@?$AAa?$AAr?$AA?9?$AAq?$AAa@ 000000014005f460     libucrt:lcidtoname_downlevel.obj
 0002:00007470       ??_C@_1M@KJDONENM@?$AAa?$AAr?$AA?9?$AAs?$AAa@ 000000014005f470     libucrt:lcidtoname_downlevel.obj
 0002:00007480       ??_C@_1M@DMJDKLKM@?$AAa?$AAr?$AA?9?$AAs?$AAy@ 000000014005f480     libucrt:lcidtoname_downlevel.obj
 0002:00007490       ??_C@_1M@OMFIPEDC@?$AAa?$AAr?$AA?9?$AAt?$AAn@ 000000014005f490     libucrt:lcidtoname_downlevel.obj
 0002:000074a0       ??_C@_1M@IHMHGAON@?$AAa?$AAr?$AA?9?$AAy?$AAe@ 000000014005f4a0     libucrt:lcidtoname_downlevel.obj
 0002:000074b0       ??_C@_1BG@KDCPGJGB@?$AAa?$AAz?$AA?9?$AAa?$AAz?$AA?9?$AAc?$AAy?$AAr?$AAl@ 000000014005f4b0     libucrt:lcidtoname_downlevel.obj
 0002:000074c8       ??_C@_1BG@IBCKDDOE@?$AAa?$AAz?$AA?9?$AAa?$AAz?$AA?9?$AAl?$AAa?$AAt?$AAn@ 000000014005f4c8     libucrt:lcidtoname_downlevel.obj
 0002:000074e0       ??_C@_1M@EGPFDCPD@?$AAb?$AAe?$AA?9?$AAb?$AAy@ 000000014005f4e0     libucrt:lcidtoname_downlevel.obj
 0002:000074f0       ??_C@_1M@PCMGMCGC@?$AAb?$AAg?$AA?9?$AAb?$AAg@ 000000014005f4f0     libucrt:lcidtoname_downlevel.obj
 0002:00007500       ??_C@_1M@BJBMFGOB@?$AAb?$AAn?$AA?9?$AAi?$AAn@ 000000014005f500     libucrt:lcidtoname_downlevel.obj
 0002:00007510       ??_C@_1BG@EAKMMACD@?$AAb?$AAs?$AA?9?$AAb?$AAa?$AA?9?$AAl?$AAa?$AAt?$AAn@ 000000014005f510     libucrt:lcidtoname_downlevel.obj
 0002:00007528       ??_C@_1M@KGADAODK@?$AAc?$AAa?$AA?9?$AAe?$AAs@ 000000014005f528     libucrt:lcidtoname_downlevel.obj
 0002:00007538       ??_C@_1M@COAJPDHI@?$AAc?$AAs?$AA?9?$AAc?$AAz@ 000000014005f538     libucrt:lcidtoname_downlevel.obj
 0002:00007548       ??_C@_1M@DHBHFONH@?$AAc?$AAy?$AA?9?$AAg?$AAb@ 000000014005f548     libucrt:lcidtoname_downlevel.obj
 0002:00007558       ??_C@_1M@IMGKELGA@?$AAd?$AAa?$AA?9?$AAd?$AAk@ 000000014005f558     libucrt:lcidtoname_downlevel.obj
 0002:00007568       ??_C@_1M@NNDGDNGA@?$AAd?$AAe?$AA?9?$AAa?$AAt@ 000000014005f568     libucrt:lcidtoname_downlevel.obj
 0002:00007578       ??_C@_1M@IKDBHEEM@?$AAd?$AAe?$AA?9?$AAc?$AAh@ 000000014005f578     libucrt:lcidtoname_downlevel.obj
 0002:00007588       ??_C@_1M@GFFOJMCJ@?$AAd?$AAe?$AA?9?$AAd?$AAe@ 000000014005f588     libucrt:lcidtoname_downlevel.obj
 0002:00007598       ??_C@_1M@MDNLKBPM@?$AAd?$AAe?$AA?9?$AAl?$AAi@ 000000014005f598     libucrt:lcidtoname_downlevel.obj
 0002:000075a8       ??_C@_1M@NJBEEJNL@?$AAd?$AAe?$AA?9?$AAl?$AAu@ 000000014005f5a8     libucrt:lcidtoname_downlevel.obj
 0002:000075b8       ??_C@_1O@GNNELBAP@?$AAd?$AAi?$AAv?$AA?9?$AAm?$AAv@ 000000014005f5b8     libucrt:lcidtoname_downlevel.obj
 0002:000075c8       ??_C@_1M@EJLEOGAE@?$AAe?$AAl?$AA?9?$AAg?$AAr@ 000000014005f5c8     libucrt:lcidtoname_downlevel.obj
 0002:000075d8       ??_C@_1M@GMPONJN@?$AAe?$AAn?$AA?9?$AAa?$AAu@ 000000014005f5d8     libucrt:lcidtoname_downlevel.obj
 0002:000075e8       ??_C@_1M@NIDIIPGF@?$AAe?$AAn?$AA?9?$AAb?$AAz@ 000000014005f5e8     libucrt:lcidtoname_downlevel.obj
