 test-win-cxx

 Timestamp is 63fcd784 (Tue Feb 28 00:17:08 2023)

 Preferred load address is 0000000140000000

 Start         Length     Name                   Class
 0001:00000000 0005a300H .text$mn                CODE
 0001:0005a300 00000040H .text$mn$00             CODE
 0001:0005a340 00000ba0H .text$x                 CODE
 0002:00000000 000002d0H .idata$5                DATA
 0002:000002d0 00000038H .00cfg                  DATA
 0002:00000308 00000008H .CRT$XCA                DATA
 0002:00000310 00000008H .CRT$XCAA               DATA
 0002:00000318 00000008H .CRT$XCZ                DATA
 0002:00000320 00000008H .CRT$XIA                DATA
 0002:00000328 00000008H .CRT$XIAA               DATA
 0002:00000330 00000008H .CRT$XIAC               DATA
 0002:00000338 00000020H .CRT$XIC                DATA
 0002:00000358 00000008H .CRT$XIZ                DATA
 0002:00000360 00000008H .CRT$XPA                DATA
 0002:00000368 00000010H .CRT$XPX                DATA
 0002:00000378 00000008H .CRT$XPXA               DATA
 0002:00000380 00000008H .CRT$XPZ                DATA
 0002:00000388 00000008H .CRT$XTA                DATA
 0002:00000390 00000010H .CRT$XTZ                DATA
 0002:00000398 00000000H .gehcont$y              DATA
 0002:00000398 00000000H .gfids$y                DATA
 0002:000003a0 0000a9e0H .rdata                  DATA
 0002:0000ad80 00000080H .rdata$CastGuardVftablesA DATA
 0002:0000ae00 00000080H .rdata$CastGuardVftablesC DATA
 0002:0000ae80 00000464H .rdata$r                DATA
 0002:0000b2e4 00000688H .rdata$voltmd           DATA
 0002:0000b96c 000003ccH .rdata$zzzdbg           DATA
 0002:0000bd38 00000008H .rtc$IAA                DATA
 0002:0000bd40 00000008H .rtc$IZZ                DATA
 0002:0000bd48 00000008H .rtc$TAA                DATA
 0002:0000bd50 00000008H .rtc$TZZ                DATA
 0002:0000bd58 00005cd8H .xdata                  DATA
 0002:00011a30 000000dcH .xdata$x                DATA
 0002:00011b0c 00000000H .edata                  DATA
 0002:00011b0c 00000014H .idata$2                DATA
 0002:00011b20 00000018H .idata$3                DATA
 0002:00011b38 000002d0H .idata$4                DATA
 0002:00011e08 00000682H .idata$6                DATA
 0003:00000000 00000a70H .data                   DATA
 0003:00000a70 000000a8H .data$r                 DATA
 0003:00000b18 000000f8H .data$rs                DATA
 0003:00000c10 00001a58H .bss                    DATA
 0004:00000000 00004788H .pdata                  DATA
 0005:00000000 0000015cH _RDATA                  DATA
 0006:00000000 00000060H .rsrc$01                DATA
 0006:00000060 00000180H .rsrc$02                DATA

  Address         Publics by Value              Rva+Base               Lib:Object

 0000:00000000       __AbsoluteZero             0000000000000000     <absolute>
 0000:00000000       ___safe_se_handler_count   0000000000000000     <absolute>
 0000:00000000       ___safe_se_handler_table   0000000000000000     <absolute>
 0000:00000000       __arm64x_extra_rfe_table   0000000000000000     <absolute>
 0000:00000000       __arm64x_extra_rfe_table_size 0000000000000000     <absolute>
 0000:00000000       __arm64x_native_entrypoint 0000000000000000     <absolute>
 0000:00000000       __arm64x_redirection_metadata 0000000000000000     <absolute>
 0000:00000000       __arm64x_redirection_metadata_count 0000000000000000     <absolute>
 0000:00000000       __dynamic_value_reloc_table 0000000000000000     <absolute>
 0000:00000000       __enclave_config           0000000000000000     <absolute>
 0000:00000000       __guard_check_icall_a64n_fptr 0000000000000000     <absolute>
 0000:00000000       __guard_eh_cont_count      0000000000000000     <absolute>
 0000:00000000       __guard_eh_cont_table      0000000000000000     <absolute>
 0000:00000000       __guard_fids_count         0000000000000000     <absolute>
 0000:00000000       __guard_fids_table         0000000000000000     <absolute>
 0000:00000000       __guard_iat_count          0000000000000000     <absolute>
 0000:00000000       __guard_iat_table          0000000000000000     <absolute>
 0000:00000000       __guard_longjmp_count      0000000000000000     <absolute>
 0000:00000000       __guard_longjmp_table      0000000000000000     <absolute>
 0000:00000000       __hybrid_auxiliary_iat     0000000000000000     <absolute>
 0000:00000000       __hybrid_auxiliary_iat_copy 0000000000000000     <absolute>
 0000:00000000       __hybrid_code_map          0000000000000000     <absolute>
 0000:00000000       __hybrid_code_map_count    0000000000000000     <absolute>
 0000:00000000       __x64_code_ranges_to_entry_points 0000000000000000     <absolute>
 0000:00000000       __x64_code_ranges_to_entry_points_count 0000000000000000     <absolute>
 0000:00000100       __guard_flags              0000000000000100     <absolute>
 0000:00000000       __ImageBase                0000000140000000     <linker-defined>
 0001:00000000       __local_stdio_printf_options 0000000140001000 f i main.obj
 0001:00000010       main                       0000000140001010 f   main.obj
 0001:00000030       msvc_CXX_1                 0000000140001030 f   main.obj
 0001:00000080       msvc_CXX_2                 0000000140001080 f   main.obj
 0001:000000d0       msvc_CXX_3                 00000001400010d0 f   main.obj
 0001:00000120       msvc_CXX_4                 0000000140001120 f   main.obj
 0001:00000190       printf                     0000000140001190 f i main.obj
 0001:000001e4       ??1type_info@@UEAA@XZ      00000001400011e4 f   LIBCMT:std_type_info_static.obj
 0001:000001f0       ??_Etype_info@@UEAAPEAXI@Z 00000001400011f0 f i LIBCMT:std_type_info_static.obj
 0001:000001f0       ??_Gtype_info@@UEAAPEAXI@Z 00000001400011f0 f i LIBCMT:std_type_info_static.obj
 0001:00000490       ?configure_argv@__scrt_narrow_argv_policy@@SAHXZ 0000000140001490 f i LIBCMT:exe_main.obj
 0001:000004a4       ?initialize_environment@__scrt_narrow_environment_policy@@SAHXZ 00000001400014a4 f i LIBCMT:exe_main.obj
 0001:000004e4       ?set_app_type@__scrt_main_policy@@SAXXZ 00000001400014e4 f i LIBCMT:exe_main.obj
 0001:000004f0       ?set_commode@__scrt_file_policy@@SAXXZ 00000001400014f0 f i LIBCMT:exe_main.obj
 0001:0000050c       ?set_fmode@__scrt_file_policy@@SAXXZ 000000014000150c f i LIBCMT:exe_main.obj
 0001:00000520       mainCRTStartup             0000000140001520 f   LIBCMT:exe_main.obj
 0001:00000534       ??3@YAXPEAX_K@Z            0000000140001534 f   LIBCMT:delete_scalar_size.obj
 0001:000005b8       NtCurrentTeb               00000001400015b8 f i LIBCMT:utility.obj
 0001:000005c4       __scrt_acquire_startup_lock 00000001400015c4 f   LIBCMT:utility.obj
 0001:00000600       __scrt_dllmain_after_initialize_c 0000000140001600 f   LIBCMT:utility.obj
 0001:00000634       __scrt_dllmain_before_initialize_c 0000000140001634 f   LIBCMT:utility.obj
 0001:0000064c       __scrt_dllmain_crt_thread_attach 000000014000164c f   LIBCMT:utility.obj
 0001:00000674       __scrt_dllmain_crt_thread_detach 0000000140001674 f   LIBCMT:utility.obj
 0001:0000068c       __scrt_dllmain_exception_filter 000000014000168c f   LIBCMT:utility.obj
 0001:000006ec       __scrt_dllmain_uninitialize_c 00000001400016ec f   LIBCMT:utility.obj
 0001:0000071c       __scrt_dllmain_uninitialize_critical 000000014000171c f   LIBCMT:utility.obj
 0001:00000730       __scrt_initialize_crt      0000000140001730 f   LIBCMT:utility.obj
 0001:0000077c       __scrt_initialize_onexit_tables 000000014000177c f   LIBCMT:utility.obj
 0001:00000808       __scrt_is_nonwritable_in_current_image 0000000140001808 f   LIBCMT:utility.obj
 0001:000008a0       __scrt_release_startup_lock 00000001400018a0 f   LIBCMT:utility.obj
 0001:000008c4       __scrt_uninitialize_crt    00000001400018c4 f   LIBCMT:utility.obj
 0001:000008f0       _onexit                    00000001400018f0 f   LIBCMT:utility.obj
 0001:0000092c       at_quick_exit              000000014000192c f   LIBCMT:utility.obj
 0001:0000094c       atexit                     000000014000194c f   LIBCMT:utility.obj
 0001:000009d0       __security_init_cookie     00000001400019d0 f   LIBCMT:gs_support.obj
 0001:00000a7c       _matherr                   0000000140001a7c f   LIBCMT:matherr.obj
 0001:00000a80       _get_startup_argv_mode     0000000140001a80 f   LIBCMT:argv_mode.obj
 0001:00000a88       _get_startup_commit_mode   0000000140001a88 f   LIBCMT:commit_mode.obj
 0001:00000a8c       _get_startup_file_mode     0000000140001a8c f   LIBCMT:file_mode.obj
 0001:00000a94       _get_startup_new_mode      0000000140001a94 f   LIBCMT:new_mode.obj
 0001:00000a98       _get_startup_thread_locale_mode 0000000140001a98 f   LIBCMT:thread_locale.obj
 0001:00000a9c       ?__scrt_initialize_type_info@@YAXXZ 0000000140001a9c f   LIBCMT:tncleanup.obj
 0001:00000aac       ?__scrt_uninitialize_type_info@@YAXXZ 0000000140001aac f   LIBCMT:tncleanup.obj
 0001:00000ab8       _should_initialize_environment 0000000140001ab8 f   LIBCMT:env_mode.obj
 0001:00000abc       _initialize_invalid_parameter_handler 0000000140001abc f   LIBCMT:invalid_parameter_handler.obj
 0001:00000ac0       _initialize_denormal_control 0000000140001ac0 f   LIBCMT:denormal_control.obj
 0001:00000ac4       __local_stdio_scanf_options 0000000140001ac4 f i LIBCMT:default_local_stdio_options.obj
 0001:00000acc       __scrt_initialize_default_local_stdio_options 0000000140001acc f   LIBCMT:default_local_stdio_options.obj
 0001:00000ae8       __scrt_is_user_matherr_present 0000000140001ae8 f   LIBCMT:matherr_detection.obj
 0001:00000af4       __scrt_get_dyn_tls_init_callback 0000000140001af4 f   LIBCMT:dyn_tls_init.obj
 0001:00000afc       __scrt_get_dyn_tls_dtor_callback 0000000140001afc f   LIBCMT:dyn_tls_dtor.obj
 0001:00000b04       __crt_debugger_hook        0000000140001b04 f   LIBCMT:utility_desktop.obj
 0001:00000b0c       __scrt_fastfail            0000000140001b0c f   LIBCMT:utility_desktop.obj
 0001:00000c58       __scrt_get_show_window_mode 0000000140001c58 f   LIBCMT:utility_desktop.obj
 0001:00000c94       __scrt_initialize_mta      0000000140001c94 f   LIBCMT:utility_desktop.obj
 0001:00000c9c       __scrt_initialize_winrt    0000000140001c9c f   LIBCMT:utility_desktop.obj
 0001:00000ca0       __scrt_is_managed_app      0000000140001ca0 f   LIBCMT:utility_desktop.obj
 0001:00000cf4       __scrt_set_unhandled_exception_filter 0000000140001cf4 f   LIBCMT:utility_desktop.obj
 0001:00000d04       __scrt_exe_initialize_mta  0000000140001d04 f   LIBCMT:utility_desktop.obj
 0001:00000d04       __scrt_stub_for_initialize_mta 0000000140001d04 f   LIBCMT:utility_desktop.obj
 0001:00000d08       __scrt_unhandled_exception_filter 0000000140001d08 f   LIBCMT:utility_desktop.obj
 0001:00000d64       _RTC_Initialize            0000000140001d64 f   LIBCMT:initsect.obj
 0001:00000da0       _RTC_Terminate             0000000140001da0 f   LIBCMT:initsect.obj
 0001:00000ddc       _guard_check_icall_nop     0000000140001ddc f i LIBCMT:guard_support.obj
 0001:00000de0       ReadNoFence64              0000000140001de0 f i LIBCMT:guard_support.obj
 0001:00000de4       ReadPointerNoFence         0000000140001de4 f i LIBCMT:guard_support.obj
 0001:00000de8       __castguard_check_failure_debugbreak 0000000140001de8 f i LIBCMT:guard_support.obj
 0001:00000e04       __castguard_check_failure_fastfail 0000000140001e04 f i LIBCMT:guard_support.obj
 0001:00000e28       __castguard_check_failure_nop 0000000140001e28 f i LIBCMT:guard_support.obj
 0001:00000e2c       __castguard_check_failure_os_handled 0000000140001e2c f i LIBCMT:guard_support.obj
 0001:00000ea8       __castguard_slow_path_check_debugbreak 0000000140001ea8 f i LIBCMT:guard_support.obj
 0001:00000edc       __castguard_slow_path_check_fastfail 0000000140001edc f i LIBCMT:guard_support.obj
 0001:00000f18       __castguard_slow_path_check_nop 0000000140001f18 f i LIBCMT:guard_support.obj
 0001:00000f1c       __castguard_slow_path_check_os_handled 0000000140001f1c f i LIBCMT:guard_support.obj
 0001:00000f8c       _guard_icall_checks_enforced 0000000140001f8c f i LIBCMT:guard_support.obj
 0001:00000fa4       _guard_rf_checks_enforced  0000000140001fa4 f i LIBCMT:guard_support.obj
 0001:00000fa8       ??3@YAXPEAX@Z              0000000140001fa8 f   LIBCMT:delete_scalar.obj
 0001:00000fb0       __isa_available_init       0000000140001fb0 f   LIBCMT:cpu_disp.obj
 0001:0000115c       __scrt_is_ucrt_dll_in_use  000000014000215c f   LIBCMT:ucrt_detection.obj
 0001:00001170       _CxxThrowException         0000000140002170 f   libvcruntime:throw.obj
 0001:00001210       ??$?0AEAViterator@TryBlockMap4@FH4@@AEAV012@$0A@@?$pair@Viterator@TryBlockMap4@FH4@@V123@@std@@QEAA@AEAViterator@TryBlockMap4@FH4@@0@Z 0000000140002210 f i libvcruntime:risctrnsctrl.obj
 0001:00001224       ??$?0AEAViterator@TryBlockMap@__FrameHandler3@@AEAV012@$0A@@?$pair@Viterator@TryBlockMap@__FrameHandler3@@V123@@std@@QEAA@AEAViterator@TryBlockMap@__FrameHandler3@@0@Z 0000000140002224 f i libvcruntime:risctrnsctrl.obj
 0001:000013a8       ??$_CallSETranslator@V__FrameHandler3@@@@YAHPEAUEHExceptionRecord@@PEA_KPEAU_CONTEXT@@PEAU_xDISPATCHER_CONTEXT@@PEBU_s_FuncInfo@@K1H@Z 00000001400023a8 f i libvcruntime:risctrnsctrl.obj
 0001:000013fc       ??$_CallSETranslator@V__FrameHandler4@@@@YAHPEAUEHExceptionRecord@@PEA_KPEAU_CONTEXT@@PEAU_xDISPATCHER_CONTEXT@@PEAUFuncInfo4@FH4@@K1H@Z 00000001400023fc f i libvcruntime:risctrnsctrl.obj
 0001:00001450       ??$forward@AEAViterator@TryBlockMap4@FH4@@@std@@YAAEAViterator@TryBlockMap4@FH4@@AEAV123@@Z 0000000140002450 f i libvcruntime:risctrnsctrl.obj
 0001:00001454       ??$forward@AEAViterator@TryBlockMap@__FrameHandler3@@@std@@YAAEAViterator@TryBlockMap@__FrameHandler3@@AEAV123@@Z 0000000140002454 f i libvcruntime:risctrnsctrl.obj
 0001:00001458       ??0FuncInfo4@FH4@@QEAA@XZ  0000000140002458 f i libvcruntime:risctrnsctrl.obj
 0001:0000146c       ??0FuncInfoHeader@FH4@@QEAA@XZ 000000014000246c f i libvcruntime:risctrnsctrl.obj
 0001:00001474       ??0iterator@TryBlockMap4@FH4@@QEAA@AEAV12@I@Z 0000000140002474 f i libvcruntime:risctrnsctrl.obj
 0001:00001480       ??0iterator@TryBlockMap@__FrameHandler3@@QEAA@AEAV12@I@Z 0000000140002480 f i libvcruntime:risctrnsctrl.obj
 0001:0000148c       ??4iterator@TryBlockMap4@FH4@@QEAAAEAV012@AEBV012@@Z 000000014000248c f i libvcruntime:risctrnsctrl.obj
 0001:00001498       ??9iterator@TryBlockMap4@FH4@@QEBA_NAEBV012@@Z 0000000140002498 f i libvcruntime:risctrnsctrl.obj
 0001:000014a4       ??Diterator@TryBlockMap4@FH4@@QEAA?AUTryBlockMapEntry4@2@XZ 00000001400024a4 f i libvcruntime:risctrnsctrl.obj
 0001:000014b4       ??Eiterator@TryBlockMap4@FH4@@QEAAAEAV012@XZ 00000001400024b4 f i libvcruntime:risctrnsctrl.obj
 0001:00001550       ?CatchTryBlock@__FrameHandler3@@SAPEBU_s_TryBlockMapEntry@@PEBU_s_FuncInfo@@H@Z 0000000140002550 f   libvcruntime:risctrnsctrl.obj
 0001:000015b4       ?DecompFuncInfo@FH4@@YA_JPEAEAEAUFuncInfo4@1@_KH@Z 00000001400025b4 f i libvcruntime:risctrnsctrl.obj
 0001:000015c8       ?DecompFuncInfo@FH4@@YA_JPEAEAEAUFuncInfo4@1@_KH_N@Z 00000001400025c8 f i libvcruntime:risctrnsctrl.obj
 0001:000016ec       ?DecompTryBlock@TryBlockMap4@FH4@@AEAAXXZ 00000001400026ec f i libvcruntime:risctrnsctrl.obj
 0001:00001780       ?ExecutionInCatch@__FrameHandler3@@SA_NPEAU_xDISPATCHER_CONTEXT@@PEBU_s_FuncInfo@@@Z 0000000140002780 f   libvcruntime:risctrnsctrl.obj
 0001:000017ac       ?ExecutionInCatch@__FrameHandler4@@SA_NPEAU_xDISPATCHER_CONTEXT@@PEAUFuncInfo4@FH4@@@Z 00000001400027ac f   libvcruntime:risctrnsctrl.obj
 0001:000017b4       ?FrameUnwindToEmptyState@__FrameHandler3@@SAXPEA_KPEAU_xDISPATCHER_CONTEXT@@PEBU_s_FuncInfo@@@Z 00000001400027b4 f   libvcruntime:risctrnsctrl.obj
 0001:00001818       ?FrameUnwindToEmptyState@__FrameHandler4@@SAXPEA_KPEAU_xDISPATCHER_CONTEXT@@PEAUFuncInfo4@FH4@@@Z 0000000140002818 f   libvcruntime:risctrnsctrl.obj
 0001:0000184c       ?GetEstablisherFrame@__FrameHandler3@@SAPEA_KPEA_KPEAU_xDISPATCHER_CONTEXT@@PEBU_s_FuncInfo@@0@Z 000000014000284c f   libvcruntime:risctrnsctrl.obj
 0001:00001918       ?GetEstablisherFrame@__FrameHandler4@@SAPEA_KPEA_KPEAU_xDISPATCHER_CONTEXT@@PEAUFuncInfo4@FH4@@0@Z 0000000140002918 f   libvcruntime:risctrnsctrl.obj
 0001:0000193c       ?GetRangeOfTrysToCheck@__FrameHandler3@@SA?AU?$pair@Viterator@TryBlockMap@__FrameHandler3@@V123@@std@@AEAVTryBlockMap@1@HPEAU_xDISPATCHER_CONTEXT@@PEBU_s_FuncInfo@@H@Z 000000014000293c f   libvcruntime:risctrnsctrl.obj
 0001:00001a7c       ?GetRangeOfTrysToCheck@__FrameHandler4@@SA?AU?$pair@Viterator@TryBlockMap4@FH4@@V123@@std@@AEAVTryBlockMap4@FH4@@HPEAU_xDISPATCHER_CONTEXT@@PEAUFuncInfo4@5@H@Z 0000000140002a7c f   libvcruntime:risctrnsctrl.obj
 0001:00001be8       ?ReadInt@FH4@@YAHPEAPEAE@Z 0000000140002be8 f i libvcruntime:risctrnsctrl.obj
 0001:00001bf8       ?ReadUnsigned@FH4@@YAIPEAPEAE@Z 0000000140002bf8 f i libvcruntime:risctrnsctrl.obj
 0001:00001c28       ?UnwindNestedFrames@__FrameHandler3@@SAXPEA_KPEAUEHExceptionRecord@@PEAU_CONTEXT@@0PEAXPEBU_s_FuncInfo@@HHPEBU_s_HandlerType@@PEAU_xDISPATCHER_CONTEXT@@E@Z 0000000140002c28 f   libvcruntime:risctrnsctrl.obj
 0001:00001d2c       ?UnwindNestedFrames@__FrameHandler4@@SAXPEA_KPEAUEHExceptionRecord@@PEAU_CONTEXT@@0PEAXPEAUFuncInfo4@FH4@@HHPEAUHandlerType4@5@PEAU_xDISPATCHER_CONTEXT@@E@Z 0000000140002d2c f   libvcruntime:risctrnsctrl.obj
 0001:00001e4c       ?begin@TryBlockMap4@FH4@@QEAA?AViterator@12@XZ 0000000140002e4c f i libvcruntime:risctrnsctrl.obj
 0001:00001e58       ?end@TryBlockMap4@FH4@@QEAA?AViterator@12@XZ 0000000140002e58 f i libvcruntime:risctrnsctrl.obj
 0001:00001e64       ?imageRelToByteBuffer@FH4@@YAPEAE_KH@Z 0000000140002e64 f i libvcruntime:risctrnsctrl.obj
 0001:00001e6c       ?incrementToSentinel@iterator@TryBlockMap4@FH4@@QEAAXXZ 0000000140002e6c f i libvcruntime:risctrnsctrl.obj
 0001:00001e70       ?setBuffer@TryBlockMap4@FH4@@QEAAXViterator@12@@Z 0000000140002e70 f i libvcruntime:risctrnsctrl.obj
 0001:00002034       _CreateFrameInfo           0000000140003034 f   libvcruntime:risctrnsctrl.obj
 0001:00002070       _FindAndUnlinkFrame        0000000140003070 f   libvcruntime:risctrnsctrl.obj
 0001:000020c4       _GetImageBase              00000001400030c4 f   libvcruntime:risctrnsctrl.obj
 0001:000020d8       _GetThrowImageBase         00000001400030d8 f   libvcruntime:risctrnsctrl.obj
 0001:000020ec       _SetImageBase              00000001400030ec f   libvcruntime:risctrnsctrl.obj
 0001:00002104       _SetThrowImageBase         0000000140003104 f   libvcruntime:risctrnsctrl.obj
 0001:0000211c       __CxxFrameHandler          000000014000311c f   libvcruntime:risctrnsctrl.obj
 0001:00002124       __CxxFrameHandler2         0000000140003124 f   libvcruntime:risctrnsctrl.obj
 0001:0000212c       __CxxFrameHandler3         000000014000312c f   libvcruntime:risctrnsctrl.obj
 0001:000021b4       __CxxFrameHandler4         00000001400031b4 f   libvcruntime:risctrnsctrl.obj
 0001:00002274       __C_specific_handler       0000000140003274 f   libvcruntime:riscchandler.obj
 0001:0000246c       __vcrt_initialize          000000014000346c f   libvcruntime:initialization.obj
 0001:00002494       __vcrt_thread_attach       0000000140003494 f   libvcruntime:initialization.obj
 0001:000024a8       __vcrt_thread_detach       00000001400034a8 f   libvcruntime:initialization.obj
 0001:000024bc       __vcrt_uninitialize        00000001400034bc f   libvcruntime:initialization.obj
 0001:000024d8       __vcrt_uninitialize_critical 00000001400034d8 f   libvcruntime:initialization.obj
 0001:000024fc       ??$?RD@__crt_internal_free_policy@@QEBAXQEBD@Z 00000001400034fc f i libvcruntime:std_type_info.obj
 0001:00002504       ??$?RX@__crt_internal_free_policy@@QEBAXQEBX@Z 0000000140003504 f i libvcruntime:std_type_info.obj
 0001:0000250c       ??$__crt_interlocked_compare_exchange_pointer@$$CBDPEAD$$T@@YAPEBDPEDSEBDQEAD$$T@Z 000000014000350c f i libvcruntime:std_type_info.obj
 0001:00002518       ??$__crt_interlocked_read_pointer@$$CBD@@YAPEBDPEDSEBD@Z 0000000140003518 f i libvcruntime:std_type_info.obj
 0001:00002520       ??0?$__crt_unique_heap_ptr@DU__crt_internal_free_policy@@@@QEAA@QEAD@Z 0000000140003520 f i libvcruntime:std_type_info.obj
 0001:00002528       ??0?$__crt_unique_heap_ptr@XU__crt_internal_free_policy@@@@QEAA@QEAX@Z 0000000140003528 f i libvcruntime:std_type_info.obj
 0001:00002530       ??1?$__crt_unique_heap_ptr@DU__crt_internal_free_policy@@@@QEAA@XZ 0000000140003530 f i libvcruntime:std_type_info.obj
 0001:0000254c       ??1?$__crt_unique_heap_ptr@XU__crt_internal_free_policy@@@@QEAA@XZ 000000014000354c f i libvcruntime:std_type_info.obj
 0001:00002568       ??B?$__crt_unique_heap_ptr@DU__crt_internal_free_policy@@@@QEBA_NXZ 0000000140003568 f i libvcruntime:std_type_info.obj
 0001:00002570       ??B?$__crt_unique_heap_ptr@XU__crt_internal_free_policy@@@@QEBA_NXZ 0000000140003570 f i libvcruntime:std_type_info.obj
 0001:00002588       ?__crt_interlocked_read_64@@YA_JPED_J@Z 0000000140003588 f i libvcruntime:std_type_info.obj
 0001:00002590       ?detach@?$__crt_unique_heap_ptr@XU__crt_internal_free_policy@@@@QEAAPEAXXZ 0000000140003590 f i libvcruntime:std_type_info.obj
 0001:00002598       ?get@?$__crt_unique_heap_ptr@DU__crt_internal_free_policy@@@@QEBAPEADXZ 0000000140003598 f i libvcruntime:std_type_info.obj
 0001:0000259c       ?get@?$__crt_unique_heap_ptr@XU__crt_internal_free_policy@@@@QEBAPEAXXZ 000000014000359c f i libvcruntime:std_type_info.obj
 0001:000025a0       ?is_valid@?$__crt_unique_heap_ptr@DU__crt_internal_free_policy@@@@QEBA_NXZ 00000001400035a0 f i libvcruntime:std_type_info.obj
 0001:000025a8       ?is_valid@?$__crt_unique_heap_ptr@XU__crt_internal_free_policy@@@@QEBA_NXZ 00000001400035a8 f i libvcruntime:std_type_info.obj
 0001:000025b0       ?release@?$__crt_unique_heap_ptr@DU__crt_internal_free_policy@@@@QEAAXXZ 00000001400035b0 f i libvcruntime:std_type_info.obj
 0001:000025cc       ?release@?$__crt_unique_heap_ptr@XU__crt_internal_free_policy@@@@QEAAXXZ 00000001400035cc f i libvcruntime:std_type_info.obj
 0001:000025e8       __std_type_info_compare    00000001400035e8 f   libvcruntime:std_type_info.obj
 0001:00002610       __std_type_info_destroy_list 0000000140003610 f   libvcruntime:std_type_info.obj
 0001:0000263c       __std_type_info_hash       000000014000363c f   libvcruntime:std_type_info.obj
 0001:00002674       __std_type_info_name       0000000140003674 f   libvcruntime:std_type_info.obj
 0001:0000278c       __DestructExceptionObject  000000014000378c f   libvcruntime:ehhelpers.obj
 0001:000027fc       ?_CallMemberFunction0@@YAXQEAX0@Z 00000001400037fc f i libvcruntime:ehhelpers.obj
 0001:00002858       ?raw_name@type_info@@QEBAPEBDXZ 0000000140003858 f i libvcruntime:ehhelpers.obj
 0001:00002860       _IsExceptionObjectToBeDestroyed 0000000140003860 f   libvcruntime:ehhelpers.obj
 0001:00002890       _SetWinRTOutOfMemoryExceptionCallback 0000000140003890 f   libvcruntime:ehhelpers.obj
 0001:00002898       __AdjustPointer            0000000140003898 f   libvcruntime:ehhelpers.obj
 0001:000028bc       __FrameUnwindFilter        00000001400038bc f   libvcruntime:ehhelpers.obj
 0001:00002924       __GetPlatformExceptionInfo 0000000140003924 f   libvcruntime:ehhelpers.obj
 0001:00002980       __current_exception        0000000140003980 f   libvcruntime:ehhelpers.obj
 0001:00002994       __current_exception_context 0000000140003994 f   libvcruntime:ehhelpers.obj
 0001:000029a8       __processing_throw         00000001400039a8 f   libvcruntime:ehhelpers.obj
 0001:000029bc       __std_terminate            00000001400039bc f   libvcruntime:ehhelpers.obj
 0001:000029c8       _is_exception_typeof       00000001400039c8 f   libvcruntime:ehhelpers.obj
 0001:00002a80       memset_repstos             0000000140003a80 f   libvcruntime:memset.obj
 0001:00002aa0       memset                     0000000140003aa0 f   libvcruntime:memset.obj
 0001:00002e28       ??$?RU__vcrt_ptd@@@__crt_internal_free_policy@@QEBAXQEBU__vcrt_ptd@@@Z 0000000140003e28 f i libvcruntime:per_thread_data.obj
 0001:00002e30       ??0?$__crt_unique_heap_ptr@U__vcrt_ptd@@U__crt_internal_free_policy@@@@QEAA@QEAU__vcrt_ptd@@@Z 0000000140003e30 f i libvcruntime:per_thread_data.obj
 0001:00002e54       ??1?$__crt_unique_heap_ptr@U__vcrt_ptd@@U__crt_internal_free_policy@@@@QEAA@XZ 0000000140003e54 f i libvcruntime:per_thread_data.obj
 0001:00002e7c       ??B?$__crt_unique_heap_ptr@U__vcrt_ptd@@U__crt_internal_free_policy@@@@QEBA_NXZ 0000000140003e7c f i libvcruntime:per_thread_data.obj
 0001:00002e84       ?detach@?$__crt_unique_heap_ptr@U__vcrt_ptd@@U__crt_internal_free_policy@@@@QEAAPEAU__vcrt_ptd@@XZ 0000000140003e84 f i libvcruntime:per_thread_data.obj
 0001:00002e8c       ?get@?$__crt_unique_heap_ptr@U__vcrt_ptd@@U__crt_internal_free_policy@@@@QEBAPEAU__vcrt_ptd@@XZ 0000000140003e8c f i libvcruntime:per_thread_data.obj
 0001:00002e90       ?is_valid@?$__crt_unique_heap_ptr@U__vcrt_ptd@@U__crt_internal_free_policy@@@@QEBA_NXZ 0000000140003e90 f i libvcruntime:per_thread_data.obj
 0001:00002e98       ?release@?$__crt_unique_heap_ptr@U__vcrt_ptd@@U__crt_internal_free_policy@@@@QEAAXXZ 0000000140003e98 f i libvcruntime:per_thread_data.obj
 0001:00002ee0       __vcrt_freefls             0000000140003ee0 f   libvcruntime:per_thread_data.obj
 0001:00002f00       __vcrt_freeptd             0000000140003f00 f   libvcruntime:per_thread_data.obj
 0001:00002f50       __vcrt_getptd              0000000140003f50 f   libvcruntime:per_thread_data.obj
 0001:00002f6c       __vcrt_getptd_noexit       0000000140003f6c f   libvcruntime:per_thread_data.obj
 0001:0000302c       __vcrt_getptd_noinit       000000014000402c f   libvcruntime:per_thread_data.obj
 0001:0000307c       __vcrt_initialize_ptd      000000014000407c f   libvcruntime:per_thread_data.obj
 0001:000030c4       __vcrt_uninitialize_ptd    00000001400040c4 f   libvcruntime:per_thread_data.obj
 0001:000030e8       ?GetCurrentState@__FrameHandler3@@SAHPEA_KPEAU_xDISPATCHER_CONTEXT@@PEBU_s_FuncInfo@@@Z 00000001400040e8 f   libvcruntime:ehstate.obj
 0001:00003110       ?GetUnwindTryBlock@__FrameHandler3@@SAHPEA_KPEAU_xDISPATCHER_CONTEXT@@PEBU_s_FuncInfo@@@Z 0000000140004110 f   libvcruntime:ehstate.obj
 0001:0000313c       ?SetState@__FrameHandler3@@SAXPEA_KPEBU_s_FuncInfo@@H@Z 000000014000413c f   libvcruntime:ehstate.obj
 0001:00003148       ?SetUnwindTryBlock@__FrameHandler3@@SAXPEA_KPEAU_xDISPATCHER_CONTEXT@@PEBU_s_FuncInfo@@H@Z 0000000140004148 f   libvcruntime:ehstate.obj
 0001:00003184       ?StateFromControlPc@__FrameHandler3@@SAHPEBU_s_FuncInfo@@PEAU_xDISPATCHER_CONTEXT@@@Z 0000000140004184 f   libvcruntime:ehstate.obj
 0001:0000318c       ?StateFromControlPc@__FrameHandler4@@SAHPEAUFuncInfo4@FH4@@PEAU_xDISPATCHER_CONTEXT@@@Z 000000014000418c f   libvcruntime:ehstate.obj
 0001:00003194       ?StateFromIp@__FrameHandler3@@SAHPEBU_s_FuncInfo@@PEAU_xDISPATCHER_CONTEXT@@_K@Z 0000000140004194 f   libvcruntime:ehstate.obj
 0001:000031fc       ?StateFromIp@__FrameHandler4@@SAHPEAUFuncInfo4@FH4@@PEAU_xDISPATCHER_CONTEXT@@_K@Z 00000001400041fc f   libvcruntime:ehstate.obj
 0001:000032ec       ?__FuncRelToRealOffset@@YA_KPEAU_xDISPATCHER_CONTEXT@@I@Z 00000001400042ec f i libvcruntime:ehstate.obj
 0001:000032fc       ?__RVAtoRealOffset@@YA_KPEAU_xDISPATCHER_CONTEXT@@H@Z 00000001400042fc f i libvcruntime:ehstate.obj
 0001:00004918       ??$TypeMatchHelper@V__FrameHandler3@@@@YAHPEBU_s_HandlerType@@PEBU_s_CatchableType@@PEBU_s_ThrowInfo@@@Z 0000000140005918 f i libvcruntime:frame.obj
 0001:00004a58       ??$TypeMatchHelper@V__FrameHandler4@@@@YAHPEAUHandlerType4@FH4@@PEBU_s_CatchableType@@PEBU_s_ThrowInfo@@@Z 0000000140005a58 f i libvcruntime:frame.obj
 0001:00004b9c       ??$__InternalCxxFrameHandler@V__FrameHandler3@@@@YA?AW4_EXCEPTION_DISPOSITION@@PEAUEHExceptionRecord@@PEA_KPEAU_CONTEXT@@PEAU_xDISPATCHER_CONTEXT@@PEBU_s_FuncInfo@@H1E@Z 0000000140005b9c f i libvcruntime:frame.obj
 0001:00004dd4       ??$__InternalCxxFrameHandler@V__FrameHandler4@@@@YA?AW4_EXCEPTION_DISPOSITION@@PEAUEHExceptionRecord@@PEA_KPEAU_CONTEXT@@PEAU_xDISPATCHER_CONTEXT@@PEAUFuncInfo4@FH4@@H1E@Z 0000000140005dd4 f i libvcruntime:frame.obj
 0001:00005068       ??$__InternalCxxFrameHandlerWrapper@V__FrameHandler3@@@@YA?AW4_EXCEPTION_DISPOSITION@@PEAUEHExceptionRecord@@PEA_KPEAU_CONTEXT@@PEAU_xDISPATCHER_CONTEXT@@PEBU_s_FuncInfo@@H1E@Z 0000000140006068 f i libvcruntime:frame.obj
 0001:00005070       ??$__InternalCxxFrameHandlerWrapper@V__FrameHandler4@@@@YA?AW4_EXCEPTION_DISPOSITION@@PEAUEHExceptionRecord@@PEA_KPEAU_CONTEXT@@PEAU_xDISPATCHER_CONTEXT@@PEAUFuncInfo4@FH4@@H1E@Z 0000000140006070 f i libvcruntime:frame.obj
 0001:000050cc       ??0HandlerMap4@FH4@@QEAA@PEBUTryBlockMapEntry4@1@_KH@Z 00000001400060cc f i libvcruntime:frame.obj
 0001:00005148       ??0HandlerMap@__FrameHandler3@@QEAA@PEBU_s_TryBlockMapEntry@@_KI@Z 0000000140006148 f i libvcruntime:frame.obj
 0001:0000515c       ??0HandlerType4@FH4@@QEAA@XZ 000000014000615c f i libvcruntime:frame.obj
 0001:00005174       ??0TryBlockMap4@FH4@@QEAA@PEBUFuncInfo4@1@_K@Z 0000000140006174 f i libvcruntime:frame.obj
 0001:0000524c       ??0TryBlockMap@__FrameHandler3@@QEAA@PEBU_s_FuncInfo@@_K@Z 000000014000624c f i libvcruntime:frame.obj
 0001:00005258       ??0UWMap4@FH4@@QEAA@PEBUFuncInfo4@1@_K@Z 0000000140006258 f i libvcruntime:frame.obj
 0001:0000529c       ??0bad_exception@std@@QEAA@AEBV01@@Z 000000014000629c f i libvcruntime:frame.obj
 0001:000052d8       ??0bad_exception@std@@QEAA@XZ 00000001400062d8 f i libvcruntime:frame.obj
 0001:000052f8       ??0exception@std@@QEAA@AEBV01@@Z 00000001400062f8 f i libvcruntime:frame.obj
 0001:0000532c       ??0exception@std@@QEAA@QEBDH@Z 000000014000632c f i libvcruntime:frame.obj
 0001:00005344       ??0iterator@HandlerMap4@FH4@@QEAA@AEAV12@I@Z 0000000140006344 f i libvcruntime:frame.obj
 0001:00005350       ??0iterator@HandlerMap@__FrameHandler3@@QEAA@AEAV12@I@Z 0000000140006350 f i libvcruntime:frame.obj
 0001:0000535c       ??0iterator@UWMap4@FH4@@QEAA@AEAV12@PEAE@Z 000000014000635c f i libvcruntime:frame.obj
 0001:00005368       ??1bad_exception@std@@UEAA@XZ 0000000140006368 f i libvcruntime:frame.obj
 0001:0000537c       ??1exception@std@@UEAA@XZ  000000014000637c f i libvcruntime:frame.obj
 0001:00005390       ??4iterator@UWMap4@FH4@@QEAAAEAV012@AEBV012@@Z 0000000140006390 f i libvcruntime:frame.obj
 0001:000053b0       ??8iterator@HandlerMap4@FH4@@QEBA_NAEBV012@@Z 00000001400063b0 f i libvcruntime:frame.obj
 0001:000053bc       ??8iterator@HandlerMap@__FrameHandler3@@QEBA_NAEBV012@@Z 00000001400063bc f i libvcruntime:frame.obj
 0001:000053c8       ??8type_info@@QEBA_NAEBV0@@Z 00000001400063c8 f i libvcruntime:frame.obj
 0001:000053e4       ??9iterator@HandlerMap4@FH4@@QEBA_NAEBV012@@Z 00000001400063e4 f i libvcruntime:frame.obj
 0001:000053f0       ??9iterator@HandlerMap@__FrameHandler3@@QEBA_NAEBV012@@Z 00000001400063f0 f i libvcruntime:frame.obj
 0001:000053fc       ??Diterator@HandlerMap4@FH4@@QEAA?AUHandlerType4@2@XZ 00000001400063fc f i libvcruntime:frame.obj
 0001:0000541c       ??Diterator@HandlerMap@__FrameHandler3@@QEAA?BU_s_HandlerType@@XZ 000000014000641c f i libvcruntime:frame.obj
 0001:00005440       ??Diterator@TryBlockMap@__FrameHandler3@@QEAA?BU_s_TryBlockMapEntry@@XZ 0000000140006440 f i libvcruntime:frame.obj
 0001:00005470       ??Diterator@UWMap4@FH4@@QEAA?AUUnwindMapEntry4@2@XZ 0000000140006470 f i libvcruntime:frame.obj
 0001:000054c4       ??Eiterator@HandlerMap4@FH4@@QEAAAEAV012@XZ 00000001400064c4 f i libvcruntime:frame.obj
 0001:000054e4       ??Eiterator@HandlerMap@__FrameHandler3@@QEAAAEAV012@XZ 00000001400064e4 f i libvcruntime:frame.obj
 0001:000054ec       ??Eiterator@TryBlockMap@__FrameHandler3@@QEAAAEAV012@XZ 00000001400064ec f i libvcruntime:frame.obj
 0001:000054f4       ??Eiterator@UWMap4@FH4@@QEAAAEAV012@XZ 00000001400064f4 f i libvcruntime:frame.obj
 0001:00005514       ??Giterator@UWMap4@FH4@@QEBA_JAEBV012@@Z 0000000140006514 f i libvcruntime:frame.obj
 0001:00005520       ??Miterator@TryBlockMap4@FH4@@QEBA_NAEBV012@@Z 0000000140006520 f i libvcruntime:frame.obj
 0001:0000552c       ??Miterator@TryBlockMap@__FrameHandler3@@QEBA_NAEBV012@@Z 000000014000652c f i libvcruntime:frame.obj
 0001:00005538       ??Oiterator@UWMap4@FH4@@QEBA_NAEBV012@@Z 0000000140006538 f i libvcruntime:frame.obj
 0001:00005544       ??Piterator@UWMap4@FH4@@QEBA_NAEBV012@@Z 0000000140006544 f i libvcruntime:frame.obj
 0001:00005550       ??_Ebad_exception@std@@UEAAPEAXI@Z 0000000140006550 f i libvcruntime:frame.obj
 0001:00005550       ??_Gbad_exception@std@@UEAAPEAXI@Z 0000000140006550 f i libvcruntime:frame.obj
 0001:00005594       ??_Eexception@std@@UEAAPEAXI@Z 0000000140006594 f i libvcruntime:frame.obj
 0001:00005594       ??_Gexception@std@@UEAAPEAXI@Z 0000000140006594 f i libvcruntime:frame.obj
 0001:000055d8       ?BuildCatchObject@__FrameHandler3@@SAXPEAUEHExceptionRecord@@PEAXPEBU_s_HandlerType@@PEBU_s_CatchableType@@@Z 00000001400065d8 f   libvcruntime:frame.obj
 0001:000055e0       ?BuildCatchObject@__FrameHandler4@@SAXPEAUEHExceptionRecord@@PEAXPEAUHandlerType4@FH4@@PEBU_s_CatchableType@@@Z 00000001400065e0 f   libvcruntime:frame.obj
 0001:000055e8       ?BuildCatchObjectHelper@__FrameHandler3@@SAHPEAUEHExceptionRecord@@PEAXPEBU_s_HandlerType@@PEBU_s_CatchableType@@@Z 00000001400065e8 f   libvcruntime:frame.obj
 0001:000055f0       ?BuildCatchObjectHelper@__FrameHandler4@@SAHPEAUEHExceptionRecord@@PEAXPEAUHandlerType4@FH4@@PEBU_s_CatchableType@@@Z 00000001400065f0 f   libvcruntime:frame.obj
 0001:000055f8       ?CxxCallCatchBlock@__FrameHandler3@@SAPEAXPEAU_EXCEPTION_RECORD@@@Z 00000001400065f8 f   libvcruntime:frame.obj
 0001:000057e4       ?CxxCallCatchBlock@__FrameHandler4@@SAPEAXPEAU_EXCEPTION_RECORD@@@Z 00000001400067e4 f   libvcruntime:frame.obj
 0001:00005a34       ?DecompHandler@HandlerMap4@FH4@@AEAAXXZ 0000000140006a34 f i libvcruntime:frame.obj
 0001:00005c80       ?FrameUnwindToState@__FrameHandler3@@SAXPEA_KPEAU_xDISPATCHER_CONTEXT@@PEBU_s_FuncInfo@@H@Z 0000000140006c80 f   libvcruntime:frame.obj
 0001:00005e0c       ?FrameUnwindToState@__FrameHandler4@@SAXPEA_KPEAU_xDISPATCHER_CONTEXT@@PEAUFuncInfo4@FH4@@H@Z 0000000140006e0c f   libvcruntime:frame.obj
 0001:00006108       ?GetHandlerSearchState@__FrameHandler3@@SAHPEA_KPEAU_xDISPATCHER_CONTEXT@@PEBU_s_FuncInfo@@@Z 0000000140007108 f i libvcruntime:frame.obj
 0001:000061a0       ?GetHandlerSearchState@__FrameHandler4@@SAHPEA_KPEAU_xDISPATCHER_CONTEXT@@PEAUFuncInfo4@FH4@@@Z 00000001400071a0 f i libvcruntime:frame.obj
 0001:00006204       ?GetMaxState@__FrameHandler3@@SAHPEAU_xDISPATCHER_CONTEXT@@PEBU_s_FuncInfo@@@Z 0000000140007204 f i libvcruntime:frame.obj
 0001:00006208       ?GetMaxState@__FrameHandler4@@SAHPEAU_xDISPATCHER_CONTEXT@@PEAUFuncInfo4@FH4@@@Z 0000000140007208 f i libvcruntime:frame.obj
 0001:000063b8       ?ReadEntry@UWMap4@FH4@@AEAAXPEAPEAE@Z 00000001400073b8 f i libvcruntime:frame.obj
 0001:00006454       ?TypeMatch@__FrameHandler3@@SAHPEBU_s_HandlerType@@PEBU_s_CatchableType@@PEBU_s_ThrowInfo@@@Z 0000000140007454 f   libvcruntime:frame.obj
 0001:0000645c       ?TypeMatch@__FrameHandler4@@SAHPEAUHandlerType4@FH4@@PEBU_s_CatchableType@@PEBU_s_ThrowInfo@@@Z 000000014000745c f   libvcruntime:frame.obj
 0001:00006464       ?WalkBack@UWMap4@FH4@@AEAAXPEAPEAE@Z 0000000140007464 f i libvcruntime:frame.obj
 0001:0000649c       ?WalkBack@iterator@UWMap4@FH4@@QEAAXXZ 000000014000749c f i libvcruntime:frame.obj
 0001:000064dc       ?WalkForward@UWMap4@FH4@@AEAAXPEAPEAE@Z 00000001400074dc f i libvcruntime:frame.obj
 0001:000064e4       ?_CallMemberFunction1@@YAXQEAX00@Z 00000001400074e4 f i libvcruntime:frame.obj
 0001:000064f0       ?_CallMemberFunction2@@YAXQEAX00H@Z 00000001400074f0 f i libvcruntime:frame.obj
 0001:00006514       ?begin@HandlerMap4@FH4@@QEAA?AViterator@12@XZ 0000000140007514 f i libvcruntime:frame.obj
 0001:00006520       ?begin@HandlerMap@__FrameHandler3@@QEAA?AViterator@12@XZ 0000000140007520 f i libvcruntime:frame.obj
 0001:0000652c       ?begin@UWMap4@FH4@@QEAA?AViterator@12@XZ 000000014000752c f i libvcruntime:frame.obj
 0001:0000653c       ?end@HandlerMap4@FH4@@QEAA?AViterator@12@XZ 000000014000753c f i libvcruntime:frame.obj
 0001:00006548       ?end@HandlerMap@__FrameHandler3@@QEAA?AViterator@12@XZ 0000000140007548 f i libvcruntime:frame.obj
 0001:00006554       ?getESTypes@__FrameHandler3@@SAPEBU_s_ESTypeList@@PEBU_s_FuncInfo@@@Z 0000000140007554 f i libvcruntime:frame.obj
 0001:0000657c       ?getESTypes@__FrameHandler4@@SAPEBU_s_ESTypeList@@PEAUFuncInfo4@FH4@@@Z 000000014000757c f i libvcruntime:frame.obj
 0001:00006580       ?getLastEntry@HandlerMap4@FH4@@QEAAPEAUHandlerType4@2@XZ 0000000140007580 f i libvcruntime:frame.obj
 0001:000065d0       ?getLastEntry@HandlerMap@__FrameHandler3@@QEAAPEBU_s_HandlerType@@XZ 00000001400075d0 f i libvcruntime:frame.obj
 0001:000065e4       ?getMagicNum@__FrameHandler3@@SAIPEBU_s_FuncInfo@@@Z 00000001400075e4 f i libvcruntime:frame.obj
 0001:000065ec       ?getMagicNum@__FrameHandler4@@SAIPEAUFuncInfo4@FH4@@@Z 00000001400075ec f i libvcruntime:frame.obj
 0001:000065f4       ?getNumTryBlocks@TryBlockMap4@FH4@@QEAAIXZ 00000001400075f4 f i libvcruntime:frame.obj
 0001:000065f8       ?getNumTryBlocks@TryBlockMap@__FrameHandler3@@QEAAIXZ 00000001400075f8 f i libvcruntime:frame.obj
 0001:00006600       ?getStartStop@UWMap4@FH4@@QEAAXHHAEAViterator@12@0@Z 0000000140007600 f i libvcruntime:frame.obj
 0001:000066d0       ?getStateFromIterators@UWMap4@FH4@@SAHAEBViterator@12@H0H0@Z 00000001400076d0 f i libvcruntime:frame.obj
 0001:00006780       ?isEHs@__FrameHandler3@@SA_NPEBU_s_FuncInfo@@@Z 0000000140007780 f i libvcruntime:frame.obj
 0001:00006788       ?isEHs@__FrameHandler4@@SA_NPEAUFuncInfo4@FH4@@@Z 0000000140007788 f i libvcruntime:frame.obj
 0001:00006790       ?isNoExcept@__FrameHandler3@@SA_NPEBU_s_FuncInfo@@@Z 0000000140007790 f i libvcruntime:frame.obj
 0001:0000679c       ?isNoExcept@__FrameHandler4@@SA_NPEAUFuncInfo4@FH4@@@Z 000000014000779c f i libvcruntime:frame.obj
 0001:000067a4       ?reset@HandlerType4@FH4@@QEAAXXZ 00000001400077a4 f i libvcruntime:frame.obj
 0001:000067b8       ?resetBuffer@HandlerMap4@FH4@@QEAAXXZ 00000001400077b8 f i libvcruntime:frame.obj
 0001:000067c8       ?setBuffer@HandlerMap4@FH4@@QEAAXI@Z 00000001400077c8 f i libvcruntime:frame.obj
 0001:00006804       ?what@exception@std@@UEBAPEBDXZ 0000000140007804 f i libvcruntime:frame.obj
 0001:00006818       __BuildCatchObject         0000000140007818 f   libvcruntime:frame.obj
 0001:00006820       __BuildCatchObjectHelper   0000000140007820 f   libvcruntime:frame.obj
 0001:00006828       __TypeMatch                0000000140007828 f   libvcruntime:frame.obj
 0001:00006830       __vcrt_EncodePointer       0000000140007830 f i libvcruntime:frame.obj
 0001:00006850       _NLG_Notify                0000000140007850 f   libvcruntime:notify.obj
 0001:00006870       __NLG_Dispatch2            0000000140007870 f   libvcruntime:notify.obj
 0001:00006880       __NLG_Return2              0000000140007880 f   libvcruntime:notify.obj
 0001:0000688c       __except_validate_context_record 000000014000788c f   libvcruntime:jbcxrval.obj
 0001:000068c4       __except_validate_jump_buffer 00000001400078c4 f   libvcruntime:jbcxrval.obj
 0001:00006904       __except_validate_jump_buffer_common 0000000140007904 f i libvcruntime:jbcxrval.obj
 0001:00006960       __vcrt_initialize_locks    0000000140007960 f   libvcruntime:locks.obj
 0001:000069a8       __vcrt_lock                00000001400079a8 f   libvcruntime:locks.obj
 0001:000069c4       __vcrt_uninitialize_locks  00000001400079c4 f   libvcruntime:locks.obj
 0001:000069fc       __vcrt_unlock              00000001400079fc f   libvcruntime:locks.obj
 0001:00006a18       ??$?0$00@DName@@QEAA@PEBDU?$StringLifeSelector@$00@@@Z 0000000140007a18 f i libvcruntime:undname.obj
 0001:00006a58       ??$?0$00@pcharNode@@QEAA@PEBDHU?$StringLifeSelector@$00@@@Z 0000000140007a58 f i libvcruntime:undname.obj
 0001:00006a70       ??$?0$01@DName@@QEAA@PEBDU?$StringLifeSelector@$01@@@Z 0000000140007a70 f i libvcruntime:undname.obj
 0001:00006ab0       ??$?0$01@pcharNode@@QEAA@PEBDHU?$StringLifeSelector@$01@@@Z 0000000140007ab0 f i libvcruntime:undname.obj
 0001:00006b24       ??$?0$0A@@DName@@QEAA@PEBDU?$StringLifeSelector@$0A@@@@Z 0000000140007b24 f i libvcruntime:undname.obj
 0001:00006b64       ??$?0$0A@@pcharNode@@QEAA@PEBDHU?$StringLifeSelector@$0A@@@@Z 0000000140007b64 f i libvcruntime:undname.obj
 0001:00006bd8       ??$?0_K$0A@@?$optional@_K@std@@QEAA@$$QEA_K@Z 0000000140007bd8 f i libvcruntime:undname.obj
 0001:00006be8       ??$?0_K@?$_Optional_construct_base@_K@std@@QEAA@Uin_place_t@1@$$QEA_K@Z 0000000140007be8 f i libvcruntime:undname.obj
 0001:00006bf8       ??$?0_K@?$_Optional_destruct_base@_K$00@std@@QEAA@Uin_place_t@1@$$QEA_K@Z 0000000140007bf8 f i libvcruntime:undname.obj
 0001:00006c08       ??$append@VDNameNode@@@DName@@AEAAXPEBVDNameNode@@@Z 0000000140007c08 f i libvcruntime:undname.obj
 0001:00006c6c       ??$append@VDNameStatusNode@@@DName@@AEAAXPEBVDNameStatusNode@@@Z 0000000140007c6c f i libvcruntime:undname.obj
 0001:00006cd0       ??$append@VcharNode@@@DName@@AEAAXPEBVcharNode@@@Z 0000000140007cd0 f i libvcruntime:undname.obj
 0001:00006d34       ??$append@VpDNameNode@@@DName@@AEAAXPEBVpDNameNode@@@Z 0000000140007d34 f i libvcruntime:undname.obj
 0001:00006d98       ??$append@VpcharNode@@@DName@@AEAAXPEBVpcharNode@@@Z 0000000140007d98 f i libvcruntime:undname.obj
 0001:00006dfc       ??$doPchar@$00@DName@@AEAAXPEBDH@Z 0000000140007dfc f i libvcruntime:undname.obj
 0001:00006ea0       ??$doPchar@$01@DName@@AEAAXPEBDH@Z 0000000140007ea0 f i libvcruntime:undname.obj
 0001:00006f38       ??$doPchar@$0A@@DName@@AEAAXPEBDH@Z 0000000140007f38 f i libvcruntime:undname.obj
 0001:00006fd0       ??$forward@_K@std@@YA$$QEA_KAEA_K@Z 0000000140007fd0 f i libvcruntime:undname.obj
 0001:000070f0       ??$size@D$04@std@@YA_KAEAY04$$CBD@Z 00000001400080f0 f i libvcruntime:undname.obj
 0001:000070f8       ??0?$_Optional_construct_base@_K@std@@QEAA@XZ 00000001400080f8 f i libvcruntime:undname.obj
 0001:00007100       ??0?$_Optional_destruct_base@_K$00@std@@QEAA@XZ 0000000140008100 f i libvcruntime:undname.obj
 0001:00007108       ??0?$optional@_K@std@@QEAA@XZ 0000000140008108 f i libvcruntime:undname.obj
 0001:00007110       ??0Block@_HeapManager@@QEAA@XZ 0000000140008110 f i libvcruntime:undname.obj
 0001:00007118       ??0DName@@QEAA@AEAPEBDD@Z  0000000140008118 f   libvcruntime:undname.obj
 0001:000071c8       ??0DName@@QEAA@AEBUStringLiteral@@@Z 00000001400081c8 f   libvcruntime:undname.obj
 0001:000071f4       ??0DName@@QEAA@AEBV0@@Z    00000001400081f4 f i libvcruntime:undname.obj
 0001:00007204       ??0DName@@QEAA@D@Z         0000000140008204 f   libvcruntime:undname.obj
 0001:00007224       ??0DName@@QEAA@PEAV0@@Z    0000000140008224 f   libvcruntime:undname.obj
 0001:000072a8       ??0DName@@QEAA@W4DNameStatus@@@Z 00000001400082a8 f   libvcruntime:undname.obj
 0001:000072d8       ??0DName@@QEAA@XZ          00000001400082d8 f i libvcruntime:undname.obj
 0001:000072e4       ??0DName@@QEAA@_J@Z        00000001400082e4 f   libvcruntime:undname.obj
 0001:0000738c       ??0DName@@QEAA@_K@Z        000000014000838c f   libvcruntime:undname.obj
 0001:00007414       ??0DNameNode@@IEAA@XZ      0000000140008414 f i libvcruntime:undname.obj
 0001:00007424       ??0Replicator@@QEAA@XZ     0000000140008424 f i libvcruntime:undname.obj
 0001:00007438       ??0UnDecorator@@QEAA@PEBDP6APEADJ@ZK@Z 0000000140008438 f i libvcruntime:undname.obj
 0001:00007488       ??0_Nontrivial_dummy_type@std@@QEAA@XZ 0000000140008488 f i libvcruntime:undname.obj
 0001:0000748c       ??0charNode@@QEAA@D@Z      000000014000848c f i libvcruntime:undname.obj
 0001:000074a0       ??0pDNameNode@@QEAA@PEAVDName@@@Z 00000001400084a0 f   libvcruntime:undname.obj
 0001:000074c8       ??0pairNode@@QEAA@PEBVDNameNode@@0@Z 00000001400084c8 f i libvcruntime:undname.obj
 0001:000074ec       ??2@YAPEAX_KAEAV_HeapManager@@H@Z 00000001400084ec f   libvcruntime:undname.obj
 0001:00007518       ??4DName@@QEAAAEAV0@AEBUStringLiteral@@@Z 0000000140008518 f   libvcruntime:undname.obj
 0001:00007540       ??4DName@@QEAAAEAV0@AEBV0@@Z 0000000140008540 f   libvcruntime:undname.obj
 0001:00007550       ??4DName@@QEAAAEAV0@D@Z    0000000140008550 f i libvcruntime:undname.obj
 0001:00007570       ??4DName@@QEAAAEAV0@PEAV0@@Z 0000000140008570 f   libvcruntime:undname.obj
 0001:000075e8       ??4DName@@QEAAAEAV0@W4DNameStatus@@@Z 00000001400085e8 f   libvcruntime:undname.obj
 0001:00007618       ??AReplicator@@QEBA?AVDName@@H@Z 0000000140008618 f   libvcruntime:undname.obj
 0001:00007658       ??B?$optional@_K@std@@QEBA_NXZ 0000000140008658 f i libvcruntime:undname.obj
 0001:0000765c       ??D?$_Optional_construct_base@_K@std@@QEGAAAEA_KXZ 000000014000865c f i libvcruntime:undname.obj
 0001:00007660       ??H@YA?AVDName@@AEBUStringLiteral@@AEBV0@@Z 0000000140008660 f i libvcruntime:undname.obj
 0001:00007698       ??H@YA?AVDName@@DAEBV0@@Z  0000000140008698 f i libvcruntime:undname.obj
 0001:000076dc       ??H@YA?AVDName@@W4DNameStatus@@AEBV0@@Z 00000001400086dc f i libvcruntime:undname.obj
 0001:00007728       ??HDName@@QEBA?AV0@AEBUStringLiteral@@@Z 0000000140008728 f   libvcruntime:undname.obj
 0001:00007754       ??HDName@@QEBA?AV0@AEBV0@@Z 0000000140008754 f   libvcruntime:undname.obj
 0001:00007780       ??HDName@@QEBA?AV0@D@Z     0000000140008780 f   libvcruntime:undname.obj
 0001:000077ac       ??HDName@@QEBA?AV0@PEAV0@@Z 00000001400087ac f   libvcruntime:undname.obj
 0001:000077d8       ??HDName@@QEBA?AV0@W4DNameStatus@@@Z 00000001400087d8 f   libvcruntime:undname.obj
 0001:00007804       ??HStringLiteral@@QEBA?AU0@H@Z 0000000140008804 f i libvcruntime:undname.obj
 0001:0000781c       ??YDName@@QEAAAEAV0@AEBUStringLiteral@@@Z 000000014000881c f   libvcruntime:undname.obj
 0001:0000789c       ??YDName@@QEAAAEAV0@AEBV0@@Z 000000014000889c f   libvcruntime:undname.obj
 0001:000078f4       ??YDName@@QEAAAEAV0@D@Z    00000001400088f4 f   libvcruntime:undname.obj
 0001:00007960       ??YDName@@QEAAAEAV0@PEAV0@@Z 0000000140008960 f   libvcruntime:undname.obj
 0001:000079f4       ??YDName@@QEAAAEAV0@W4DNameStatus@@@Z 00000001400089f4 f   libvcruntime:undname.obj
 0001:00007a4c       ??YReplicator@@QEAAAEAV0@AEBVDName@@@Z 0000000140008a4c f   libvcruntime:undname.obj
 0001:00007aa4       ??_5DName@@QEAAAEAV0@AEBV0@@Z 0000000140008aa4 f   libvcruntime:undname.obj
 0001:00007abc       ??__K_l@@YA?AUStringLiteral@@PEBD_K@Z 0000000140008abc f i libvcruntime:undname.obj
 0001:00007ac8       ?Constructor@_HeapManager@@QEAAXP6APEAX_K@ZP6AXPEAX@Z@Z 0000000140008ac8 f i libvcruntime:undname.obj
 0001:00007ae0       ?Destructor@_HeapManager@@QEAAXXZ 0000000140008ae0 f i libvcruntime:undname.obj
 0001:00007b2c       ?UScore@UnDecorator@@SA?AUStringLiteral@@W4Tokens@@@Z 0000000140008b2c f   libvcruntime:undname.obj
 0001:00007b78       ?composeDeclaration@UnDecorator@@CA?AVDName@@AEBV2@@Z 0000000140008b78 f i libvcruntime:undname.obj
 0001:00008a6c       ?doAccessSpecifiers@UnDecorator@@SAHXZ 0000000140009a6c f i libvcruntime:undname.obj
 0001:00008a7c       ?doAllocationLanguage@UnDecorator@@SAHXZ 0000000140009a7c f i libvcruntime:undname.obj
 0001:00008a8c       ?doAllocationModel@UnDecorator@@SAHXZ 0000000140009a8c f i libvcruntime:undname.obj
 0001:00008a9c       ?doEcsu@UnDecorator@@SAHXZ 0000000140009a9c f i libvcruntime:undname.obj
 0001:00008aac       ?doEllipsis@UnDecorator@@SAHXZ 0000000140009aac f i libvcruntime:undname.obj
 0001:00008abc       ?doFunctionReturns@UnDecorator@@SAHXZ 0000000140009abc f i libvcruntime:undname.obj
 0001:00008acc       ?doMSKeywords@UnDecorator@@SAHXZ 0000000140009acc f i libvcruntime:undname.obj
 0001:00008adc       ?doMemberTypes@UnDecorator@@SAHXZ 0000000140009adc f i libvcruntime:undname.obj
 0001:00008aec       ?doNameOnly@UnDecorator@@SAHXZ 0000000140009aec f i libvcruntime:undname.obj
 0001:00008af8       ?doNoIdentCharCheck@UnDecorator@@SAHXZ 0000000140009af8 f i libvcruntime:undname.obj
 0001:00008b04       ?doPchar@DName@@AEAAXD@Z   0000000140009b04 f   libvcruntime:undname.obj
 0001:00008b54       ?doPtr64@UnDecorator@@SAHXZ 0000000140009b54 f i libvcruntime:undname.obj
 0001:00008b64       ?doRestrictionSpec@UnDecorator@@SAHXZ 0000000140009b64 f i libvcruntime:undname.obj
 0001:00008b74       ?doThisTypes@UnDecorator@@SAHXZ 0000000140009b74 f i libvcruntime:undname.obj
 0001:00008b88       ?doThrowTypes@UnDecorator@@SAHXZ 0000000140009b88 f i libvcruntime:undname.obj
 0001:00008b98       ?doTypeOnly@UnDecorator@@SAHXZ 0000000140009b98 f i libvcruntime:undname.obj
 0001:00008ba4       ?doUnderScore@UnDecorator@@SAHXZ 0000000140009ba4 f i libvcruntime:undname.obj
 0001:00008bb0       ?getAddressOf@UnDecorator@@CA?AVDName@@XZ 0000000140009bb0 f   libvcruntime:undname.obj
 0001:00008c40       ?getArgumentList@UnDecorator@@CA?AVDName@@XZ 0000000140009c40 f   libvcruntime:undname.obj
 0001:00008df4       ?getArgumentTypes@UnDecorator@@CA?AVDName@@XZ 0000000140009df4 f   libvcruntime:undname.obj
 0001:00008f40       ?getArrayAccess@UnDecorator@@CA?AVDName@@XZ 0000000140009f40 f   libvcruntime:undname.obj
 0001:00008fdc       ?getArrayObject@UnDecorator@@CA?AVDName@@XZ 0000000140009fdc f   libvcruntime:undname.obj
 0001:00009098       ?getArrayType@UnDecorator@@CA?AVDName@@AEBV2@@Z 000000014000a098 f i libvcruntime:undname.obj
 0001:000092e0       ?getBasedType@UnDecorator@@CA?AVDName@@XZ 000000014000a2e0 f   libvcruntime:undname.obj
 0001:000093d8       ?getBasicDataType@UnDecorator@@CA?AVDName@@AEBV2@@Z 000000014000a3d8 f   libvcruntime:undname.obj
 0001:000099dc       ?getCHPEName@UnDecorator@@QEAAPEADPEADH@Z 000000014000a9dc f i libvcruntime:undname.obj
 0001:00009afc       ?getCallIndex@UnDecorator@@CA?AVDName@@XZ 000000014000aafc f i libvcruntime:undname.obj
 0001:00009b18       ?getCallingConvention@UnDecorator@@CA?AVDName@@XZ 000000014000ab18 f   libvcruntime:undname.obj
 0001:00009c50       ?getDataIndirectType@UnDecorator@@CA?AVDName@@AEBV2@W4IndirectionKind@@0H@Z 000000014000ac50 f   libvcruntime:undname.obj
 0001:0000a574       ?getDataIndirectType@UnDecorator@@CA?AVDName@@XZ 000000014000b574 f i libvcruntime:undname.obj
 0001:0000a5b0       ?getDataType@UnDecorator@@CA?AVDName@@PEAV2@@Z 000000014000b5b0 f   libvcruntime:undname.obj
 0001:0000a6c4       ?getDecoratedName@UnDecorator@@CA?AVDName@@XZ 000000014000b6c4 f   libvcruntime:undname.obj
 0001:0000a9ac       ?getDimension@UnDecorator@@CA?AVDName@@_N@Z 000000014000b9ac f   libvcruntime:undname.obj
 0001:0000aaf4       ?getDispatchTarget@UnDecorator@@CA?AVDName@@XZ 000000014000baf4 f   libvcruntime:undname.obj
 0001:0000ab54       ?getDisplacement@UnDecorator@@CA?AVDName@@XZ 000000014000bb54 f i libvcruntime:undname.obj
 0001:0000ab70       ?getECSUDataType@UnDecorator@@CA?AVDName@@XZ 000000014000bb70 f   libvcruntime:undname.obj
 0001:0000ad6c       ?getECSUName@UnDecorator@@CA?AVDName@@XZ 000000014000bd6c f i libvcruntime:undname.obj
 0001:0000ad84       ?getEnumType@UnDecorator@@CA?AVDName@@XZ 000000014000bd84 f i libvcruntime:undname.obj
 0001:0000aeb4       ?getExtendedDataIndirectType@UnDecorator@@CA?AVDName@@AEAW4IndirectionKind@@AEA_NH@Z 000000014000beb4 f   libvcruntime:undname.obj
 0001:0000b0b8       ?getExternalDataType@UnDecorator@@CA?AVDName@@AEBV2@@Z 000000014000c0b8 f i libvcruntime:undname.obj
 0001:0000b178       ?getFloatingPoint@UnDecorator@@CA?AVDName@@H@Z 000000014000c178 f   libvcruntime:undname.obj
 0001:0000b2e0       ?getFunctionIndirectType@UnDecorator@@CA?AVDName@@AEBV2@@Z 000000014000c2e0 f   libvcruntime:undname.obj
 0001:0000b814       ?getGuardNumber@UnDecorator@@CA?AVDName@@XZ 000000014000c814 f i libvcruntime:undname.obj
 0001:0000b830       ?getLastChar@DName@@QEBADXZ 000000014000c830 f i libvcruntime:undname.obj
 0001:0000b84c       ?getLastChar@DNameStatusNode@@UEBADXZ 000000014000c84c f i libvcruntime:undname.obj
 0001:0000b858       ?getLastChar@charNode@@UEBADXZ 000000014000c858 f i libvcruntime:undname.obj
 0001:0000b85c       ?getLastChar@pDNameNode@@UEBADXZ 000000014000c85c f i libvcruntime:undname.obj
 0001:0000b888       ?getLastChar@pairNode@@UEBADXZ 000000014000c888 f i libvcruntime:undname.obj
 0001:0000b8c0       ?getLastChar@pcharNode@@UEBADXZ 000000014000c8c0 f i libvcruntime:undname.obj
 0001:0000b8d4       ?getLexicalFrame@UnDecorator@@CA?AVDName@@XZ 000000014000c8d4 f i libvcruntime:undname.obj
 0001:0000b938       ?getMemberAccess@UnDecorator@@CA?AVDName@@XZ 000000014000c938 f   libvcruntime:undname.obj
 0001:0000b9cc       ?getMemoryWithBuffer@_HeapManager@@QEAAPEAX_K@Z 000000014000c9cc f   libvcruntime:undname.obj
 0001:0000ba5c       ?getMemoryWithoutBuffer@_HeapManager@@QEAAPEAX_K@Z 000000014000ca5c f   libvcruntime:undname.obj
 0001:0000ba70       ?getNoexcept@UnDecorator@@CA?AVDName@@XZ 000000014000ca70 f   libvcruntime:undname.obj
 0001:0000bad4       ?getNumberOfDimensions@UnDecorator@@CAHXZ 000000014000cad4 f   libvcruntime:undname.obj
 0001:0000bb3c       ?getOperatorName@UnDecorator@@CA?AVDName@@_NPEA_N@Z 000000014000cb3c f i libvcruntime:undname.obj
 0001:0000c4ec       ?getPointerToMember@UnDecorator@@CA?AVDName@@XZ 000000014000d4ec f   libvcruntime:undname.obj
 0001:0000c5e4       ?getPointerType@UnDecorator@@CA?AVDName@@AEBV2@0@Z 000000014000d5e4 f i libvcruntime:undname.obj
 0001:0000c604       ?getPointerTypeArray@UnDecorator@@CA?AVDName@@AEBV2@0@Z 000000014000d604 f i libvcruntime:undname.obj
 0001:0000c620       ?getPrimaryDataType@UnDecorator@@CA?AVDName@@AEBV2@@Z 000000014000d620 f   libvcruntime:undname.obj
 0001:0000c8d8       ?getPtrRefDataType@UnDecorator@@CA?AVDName@@AEBV2@H@Z 000000014000d8d8 f   libvcruntime:undname.obj
 0001:0000caa4       ?getPtrRefType@UnDecorator@@CA?AVDName@@AEBV2@0W4IndirectionKind@@@Z 000000014000daa4 f   libvcruntime:undname.obj
 0001:0000cc7c       ?getReferenceType@UnDecorator@@CA?AVDName@@AEBV2@0W4IndirectionKind@@@Z 000000014000dc7c f i libvcruntime:undname.obj
 0001:0000cc94       ?getRestrictionSpec@UnDecorator@@CA?AVDName@@XZ 000000014000dc94 f   libvcruntime:undname.obj
 0001:0000ce70       ?getReturnType@UnDecorator@@CA?AVDName@@PEAV2@@Z 000000014000de70 f   libvcruntime:undname.obj
 0001:0000cea4       ?getScope@UnDecorator@@CA?AVDName@@XZ 000000014000dea4 f   libvcruntime:undname.obj
 0001:0000d360       ?getScopedName@UnDecorator@@CA?AVDName@@XZ 000000014000e360 f   libvcruntime:undname.obj
 0001:0000d4a0       ?getSignedDimension@UnDecorator@@CA?AVDName@@XZ 000000014000e4a0 f   libvcruntime:undname.obj
 0001:0000d528       ?getStorageConvention@UnDecorator@@CA?AVDName@@XZ 000000014000e528 f i libvcruntime:undname.obj
 0001:0000d564       ?getString@DName@@QEBAPEADPEAD0@Z 000000014000e564 f i libvcruntime:undname.obj
 0001:0000d580       ?getString@DName@@QEBAPEADPEADH@Z 000000014000e580 f i libvcruntime:undname.obj
 0001:0000d614       ?getString@DNameStatusNode@@UEBAPEADPEAD0@Z 000000014000e614 f i libvcruntime:undname.obj
 0001:0000d65c       ?getString@charNode@@UEBAPEADPEAD0@Z 000000014000e65c f i libvcruntime:undname.obj
 0001:0000d670       ?getString@pDNameNode@@UEBAPEADPEAD0@Z 000000014000e670 f i libvcruntime:undname.obj
 0001:0000d6a0       ?getString@pairNode@@UEBAPEADPEAD0@Z 000000014000e6a0 f i libvcruntime:undname.obj
 0001:0000d6ec       ?getString@pcharNode@@UEBAPEADPEAD0@Z 000000014000e6ec f i libvcruntime:undname.obj
 0001:0000d724       ?getStringEncoding@UnDecorator@@CA?AVDName@@W4PrefixKind@@H@Z 000000014000e724 f   libvcruntime:undname.obj
 0001:0000d834       ?getStringHelper@@YAPEADPEADPEBD1H@Z 000000014000e834 f i libvcruntime:undname.obj
 0001:0000d864       ?getStringObject@UnDecorator@@CA?AVDName@@XZ 000000014000e864 f   libvcruntime:undname.obj
 0001:0000d8cc       ?getSymbolName@UnDecorator@@CA?AVDName@@XZ 000000014000e8cc f i libvcruntime:undname.obj
 0001:0000d918       ?getTemplateArgumentList@UnDecorator@@CA?AVDName@@XZ 000000014000e918 f   libvcruntime:undname.obj
 0001:0000db34       ?getTemplateName@UnDecorator@@CA?AVDName@@_N@Z 000000014000eb34 f   libvcruntime:undname.obj
 0001:0000ddc8       ?getTemplateNonTypeArgument@UnDecorator@@CA?AVDName@@XZ 000000014000edc8 f   libvcruntime:undname.obj
 0001:0000e318       ?getTemplateTypeArgument@UnDecorator@@CA?AVDName@@XZ 000000014000f318 f   libvcruntime:undname.obj
 0001:0000e480       ?getThisType@UnDecorator@@CA?AVDName@@XZ 000000014000f480 f i libvcruntime:undname.obj
 0001:0000e4c0       ?getThrowTypes@UnDecorator@@CA?AVDName@@XZ 000000014000f4c0 f   libvcruntime:undname.obj
 0001:0000e4e4       ?getTypeEncoding@UnDecorator@@CAHXZ 000000014000f4e4 f i libvcruntime:undname.obj
 0001:0000e8a0       ?getUndecoratedName@UnDecorator@@QEAAPEADPEADH@Z 000000014000f8a0 f i libvcruntime:undname.obj
 0001:0000e9f4       ?getUnionObject@UnDecorator@@CA?AVDName@@XZ 000000014000f9f4 f   libvcruntime:undname.obj
 0001:0000eacc       ?getVCallThunkType@UnDecorator@@CA?AVDName@@XZ 000000014000facc f i libvcruntime:undname.obj
 0001:0000eb44       ?getValue@UnDecorator@@CA?AV?$optional@_K@std@@XZ 000000014000fb44 f   libvcruntime:undname.obj
 0001:0000ebb8       ?getValueObject@UnDecorator@@CA?AVDName@@XZ 000000014000fbb8 f   libvcruntime:undname.obj
 0001:0000ecf8       ?getVbTableType@UnDecorator@@CA?AVDName@@AEBV2@@Z 000000014000fcf8 f i libvcruntime:undname.obj
 0001:0000ed10       ?getVdispMapType@UnDecorator@@CA?AVDName@@AEBV2@@Z 000000014000fd10 f i libvcruntime:undname.obj
 0001:0000ed8c       ?getVfTableType@UnDecorator@@CA?AVDName@@AEBV2@@Z 000000014000fd8c f i libvcruntime:undname.obj
 0001:0000ef98       ?getZName@UnDecorator@@CA?AVDName@@_N0@Z 000000014000ff98 f   libvcruntime:undname.obj
 0001:0000f26c       ?get_current_character_and_increment_buffer@UnDecorator@@CADXZ 000000014001026c f i libvcruntime:undname.obj
 0001:0000f284       ?haveTemplateParameters@UnDecorator@@SAHXZ 0000000140010284 f i libvcruntime:undname.obj
 0001:0000f290       ?increment_buffer@UnDecorator@@CA_N_K@Z 0000000140010290 f i libvcruntime:undname.obj
 0001:0000f2bc       ?increment_buffer_no_check@UnDecorator@@CAXXZ 00000001400102bc f i libvcruntime:undname.obj
 0001:0000f2c4       ?increment_buffer_no_check@UnDecorator@@CAX_K@Z 00000001400102c4 f i libvcruntime:undname.obj
 0001:0000f2cc       ?isArray@DName@@QEBAHXZ    00000001400102cc f i libvcruntime:undname.obj
 0001:0000f2d8       ?isComArray@DName@@QEBAHXZ 00000001400102d8 f i libvcruntime:undname.obj
 0001:0000f2e4       ?isEmpty@DName@@QEBAHXZ    00000001400102e4 f i libvcruntime:undname.obj
 0001:0000f2f0       ?isFull@Replicator@@QEBAHXZ 00000001400102f0 f i libvcruntime:undname.obj
 0001:0000f2fc       ?isNoTE@DName@@QEBAHXZ     00000001400102fc f i libvcruntime:undname.obj
 0001:0000f308       ?isPinPtr@DName@@QEBAHXZ   0000000140010308 f i libvcruntime:undname.obj
 0001:0000f314       ?isPtrRef@DName@@QEBAHXZ   0000000140010314 f i libvcruntime:undname.obj
 0001:0000f320       ?isUDC@DName@@QEBAHXZ      0000000140010320 f i libvcruntime:undname.obj
 0001:0000f338       ?isUDTThunk@DName@@QEBAHXZ 0000000140010338 f i libvcruntime:undname.obj
 0001:0000f350       ?isVCallThunk@DName@@QEBAHXZ 0000000140010350 f i libvcruntime:undname.obj
 0001:0000f35c       ?isValid@DName@@QEBAHXZ    000000014001035c f i libvcruntime:undname.obj
 0001:0000f368       ?length@DName@@QEBAHXZ     0000000140010368 f i libvcruntime:undname.obj
 0001:0000f380       ?length@DNameStatusNode@@UEBAHXZ 0000000140010380 f i libvcruntime:undname.obj
 0001:0000f384       ?length@charNode@@UEBAHXZ  0000000140010384 f i libvcruntime:undname.obj
 0001:0000f38c       ?length@pDNameNode@@UEBAHXZ 000000014001038c f i libvcruntime:undname.obj
 0001:0000f3b4       ?length@pairNode@@UEBAHXZ  00000001400103b4 f i libvcruntime:undname.obj
 0001:0000f3fc       ?length@pcharNode@@UEBAHXZ 00000001400103fc f i libvcruntime:undname.obj
 0001:0000f400       ?make@DNameStatusNode@@SAPEBV1@W4DNameStatus@@@Z 0000000140010400 f i libvcruntime:undname.obj
 0001:0000f420       ?parseDecoratedName@UnDecorator@@CA?AVDName@@XZ 0000000140010420 f   libvcruntime:undname.obj
 0001:0000f538       ?raw_length@DNameStatusNode@@UEBAHXZ 0000000140010538 f i libvcruntime:undname.obj
 0001:0000f53c       ?raw_length@charNode@@UEBAHXZ 000000014001053c f i libvcruntime:undname.obj
 0001:0000f544       ?raw_length@pDNameNode@@UEBAHXZ 0000000140010544 f i libvcruntime:undname.obj
 0001:0000f548       ?raw_length@pairNode@@UEBAHXZ 0000000140010548 f i libvcruntime:undname.obj
 0001:0000f54c       ?raw_length@pcharNode@@UEBAHXZ 000000014001054c f i libvcruntime:undname.obj
 0001:0000f550       ?setIsArray@DName@@QEAAXXZ 0000000140010550 f i libvcruntime:undname.obj
 0001:0000f558       ?setIsComArray@DName@@QEAAXXZ 0000000140010558 f i libvcruntime:undname.obj
 0001:0000f560       ?setIsNoTE@DName@@QEAAXXZ  0000000140010560 f i libvcruntime:undname.obj
 0001:0000f568       ?setIsPinPtr@DName@@QEAAXXZ 0000000140010568 f i libvcruntime:undname.obj
 0001:0000f570       ?setIsUDC@DName@@QEAAXXZ   0000000140010570 f i libvcruntime:undname.obj
 0001:0000f57c       ?setIsVCallThunk@DName@@QEAAXXZ 000000014001057c f i libvcruntime:undname.obj
 0001:0000f584       ?setPtrRef@DName@@QEAAAEAV1@XZ 0000000140010584 f i libvcruntime:undname.obj
 0001:0000f590       ?status@DName@@QEBA?AW4DNameStatus@@XZ 0000000140010590 f i libvcruntime:undname.obj
 0001:0000f5f4       __unDName                  00000001400105f4 f   libvcruntime:undname.obj
 0001:0000f61c       __unDNameEx                000000014001061c f   libvcruntime:undname.obj
 0001:0000f750       _vsprintf_s_l              0000000140010750 f i libvcruntime:undname.obj
 0001:0000f7b4       snprintf                   00000001400107b4 f i libvcruntime:undname.obj
 0001:0000f80c       sprintf_s                  000000014001080c f i libvcruntime:undname.obj
 0001:0000f860       unDNameGenerateCHPE        0000000140010860 f   libvcruntime:undname.obj
 0001:0000f968       vsnprintf                  0000000140010968 f i libvcruntime:undname.obj
 0001:0000f9cc       ??$__crt_interlocked_exchange_pointer@UHINSTANCE__@@PEAU1@@@YAPEAUHINSTANCE__@@PEDSEAU0@QEAU0@@Z 00000001400109cc f i libvcruntime:winapi_downlevel.obj
 0001:0000f9d4       ??$__crt_interlocked_exchange_pointer@UHINSTANCE__@@PEAX@@YAPEAUHINSTANCE__@@PEDSEAU0@QEAX@Z 00000001400109d4 f i libvcruntime:winapi_downlevel.obj
 0001:0000f9dc       ??$__crt_interlocked_exchange_pointer@XPEAX@@YAPEAXPEDSEAXQEAX@Z 00000001400109dc f i libvcruntime:winapi_downlevel.obj
 0001:0000f9e4       ??$__crt_interlocked_read_pointer@UHINSTANCE__@@@@YAPEAUHINSTANCE__@@PEDSEAU0@@Z 00000001400109e4 f i libvcruntime:winapi_downlevel.obj
 0001:0000f9ec       ??$__crt_interlocked_read_pointer@X@@YAPEAXPEDSEAX@Z 00000001400109ec f i libvcruntime:winapi_downlevel.obj
 0001:0000ff2c       __vcrt_FlsAlloc            0000000140010f2c f   libvcruntime:winapi_downlevel.obj
 0001:0000ff74       __vcrt_FlsFree             0000000140010f74 f   libvcruntime:winapi_downlevel.obj
 0001:0000ffbc       __vcrt_FlsGetValue         0000000140010fbc f   libvcruntime:winapi_downlevel.obj
 0001:00010004       __vcrt_FlsSetValue         0000000140011004 f   libvcruntime:winapi_downlevel.obj
 0001:00010058       __vcrt_InitializeCriticalSectionEx 0000000140011058 f   libvcruntime:winapi_downlevel.obj
 0001:000100d0       _CallSettingFrame          00000001400110d0 f   libvcruntime:handlers.obj
 0001:00010120       _CallSettingFrame_LookupContinuationIndex 0000000140011120 f   libvcruntime:handlers.obj
 0001:00010150       _CallSettingFrame_NotifyContinuationAddr 0000000140011150 f   libvcruntime:handlers.obj
 0001:00010180       _CallSettingFrameEncoded   0000000140011180 f   libvcruntime:handlers.obj
 0001:000101c8       ??$?RD@__crt_public_free_policy@@QEBAXQEBD@Z 00000001400111c8 f i libvcruntime:std_exception.obj
 0001:000101d0       ??0?$__crt_unique_heap_ptr@DU__crt_public_free_policy@@@@QEAA@QEAD@Z 00000001400111d0 f i libvcruntime:std_exception.obj
 0001:000101d8       ??1?$__crt_unique_heap_ptr@DU__crt_public_free_policy@@@@QEAA@XZ 00000001400111d8 f i libvcruntime:std_exception.obj
 0001:000101f4       ??B?$__crt_unique_heap_ptr@DU__crt_public_free_policy@@@@QEBA_NXZ 00000001400111f4 f i libvcruntime:std_exception.obj
 0001:000101fc       ?detach@?$__crt_unique_heap_ptr@DU__crt_public_free_policy@@@@QEAAPEADXZ 00000001400111fc f i libvcruntime:std_exception.obj
 0001:00010204       ?get@?$__crt_unique_heap_ptr@DU__crt_public_free_policy@@@@QEBAPEADXZ 0000000140011204 f i libvcruntime:std_exception.obj
 0001:00010208       ?is_valid@?$__crt_unique_heap_ptr@DU__crt_public_free_policy@@@@QEBA_NXZ 0000000140011208 f i libvcruntime:std_exception.obj
 0001:00010210       ?release@?$__crt_unique_heap_ptr@DU__crt_public_free_policy@@@@QEAAXXZ 0000000140011210 f i libvcruntime:std_exception.obj
 0001:0001022c       __std_exception_copy       000000014001122c f   libvcruntime:std_exception.obj
 0001:000102bc       __std_exception_destroy    00000001400112bc f   libvcruntime:std_exception.obj
 0001:000102e4       _local_unwind              00000001400112e4 f   libvcruntime:jmpuwind.obj
 0001:00010320       memcpy_repmovs             0000000140011320 f   libvcruntime:memcpy.obj
 0001:00010340       memcpy                     0000000140011340 f   libvcruntime:memcpy.obj
 0001:00010340       memmove                    0000000140011340 f   libvcruntime:memcpy.obj
 0001:000109b8       ??$__crt_interlocked_exchange_pointer@$$A6AXXZP6AXXZ@@YAP6AXXZPEDS6AXXZQ6AXXZ@Z 00000001400119b8 f i libvcruntime:purevirt.obj
 0001:000109c0       ??$__crt_interlocked_read_pointer@$$A6AXXZ@@YAP6AXXZPEDS6AXXZ@Z 00000001400119c0 f i libvcruntime:purevirt.obj
 0001:000109c8       _get_purecall_handler      00000001400119c8 f   libvcruntime:purevirt.obj
 0001:000109d4       _purecall                  00000001400119d4 f   libvcruntime:purevirt.obj
 0001:000109f0       _set_purecall_handler      00000001400119f0 f   libvcruntime:purevirt.obj
 0001:000109fc       ??$?RPEAU__crt_stdio_stream_data@@@__crt_internal_free_policy@@QEBAXQEBQEAU__crt_stdio_stream_data@@@Z 00000001400119fc f i libucrt:_file.obj
 0001:00010a04       ??0?$__crt_unique_heap_ptr@PEAU__crt_stdio_stream_data@@U__crt_internal_free_policy@@@@QEAA@QEAPEAU__crt_stdio_stream_data@@@Z 0000000140011a04 f i libucrt:_file.obj
 0001:00010a0c       ??0__crt_stdio_stream@@QEAA@QEAU_iobuf@@@Z 0000000140011a0c f i libucrt:_file.obj
 0001:00010a14       ??1?$__crt_unique_heap_ptr@PEAU__crt_stdio_stream_data@@U__crt_internal_free_policy@@@@QEAA@XZ 0000000140011a14 f i libucrt:_file.obj
 0001:00010a30       ??C__crt_stdio_stream@@QEBAPEAU__crt_stdio_stream_data@@XZ 0000000140011a30 f i libucrt:_file.obj
 0001:00010a34       ?detach@?$__crt_unique_heap_ptr@PEAU__crt_stdio_stream_data@@U__crt_internal_free_policy@@@@QEAAPEAPEAU__crt_stdio_stream_data@@XZ 0000000140011a34 f i libucrt:_file.obj
 0001:00010a3c       ?release@?$__crt_unique_heap_ptr@PEAU__crt_stdio_stream_data@@U__crt_internal_free_policy@@@@QEAAXXZ 0000000140011a3c f i libucrt:_file.obj
 0001:00010a58       __acrt_initialize_stdio    0000000140011a58 f   libucrt:_file.obj
 0001:00010b78       __acrt_iob_func            0000000140011b78 f   libucrt:_file.obj
 0001:00010b8c       __acrt_uninitialize_stdio  0000000140011b8c f   libucrt:_file.obj
 0001:00010be8       _get_stream_buffer_pointers 0000000140011be8 f   libucrt:_file.obj
 0001:00010c30       _lock_file                 0000000140011c30 f   libucrt:_file.obj
 0001:00010c3c       _unlock_file               0000000140011c3c f   libucrt:_file.obj
 0001:00010c48       ??$?0AEBV?$stream_output_adapter@D@__crt_stdio_output@@AEB_KAEBQEBDAEAV__crt_cached_ptd_host@@AEBQEAD@?$format_validation_base@DV?$stream_output_adapter@D@__crt_stdio_output@@@__crt_stdio_output@@IEAA@AEBV?$stream_output_adapter@D@1@AEB_KAEBQEBDAEAV__crt_cached_ptd_host@@AEBQEAD@Z 0000000140011c48 f i libucrt:output.obj
 0001:00010cb8       ??$?0AEBV?$stream_output_adapter@D@__crt_stdio_output@@AEB_KAEBQEBDAEAV__crt_cached_ptd_host@@AEBQEAD@?$positional_parameter_base@DV?$stream_output_adapter@D@__crt_stdio_output@@@__crt_stdio_output@@IEAA@AEBV?$stream_output_adapter@D@1@AEB_KAEBQEBDAEAV__crt_cached_ptd_host@@AEBQEAD@Z 0000000140011cb8 f i libucrt:output.obj
 0001:00010d48       ??$?0AEBV?$stream_output_adapter@D@__crt_stdio_output@@AEB_KAEBQEBDAEAV__crt_cached_ptd_host@@AEBQEAD@?$standard_base@DV?$stream_output_adapter@D@__crt_stdio_output@@@__crt_stdio_output@@IEAA@AEBV?$stream_output_adapter@D@1@AEB_KAEBQEBDAEAV__crt_cached_ptd_host@@AEBQEAD@Z 0000000140011d48 f i libucrt:output.obj
 0001:00010db8       ??$?0AEBV?$stream_output_adapter@_W@__crt_stdio_output@@AEB_KAEBQEB_WAEAV__crt_cached_ptd_host@@AEBQEAD@?$format_validation_base@_WV?$stream_output_adapter@_W@__crt_stdio_output@@@__crt_stdio_output@@IEAA@AEBV?$stream_output_adapter@_W@1@AEB_KAEBQEB_WAEAV__crt_cached_ptd_host@@AEBQEAD@Z 0000000140011db8 f i libucrt:output.obj
 0001:00010e2c       ??$?0AEBV?$stream_output_adapter@_W@__crt_stdio_output@@AEB_KAEBQEB_WAEAV__crt_cached_ptd_host@@AEBQEAD@?$positional_parameter_base@_WV?$stream_output_adapter@_W@__crt_stdio_output@@@__crt_stdio_output@@IEAA@AEBV?$stream_output_adapter@_W@1@AEB_KAEBQEB_WAEAV__crt_cached_ptd_host@@AEBQEAD@Z 0000000140011e2c f i libucrt:output.obj
 0001:00010ec0       ??$?0AEBV?$stream_output_adapter@_W@__crt_stdio_output@@AEB_KAEBQEB_WAEAV__crt_cached_ptd_host@@AEBQEAD@?$standard_base@_WV?$stream_output_adapter@_W@__crt_stdio_output@@@__crt_stdio_output@@IEAA@AEBV?$stream_output_adapter@_W@1@AEB_KAEBQEB_WAEAV__crt_cached_ptd_host@@AEBQEAD@Z 0000000140011ec0 f i libucrt:output.obj
 0001:00010f34       ??$?0AEBV?$string_output_adapter@D@__crt_stdio_output@@AEB_KAEBQEBDAEAV__crt_cached_ptd_host@@AEBQEAD@?$format_validation_base@DV?$string_output_adapter@D@__crt_stdio_output@@@__crt_stdio_output@@IEAA@AEBV?$string_output_adapter@D@1@AEB_KAEBQEBDAEAV__crt_cached_ptd_host@@AEBQEAD@Z 0000000140011f34 f i libucrt:output.obj
 0001:00010fa4       ??$?0AEBV?$string_output_adapter@D@__crt_stdio_output@@AEB_KAEBQEBDAEAV__crt_cached_ptd_host@@AEBQEAD@?$positional_parameter_base@DV?$string_output_adapter@D@__crt_stdio_output@@@__crt_stdio_output@@IEAA@AEBV?$string_output_adapter@D@1@AEB_KAEBQEBDAEAV__crt_cached_ptd_host@@AEBQEAD@Z 0000000140011fa4 f i libucrt:output.obj
 0001:00011034       ??$?0AEBV?$string_output_adapter@D@__crt_stdio_output@@AEB_KAEBQEBDAEAV__crt_cached_ptd_host@@AEBQEAD@?$standard_base@DV?$string_output_adapter@D@__crt_stdio_output@@@__crt_stdio_output@@IEAA@AEBV?$string_output_adapter@D@1@AEB_KAEBQEBDAEAV__crt_cached_ptd_host@@AEBQEAD@Z 0000000140012034 f i libucrt:output.obj
 0001:000110a4       ??$?0AEBV?$string_output_adapter@_W@__crt_stdio_output@@AEB_KAEBQEB_WAEAV__crt_cached_ptd_host@@AEBQEAD@?$format_validation_base@_WV?$string_output_adapter@_W@__crt_stdio_output@@@__crt_stdio_output@@IEAA@AEBV?$string_output_adapter@_W@1@AEB_KAEBQEB_WAEAV__crt_cached_ptd_host@@AEBQEAD@Z 00000001400120a4 f i libucrt:output.obj
 0001:00011118       ??$?0AEBV?$string_output_adapter@_W@__crt_stdio_output@@AEB_KAEBQEB_WAEAV__crt_cached_ptd_host@@AEBQEAD@?$positional_parameter_base@_WV?$string_output_adapter@_W@__crt_stdio_output@@@__crt_stdio_output@@IEAA@AEBV?$string_output_adapter@_W@1@AEB_KAEBQEB_WAEAV__crt_cached_ptd_host@@AEBQEAD@Z 0000000140012118 f i libucrt:output.obj
 0001:000111ac       ??$?0AEBV?$string_output_adapter@_W@__crt_stdio_output@@AEB_KAEBQEB_WAEAV__crt_cached_ptd_host@@AEBQEAD@?$standard_base@_WV?$string_output_adapter@_W@__crt_stdio_output@@@__crt_stdio_output@@IEAA@AEBV?$string_output_adapter@_W@1@AEB_KAEBQEB_WAEAV__crt_cached_ptd_host@@AEBQEAD@Z 00000001400121ac f i libucrt:output.obj
 0001:00011490       ??$__crt_interlocked_read@J@@YAJPEDJ@Z 0000000140012490 f i libucrt:output.obj
 0001:00011494       ??$_tcstol_internal@DPEAPEAD$0A@@@YAJAEAV__crt_cached_ptd_host@@QEBDQEAPEADH@Z 0000000140012494 f i libucrt:output.obj
 0001:000114c4       ??$_tcstol_internal@_WPEAPEA_W$0A@@@YAJAEAV__crt_cached_ptd_host@@QEB_WQEAPEA_WH@Z 00000001400124c4 f i libucrt:output.obj
 0001:00012604       ??$count@D@formatting_buffer@__crt_stdio_output@@QEBA_KXZ 0000000140013604 f i libucrt:output.obj
 0001:00012620       ??$count@_W@formatting_buffer@__crt_stdio_output@@QEBA_KXZ 0000000140013620 f i libucrt:output.obj
 0001:0001263c       ??$data@D@formatting_buffer@__crt_stdio_output@@QEAAPEADXZ 000000014001363c f i libucrt:output.obj
 0001:0001264c       ??$data@_W@formatting_buffer@__crt_stdio_output@@QEAAPEA_WXZ 000000014001364c f i libucrt:output.obj
 0001:0001265c       ??$ensure_buffer_is_big_enough@D@formatting_buffer@__crt_stdio_output@@QEAA_N_KAEAV__crt_cached_ptd_host@@@Z 000000014001365c f i libucrt:output.obj
 0001:00012704       ??$ensure_buffer_is_big_enough@_W@formatting_buffer@__crt_stdio_output@@QEAA_N_KAEAV__crt_cached_ptd_host@@@Z 0000000140013704 f i libucrt:output.obj
 0001:000127b0       ??$extract_argument_from_va_list@C_J@?$positional_parameter_base@DV?$stream_output_adapter@D@__crt_stdio_output@@@__crt_stdio_output@@IEAA_NAEA_J@Z 00000001400137b0 f i libucrt:output.obj
 0001:000128bc       ??$extract_argument_from_va_list@C_J@?$positional_parameter_base@DV?$string_output_adapter@D@__crt_stdio_output@@@__crt_stdio_output@@IEAA_NAEA_J@Z 00000001400138bc f i libucrt:output.obj
 0001:000129c8       ??$extract_argument_from_va_list@C_J@?$positional_parameter_base@_WV?$stream_output_adapter@_W@__crt_stdio_output@@@__crt_stdio_output@@IEAA_NAEA_J@Z 00000001400139c8 f i libucrt:output.obj
 0001:00012ad4       ??$extract_argument_from_va_list@C_J@?$positional_parameter_base@_WV?$string_output_adapter@_W@__crt_stdio_output@@@__crt_stdio_output@@IEAA_NAEA_J@Z 0000000140013ad4 f i libucrt:output.obj
 0001:00012be0       ??$extract_argument_from_va_list@C_J@?$standard_base@DV?$stream_output_adapter@D@__crt_stdio_output@@@__crt_stdio_output@@IEAA_NAEA_J@Z 0000000140013be0 f i libucrt:output.obj
 0001:00012bf8       ??$extract_argument_from_va_list@C_J@?$standard_base@DV?$string_output_adapter@D@__crt_stdio_output@@@__crt_stdio_output@@IEAA_NAEA_J@Z 0000000140013bf8 f i libucrt:output.obj
 0001:00012c10       ??$extract_argument_from_va_list@C_J@?$standard_base@_WV?$stream_output_adapter@_W@__crt_stdio_output@@@__crt_stdio_output@@IEAA_NAEA_J@Z 0000000140013c10 f i libucrt:output.obj
 0001:00012c28       ??$extract_argument_from_va_list@C_J@?$standard_base@_WV?$string_output_adapter@_W@__crt_stdio_output@@@__crt_stdio_output@@IEAA_NAEA_J@Z 0000000140013c28 f i libucrt:output.obj
 0001:00012c40       ??$extract_argument_from_va_list@E_J@?$positional_parameter_base@DV?$stream_output_adapter@D@__crt_stdio_output@@@__crt_stdio_output@@IEAA_NAEA_J@Z 0000000140013c40 f i libucrt:output.obj
 0001:00012d48       ??$extract_argument_from_va_list@E_J@?$positional_parameter_base@DV?$string_output_adapter@D@__crt_stdio_output@@@__crt_stdio_output@@IEAA_NAEA_J@Z 0000000140013d48 f i libucrt:output.obj
 0001:00012e50       ??$extract_argument_from_va_list@E_J@?$positional_parameter_base@_WV?$stream_output_adapter@_W@__crt_stdio_output@@@__crt_stdio_output@@IEAA_NAEA_J@Z 0000000140013e50 f i libucrt:output.obj
 0001:00012f5c       ??$extract_argument_from_va_list@E_J@?$positional_parameter_base@_WV?$string_output_adapter@_W@__crt_stdio_output@@@__crt_stdio_output@@IEAA_NAEA_J@Z 0000000140013f5c f i libucrt:output.obj
 0001:00013068       ??$extract_argument_from_va_list@E_J@?$standard_base@DV?$stream_output_adapter@D@__crt_stdio_output@@@__crt_stdio_output@@IEAA_NAEA_J@Z 0000000140014068 f i libucrt:output.obj
 0001:00013080       ??$extract_argument_from_va_list@E_J@?$standard_base@DV?$string_output_adapter@D@__crt_stdio_output@@@__crt_stdio_output@@IEAA_NAEA_J@Z 0000000140014080 f i libucrt:output.obj
 0001:00013098       ??$extract_argument_from_va_list@E_J@?$standard_base@_WV?$stream_output_adapter@_W@__crt_stdio_output@@@__crt_stdio_output@@IEAA_NAEA_J@Z 0000000140014098 f i libucrt:output.obj
 0001:000130b0       ??$extract_argument_from_va_list@E_J@?$standard_base@_WV?$string_output_adapter@_W@__crt_stdio_output@@@__crt_stdio_output@@IEAA_NAEA_J@Z 00000001400140b0 f i libucrt:output.obj
 0001:000130c8       ??$extract_argument_from_va_list@F_J@?$positional_parameter_base@DV?$stream_output_adapter@D@__crt_stdio_output@@@__crt_stdio_output@@IEAA_NAEA_J@Z 00000001400140c8 f i libucrt:output.obj
 0001:000131d4       ??$extract_argument_from_va_list@F_J@?$positional_parameter_base@DV?$string_output_adapter@D@__crt_stdio_output@@@__crt_stdio_output@@IEAA_NAEA_J@Z 00000001400141d4 f i libucrt:output.obj
 0001:000132e0       ??$extract_argument_from_va_list@F_J@?$positional_parameter_base@_WV?$stream_output_adapter@_W@__crt_stdio_output@@@__crt_stdio_output@@IEAA_NAEA_J@Z 00000001400142e0 f i libucrt:output.obj
 0001:000133ec       ??$extract_argument_from_va_list@F_J@?$positional_parameter_base@_WV?$string_output_adapter@_W@__crt_stdio_output@@@__crt_stdio_output@@IEAA_NAEA_J@Z 00000001400143ec f i libucrt:output.obj
 0001:000134f8       ??$extract_argument_from_va_list@F_J@?$standard_base@DV?$stream_output_adapter@D@__crt_stdio_output@@@__crt_stdio_output@@IEAA_NAEA_J@Z 00000001400144f8 f i libucrt:output.obj
 0001:00013510       ??$extract_argument_from_va_list@F_J@?$standard_base@DV?$string_output_adapter@D@__crt_stdio_output@@@__crt_stdio_output@@IEAA_NAEA_J@Z 0000000140014510 f i libucrt:output.obj
 0001:00013528       ??$extract_argument_from_va_list@F_J@?$standard_base@_WV?$stream_output_adapter@_W@__crt_stdio_output@@@__crt_stdio_output@@IEAA_NAEA_J@Z 0000000140014528 f i libucrt:output.obj
 0001:00013540       ??$extract_argument_from_va_list@F_J@?$standard_base@_WV?$string_output_adapter@_W@__crt_stdio_output@@@__crt_stdio_output@@IEAA_NAEA_J@Z 0000000140014540 f i libucrt:output.obj
 0001:00013558       ??$extract_argument_from_va_list@GD@?$positional_parameter_base@DV?$stream_output_adapter@D@__crt_stdio_output@@@__crt_stdio_output@@IEAA_NAEAD@Z 0000000140014558 f i libucrt:output.obj
 0001:0001365c       ??$extract_argument_from_va_list@GD@?$positional_parameter_base@DV?$string_output_adapter@D@__crt_stdio_output@@@__crt_stdio_output@@IEAA_NAEAD@Z 000000014001465c f i libucrt:output.obj
 0001:00013760       ??$extract_argument_from_va_list@GD@?$standard_base@DV?$stream_output_adapter@D@__crt_stdio_output@@@__crt_stdio_output@@IEAA_NAEAD@Z 0000000140014760 f i libucrt:output.obj
 0001:00013774       ??$extract_argument_from_va_list@GD@?$standard_base@DV?$string_output_adapter@D@__crt_stdio_output@@@__crt_stdio_output@@IEAA_NAEAD@Z 0000000140014774 f i libucrt:output.obj
 0001:00013788       ??$extract_argument_from_va_list@G_J@?$positional_parameter_base@DV?$stream_output_adapter@D@__crt_stdio_output@@@__crt_stdio_output@@IEAA_NAEA_J@Z 0000000140014788 f i libucrt:output.obj
 0001:00013890       ??$extract_argument_from_va_list@G_J@?$positional_parameter_base@DV?$string_output_adapter@D@__crt_stdio_output@@@__crt_stdio_output@@IEAA_NAEA_J@Z 0000000140014890 f i libucrt:output.obj
 0001:00013998       ??$extract_argument_from_va_list@G_J@?$positional_parameter_base@_WV?$stream_output_adapter@_W@__crt_stdio_output@@@__crt_stdio_output@@IEAA_NAEA_J@Z 0000000140014998 f i libucrt:output.obj
 0001:00013aa4       ??$extract_argument_from_va_list@G_J@?$positional_parameter_base@_WV?$string_output_adapter@_W@__crt_stdio_output@@@__crt_stdio_output@@IEAA_NAEA_J@Z 0000000140014aa4 f i libucrt:output.obj
 0001:00013bb0       ??$extract_argument_from_va_list@G_J@?$standard_base@DV?$stream_output_adapter@D@__crt_stdio_output@@@__crt_stdio_output@@IEAA_NAEA_J@Z 0000000140014bb0 f i libucrt:output.obj
 0001:00013bc8       ??$extract_argument_from_va_list@G_J@?$standard_base@DV?$string_output_adapter@D@__crt_stdio_output@@@__crt_stdio_output@@IEAA_NAEA_J@Z 0000000140014bc8 f i libucrt:output.obj
 0001:00013be0       ??$extract_argument_from_va_list@G_J@?$standard_base@_WV?$stream_output_adapter@_W@__crt_stdio_output@@@__crt_stdio_output@@IEAA_NAEA_J@Z 0000000140014be0 f i libucrt:output.obj
 0001:00013bf8       ??$extract_argument_from_va_list@G_J@?$standard_base@_WV?$string_output_adapter@_W@__crt_stdio_output@@@__crt_stdio_output@@IEAA_NAEA_J@Z 0000000140014bf8 f i libucrt:output.obj
 0001:00013c10       ??$extract_argument_from_va_list@H_J@?$positional_parameter_base@DV?$stream_output_adapter@D@__crt_stdio_output@@@__crt_stdio_output@@IEAA_NAEA_J@Z 0000000140014c10 f i libucrt:output.obj
 0001:00013d18       ??$extract_argument_from_va_list@H_J@?$positional_parameter_base@DV?$string_output_adapter@D@__crt_stdio_output@@@__crt_stdio_output@@IEAA_NAEA_J@Z 0000000140014d18 f i libucrt:output.obj
 0001:00013e20       ??$extract_argument_from_va_list@H_J@?$positional_parameter_base@_WV?$stream_output_adapter@_W@__crt_stdio_output@@@__crt_stdio_output@@IEAA_NAEA_J@Z 0000000140014e20 f i libucrt:output.obj
 0001:00013f2c       ??$extract_argument_from_va_list@H_J@?$positional_parameter_base@_WV?$string_output_adapter@_W@__crt_stdio_output@@@__crt_stdio_output@@IEAA_NAEA_J@Z 0000000140014f2c f i libucrt:output.obj
 0001:00014038       ??$extract_argument_from_va_list@H_J@?$standard_base@DV?$stream_output_adapter@D@__crt_stdio_output@@@__crt_stdio_output@@IEAA_NAEA_J@Z 0000000140015038 f i libucrt:output.obj
 0001:00014050       ??$extract_argument_from_va_list@H_J@?$standard_base@DV?$string_output_adapter@D@__crt_stdio_output@@@__crt_stdio_output@@IEAA_NAEA_J@Z 0000000140015050 f i libucrt:output.obj
 0001:00014068       ??$extract_argument_from_va_list@H_J@?$standard_base@_WV?$stream_output_adapter@_W@__crt_stdio_output@@@__crt_stdio_output@@IEAA_NAEA_J@Z 0000000140015068 f i libucrt:output.obj
 0001:00014080       ??$extract_argument_from_va_list@H_J@?$standard_base@_WV?$string_output_adapter@_W@__crt_stdio_output@@@__crt_stdio_output@@IEAA_NAEA_J@Z 0000000140015080 f i libucrt:output.obj
 0001:00014098       ??$extract_argument_from_va_list@I_J@?$positional_parameter_base@DV?$stream_output_adapter@D@__crt_stdio_output@@@__crt_stdio_output@@IEAA_NAEA_J@Z 0000000140015098 f i libucrt:output.obj
 0001:000141a0       ??$extract_argument_from_va_list@I_J@?$positional_parameter_base@DV?$string_output_adapter@D@__crt_stdio_output@@@__crt_stdio_output@@IEAA_NAEA_J@Z 00000001400151a0 f i libucrt:output.obj
 0001:000142a8       ??$extract_argument_from_va_list@I_J@?$positional_parameter_base@_WV?$stream_output_adapter@_W@__crt_stdio_output@@@__crt_stdio_output@@IEAA_NAEA_J@Z 00000001400152a8 f i libucrt:output.obj
 0001:000143b0       ??$extract_argument_from_va_list@I_J@?$positional_parameter_base@_WV?$string_output_adapter@_W@__crt_stdio_output@@@__crt_stdio_output@@IEAA_NAEA_J@Z 00000001400153b0 f i libucrt:output.obj
 0001:000144b8       ??$extract_argument_from_va_list@I_J@?$standard_base@DV?$stream_output_adapter@D@__crt_stdio_output@@@__crt_stdio_output@@IEAA_NAEA_J@Z 00000001400154b8 f i libucrt:output.obj
 0001:000144d0       ??$extract_argument_from_va_list@I_J@?$standard_base@DV?$string_output_adapter@D@__crt_stdio_output@@@__crt_stdio_output@@IEAA_NAEA_J@Z 00000001400154d0 f i libucrt:output.obj
 0001:000144e8       ??$extract_argument_from_va_list@I_J@?$standard_base@_WV?$stream_output_adapter@_W@__crt_stdio_output@@@__crt_stdio_output@@IEAA_NAEA_J@Z 00000001400154e8 f i libucrt:output.obj
 0001:00014500       ??$extract_argument_from_va_list@I_J@?$standard_base@_WV?$string_output_adapter@_W@__crt_stdio_output@@@__crt_stdio_output@@IEAA_NAEA_J@Z 0000000140015500 f i libucrt:output.obj
 0001:00014518       ??$extract_argument_from_va_list@PEADPEAD@?$positional_parameter_base@DV?$stream_output_adapter@D@__crt_stdio_output@@@__crt_stdio_output@@IEAA_NAEAPEAD@Z 0000000140015518 f i libucrt:output.obj
 0001:00014620       ??$extract_argument_from_va_list@PEADPEAD@?$positional_parameter_base@DV?$string_output_adapter@D@__crt_stdio_output@@@__crt_stdio_output@@IEAA_NAEAPEAD@Z 0000000140015620 f i libucrt:output.obj
 0001:00014728       ??$extract_argument_from_va_list@PEADPEAD@?$positional_parameter_base@_WV?$stream_output_adapter@_W@__crt_stdio_output@@@__crt_stdio_output@@IEAA_NAEAPEAD@Z 0000000140015728 f i libucrt:output.obj
 0001:00014834       ??$extract_argument_from_va_list@PEADPEAD@?$positional_parameter_base@_WV?$string_output_adapter@_W@__crt_stdio_output@@@__crt_stdio_output@@IEAA_NAEAPEAD@Z 0000000140015834 f i libucrt:output.obj
 0001:00014940       ??$extract_argument_from_va_list@PEADPEAD@?$standard_base@DV?$stream_output_adapter@D@__crt_stdio_output@@@__crt_stdio_output@@IEAA_NAEAPEAD@Z 0000000140015940 f i libucrt:output.obj
 0001:00014958       ??$extract_argument_from_va_list@PEADPEAD@?$standard_base@DV?$string_output_adapter@D@__crt_stdio_output@@@__crt_stdio_output@@IEAA_NAEAPEAD@Z 0000000140015958 f i libucrt:output.obj
 0001:00014970       ??$extract_argument_from_va_list@PEADPEAD@?$standard_base@_WV?$stream_output_adapter@_W@__crt_stdio_output@@@__crt_stdio_output@@IEAA_NAEAPEAD@Z 0000000140015970 f i libucrt:output.obj
 0001:00014988       ??$extract_argument_from_va_list@PEADPEAD@?$standard_base@_WV?$string_output_adapter@_W@__crt_stdio_output@@@__crt_stdio_output@@IEAA_NAEAPEAD@Z 0000000140015988 f i libucrt:output.obj
 0001:000149a0       ??$extract_argument_from_va_list@PEAUansi_string@?1??type_case_Z@?$output_processor@DV?$stream_output_adapter@D@__crt_stdio_output@@V?$format_validation_base@DV?$stream_output_adapter@D@__crt_stdio_output@@@2@@__crt_stdio_output@@AEAA_NXZ@PEAU1?1??234@AEAA_NXZ@@?$standard_base@DV?$stream_output_adapter@D@__crt_stdio_output@@@__crt_stdio_output@@IEAA_NAEAPEAUansi_string@?1??type_case_Z@?$output_processor@DV?$stream_output_adapter@D@__crt_stdio_output@@V?$format_validation_base@DV?$stream_output_adapter@D@__crt_stdio_output@@@2@@1@AEAA_NXZ@@Z 00000001400159a0 f i libucrt:output.obj
 0001:000149b8       ??$extract_argument_from_va_list@PEAUansi_string@?1??type_case_Z@?$output_processor@DV?$stream_output_adapter@D@__crt_stdio_output@@V?$positional_parameter_base@DV?$stream_output_adapter@D@__crt_stdio_output@@@2@@__crt_stdio_output@@AEAA_NXZ@PEAU1?1??234@AEAA_NXZ@@?$positional_parameter_base@DV?$stream_output_adapter@D@__crt_stdio_output@@@__crt_stdio_output@@IEAA_NAEAPEAUansi_string@?1??type_case_Z@?$output_processor@DV?$stream_output_adapter@D@__crt_stdio_output@@V?$positional_parameter_base@DV?$stream_output_adapter@D@__crt_stdio_output@@@2@@1@AEAA_NXZ@@Z 00000001400159b8 f i libucrt:output.obj
 0001:00014ac0       ??$extract_argument_from_va_list@PEAUansi_string@?1??type_case_Z@?$output_processor@DV?$stream_output_adapter@D@__crt_stdio_output@@V?$positional_parameter_base@DV?$stream_output_adapter@D@__crt_stdio_output@@@2@@__crt_stdio_output@@AEAA_NXZ@PEAU1?1??234@AEAA_NXZ@@?$standard_base@DV?$stream_output_adapter@D@__crt_stdio_output@@@__crt_stdio_output@@IEAA_NAEAPEAUansi_string@?1??type_case_Z@?$output_processor@DV?$stream_output_adapter@D@__crt_stdio_output@@V?$positional_parameter_base@DV?$stream_output_adapter@D@__crt_stdio_output@@@2@@1@AEAA_NXZ@@Z 0000000140015ac0 f i libucrt:output.obj
 0001:00014ad8       ??$extract_argument_from_va_list@PEAUansi_string@?1??type_case_Z@?$output_processor@DV?$stream_output_adapter@D@__crt_stdio_output@@V?$standard_base@DV?$stream_output_adapter@D@__crt_stdio_output@@@2@@__crt_stdio_output@@AEAA_NXZ@PEAU1?1??234@AEAA_NXZ@@?$standard_base@DV?$stream_output_adapter@D@__crt_stdio_output@@@__crt_stdio_output@@IEAA_NAEAPEAUansi_string@?1??type_case_Z@?$output_processor@DV?$stream_output_adapter@D@__crt_stdio_output@@V?$standard_base@DV?$stream_output_adapter@D@__crt_stdio_output@@@2@@1@AEAA_NXZ@@Z 0000000140015ad8 f i libucrt:output.obj
 0001:00014af0       ??$extract_argument_from_va_list@PEAUansi_string@?1??type_case_Z@?$output_processor@DV?$string_output_adapter@D@__crt_stdio_output@@V?$format_validation_base@DV?$string_output_adapter@D@__crt_stdio_output@@@2@@__crt_stdio_output@@AEAA_NXZ@PEAU1?1??234@AEAA_NXZ@@?$standard_base@DV?$string_output_adapter@D@__crt_stdio_output@@@__crt_stdio_output@@IEAA_NAEAPEAUansi_string@?1??type_case_Z@?$output_processor@DV?$string_output_adapter@D@__crt_stdio_output@@V?$format_validation_base@DV?$string_output_adapter@D@__crt_stdio_output@@@2@@1@AEAA_NXZ@@Z 0000000140015af0 f i libucrt:output.obj
 0001:00014b08       ??$extract_argument_from_va_list@PEAUansi_string@?1??type_case_Z@?$output_processor@DV?$string_output_adapter@D@__crt_stdio_output@@V?$positional_parameter_base@DV?$string_output_adapter@D@__crt_stdio_output@@@2@@__crt_stdio_output@@AEAA_NXZ@PEAU1?1??234@AEAA_NXZ@@?$positional_parameter_base@DV?$string_output_adapter@D@__crt_stdio_output@@@__crt_stdio_output@@IEAA_NAEAPEAUansi_string@?1??type_case_Z@?$output_processor@DV?$string_output_adapter@D@__crt_stdio_output@@V?$positional_parameter_base@DV?$string_output_adapter@D@__crt_stdio_output@@@2@@1@AEAA_NXZ@@Z 0000000140015b08 f i libucrt:output.obj
 0001:00014c10       ??$extract_argument_from_va_list@PEAUansi_string@?1??type_case_Z@?$output_processor@DV?$string_output_adapter@D@__crt_stdio_output@@V?$positional_parameter_base@DV?$string_output_adapter@D@__crt_stdio_output@@@2@@__crt_stdio_output@@AEAA_NXZ@PEAU1?1??234@AEAA_NXZ@@?$standard_base@DV?$string_output_adapter@D@__crt_stdio_output@@@__crt_stdio_output@@IEAA_NAEAPEAUansi_string@?1??type_case_Z@?$output_processor@DV?$string_output_adapter@D@__crt_stdio_output@@V?$positional_parameter_base@DV?$string_output_adapter@D@__crt_stdio_output@@@2@@1@AEAA_NXZ@@Z 0000000140015c10 f i libucrt:output.obj
 0001:00014c28       ??$extract_argument_from_va_list@PEAUansi_string@?1??type_case_Z@?$output_processor@DV?$string_output_adapter@D@__crt_stdio_output@@V?$standard_base@DV?$string_output_adapter@D@__crt_stdio_output@@@2@@__crt_stdio_output@@AEAA_NXZ@PEAU1?1??234@AEAA_NXZ@@?$standard_base@DV?$string_output_adapter@D@__crt_stdio_output@@@__crt_stdio_output@@IEAA_NAEAPEAUansi_string@?1??type_case_Z@?$output_processor@DV?$string_output_adapter@D@__crt_stdio_output@@V?$standard_base@DV?$string_output_adapter@D@__crt_stdio_output@@@2@@1@AEAA_NXZ@@Z 0000000140015c28 f i libucrt:output.obj
 0001:00014c40       ??$extract_argument_from_va_list@PEAUansi_string@?1??type_case_Z@?$output_processor@_WV?$stream_output_adapter@_W@__crt_stdio_output@@V?$format_validation_base@_WV?$stream_output_adapter@_W@__crt_stdio_output@@@2@@__crt_stdio_output@@AEAA_NXZ@PEAU1?1??234@AEAA_NXZ@@?$standard_base@_WV?$stream_output_adapter@_W@__crt_stdio_output@@@__crt_stdio_output@@IEAA_NAEAPEAUansi_string@?1??type_case_Z@?$output_processor@_WV?$stream_output_adapter@_W@__crt_stdio_output@@V?$format_validation_base@_WV?$stream_output_adapter@_W@__crt_stdio_output@@@2@@1@AEAA_NXZ@@Z 0000000140015c40 f i libucrt:output.obj
 0001:00014c58       ??$extract_argument_from_va_list@PEAUansi_string@?1??type_case_Z@?$output_processor@_WV?$stream_output_adapter@_W@__crt_stdio_output@@V?$positional_parameter_base@_WV?$stream_output_adapter@_W@__crt_stdio_output@@@2@@__crt_stdio_output@@AEAA_NXZ@PEAU1?1??234@AEAA_NXZ@@?$positional_parameter_base@_WV?$stream_output_adapter@_W@__crt_stdio_output@@@__crt_stdio_output@@IEAA_NAEAPEAUansi_string@?1??type_case_Z@?$output_processor@_WV?$stream_output_adapter@_W@__crt_stdio_output@@V?$positional_parameter_base@_WV?$stream_output_adapter@_W@__crt_stdio_output@@@2@@1@AEAA_NXZ@@Z 0000000140015c58 f i libucrt:output.obj
 0001:00014d64       ??$extract_argument_from_va_list@PEAUansi_string@?1??type_case_Z@?$output_processor@_WV?$stream_output_adapter@_W@__crt_stdio_output@@V?$positional_parameter_base@_WV?$stream_output_adapter@_W@__crt_stdio_output@@@2@@__crt_stdio_output@@AEAA_NXZ@PEAU1?1??234@AEAA_NXZ@@?$standard_base@_WV?$stream_output_adapter@_W@__crt_stdio_output@@@__crt_stdio_output@@IEAA_NAEAPEAUansi_string@?1??type_case_Z@?$output_processor@_WV?$stream_output_adapter@_W@__crt_stdio_output@@V?$positional_parameter_base@_WV?$stream_output_adapter@_W@__crt_stdio_output@@@2@@1@AEAA_NXZ@@Z 0000000140015d64 f i libucrt:output.obj
 0001:00014d7c       ??$extract_argument_from_va_list@PEAUansi_string@?1??type_case_Z@?$output_processor@_WV?$stream_output_adapter@_W@__crt_stdio_output@@V?$standard_base@_WV?$stream_output_adapter@_W@__crt_stdio_output@@@2@@__crt_stdio_output@@AEAA_NXZ@PEAU1?1??234@AEAA_NXZ@@?$standard_base@_WV?$stream_output_adapter@_W@__crt_stdio_output@@@__crt_stdio_output@@IEAA_NAEAPEAUansi_string@?1??type_case_Z@?$output_processor@_WV?$stream_output_adapter@_W@__crt_stdio_output@@V?$standard_base@_WV?$stream_output_adapter@_W@__crt_stdio_output@@@2@@1@AEAA_NXZ@@Z 0000000140015d7c f i libucrt:output.obj
 0001:00014d94       ??$extract_argument_from_va_list@PEAUansi_string@?1??type_case_Z@?$output_processor@_WV?$string_output_adapter@_W@__crt_stdio_output@@V?$format_validation_base@_WV?$string_output_adapter@_W@__crt_stdio_output@@@2@@__crt_stdio_output@@AEAA_NXZ@PEAU1?1??234@AEAA_NXZ@@?$standard_base@_WV?$string_output_adapter@_W@__crt_stdio_output@@@__crt_stdio_output@@IEAA_NAEAPEAUansi_string@?1??type_case_Z@?$output_processor@_WV?$string_output_adapter@_W@__crt_stdio_output@@V?$format_validation_base@_WV?$string_output_adapter@_W@__crt_stdio_output@@@2@@1@AEAA_NXZ@@Z 0000000140015d94 f i libucrt:output.obj
 0001:00014dac       ??$extract_argument_from_va_list@PEAUansi_string@?1??type_case_Z@?$output_processor@_WV?$string_output_adapter@_W@__crt_stdio_output@@V?$positional_parameter_base@_WV?$string_output_adapter@_W@__crt_stdio_output@@@2@@__crt_stdio_output@@AEAA_NXZ@PEAU1?1??234@AEAA_NXZ@@?$positional_parameter_base@_WV?$string_output_adapter@_W@__crt_stdio_output@@@__crt_stdio_output@@IEAA_NAEAPEAUansi_string@?1??type_case_Z@?$output_processor@_WV?$string_output_adapter@_W@__crt_stdio_output@@V?$positional_parameter_base@_WV?$string_output_adapter@_W@__crt_stdio_output@@@2@@1@AEAA_NXZ@@Z 0000000140015dac f i libucrt:output.obj
 0001:00014eb8       ??$extract_argument_from_va_list@PEAUansi_string@?1??type_case_Z@?$output_processor@_WV?$string_output_adapter@_W@__crt_stdio_output@@V?$positional_parameter_base@_WV?$string_output_adapter@_W@__crt_stdio_output@@@2@@__crt_stdio_output@@AEAA_NXZ@PEAU1?1??234@AEAA_NXZ@@?$standard_base@_WV?$string_output_adapter@_W@__crt_stdio_output@@@__crt_stdio_output@@IEAA_NAEAPEAUansi_string@?1??type_case_Z@?$output_processor@_WV?$string_output_adapter@_W@__crt_stdio_output@@V?$positional_parameter_base@_WV?$string_output_adapter@_W@__crt_stdio_output@@@2@@1@AEAA_NXZ@@Z 0000000140015eb8 f i libucrt:output.obj
 0001:00014ed0       ??$extract_argument_from_va_list@PEAUansi_string@?1??type_case_Z@?$output_processor@_WV?$string_output_adapter@_W@__crt_stdio_output@@V?$standard_base@_WV?$string_output_adapter@_W@__crt_stdio_output@@@2@@__crt_stdio_output@@AEAA_NXZ@PEAU1?1??234@AEAA_NXZ@@?$standard_base@_WV?$string_output_adapter@_W@__crt_stdio_output@@@__crt_stdio_output@@IEAA_NAEAPEAUansi_string@?1??type_case_Z@?$output_processor@_WV?$string_output_adapter@_W@__crt_stdio_output@@V?$standard_base@_WV?$string_output_adapter@_W@__crt_stdio_output@@@2@@1@AEAA_NXZ@@Z 0000000140015ed0 f i libucrt:output.obj
 0001:00014ee8       ??$extract_argument_from_va_list@PEAXPEAX@?$positional_parameter_base@DV?$stream_output_adapter@D@__crt_stdio_output@@@__crt_stdio_output@@IEAA_NAEAPEAX@Z 0000000140015ee8 f i libucrt:output.obj
 0001:00014ff0       ??$extract_argument_from_va_list@PEAXPEAX@?$positional_parameter_base@DV?$string_output_adapter@D@__crt_stdio_output@@@__crt_stdio_output@@IEAA_NAEAPEAX@Z 0000000140015ff0 f i libucrt:output.obj
 0001:000150f8       ??$extract_argument_from_va_list@PEAXPEAX@?$positional_parameter_base@_WV?$stream_output_adapter@_W@__crt_stdio_output@@@__crt_stdio_output@@IEAA_NAEAPEAX@Z 00000001400160f8 f i libucrt:output.obj
 0001:00015204       ??$extract_argument_from_va_list@PEAXPEAX@?$positional_parameter_base@_WV?$string_output_adapter@_W@__crt_stdio_output@@@__crt_stdio_output@@IEAA_NAEAPEAX@Z 0000000140016204 f i libucrt:output.obj
 0001:00015310       ??$extract_argument_from_va_list@PEAXPEAX@?$standard_base@DV?$stream_output_adapter@D@__crt_stdio_output@@@__crt_stdio_output@@IEAA_NAEAPEAX@Z 0000000140016310 f i libucrt:output.obj
 0001:00015328       ??$extract_argument_from_va_list@PEAXPEAX@?$standard_base@DV?$string_output_adapter@D@__crt_stdio_output@@@__crt_stdio_output@@IEAA_NAEAPEAX@Z 0000000140016328 f i libucrt:output.obj
 0001:00015340       ??$extract_argument_from_va_list@PEAXPEAX@?$standard_base@_WV?$stream_output_adapter@_W@__crt_stdio_output@@@__crt_stdio_output@@IEAA_NAEAPEAX@Z 0000000140016340 f i libucrt:output.obj
 0001:00015358       ??$extract_argument_from_va_list@PEAXPEAX@?$standard_base@_WV?$string_output_adapter@_W@__crt_stdio_output@@@__crt_stdio_output@@IEAA_NAEAPEAX@Z 0000000140016358 f i libucrt:output.obj
 0001:00015370       ??$extract_argument_from_va_list@U_CRT_DOUBLE@@U1@@?$positional_parameter_base@DV?$stream_output_adapter@D@__crt_stdio_output@@@__crt_stdio_output@@IEAA_NAEAU_CRT_DOUBLE@@@Z 0000000140016370 f i libucrt:output.obj
 0001:00015478       ??$extract_argument_from_va_list@U_CRT_DOUBLE@@U1@@?$positional_parameter_base@DV?$string_output_adapter@D@__crt_stdio_output@@@__crt_stdio_output@@IEAA_NAEAU_CRT_DOUBLE@@@Z 0000000140016478 f i libucrt:output.obj
 0001:00015580       ??$extract_argument_from_va_list@U_CRT_DOUBLE@@U1@@?$positional_parameter_base@_WV?$stream_output_adapter@_W@__crt_stdio_output@@@__crt_stdio_output@@IEAA_NAEAU_CRT_DOUBLE@@@Z 0000000140016580 f i libucrt:output.obj
 0001:0001568c       ??$extract_argument_from_va_list@U_CRT_DOUBLE@@U1@@?$positional_parameter_base@_WV?$string_output_adapter@_W@__crt_stdio_output@@@__crt_stdio_output@@IEAA_NAEAU_CRT_DOUBLE@@@Z 000000014001668c f i libucrt:output.obj
 0001:00015798       ??$extract_argument_from_va_list@U_CRT_DOUBLE@@U1@@?$standard_base@DV?$stream_output_adapter@D@__crt_stdio_output@@@__crt_stdio_output@@IEAA_NAEAU_CRT_DOUBLE@@@Z 0000000140016798 f i libucrt:output.obj
 0001:000157b0       ??$extract_argument_from_va_list@U_CRT_DOUBLE@@U1@@?$standard_base@DV?$string_output_adapter@D@__crt_stdio_output@@@__crt_stdio_output@@IEAA_NAEAU_CRT_DOUBLE@@@Z 00000001400167b0 f i libucrt:output.obj
 0001:000157c8       ??$extract_argument_from_va_list@U_CRT_DOUBLE@@U1@@?$standard_base@_WV?$stream_output_adapter@_W@__crt_stdio_output@@@__crt_stdio_output@@IEAA_NAEAU_CRT_DOUBLE@@@Z 00000001400167c8 f i libucrt:output.obj
 0001:000157e0       ??$extract_argument_from_va_list@U_CRT_DOUBLE@@U1@@?$standard_base@_WV?$string_output_adapter@_W@__crt_stdio_output@@@__crt_stdio_output@@IEAA_NAEAU_CRT_DOUBLE@@@Z 00000001400167e0 f i libucrt:output.obj
 0001:000157f8       ??$extract_argument_from_va_list@_J_J@?$positional_parameter_base@DV?$stream_output_adapter@D@__crt_stdio_output@@@__crt_stdio_output@@IEAA_NAEA_J@Z 00000001400167f8 f i libucrt:output.obj
 0001:00015900       ??$extract_argument_from_va_list@_J_J@?$positional_parameter_base@DV?$string_output_adapter@D@__crt_stdio_output@@@__crt_stdio_output@@IEAA_NAEA_J@Z 0000000140016900 f i libucrt:output.obj
 0001:00015a08       ??$extract_argument_from_va_list@_J_J@?$positional_parameter_base@_WV?$stream_output_adapter@_W@__crt_stdio_output@@@__crt_stdio_output@@IEAA_NAEA_J@Z 0000000140016a08 f i libucrt:output.obj
 0001:00015b14       ??$extract_argument_from_va_list@_J_J@?$positional_parameter_base@_WV?$string_output_adapter@_W@__crt_stdio_output@@@__crt_stdio_output@@IEAA_NAEA_J@Z 0000000140016b14 f i libucrt:output.obj
 0001:00015c20       ??$extract_argument_from_va_list@_J_J@?$standard_base@DV?$stream_output_adapter@D@__crt_stdio_output@@@__crt_stdio_output@@IEAA_NAEA_J@Z 0000000140016c20 f i libucrt:output.obj
 0001:00015c38       ??$extract_argument_from_va_list@_J_J@?$standard_base@DV?$string_output_adapter@D@__crt_stdio_output@@@__crt_stdio_output@@IEAA_NAEA_J@Z 0000000140016c38 f i libucrt:output.obj
 0001:00015c50       ??$extract_argument_from_va_list@_J_J@?$standard_base@_WV?$stream_output_adapter@_W@__crt_stdio_output@@@__crt_stdio_output@@IEAA_NAEA_J@Z 0000000140016c50 f i libucrt:output.obj
 0001:00015c68       ??$extract_argument_from_va_list@_J_J@?$standard_base@_WV?$string_output_adapter@_W@__crt_stdio_output@@@__crt_stdio_output@@IEAA_NAEA_J@Z 0000000140016c68 f i libucrt:output.obj
 0001:00015c80       ??$extract_argument_from_va_list@_K_J@?$positional_parameter_base@DV?$stream_output_adapter@D@__crt_stdio_output@@@__crt_stdio_output@@IEAA_NAEA_J@Z 0000000140016c80 f i libucrt:output.obj
 0001:00015d88       ??$extract_argument_from_va_list@_K_J@?$positional_parameter_base@DV?$string_output_adapter@D@__crt_stdio_output@@@__crt_stdio_output@@IEAA_NAEA_J@Z 0000000140016d88 f i libucrt:output.obj
 0001:00015e90       ??$extract_argument_from_va_list@_K_J@?$positional_parameter_base@_WV?$stream_output_adapter@_W@__crt_stdio_output@@@__crt_stdio_output@@IEAA_NAEA_J@Z 0000000140016e90 f i libucrt:output.obj
 0001:00015f9c       ??$extract_argument_from_va_list@_K_J@?$positional_parameter_base@_WV?$string_output_adapter@_W@__crt_stdio_output@@@__crt_stdio_output@@IEAA_NAEA_J@Z 0000000140016f9c f i libucrt:output.obj
 0001:000160a8       ??$extract_argument_from_va_list@_K_J@?$standard_base@DV?$stream_output_adapter@D@__crt_stdio_output@@@__crt_stdio_output@@IEAA_NAEA_J@Z 00000001400170a8 f i libucrt:output.obj
 0001:000160c0       ??$extract_argument_from_va_list@_K_J@?$standard_base@DV?$string_output_adapter@D@__crt_stdio_output@@@__crt_stdio_output@@IEAA_NAEA_J@Z 00000001400170c0 f i libucrt:output.obj
 0001:000160d8       ??$extract_argument_from_va_list@_K_J@?$standard_base@_WV?$stream_output_adapter@_W@__crt_stdio_output@@@__crt_stdio_output@@IEAA_NAEA_J@Z 00000001400170d8 f i libucrt:output.obj
 0001:000160f0       ??$extract_argument_from_va_list@_K_J@?$standard_base@_WV?$string_output_adapter@_W@__crt_stdio_output@@@__crt_stdio_output@@IEAA_NAEA_J@Z 00000001400170f0 f i libucrt:output.obj
 0001:00016108       ??$extract_argument_from_va_list@_W_W@?$positional_parameter_base@DV?$stream_output_adapter@D@__crt_stdio_output@@@__crt_stdio_output@@IEAA_NAEA_W@Z 0000000140017108 f i libucrt:output.obj
 0001:00016210       ??$extract_argument_from_va_list@_W_W@?$positional_parameter_base@DV?$string_output_adapter@D@__crt_stdio_output@@@__crt_stdio_output@@IEAA_NAEA_W@Z 0000000140017210 f i libucrt:output.obj
 0001:00016318       ??$extract_argument_from_va_list@_W_W@?$positional_parameter_base@_WV?$stream_output_adapter@_W@__crt_stdio_output@@@__crt_stdio_output@@IEAA_NAEA_W@Z 0000000140017318 f i libucrt:output.obj
 0001:00016424       ??$extract_argument_from_va_list@_W_W@?$positional_parameter_base@_WV?$string_output_adapter@_W@__crt_stdio_output@@@__crt_stdio_output@@IEAA_NAEA_W@Z 0000000140017424 f i libucrt:output.obj
 0001:00016530       ??$extract_argument_from_va_list@_W_W@?$standard_base@DV?$stream_output_adapter@D@__crt_stdio_output@@@__crt_stdio_output@@IEAA_NAEA_W@Z 0000000140017530 f i libucrt:output.obj
 0001:00016548       ??$extract_argument_from_va_list@_W_W@?$standard_base@DV?$string_output_adapter@D@__crt_stdio_output@@@__crt_stdio_output@@IEAA_NAEA_W@Z 0000000140017548 f i libucrt:output.obj
 0001:00016560       ??$extract_argument_from_va_list@_W_W@?$standard_base@_WV?$stream_output_adapter@_W@__crt_stdio_output@@@__crt_stdio_output@@IEAA_NAEA_W@Z 0000000140017560 f i libucrt:output.obj
 0001:00016578       ??$extract_argument_from_va_list@_W_W@?$standard_base@_WV?$string_output_adapter@_W@__crt_stdio_output@@@__crt_stdio_output@@IEAA_NAEA_W@Z 0000000140017578 f i libucrt:output.obj
 0001:00016590       ??$get_parameter_type@D@?$positional_parameter_base@DV?$stream_output_adapter@D@__crt_stdio_output@@@__crt_stdio_output@@CA?AW4parameter_type@01@PEAD@Z 0000000140017590 f i libucrt:output.obj
 0001:00016598       ??$get_parameter_type@D@?$positional_parameter_base@DV?$string_output_adapter@D@__crt_stdio_output@@@__crt_stdio_output@@CA?AW4parameter_type@01@PEAD@Z 0000000140017598 f i libucrt:output.obj
 0001:000165a0       ??$get_parameter_type@D@?$positional_parameter_base@_WV?$stream_output_adapter@_W@__crt_stdio_output@@@__crt_stdio_output@@CA?AW4parameter_type@01@PEAD@Z 00000001400175a0 f i libucrt:output.obj
 0001:000165a8       ??$get_parameter_type@D@?$positional_parameter_base@_WV?$string_output_adapter@_W@__crt_stdio_output@@@__crt_stdio_output@@CA?AW4parameter_type@01@PEAD@Z 00000001400175a8 f i libucrt:output.obj
 0001:000165b0       ??$get_parameter_type@Uansi_string@?1??type_case_Z@?$output_processor@DV?$stream_output_adapter@D@__crt_stdio_output@@V?$positional_parameter_base@DV?$stream_output_adapter@D@__crt_stdio_output@@@2@@__crt_stdio_output@@AEAA_NXZ@@?$positional_parameter_base@DV?$stream_output_adapter@D@__crt_stdio_output@@@__crt_stdio_output@@CA?AW4parameter_type@01@PEAUansi_string@?1??type_case_Z@?$output_processor@DV?$stream_output_adapter@D@__crt_stdio_output@@V?$positional_parameter_base@DV?$stream_output_adapter@D@__crt_stdio_output@@@2@@1@AEAA_NXZ@@Z 00000001400175b0 f i libucrt:output.obj
 0001:000165b8       ??$get_parameter_type@Uansi_string@?1??type_case_Z@?$output_processor@DV?$string_output_adapter@D@__crt_stdio_output@@V?$positional_parameter_base@DV?$string_output_adapter@D@__crt_stdio_output@@@2@@__crt_stdio_output@@AEAA_NXZ@@?$positional_parameter_base@DV?$string_output_adapter@D@__crt_stdio_output@@@__crt_stdio_output@@CA?AW4parameter_type@01@PEAUansi_string@?1??type_case_Z@?$output_processor@DV?$string_output_adapter@D@__crt_stdio_output@@V?$positional_parameter_base@DV?$string_output_adapter@D@__crt_stdio_output@@@2@@1@AEAA_NXZ@@Z 00000001400175b8 f i libucrt:output.obj
 0001:000165c0       ??$get_parameter_type@Uansi_string@?1??type_case_Z@?$output_processor@_WV?$stream_output_adapter@_W@__crt_stdio_output@@V?$positional_parameter_base@_WV?$stream_output_adapter@_W@__crt_stdio_output@@@2@@__crt_stdio_output@@AEAA_NXZ@@?$positional_parameter_base@_WV?$stream_output_adapter@_W@__crt_stdio_output@@@__crt_stdio_output@@CA?AW4parameter_type@01@PEAUansi_string@?1??type_case_Z@?$output_processor@_WV?$stream_output_adapter@_W@__crt_stdio_output@@V?$positional_parameter_base@_WV?$stream_output_adapter@_W@__crt_stdio_output@@@2@@1@AEAA_NXZ@@Z 00000001400175c0 f i libucrt:output.obj
 0001:000165c8       ??$get_parameter_type@Uansi_string@?1??type_case_Z@?$output_processor@_WV?$string_output_adapter@_W@__crt_stdio_output@@V?$positional_parameter_base@_WV?$string_output_adapter@_W@__crt_stdio_output@@@2@@__crt_stdio_output@@AEAA_NXZ@@?$positional_parameter_base@_WV?$string_output_adapter@_W@__crt_stdio_output@@@__crt_stdio_output@@CA?AW4parameter_type@01@PEAUansi_string@?1??type_case_Z@?$output_processor@_WV?$string_output_adapter@_W@__crt_stdio_output@@V?$positional_parameter_base@_WV?$string_output_adapter@_W@__crt_stdio_output@@@2@@1@AEAA_NXZ@@Z 00000001400175c8 f i libucrt:output.obj
 0001:000165d0       ??$get_parameter_type@X@?$positional_parameter_base@DV?$stream_output_adapter@D@__crt_stdio_output@@@__crt_stdio_output@@CA?AW4parameter_type@01@PEAX@Z 00000001400175d0 f i libucrt:output.obj
 0001:000165d8       ??$get_parameter_type@X@?$positional_parameter_base@DV?$string_output_adapter@D@__crt_stdio_output@@@__crt_stdio_output@@CA?AW4parameter_type@01@PEAX@Z 00000001400175d8 f i libucrt:output.obj
 0001:000165e0       ??$get_parameter_type@X@?$positional_parameter_base@_WV?$stream_output_adapter@_W@__crt_stdio_output@@@__crt_stdio_output@@CA?AW4parameter_type@01@PEAX@Z 00000001400175e0 f i libucrt:output.obj
 0001:000165e8       ??$get_parameter_type@X@?$positional_parameter_base@_WV?$string_output_adapter@_W@__crt_stdio_output@@@__crt_stdio_output@@CA?AW4parameter_type@01@PEAX@Z 00000001400175e8 f i libucrt:output.obj
 0001:000165f0       ??$is_character_specifier@D@?$positional_parameter_base@DV?$stream_output_adapter@D@__crt_stdio_output@@@__crt_stdio_output@@CA_ND@Z 00000001400175f0 f i libucrt:output.obj
 0001:000165fc       ??$is_character_specifier@D@?$positional_parameter_base@DV?$string_output_adapter@D@__crt_stdio_output@@@__crt_stdio_output@@CA_ND@Z 00000001400175fc f i libucrt:output.obj
 0001:00016608       ??$is_character_specifier@_W@?$positional_parameter_base@_WV?$stream_output_adapter@_W@__crt_stdio_output@@@__crt_stdio_output@@CA_N_W@Z 0000000140017608 f i libucrt:output.obj
 0001:00016618       ??$is_character_specifier@_W@?$positional_parameter_base@_WV?$string_output_adapter@_W@__crt_stdio_output@@@__crt_stdio_output@@CA_N_W@Z 0000000140017618 f i libucrt:output.obj
 0001:00016628       ??$is_integral_specifier@D@?$positional_parameter_base@DV?$stream_output_adapter@D@__crt_stdio_output@@@__crt_stdio_output@@CA_ND@Z 0000000140017628 f i libucrt:output.obj
 0001:0001664c       ??$is_integral_specifier@D@?$positional_parameter_base@DV?$string_output_adapter@D@__crt_stdio_output@@@__crt_stdio_output@@CA_ND@Z 000000014001764c f i libucrt:output.obj
 0001:00016670       ??$is_integral_specifier@_W@?$positional_parameter_base@_WV?$stream_output_adapter@_W@__crt_stdio_output@@@__crt_stdio_output@@CA_N_W@Z 0000000140017670 f i libucrt:output.obj
 0001:00016698       ??$is_integral_specifier@_W@?$positional_parameter_base@_WV?$string_output_adapter@_W@__crt_stdio_output@@@__crt_stdio_output@@CA_N_W@Z 0000000140017698 f i libucrt:output.obj
 0001:000166c0       ??$is_overflow_condition@K@__crt_strtox@@YA_NIK@Z 00000001400176c0 f i libucrt:output.obj
 0001:000166e8       ??$is_pointer_specifier@D@?$positional_parameter_base@DV?$stream_output_adapter@D@__crt_stdio_output@@@__crt_stdio_output@@CA_ND@Z 00000001400176e8 f i libucrt:output.obj
 0001:000166f0       ??$is_pointer_specifier@D@?$positional_parameter_base@DV?$string_output_adapter@D@__crt_stdio_output@@@__crt_stdio_output@@CA_ND@Z 00000001400176f0 f i libucrt:output.obj
 0001:000166f8       ??$is_pointer_specifier@_W@?$positional_parameter_base@_WV?$stream_output_adapter@_W@__crt_stdio_output@@@__crt_stdio_output@@CA_N_W@Z 00000001400176f8 f i libucrt:output.obj
 0001:00016700       ??$is_pointer_specifier@_W@?$positional_parameter_base@_WV?$string_output_adapter@_W@__crt_stdio_output@@@__crt_stdio_output@@CA_N_W@Z 0000000140017700 f i libucrt:output.obj
 0001:00016708       ??$is_string_specifier@D@?$positional_parameter_base@DV?$stream_output_adapter@D@__crt_stdio_output@@@__crt_stdio_output@@CA_ND@Z 0000000140017708 f i libucrt:output.obj
 0001:00016714       ??$is_string_specifier@D@?$positional_parameter_base@DV?$string_output_adapter@D@__crt_stdio_output@@@__crt_stdio_output@@CA_ND@Z 0000000140017714 f i libucrt:output.obj
 0001:00016720       ??$is_string_specifier@_W@?$positional_parameter_base@_WV?$stream_output_adapter@_W@__crt_stdio_output@@@__crt_stdio_output@@CA_N_W@Z 0000000140017720 f i libucrt:output.obj
 0001:00016730       ??$is_string_specifier@_W@?$positional_parameter_base@_WV?$string_output_adapter@_W@__crt_stdio_output@@@__crt_stdio_output@@CA_N_W@Z 0000000140017730 f i libucrt:output.obj
 0001:00016740       ??$is_wide_character_specifier@D@__crt_stdio_output@@YA_N_KDW4length_modifier@0@@Z 0000000140017740 f i libucrt:output.obj
 0001:00016768       ??$is_wide_character_specifier@_W@__crt_stdio_output@@YA_N_K_WW4length_modifier@0@@Z 0000000140017768 f i libucrt:output.obj
 0001:000167a8       ??$make_c_string_character_source@DPEAPEAD@__crt_strtox@@YA?AV?$c_string_character_source@D@0@QEBDQEAPEAD@Z 00000001400177a8 f i libucrt:output.obj
 0001:000167bc       ??$make_c_string_character_source@_WPEAPEA_W@__crt_strtox@@YA?AV?$c_string_character_source@_W@0@QEB_WQEAPEA_W@Z 00000001400177bc f i libucrt:output.obj
 0001:000167d0       ??$parse_integer@KV?$c_string_character_source@D@__crt_strtox@@$0A@@__crt_strtox@@YAKAEAV__crt_cached_ptd_host@@V?$c_string_character_source@D@0@H_N@Z 00000001400177d0 f i libucrt:output.obj
 0001:00016a84       ??$parse_integer@KV?$c_string_character_source@_W@__crt_strtox@@$0A@@__crt_strtox@@YAKAEAV__crt_cached_ptd_host@@V?$c_string_character_source@_W@0@H_N@Z 0000000140017a84 f i libucrt:output.obj
 0001:000171fc       ??$peek_va_arg@C@__crt_stdio_output@@YACPEAD@Z 00000001400181fc f i libucrt:output.obj
 0001:00017200       ??$peek_va_arg@E@__crt_stdio_output@@YAEPEAD@Z 0000000140018200 f i libucrt:output.obj
 0001:00017204       ??$peek_va_arg@F@__crt_stdio_output@@YAFPEAD@Z 0000000140018204 f i libucrt:output.obj
 0001:00017208       ??$peek_va_arg@G@__crt_stdio_output@@YAGPEAD@Z 0000000140018208 f i libucrt:output.obj
 0001:0001720c       ??$peek_va_arg@H@__crt_stdio_output@@YAHPEAD@Z 000000014001820c f i libucrt:output.obj
 0001:00017210       ??$peek_va_arg@I@__crt_stdio_output@@YAIPEAD@Z 0000000140018210 f i libucrt:output.obj
 0001:00017214       ??$peek_va_arg@PEAD@__crt_stdio_output@@YAPEADPEAD@Z 0000000140018214 f i libucrt:output.obj
 0001:00017218       ??$peek_va_arg@PEAUansi_string@?1??type_case_Z@?$output_processor@DV?$stream_output_adapter@D@__crt_stdio_output@@V?$positional_parameter_base@DV?$stream_output_adapter@D@__crt_stdio_output@@@2@@__crt_stdio_output@@AEAA_NXZ@@__crt_stdio_output@@YAPEAUansi_string@?1??type_case_Z@?$output_processor@DV?$stream_output_adapter@D@__crt_stdio_output@@V?$positional_parameter_base@DV?$stream_output_adapter@D@__crt_stdio_output@@@2@@0@AEAA_NXZ@PEAD@Z 0000000140018218 f i libucrt:output.obj
 0001:0001721c       ??$peek_va_arg@PEAUansi_string@?1??type_case_Z@?$output_processor@DV?$string_output_adapter@D@__crt_stdio_output@@V?$positional_parameter_base@DV?$string_output_adapter@D@__crt_stdio_output@@@2@@__crt_stdio_output@@AEAA_NXZ@@__crt_stdio_output@@YAPEAUansi_string@?1??type_case_Z@?$output_processor@DV?$string_output_adapter@D@__crt_stdio_output@@V?$positional_parameter_base@DV?$string_output_adapter@D@__crt_stdio_output@@@2@@0@AEAA_NXZ@PEAD@Z 000000014001821c f i libucrt:output.obj
 0001:00017220       ??$peek_va_arg@PEAUansi_string@?1??type_case_Z@?$output_processor@_WV?$stream_output_adapter@_W@__crt_stdio_output@@V?$positional_parameter_base@_WV?$stream_output_adapter@_W@__crt_stdio_output@@@2@@__crt_stdio_output@@AEAA_NXZ@@__crt_stdio_output@@YAPEAUansi_string@?1??type_case_Z@?$output_processor@_WV?$stream_output_adapter@_W@__crt_stdio_output@@V?$positional_parameter_base@_WV?$stream_output_adapter@_W@__crt_stdio_output@@@2@@0@AEAA_NXZ@PEAD@Z 0000000140018220 f i libucrt:output.obj
 0001:00017224       ??$peek_va_arg@PEAUansi_string@?1??type_case_Z@?$output_processor@_WV?$string_output_adapter@_W@__crt_stdio_output@@V?$positional_parameter_base@_WV?$string_output_adapter@_W@__crt_stdio_output@@@2@@__crt_stdio_output@@AEAA_NXZ@@__crt_stdio_output@@YAPEAUansi_string@?1??type_case_Z@?$output_processor@_WV?$string_output_adapter@_W@__crt_stdio_output@@V?$positional_parameter_base@_WV?$string_output_adapter@_W@__crt_stdio_output@@@2@@0@AEAA_NXZ@PEAD@Z 0000000140018224 f i libucrt:output.obj
 0001:00017228       ??$peek_va_arg@PEAX@__crt_stdio_output@@YAPEAXPEAD@Z 0000000140018228 f i libucrt:output.obj
 0001:0001722c       ??$peek_va_arg@U_CRT_DOUBLE@@@__crt_stdio_output@@YA?AU_CRT_DOUBLE@@PEAD@Z 000000014001822c f i libucrt:output.obj
 0001:00017230       ??$peek_va_arg@_J@__crt_stdio_output@@YA_JPEAD@Z 0000000140018230 f i libucrt:output.obj
 0001:00017234       ??$peek_va_arg@_K@__crt_stdio_output@@YA_KPEAD@Z 0000000140018234 f i libucrt:output.obj
 0001:00017238       ??$peek_va_arg@_W@__crt_stdio_output@@YA_WPEAD@Z 0000000140018238 f i libucrt:output.obj
 0001:0001723c       ??$puttc_nolock_internal@AEBDPEAU_iobuf@@AEAV__crt_cached_ptd_host@@@?$__crt_char_traits@D@@SAHAEBD$$QEAPEAU_iobuf@@AEAV__crt_cached_ptd_host@@@Z 000000014001823c f i libucrt:output.obj
 0001:00017248       ??$puttc_nolock_internal@AEB_WPEAU_iobuf@@AEAV__crt_cached_ptd_host@@@?$__crt_char_traits@_W@@SAGAEB_W$$QEAPEAU_iobuf@@AEAV__crt_cached_ptd_host@@@Z 0000000140018248 f i libucrt:output.obj
 0001:00017254       ??$read_va_arg@C@__crt_stdio_output@@YACAEAPEAD@Z 0000000140018254 f i libucrt:output.obj
 0001:00017264       ??$read_va_arg@E@__crt_stdio_output@@YAEAEAPEAD@Z 0000000140018264 f i libucrt:output.obj
 0001:00017274       ??$read_va_arg@F@__crt_stdio_output@@YAFAEAPEAD@Z 0000000140018274 f i libucrt:output.obj
 0001:00017284       ??$read_va_arg@G@__crt_stdio_output@@YAGAEAPEAD@Z 0000000140018284 f i libucrt:output.obj
 0001:00017294       ??$read_va_arg@H@__crt_stdio_output@@YAHAEAPEAD@Z 0000000140018294 f i libucrt:output.obj
 0001:000172a4       ??$read_va_arg@I@__crt_stdio_output@@YAIAEAPEAD@Z 00000001400182a4 f i libucrt:output.obj
 0001:000172b4       ??$read_va_arg@PEAD@__crt_stdio_output@@YAPEADAEAPEAD@Z 00000001400182b4 f i libucrt:output.obj
 0001:000172c4       ??$read_va_arg@PEAUansi_string@?1??type_case_Z@?$output_processor@DV?$stream_output_adapter@D@__crt_stdio_output@@V?$format_validation_base@DV?$stream_output_adapter@D@__crt_stdio_output@@@2@@__crt_stdio_output@@AEAA_NXZ@@__crt_stdio_output@@YAPEAUansi_string@?1??type_case_Z@?$output_processor@DV?$stream_output_adapter@D@__crt_stdio_output@@V?$format_validation_base@DV?$stream_output_adapter@D@__crt_stdio_output@@@2@@0@AEAA_NXZ@AEAPEAD@Z 00000001400182c4 f i libucrt:output.obj
 0001:000172d4       ??$read_va_arg@PEAUansi_string@?1??type_case_Z@?$output_processor@DV?$stream_output_adapter@D@__crt_stdio_output@@V?$positional_parameter_base@DV?$stream_output_adapter@D@__crt_stdio_output@@@2@@__crt_stdio_output@@AEAA_NXZ@@__crt_stdio_output@@YAPEAUansi_string@?1??type_case_Z@?$output_processor@DV?$stream_output_adapter@D@__crt_stdio_output@@V?$positional_parameter_base@DV?$stream_output_adapter@D@__crt_stdio_output@@@2@@0@AEAA_NXZ@AEAPEAD@Z 00000001400182d4 f i libucrt:output.obj
 0001:000172e4       ??$read_va_arg@PEAUansi_string@?1??type_case_Z@?$output_processor@DV?$stream_output_adapter@D@__crt_stdio_output@@V?$standard_base@DV?$stream_output_adapter@D@__crt_stdio_output@@@2@@__crt_stdio_output@@AEAA_NXZ@@__crt_stdio_output@@YAPEAUansi_string@?1??type_case_Z@?$output_processor@DV?$stream_output_adapter@D@__crt_stdio_output@@V?$standard_base@DV?$stream_output_adapter@D@__crt_stdio_output@@@2@@0@AEAA_NXZ@AEAPEAD@Z 00000001400182e4 f i libucrt:output.obj
 0001:000172f4       ??$read_va_arg@PEAUansi_string@?1??type_case_Z@?$output_processor@DV?$string_output_adapter@D@__crt_stdio_output@@V?$format_validation_base@DV?$string_output_adapter@D@__crt_stdio_output@@@2@@__crt_stdio_output@@AEAA_NXZ@@__crt_stdio_output@@YAPEAUansi_string@?1??type_case_Z@?$output_processor@DV?$string_output_adapter@D@__crt_stdio_output@@V?$format_validation_base@DV?$string_output_adapter@D@__crt_stdio_output@@@2@@0@AEAA_NXZ@AEAPEAD@Z 00000001400182f4 f i libucrt:output.obj
 0001:00017304       ??$read_va_arg@PEAUansi_string@?1??type_case_Z@?$output_processor@DV?$string_output_adapter@D@__crt_stdio_output@@V?$positional_parameter_base@DV?$string_output_adapter@D@__crt_stdio_output@@@2@@__crt_stdio_output@@AEAA_NXZ@@__crt_stdio_output@@YAPEAUansi_string@?1??type_case_Z@?$output_processor@DV?$string_output_adapter@D@__crt_stdio_output@@V?$positional_parameter_base@DV?$string_output_adapter@D@__crt_stdio_output@@@2@@0@AEAA_NXZ@AEAPEAD@Z 0000000140018304 f i libucrt:output.obj
 0001:00017314       ??$read_va_arg@PEAUansi_string@?1??type_case_Z@?$output_processor@DV?$string_output_adapter@D@__crt_stdio_output@@V?$standard_base@DV?$string_output_adapter@D@__crt_stdio_output@@@2@@__crt_stdio_output@@AEAA_NXZ@@__crt_stdio_output@@YAPEAUansi_string@?1??type_case_Z@?$output_processor@DV?$string_output_adapter@D@__crt_stdio_output@@V?$standard_base@DV?$string_output_adapter@D@__crt_stdio_output@@@2@@0@AEAA_NXZ@AEAPEAD@Z 0000000140018314 f i libucrt:output.obj
 0001:00017324       ??$read_va_arg@PEAUansi_string@?1??type_case_Z@?$output_processor@_WV?$stream_output_adapter@_W@__crt_stdio_output@@V?$format_validation_base@_WV?$stream_output_adapter@_W@__crt_stdio_output@@@2@@__crt_stdio_output@@AEAA_NXZ@@__crt_stdio_output@@YAPEAUansi_string@?1??type_case_Z@?$output_processor@_WV?$stream_output_adapter@_W@__crt_stdio_output@@V?$format_validation_base@_WV?$stream_output_adapter@_W@__crt_stdio_output@@@2@@0@AEAA_NXZ@AEAPEAD@Z 0000000140018324 f i libucrt:output.obj
 0001:00017334       ??$read_va_arg@PEAUansi_string@?1??type_case_Z@?$output_processor@_WV?$stream_output_adapter@_W@__crt_stdio_output@@V?$positional_parameter_base@_WV?$stream_output_adapter@_W@__crt_stdio_output@@@2@@__crt_stdio_output@@AEAA_NXZ@@__crt_stdio_output@@YAPEAUansi_string@?1??type_case_Z@?$output_processor@_WV?$stream_output_adapter@_W@__crt_stdio_output@@V?$positional_parameter_base@_WV?$stream_output_adapter@_W@__crt_stdio_output@@@2@@0@AEAA_NXZ@AEAPEAD@Z 0000000140018334 f i libucrt:output.obj
 0001:00017344       ??$read_va_arg@PEAUansi_string@?1??type_case_Z@?$output_processor@_WV?$stream_output_adapter@_W@__crt_stdio_output@@V?$standard_base@_WV?$stream_output_adapter@_W@__crt_stdio_output@@@2@@__crt_stdio_output@@AEAA_NXZ@@__crt_stdio_output@@YAPEAUansi_string@?1??type_case_Z@?$output_processor@_WV?$stream_output_adapter@_W@__crt_stdio_output@@V?$standard_base@_WV?$stream_output_adapter@_W@__crt_stdio_output@@@2@@0@AEAA_NXZ@AEAPEAD@Z 0000000140018344 f i libucrt:output.obj
 0001:00017354       ??$read_va_arg@PEAUansi_string@?1??type_case_Z@?$output_processor@_WV?$string_output_adapter@_W@__crt_stdio_output@@V?$format_validation_base@_WV?$string_output_adapter@_W@__crt_stdio_output@@@2@@__crt_stdio_output@@AEAA_NXZ@@__crt_stdio_output@@YAPEAUansi_string@?1??type_case_Z@?$output_processor@_WV?$string_output_adapter@_W@__crt_stdio_output@@V?$format_validation_base@_WV?$string_output_adapter@_W@__crt_stdio_output@@@2@@0@AEAA_NXZ@AEAPEAD@Z 0000000140018354 f i libucrt:output.obj
 0001:00017364       ??$read_va_arg@PEAUansi_string@?1??type_case_Z@?$output_processor@_WV?$string_output_adapter@_W@__crt_stdio_output@@V?$positional_parameter_base@_WV?$string_output_adapter@_W@__crt_stdio_output@@@2@@__crt_stdio_output@@AEAA_NXZ@@__crt_stdio_output@@YAPEAUansi_string@?1??type_case_Z@?$output_processor@_WV?$string_output_adapter@_W@__crt_stdio_output@@V?$positional_parameter_base@_WV?$string_output_adapter@_W@__crt_stdio_output@@@2@@0@AEAA_NXZ@AEAPEAD@Z 0000000140018364 f i libucrt:output.obj
 0001:00017374       ??$read_va_arg@PEAUansi_string@?1??type_case_Z@?$output_processor@_WV?$string_output_adapter@_W@__crt_stdio_output@@V?$standard_base@_WV?$string_output_adapter@_W@__crt_stdio_output@@@2@@__crt_stdio_output@@AEAA_NXZ@@__crt_stdio_output@@YAPEAUansi_string@?1??type_case_Z@?$output_processor@_WV?$string_output_adapter@_W@__crt_stdio_output@@V?$standard_base@_WV?$string_output_adapter@_W@__crt_stdio_output@@@2@@0@AEAA_NXZ@AEAPEAD@Z 0000000140018374 f i libucrt:output.obj
 0001:00017384       ??$read_va_arg@PEAX@__crt_stdio_output@@YAPEAXAEAPEAD@Z 0000000140018384 f i libucrt:output.obj
 0001:00017394       ??$read_va_arg@U_CRT_DOUBLE@@@__crt_stdio_output@@YA?AU_CRT_DOUBLE@@AEAPEAD@Z 0000000140018394 f i libucrt:output.obj
 0001:000173a4       ??$read_va_arg@_J@__crt_stdio_output@@YA_JAEAPEAD@Z 00000001400183a4 f i libucrt:output.obj
 0001:000173b4       ??$read_va_arg@_K@__crt_stdio_output@@YA_KAEAPEAD@Z 00000001400183b4 f i libucrt:output.obj
 0001:000173c4       ??$read_va_arg@_W@__crt_stdio_output@@YA_WAEAPEAD@Z 00000001400183c4 f i libucrt:output.obj
 0001:000173d4       ??$scratch_count@D@formatting_buffer@__crt_stdio_output@@QEBA_KXZ 00000001400183d4 f i libucrt:output.obj
 0001:000173f0       ??$scratch_data@D@formatting_buffer@__crt_stdio_output@@QEAAPEADXZ 00000001400183f0 f i libucrt:output.obj
 0001:00017414       ??$type_case_integer@$07@?$output_processor@DV?$stream_output_adapter@D@__crt_stdio_output@@V?$format_validation_base@DV?$stream_output_adapter@D@__crt_stdio_output@@@2@@__crt_stdio_output@@AEAA_N_N@Z 0000000140018414 f i libucrt:output.obj
 0001:00017618       ??$type_case_integer@$07@?$output_processor@DV?$stream_output_adapter@D@__crt_stdio_output@@V?$positional_parameter_base@DV?$stream_output_adapter@D@__crt_stdio_output@@@2@@__crt_stdio_output@@AEAA_N_N@Z 0000000140018618 f i libucrt:output.obj
 0001:00017844       ??$type_case_integer@$07@?$output_processor@DV?$stream_output_adapter@D@__crt_stdio_output@@V?$standard_base@DV?$stream_output_adapter@D@__crt_stdio_output@@@2@@__crt_stdio_output@@AEAA_N_N@Z 0000000140018844 f i libucrt:output.obj
 0001:00017a48       ??$type_case_integer@$07@?$output_processor@DV?$string_output_adapter@D@__crt_stdio_output@@V?$format_validation_base@DV?$string_output_adapter@D@__crt_stdio_output@@@2@@__crt_stdio_output@@AEAA_N_N@Z 0000000140018a48 f i libucrt:output.obj
 0001:00017c4c       ??$type_case_integer@$07@?$output_processor@DV?$string_output_adapter@D@__crt_stdio_output@@V?$positional_parameter_base@DV?$string_output_adapter@D@__crt_stdio_output@@@2@@__crt_stdio_output@@AEAA_N_N@Z 0000000140018c4c f i libucrt:output.obj
 0001:00017e78       ??$type_case_integer@$07@?$output_processor@DV?$string_output_adapter@D@__crt_stdio_output@@V?$standard_base@DV?$string_output_adapter@D@__crt_stdio_output@@@2@@__crt_stdio_output@@AEAA_N_N@Z 0000000140018e78 f i libucrt:output.obj
 0001:0001807c       ??$type_case_integer@$07@?$output_processor@_WV?$stream_output_adapter@_W@__crt_stdio_output@@V?$format_validation_base@_WV?$stream_output_adapter@_W@__crt_stdio_output@@@2@@__crt_stdio_output@@AEAA_N_N@Z 000000014001907c f i libucrt:output.obj
 0001:00018288       ??$type_case_integer@$07@?$output_processor@_WV?$stream_output_adapter@_W@__crt_stdio_output@@V?$positional_parameter_base@_WV?$stream_output_adapter@_W@__crt_stdio_output@@@2@@__crt_stdio_output@@AEAA_N_N@Z 0000000140019288 f i libucrt:output.obj
 0001:000184bc       ??$type_case_integer@$07@?$output_processor@_WV?$stream_output_adapter@_W@__crt_stdio_output@@V?$standard_base@_WV?$stream_output_adapter@_W@__crt_stdio_output@@@2@@__crt_stdio_output@@AEAA_N_N@Z 00000001400194bc f i libucrt:output.obj
 0001:000186c8       ??$type_case_integer@$07@?$output_processor@_WV?$string_output_adapter@_W@__crt_stdio_output@@V?$format_validation_base@_WV?$string_output_adapter@_W@__crt_stdio_output@@@2@@__crt_stdio_output@@AEAA_N_N@Z 00000001400196c8 f i libucrt:output.obj
 0001:000188d4       ??$type_case_integer@$07@?$output_processor@_WV?$string_output_adapter@_W@__crt_stdio_output@@V?$positional_parameter_base@_WV?$string_output_adapter@_W@__crt_stdio_output@@@2@@__crt_stdio_output@@AEAA_N_N@Z 00000001400198d4 f i libucrt:output.obj
 0001:00018b08       ??$type_case_integer@$07@?$output_processor@_WV?$string_output_adapter@_W@__crt_stdio_output@@V?$standard_base@_WV?$string_output_adapter@_W@__crt_stdio_output@@@2@@__crt_stdio_output@@AEAA_N_N@Z 0000000140019b08 f i libucrt:output.obj
 0001:00018d14       ??$type_case_integer@$09@?$output_processor@DV?$stream_output_adapter@D@__crt_stdio_output@@V?$format_validation_base@DV?$stream_output_adapter@D@__crt_stdio_output@@@2@@__crt_stdio_output@@AEAA_N_N@Z 0000000140019d14 f i libucrt:output.obj
 0001:00018f18       ??$type_case_integer@$09@?$output_processor@DV?$stream_output_adapter@D@__crt_stdio_output@@V?$positional_parameter_base@DV?$stream_output_adapter@D@__crt_stdio_output@@@2@@__crt_stdio_output@@AEAA_N_N@Z 0000000140019f18 f i libucrt:output.obj
 0001:00019144       ??$type_case_integer@$09@?$output_processor@DV?$stream_output_adapter@D@__crt_stdio_output@@V?$standard_base@DV?$stream_output_adapter@D@__crt_stdio_output@@@2@@__crt_stdio_output@@AEAA_N_N@Z 000000014001a144 f i libucrt:output.obj
 0001:00019348       ??$type_case_integer@$09@?$output_processor@DV?$string_output_adapter@D@__crt_stdio_output@@V?$format_validation_base@DV?$string_output_adapter@D@__crt_stdio_output@@@2@@__crt_stdio_output@@AEAA_N_N@Z 000000014001a348 f i libucrt:output.obj
 0001:0001954c       ??$type_case_integer@$09@?$output_processor@DV?$string_output_adapter@D@__crt_stdio_output@@V?$positional_parameter_base@DV?$string_output_adapter@D@__crt_stdio_output@@@2@@__crt_stdio_output@@AEAA_N_N@Z 000000014001a54c f i libucrt:output.obj
 0001:00019778       ??$type_case_integer@$09@?$output_processor@DV?$string_output_adapter@D@__crt_stdio_output@@V?$standard_base@DV?$string_output_adapter@D@__crt_stdio_output@@@2@@__crt_stdio_output@@AEAA_N_N@Z 000000014001a778 f i libucrt:output.obj
 0001:0001997c       ??$type_case_integer@$09@?$output_processor@_WV?$stream_output_adapter@_W@__crt_stdio_output@@V?$format_validation_base@_WV?$stream_output_adapter@_W@__crt_stdio_output@@@2@@__crt_stdio_output@@AEAA_N_N@Z 000000014001a97c f i libucrt:output.obj
 0001:00019b88       ??$type_case_integer@$09@?$output_processor@_WV?$stream_output_adapter@_W@__crt_stdio_output@@V?$positional_parameter_base@_WV?$stream_output_adapter@_W@__crt_stdio_output@@@2@@__crt_stdio_output@@AEAA_N_N@Z 000000014001ab88 f i libucrt:output.obj
 0001:00019dbc       ??$type_case_integer@$09@?$output_processor@_WV?$stream_output_adapter@_W@__crt_stdio_output@@V?$standard_base@_WV?$stream_output_adapter@_W@__crt_stdio_output@@@2@@__crt_stdio_output@@AEAA_N_N@Z 000000014001adbc f i libucrt:output.obj
 0001:00019fc8       ??$type_case_integer@$09@?$output_processor@_WV?$string_output_adapter@_W@__crt_stdio_output@@V?$format_validation_base@_WV?$string_output_adapter@_W@__crt_stdio_output@@@2@@__crt_stdio_output@@AEAA_N_N@Z 000000014001afc8 f i libucrt:output.obj
 0001:0001a1d4       ??$type_case_integer@$09@?$output_processor@_WV?$string_output_adapter@_W@__crt_stdio_output@@V?$positional_parameter_base@_WV?$string_output_adapter@_W@__crt_stdio_output@@@2@@__crt_stdio_output@@AEAA_N_N@Z 000000014001b1d4 f i libucrt:output.obj
 0001:0001a408       ??$type_case_integer@$09@?$output_processor@_WV?$string_output_adapter@_W@__crt_stdio_output@@V?$standard_base@_WV?$string_output_adapter@_W@__crt_stdio_output@@@2@@__crt_stdio_output@@AEAA_N_N@Z 000000014001b408 f i libucrt:output.obj
 0001:0001a614       ??$type_case_integer@$0BA@@?$output_processor@DV?$stream_output_adapter@D@__crt_stdio_output@@V?$format_validation_base@DV?$stream_output_adapter@D@__crt_stdio_output@@@2@@__crt_stdio_output@@AEAA_N_N@Z 000000014001b614 f i libucrt:output.obj
 0001:0001a818       ??$type_case_integer@$0BA@@?$output_processor@DV?$stream_output_adapter@D@__crt_stdio_output@@V?$positional_parameter_base@DV?$stream_output_adapter@D@__crt_stdio_output@@@2@@__crt_stdio_output@@AEAA_N_N@Z 000000014001b818 f i libucrt:output.obj
 0001:0001aa44       ??$type_case_integer@$0BA@@?$output_processor@DV?$stream_output_adapter@D@__crt_stdio_output@@V?$standard_base@DV?$stream_output_adapter@D@__crt_stdio_output@@@2@@__crt_stdio_output@@AEAA_N_N@Z 000000014001ba44 f i libucrt:output.obj
 0001:0001ac48       ??$type_case_integer@$0BA@@?$output_processor@DV?$string_output_adapter@D@__crt_stdio_output@@V?$format_validation_base@DV?$string_output_adapter@D@__crt_stdio_output@@@2@@__crt_stdio_output@@AEAA_N_N@Z 000000014001bc48 f i libucrt:output.obj
 0001:0001ae4c       ??$type_case_integer@$0BA@@?$output_processor@DV?$string_output_adapter@D@__crt_stdio_output@@V?$positional_parameter_base@DV?$string_output_adapter@D@__crt_stdio_output@@@2@@__crt_stdio_output@@AEAA_N_N@Z 000000014001be4c f i libucrt:output.obj
 0001:0001b078       ??$type_case_integer@$0BA@@?$output_processor@DV?$string_output_adapter@D@__crt_stdio_output@@V?$standard_base@DV?$string_output_adapter@D@__crt_stdio_output@@@2@@__crt_stdio_output@@AEAA_N_N@Z 000000014001c078 f i libucrt:output.obj
 0001:0001b27c       ??$type_case_integer@$0BA@@?$output_processor@_WV?$stream_output_adapter@_W@__crt_stdio_output@@V?$format_validation_base@_WV?$stream_output_adapter@_W@__crt_stdio_output@@@2@@__crt_stdio_output@@AEAA_N_N@Z 000000014001c27c f i libucrt:output.obj
 0001:0001b488       ??$type_case_integer@$0BA@@?$output_processor@_WV?$stream_output_adapter@_W@__crt_stdio_output@@V?$positional_parameter_base@_WV?$stream_output_adapter@_W@__crt_stdio_output@@@2@@__crt_stdio_output@@AEAA_N_N@Z 000000014001c488 f i libucrt:output.obj
 0001:0001b6bc       ??$type_case_integer@$0BA@@?$output_processor@_WV?$stream_output_adapter@_W@__crt_stdio_output@@V?$standard_base@_WV?$stream_output_adapter@_W@__crt_stdio_output@@@2@@__crt_stdio_output@@AEAA_N_N@Z 000000014001c6bc f i libucrt:output.obj
 0001:0001b8c8       ??$type_case_integer@$0BA@@?$output_processor@_WV?$string_output_adapter@_W@__crt_stdio_output@@V?$format_validation_base@_WV?$string_output_adapter@_W@__crt_stdio_output@@@2@@__crt_stdio_output@@AEAA_N_N@Z 000000014001c8c8 f i libucrt:output.obj
 0001:0001bad4       ??$type_case_integer@$0BA@@?$output_processor@_WV?$string_output_adapter@_W@__crt_stdio_output@@V?$positional_parameter_base@_WV?$string_output_adapter@_W@__crt_stdio_output@@@2@@__crt_stdio_output@@AEAA_N_N@Z 000000014001cad4 f i libucrt:output.obj
 0001:0001bd08       ??$type_case_integer@$0BA@@?$output_processor@_WV?$string_output_adapter@_W@__crt_stdio_output@@V?$standard_base@_WV?$string_output_adapter@_W@__crt_stdio_output@@@2@@__crt_stdio_output@@AEAA_N_N@Z 000000014001cd08 f i libucrt:output.obj
 0001:0001bf14       ??$type_case_integer_parse_into_buffer@I$07@?$output_processor@DV?$stream_output_adapter@D@__crt_stdio_output@@V?$format_validation_base@DV?$stream_output_adapter@D@__crt_stdio_output@@@2@@__crt_stdio_output@@AEAAXI_N@Z 000000014001cf14 f i libucrt:output.obj
 0001:0001bf84       ??$type_case_integer_parse_into_buffer@I$07@?$output_processor@DV?$stream_output_adapter@D@__crt_stdio_output@@V?$positional_parameter_base@DV?$stream_output_adapter@D@__crt_stdio_output@@@2@@__crt_stdio_output@@AEAAXI_N@Z 000000014001cf84 f i libucrt:output.obj
 0001:0001bff4       ??$type_case_integer_parse_into_buffer@I$07@?$output_processor@DV?$stream_output_adapter@D@__crt_stdio_output@@V?$standard_base@DV?$stream_output_adapter@D@__crt_stdio_output@@@2@@__crt_stdio_output@@AEAAXI_N@Z 000000014001cff4 f i libucrt:output.obj
 0001:0001c064       ??$type_case_integer_parse_into_buffer@I$07@?$output_processor@DV?$string_output_adapter@D@__crt_stdio_output@@V?$format_validation_base@DV?$string_output_adapter@D@__crt_stdio_output@@@2@@__crt_stdio_output@@AEAAXI_N@Z 000000014001d064 f i libucrt:output.obj
 0001:0001c0d4       ??$type_case_integer_parse_into_buffer@I$07@?$output_processor@DV?$string_output_adapter@D@__crt_stdio_output@@V?$positional_parameter_base@DV?$string_output_adapter@D@__crt_stdio_output@@@2@@__crt_stdio_output@@AEAAXI_N@Z 000000014001d0d4 f i libucrt:output.obj
 0001:0001c144       ??$type_case_integer_parse_into_buffer@I$07@?$output_processor@DV?$string_output_adapter@D@__crt_stdio_output@@V?$standard_base@DV?$string_output_adapter@D@__crt_stdio_output@@@2@@__crt_stdio_output@@AEAAXI_N@Z 000000014001d144 f i libucrt:output.obj
 0001:0001c1b4       ??$type_case_integer_parse_into_buffer@I$07@?$output_processor@_WV?$stream_output_adapter@_W@__crt_stdio_output@@V?$format_validation_base@_WV?$stream_output_adapter@_W@__crt_stdio_output@@@2@@__crt_stdio_output@@AEAAXI_N@Z 000000014001d1b4 f i libucrt:output.obj
 0001:0001c238       ??$type_case_integer_parse_into_buffer@I$07@?$output_processor@_WV?$stream_output_adapter@_W@__crt_stdio_output@@V?$positional_parameter_base@_WV?$stream_output_adapter@_W@__crt_stdio_output@@@2@@__crt_stdio_output@@AEAAXI_N@Z 000000014001d238 f i libucrt:output.obj
 0001:0001c2bc       ??$type_case_integer_parse_into_buffer@I$07@?$output_processor@_WV?$stream_output_adapter@_W@__crt_stdio_output@@V?$standard_base@_WV?$stream_output_adapter@_W@__crt_stdio_output@@@2@@__crt_stdio_output@@AEAAXI_N@Z 000000014001d2bc f i libucrt:output.obj
 0001:0001c340       ??$type_case_integer_parse_into_buffer@I$07@?$output_processor@_WV?$string_output_adapter@_W@__crt_stdio_output@@V?$format_validation_base@_WV?$string_output_adapter@_W@__crt_stdio_output@@@2@@__crt_stdio_output@@AEAAXI_N@Z 000000014001d340 f i libucrt:output.obj
 0001:0001c3c4       ??$type_case_integer_parse_into_buffer@I$07@?$output_processor@_WV?$string_output_adapter@_W@__crt_stdio_output@@V?$positional_parameter_base@_WV?$string_output_adapter@_W@__crt_stdio_output@@@2@@__crt_stdio_output@@AEAAXI_N@Z 000000014001d3c4 f i libucrt:output.obj
 0001:0001c448       ??$type_case_integer_parse_into_buffer@I$07@?$output_processor@_WV?$string_output_adapter@_W@__crt_stdio_output@@V?$standard_base@_WV?$string_output_adapter@_W@__crt_stdio_output@@@2@@__crt_stdio_output@@AEAAXI_N@Z 000000014001d448 f i libucrt:output.obj
 0001:0001c4cc       ??$type_case_integer_parse_into_buffer@I$09@?$output_processor@DV?$stream_output_adapter@D@__crt_stdio_output@@V?$format_validation_base@DV?$stream_output_adapter@D@__crt_stdio_output@@@2@@__crt_stdio_output@@AEAAXI_N@Z 000000014001d4cc f i libucrt:output.obj
 0001:0001c578       ??$type_case_integer_parse_into_buffer@I$09@?$output_processor@DV?$stream_output_adapter@D@__crt_stdio_output@@V?$positional_parameter_base@DV?$stream_output_adapter@D@__crt_stdio_output@@@2@@__crt_stdio_output@@AEAAXI_N@Z 000000014001d578 f i libucrt:output.obj
 0001:0001c624       ??$type_case_integer_parse_into_buffer@I$09@?$output_processor@DV?$stream_output_adapter@D@__crt_stdio_output@@V?$standard_base@DV?$stream_output_adapter@D@__crt_stdio_output@@@2@@__crt_stdio_output@@AEAAXI_N@Z 000000014001d624 f i libucrt:output.obj
 0001:0001c6d0       ??$type_case_integer_parse_into_buffer@I$09@?$output_processor@DV?$string_output_adapter@D@__crt_stdio_output@@V?$format_validation_base@DV?$string_output_adapter@D@__crt_stdio_output@@@2@@__crt_stdio_output@@AEAAXI_N@Z 000000014001d6d0 f i libucrt:output.obj
 0001:0001c77c       ??$type_case_integer_parse_into_buffer@I$09@?$output_processor@DV?$string_output_adapter@D@__crt_stdio_output@@V?$positional_parameter_base@DV?$string_output_adapter@D@__crt_stdio_output@@@2@@__crt_stdio_output@@AEAAXI_N@Z 000000014001d77c f i libucrt:output.obj
 0001:0001c828       ??$type_case_integer_parse_into_buffer@I$09@?$output_processor@DV?$string_output_adapter@D@__crt_stdio_output@@V?$standard_base@DV?$string_output_adapter@D@__crt_stdio_output@@@2@@__crt_stdio_output@@AEAAXI_N@Z 000000014001d828 f i libucrt:output.obj
 0001:0001c8d4       ??$type_case_integer_parse_into_buffer@I$09@?$output_processor@_WV?$stream_output_adapter@_W@__crt_stdio_output@@V?$format_validation_base@_WV?$stream_output_adapter@_W@__crt_stdio_output@@@2@@__crt_stdio_output@@AEAAXI_N@Z 000000014001d8d4 f i libucrt:output.obj
 0001:0001c994       ??$type_case_integer_parse_into_buffer@I$09@?$output_processor@_WV?$stream_output_adapter@_W@__crt_stdio_output@@V?$positional_parameter_base@_WV?$stream_output_adapter@_W@__crt_stdio_output@@@2@@__crt_stdio_output@@AEAAXI_N@Z 000000014001d994 f i libucrt:output.obj
 0001:0001ca54       ??$type_case_integer_parse_into_buffer@I$09@?$output_processor@_WV?$stream_output_adapter@_W@__crt_stdio_output@@V?$standard_base@_WV?$stream_output_adapter@_W@__crt_stdio_output@@@2@@__crt_stdio_output@@AEAAXI_N@Z 000000014001da54 f i libucrt:output.obj
 0001:0001cb14       ??$type_case_integer_parse_into_buffer@I$09@?$output_processor@_WV?$string_output_adapter@_W@__crt_stdio_output@@V?$format_validation_base@_WV?$string_output_adapter@_W@__crt_stdio_output@@@2@@__crt_stdio_output@@AEAAXI_N@Z 000000014001db14 f i libucrt:output.obj
 0001:0001cbd4       ??$type_case_integer_parse_into_buffer@I$09@?$output_processor@_WV?$string_output_adapter@_W@__crt_stdio_output@@V?$positional_parameter_base@_WV?$string_output_adapter@_W@__crt_stdio_output@@@2@@__crt_stdio_output@@AEAAXI_N@Z 000000014001dbd4 f i libucrt:output.obj
 0001:0001cc94       ??$type_case_integer_parse_into_buffer@I$09@?$output_processor@_WV?$string_output_adapter@_W@__crt_stdio_output@@V?$standard_base@_WV?$string_output_adapter@_W@__crt_stdio_output@@@2@@__crt_stdio_output@@AEAAXI_N@Z 000000014001dc94 f i libucrt:output.obj
 0001:0001cd54       ??$type_case_integer_parse_into_buffer@I$0BA@@?$output_processor@DV?$stream_output_adapter@D@__crt_stdio_output@@V?$format_validation_base@DV?$stream_output_adapter@D@__crt_stdio_output@@@2@@__crt_stdio_output@@AEAAXI_N@Z 000000014001dd54 f i libucrt:output.obj
 0001:0001cdd8       ??$type_case_integer_parse_into_buffer@I$0BA@@?$output_processor@DV?$stream_output_adapter@D@__crt_stdio_output@@V?$positional_parameter_base@DV?$stream_output_adapter@D@__crt_stdio_output@@@2@@__crt_stdio_output@@AEAAXI_N@Z 000000014001ddd8 f i libucrt:output.obj
 0001:0001ce5c       ??$type_case_integer_parse_into_buffer@I$0BA@@?$output_processor@DV?$stream_output_adapter@D@__crt_stdio_output@@V?$standard_base@DV?$stream_output_adapter@D@__crt_stdio_output@@@2@@__crt_stdio_output@@AEAAXI_N@Z 000000014001de5c f i libucrt:output.obj
 0001:0001cee0       ??$type_case_integer_parse_into_buffer@I$0BA@@?$output_processor@DV?$string_output_adapter@D@__crt_stdio_output@@V?$format_validation_base@DV?$string_output_adapter@D@__crt_stdio_output@@@2@@__crt_stdio_output@@AEAAXI_N@Z 000000014001dee0 f i libucrt:output.obj
 0001:0001cf64       ??$type_case_integer_parse_into_buffer@I$0BA@@?$output_processor@DV?$string_output_adapter@D@__crt_stdio_output@@V?$positional_parameter_base@DV?$string_output_adapter@D@__crt_stdio_output@@@2@@__crt_stdio_output@@AEAAXI_N@Z 000000014001df64 f i libucrt:output.obj
 0001:0001cfe8       ??$type_case_integer_parse_into_buffer@I$0BA@@?$output_processor@DV?$string_output_adapter@D@__crt_stdio_output@@V?$standard_base@DV?$string_output_adapter@D@__crt_stdio_output@@@2@@__crt_stdio_output@@AEAAXI_N@Z 000000014001dfe8 f i libucrt:output.obj
 0001:0001d06c       ??$type_case_integer_parse_into_buffer@I$0BA@@?$output_processor@_WV?$stream_output_adapter@_W@__crt_stdio_output@@V?$format_validation_base@_WV?$stream_output_adapter@_W@__crt_stdio_output@@@2@@__crt_stdio_output@@AEAAXI_N@Z 000000014001e06c f i libucrt:output.obj
 0001:0001d10c       ??$type_case_integer_parse_into_buffer@I$0BA@@?$output_processor@_WV?$stream_output_adapter@_W@__crt_stdio_output@@V?$positional_parameter_base@_WV?$stream_output_adapter@_W@__crt_stdio_output@@@2@@__crt_stdio_output@@AEAAXI_N@Z 000000014001e10c f i libucrt:output.obj
 0001:0001d1ac       ??$type_case_integer_parse_into_buffer@I$0BA@@?$output_processor@_WV?$stream_output_adapter@_W@__crt_stdio_output@@V?$standard_base@_WV?$stream_output_adapter@_W@__crt_stdio_output@@@2@@__crt_stdio_output@@AEAAXI_N@Z 000000014001e1ac f i libucrt:output.obj
 0001:0001d24c       ??$type_case_integer_parse_into_buffer@I$0BA@@?$output_processor@_WV?$string_output_adapter@_W@__crt_stdio_output@@V?$format_validation_base@_WV?$string_output_adapter@_W@__crt_stdio_output@@@2@@__crt_stdio_output@@AEAAXI_N@Z 000000014001e24c f i libucrt:output.obj
 0001:0001d2ec       ??$type_case_integer_parse_into_buffer@I$0BA@@?$output_processor@_WV?$string_output_adapter@_W@__crt_stdio_output@@V?$positional_parameter_base@_WV?$string_output_adapter@_W@__crt_stdio_output@@@2@@__crt_stdio_output@@AEAAXI_N@Z 000000014001e2ec f i libucrt:output.obj
 0001:0001d38c       ??$type_case_integer_parse_into_buffer@I$0BA@@?$output_processor@_WV?$string_output_adapter@_W@__crt_stdio_output@@V?$standard_base@_WV?$string_output_adapter@_W@__crt_stdio_output@@@2@@__crt_stdio_output@@AEAAXI_N@Z 000000014001e38c f i libucrt:output.obj
 0001:0001d42c       ??$type_case_integer_parse_into_buffer@_K$07@?$output_processor@DV?$stream_output_adapter@D@__crt_stdio_output@@V?$format_validation_base@DV?$stream_output_adapter@D@__crt_stdio_output@@@2@@__crt_stdio_output@@AEAAX_K_N@Z 000000014001e42c f i libucrt:output.obj
 0001:0001d49c       ??$type_case_integer_parse_into_buffer@_K$07@?$output_processor@DV?$stream_output_adapter@D@__crt_stdio_output@@V?$positional_parameter_base@DV?$stream_output_adapter@D@__crt_stdio_output@@@2@@__crt_stdio_output@@AEAAX_K_N@Z 000000014001e49c f i libucrt:output.obj
 0001:0001d50c       ??$type_case_integer_parse_into_buffer@_K$07@?$output_processor@DV?$stream_output_adapter@D@__crt_stdio_output@@V?$standard_base@DV?$stream_output_adapter@D@__crt_stdio_output@@@2@@__crt_stdio_output@@AEAAX_K_N@Z 000000014001e50c f i libucrt:output.obj
 0001:0001d57c       ??$type_case_integer_parse_into_buffer@_K$07@?$output_processor@DV?$string_output_adapter@D@__crt_stdio_output@@V?$format_validation_base@DV?$string_output_adapter@D@__crt_stdio_output@@@2@@__crt_stdio_output@@AEAAX_K_N@Z 000000014001e57c f i libucrt:output.obj
 0001:0001d5ec       ??$type_case_integer_parse_into_buffer@_K$07@?$output_processor@DV?$string_output_adapter@D@__crt_stdio_output@@V?$positional_parameter_base@DV?$string_output_adapter@D@__crt_stdio_output@@@2@@__crt_stdio_output@@AEAAX_K_N@Z 000000014001e5ec f i libucrt:output.obj
 0001:0001d65c       ??$type_case_integer_parse_into_buffer@_K$07@?$output_processor@DV?$string_output_adapter@D@__crt_stdio_output@@V?$standard_base@DV?$string_output_adapter@D@__crt_stdio_output@@@2@@__crt_stdio_output@@AEAAX_K_N@Z 000000014001e65c f i libucrt:output.obj
 0001:0001d6cc       ??$type_case_integer_parse_into_buffer@_K$07@?$output_processor@_WV?$stream_output_adapter@_W@__crt_stdio_output@@V?$format_validation_base@_WV?$stream_output_adapter@_W@__crt_stdio_output@@@2@@__crt_stdio_output@@AEAAX_K_N@Z 000000014001e6cc f i libucrt:output.obj
 0001:0001d754       ??$type_case_integer_parse_into_buffer@_K$07@?$output_processor@_WV?$stream_output_adapter@_W@__crt_stdio_output@@V?$positional_parameter_base@_WV?$stream_output_adapter@_W@__crt_stdio_output@@@2@@__crt_stdio_output@@AEAAX_K_N@Z 000000014001e754 f i libucrt:output.obj
 0001:0001d7dc       ??$type_case_integer_parse_into_buffer@_K$07@?$output_processor@_WV?$stream_output_adapter@_W@__crt_stdio_output@@V?$standard_base@_WV?$stream_output_adapter@_W@__crt_stdio_output@@@2@@__crt_stdio_output@@AEAAX_K_N@Z 000000014001e7dc f i libucrt:output.obj
 0001:0001d864       ??$type_case_integer_parse_into_buffer@_K$07@?$output_processor@_WV?$string_output_adapter@_W@__crt_stdio_output@@V?$format_validation_base@_WV?$string_output_adapter@_W@__crt_stdio_output@@@2@@__crt_stdio_output@@AEAAX_K_N@Z 000000014001e864 f i libucrt:output.obj
 0001:0001d8ec       ??$type_case_integer_parse_into_buffer@_K$07@?$output_processor@_WV?$string_output_adapter@_W@__crt_stdio_output@@V?$positional_parameter_base@_WV?$string_output_adapter@_W@__crt_stdio_output@@@2@@__crt_stdio_output@@AEAAX_K_N@Z 000000014001e8ec f i libucrt:output.obj
 0001:0001d974       ??$type_case_integer_parse_into_buffer@_K$07@?$output_processor@_WV?$string_output_adapter@_W@__crt_stdio_output@@V?$standard_base@_WV?$string_output_adapter@_W@__crt_stdio_output@@@2@@__crt_stdio_output@@AEAAX_K_N@Z 000000014001e974 f i libucrt:output.obj
 0001:0001d9fc       ??$type_case_integer_parse_into_buffer@_K$09@?$output_processor@DV?$stream_output_adapter@D@__crt_stdio_output@@V?$format_validation_base@DV?$stream_output_adapter@D@__crt_stdio_output@@@2@@__crt_stdio_output@@AEAAX_K_N@Z 000000014001e9fc f i libucrt:output.obj
 0001:0001daac       ??$type_case_integer_parse_into_buffer@_K$09@?$output_processor@DV?$stream_output_adapter@D@__crt_stdio_output@@V?$positional_parameter_base@DV?$stream_output_adapter@D@__crt_stdio_output@@@2@@__crt_stdio_output@@AEAAX_K_N@Z 000000014001eaac f i libucrt:output.obj
 0001:0001db5c       ??$type_case_integer_parse_into_buffer@_K$09@?$output_processor@DV?$stream_output_adapter@D@__crt_stdio_output@@V?$standard_base@DV?$stream_output_adapter@D@__crt_stdio_output@@@2@@__crt_stdio_output@@AEAAX_K_N@Z 000000014001eb5c f i libucrt:output.obj
 0001:0001dc0c       ??$type_case_integer_parse_into_buffer@_K$09@?$output_processor@DV?$string_output_adapter@D@__crt_stdio_output@@V?$format_validation_base@DV?$string_output_adapter@D@__crt_stdio_output@@@2@@__crt_stdio_output@@AEAAX_K_N@Z 000000014001ec0c f i libucrt:output.obj
 0001:0001dcbc       ??$type_case_integer_parse_into_buffer@_K$09@?$output_processor@DV?$string_output_adapter@D@__crt_stdio_output@@V?$positional_parameter_base@DV?$string_output_adapter@D@__crt_stdio_output@@@2@@__crt_stdio_output@@AEAAX_K_N@Z 000000014001ecbc f i libucrt:output.obj
 0001:0001dd6c       ??$type_case_integer_parse_into_buffer@_K$09@?$output_processor@DV?$string_output_adapter@D@__crt_stdio_output@@V?$standard_base@DV?$string_output_adapter@D@__crt_stdio_output@@@2@@__crt_stdio_output@@AEAAX_K_N@Z 000000014001ed6c f i libucrt:output.obj
 0001:0001de1c       ??$type_case_integer_parse_into_buffer@_K$09@?$output_processor@_WV?$stream_output_adapter@_W@__crt_stdio_output@@V?$format_validation_base@_WV?$stream_output_adapter@_W@__crt_stdio_output@@@2@@__crt_stdio_output@@AEAAX_K_N@Z 000000014001ee1c f i libucrt:output.obj
 0001:0001dee0       ??$type_case_integer_parse_into_buffer@_K$09@?$output_processor@_WV?$stream_output_adapter@_W@__crt_stdio_output@@V?$positional_parameter_base@_WV?$stream_output_adapter@_W@__crt_stdio_output@@@2@@__crt_stdio_output@@AEAAX_K_N@Z 000000014001eee0 f i libucrt:output.obj
 0001:0001dfa4       ??$type_case_integer_parse_into_buffer@_K$09@?$output_processor@_WV?$stream_output_adapter@_W@__crt_stdio_output@@V?$standard_base@_WV?$stream_output_adapter@_W@__crt_stdio_output@@@2@@__crt_stdio_output@@AEAAX_K_N@Z 000000014001efa4 f i libucrt:output.obj
 0001:0001e068       ??$type_case_integer_parse_into_buffer@_K$09@?$output_processor@_WV?$string_output_adapter@_W@__crt_stdio_output@@V?$format_validation_base@_WV?$string_output_adapter@_W@__crt_stdio_output@@@2@@__crt_stdio_output@@AEAAX_K_N@Z 000000014001f068 f i libucrt:output.obj
 0001:0001e12c       ??$type_case_integer_parse_into_buffer@_K$09@?$output_processor@_WV?$string_output_adapter@_W@__crt_stdio_output@@V?$positional_parameter_base@_WV?$string_output_adapter@_W@__crt_stdio_output@@@2@@__crt_stdio_output@@AEAAX_K_N@Z 000000014001f12c f i libucrt:output.obj
 0001:0001e1f0       ??$type_case_integer_parse_into_buffer@_K$09@?$output_processor@_WV?$string_output_adapter@_W@__crt_stdio_output@@V?$standard_base@_WV?$string_output_adapter@_W@__crt_stdio_output@@@2@@__crt_stdio_output@@AEAAX_K_N@Z 000000014001f1f0 f i libucrt:output.obj
 0001:0001e2b4       ??$type_case_integer_parse_into_buffer@_K$0BA@@?$output_processor@DV?$stream_output_adapter@D@__crt_stdio_output@@V?$format_validation_base@DV?$stream_output_adapter@D@__crt_stdio_output@@@2@@__crt_stdio_output@@AEAAX_K_N@Z 000000014001f2b4 f i libucrt:output.obj
 0001:0001e338       ??$type_case_integer_parse_into_buffer@_K$0BA@@?$output_processor@DV?$stream_output_adapter@D@__crt_stdio_output@@V?$positional_parameter_base@DV?$stream_output_adapter@D@__crt_stdio_output@@@2@@__crt_stdio_output@@AEAAX_K_N@Z 000000014001f338 f i libucrt:output.obj
 0001:0001e3bc       ??$type_case_integer_parse_into_buffer@_K$0BA@@?$output_processor@DV?$stream_output_adapter@D@__crt_stdio_output@@V?$standard_base@DV?$stream_output_adapter@D@__crt_stdio_output@@@2@@__crt_stdio_output@@AEAAX_K_N@Z 000000014001f3bc f i libucrt:output.obj
 0001:0001e440       ??$type_case_integer_parse_into_buffer@_K$0BA@@?$output_processor@DV?$string_output_adapter@D@__crt_stdio_output@@V?$format_validation_base@DV?$string_output_adapter@D@__crt_stdio_output@@@2@@__crt_stdio_output@@AEAAX_K_N@Z 000000014001f440 f i libucrt:output.obj
 0001:0001e4c4       ??$type_case_integer_parse_into_buffer@_K$0BA@@?$output_processor@DV?$string_output_adapter@D@__crt_stdio_output@@V?$positional_parameter_base@DV?$string_output_adapter@D@__crt_stdio_output@@@2@@__crt_stdio_output@@AEAAX_K_N@Z 000000014001f4c4 f i libucrt:output.obj
 0001:0001e548       ??$type_case_integer_parse_into_buffer@_K$0BA@@?$output_processor@DV?$string_output_adapter@D@__crt_stdio_output@@V?$standard_base@DV?$string_output_adapter@D@__crt_stdio_output@@@2@@__crt_stdio_output@@AEAAX_K_N@Z 000000014001f548 f i libucrt:output.obj
 0001:0001e5cc       ??$type_case_integer_parse_into_buffer@_K$0BA@@?$output_processor@_WV?$stream_output_adapter@_W@__crt_stdio_output@@V?$format_validation_base@_WV?$stream_output_adapter@_W@__crt_stdio_output@@@2@@__crt_stdio_output@@AEAAX_K_N@Z 000000014001f5cc f i libucrt:output.obj
 0001:0001e66c       ??$type_case_integer_parse_into_buffer@_K$0BA@@?$output_processor@_WV?$stream_output_adapter@_W@__crt_stdio_output@@V?$positional_parameter_base@_WV?$stream_output_adapter@_W@__crt_stdio_output@@@2@@__crt_stdio_output@@AEAAX_K_N@Z 000000014001f66c f i libucrt:output.obj
 0001:0001e70c       ??$type_case_integer_parse_into_buffer@_K$0BA@@?$output_processor@_WV?$stream_output_adapter@_W@__crt_stdio_output@@V?$standard_base@_WV?$stream_output_adapter@_W@__crt_stdio_output@@@2@@__crt_stdio_output@@AEAAX_K_N@Z 000000014001f70c f i libucrt:output.obj
 0001:0001e7ac       ??$type_case_integer_parse_into_buffer@_K$0BA@@?$output_processor@_WV?$string_output_adapter@_W@__crt_stdio_output@@V?$format_validation_base@_WV?$string_output_adapter@_W@__crt_stdio_output@@@2@@__crt_stdio_output@@AEAAX_K_N@Z 000000014001f7ac f i libucrt:output.obj
 0001:0001e84c       ??$type_case_integer_parse_into_buffer@_K$0BA@@?$output_processor@_WV?$string_output_adapter@_W@__crt_stdio_output@@V?$positional_parameter_base@_WV?$string_output_adapter@_W@__crt_stdio_output@@@2@@__crt_stdio_output@@AEAAX_K_N@Z 000000014001f84c f i libucrt:output.obj
 0001:0001e8ec       ??$type_case_integer_parse_into_buffer@_K$0BA@@?$output_processor@_WV?$string_output_adapter@_W@__crt_stdio_output@@V?$standard_base@_WV?$string_output_adapter@_W@__crt_stdio_output@@@2@@__crt_stdio_output@@AEAAX_K_N@Z 000000014001f8ec f i libucrt:output.obj
 0001:0001e98c       ??$write_multiple_characters@V?$stream_output_adapter@D@__crt_stdio_output@@D@__crt_stdio_output@@YAXAEBV?$stream_output_adapter@D@0@DHQEAHAEAV__crt_cached_ptd_host@@@Z 000000014001f98c f i libucrt:output.obj
 0001:0001ea20       ??$write_multiple_characters@V?$stream_output_adapter@_W@__crt_stdio_output@@D@__crt_stdio_output@@YAXAEBV?$stream_output_adapter@_W@0@DHQEAHAEAV__crt_cached_ptd_host@@@Z 000000014001fa20 f i libucrt:output.obj
 0001:0001eab8       ??$write_multiple_characters@V?$string_output_adapter@D@__crt_stdio_output@@D@__crt_stdio_output@@YAXAEBV?$string_output_adapter@D@0@DHQEAHAEAV__crt_cached_ptd_host@@@Z 000000014001fab8 f i libucrt:output.obj
 0001:0001eb30       ??$write_multiple_characters@V?$string_output_adapter@_W@__crt_stdio_output@@D@__crt_stdio_output@@YAXAEBV?$string_output_adapter@_W@0@DHQEAHAEAV__crt_cached_ptd_host@@@Z 000000014001fb30 f i libucrt:output.obj
 0001:0001ed10       ??0?$c_string_character_source@D@__crt_strtox@@QEAA@QEBDQEAPEBD@Z 000000014001fd10 f i libucrt:output.obj
 0001:0001ed24       ??0?$c_string_character_source@_W@__crt_strtox@@QEAA@QEB_WQEAPEB_W@Z 000000014001fd24 f i libucrt:output.obj
 0001:0001ed38       ??0?$cached@H@__crt_cached_ptd_host@@QEAA@XZ 000000014001fd38 f i libucrt:output.obj
 0001:0001ed40       ??0?$cached@K@__crt_cached_ptd_host@@QEAA@XZ 000000014001fd40 f i libucrt:output.obj
 0001:0001ed48       ??0?$common_data@D@__crt_stdio_output@@IEAA@AEAV__crt_cached_ptd_host@@@Z 000000014001fd48 f i libucrt:output.obj
 0001:0001ed84       ??0?$common_data@_W@__crt_stdio_output@@IEAA@AEAV__crt_cached_ptd_host@@@Z 000000014001fd84 f i libucrt:output.obj
 0001:0001edc4       ??0?$output_adapter_data@DV?$stream_output_adapter@D@__crt_stdio_output@@@__crt_stdio_output@@IEAA@AEBV?$stream_output_adapter@D@1@_KQEBDAEAV__crt_cached_ptd_host@@QEAD@Z 000000014001fdc4 f i libucrt:output.obj
 0001:0001ee24       ??0?$output_adapter_data@DV?$string_output_adapter@D@__crt_stdio_output@@@__crt_stdio_output@@IEAA@AEBV?$string_output_adapter@D@1@_KQEBDAEAV__crt_cached_ptd_host@@QEAD@Z 000000014001fe24 f i libucrt:output.obj
 0001:0001ee84       ??0?$output_adapter_data@_WV?$stream_output_adapter@_W@__crt_stdio_output@@@__crt_stdio_output@@IEAA@AEBV?$stream_output_adapter@_W@1@_KQEB_WAEAV__crt_cached_ptd_host@@QEAD@Z 000000014001fe84 f i libucrt:output.obj
 0001:0001eee8       ??0?$output_adapter_data@_WV?$string_output_adapter@_W@__crt_stdio_output@@@__crt_stdio_output@@IEAA@AEBV?$string_output_adapter@_W@1@_KQEB_WAEAV__crt_cached_ptd_host@@QEAD@Z 000000014001fee8 f i libucrt:output.obj
 0001:0001ef4c       ??0?$output_processor@DV?$stream_output_adapter@D@__crt_stdio_output@@V?$format_validation_base@DV?$stream_output_adapter@D@__crt_stdio_output@@@2@@__crt_stdio_output@@QEAA@AEBV?$stream_output_adapter@D@1@_KQEBDAEAV__crt_cached_ptd_host@@QEAD@Z 000000014001ff4c f i libucrt:output.obj
 0001:0001efb4       ??0?$output_processor@DV?$stream_output_adapter@D@__crt_stdio_output@@V?$positional_parameter_base@DV?$stream_output_adapter@D@__crt_stdio_output@@@2@@__crt_stdio_output@@QEAA@AEBV?$stream_output_adapter@D@1@_KQEBDAEAV__crt_cached_ptd_host@@QEAD@Z 000000014001ffb4 f i libucrt:output.obj
 0001:0001f038       ??0?$output_processor@DV?$stream_output_adapter@D@__crt_stdio_output@@V?$standard_base@DV?$stream_output_adapter@D@__crt_stdio_output@@@2@@__crt_stdio_output@@QEAA@AEBV?$stream_output_adapter@D@1@_KQEBDAEAV__crt_cached_ptd_host@@QEAD@Z 0000000140020038 f i libucrt:output.obj
 0001:0001f0a0       ??0?$output_processor@DV?$string_output_adapter@D@__crt_stdio_output@@V?$format_validation_base@DV?$string_output_adapter@D@__crt_stdio_output@@@2@@__crt_stdio_output@@QEAA@AEBV?$string_output_adapter@D@1@_KQEBDAEAV__crt_cached_ptd_host@@QEAD@Z 00000001400200a0 f i libucrt:output.obj
 0001:0001f108       ??0?$output_processor@DV?$string_output_adapter@D@__crt_stdio_output@@V?$positional_parameter_base@DV?$string_output_adapter@D@__crt_stdio_output@@@2@@__crt_stdio_output@@QEAA@AEBV?$string_output_adapter@D@1@_KQEBDAEAV__crt_cached_ptd_host@@QEAD@Z 0000000140020108 f i libucrt:output.obj
 0001:0001f18c       ??0?$output_processor@DV?$string_output_adapter@D@__crt_stdio_output@@V?$standard_base@DV?$string_output_adapter@D@__crt_stdio_output@@@2@@__crt_stdio_output@@QEAA@AEBV?$string_output_adapter@D@1@_KQEBDAEAV__crt_cached_ptd_host@@QEAD@Z 000000014002018c f i libucrt:output.obj
 0001:0001f1f4       ??0?$output_processor@_WV?$stream_output_adapter@_W@__crt_stdio_output@@V?$format_validation_base@_WV?$stream_output_adapter@_W@__crt_stdio_output@@@2@@__crt_stdio_output@@QEAA@AEBV?$stream_output_adapter@_W@1@_KQEB_WAEAV__crt_cached_ptd_host@@QEAD@Z 00000001400201f4 f i libucrt:output.obj
 0001:0001f260       ??0?$output_processor@_WV?$stream_output_adapter@_W@__crt_stdio_output@@V?$positional_parameter_base@_WV?$stream_output_adapter@_W@__crt_stdio_output@@@2@@__crt_stdio_output@@QEAA@AEBV?$stream_output_adapter@_W@1@_KQEB_WAEAV__crt_cached_ptd_host@@QEAD@Z 0000000140020260 f i libucrt:output.obj
 0001:0001f2e8       ??0?$output_processor@_WV?$stream_output_adapter@_W@__crt_stdio_output@@V?$standard_base@_WV?$stream_output_adapter@_W@__crt_stdio_output@@@2@@__crt_stdio_output@@QEAA@AEBV?$stream_output_adapter@_W@1@_KQEB_WAEAV__crt_cached_ptd_host@@QEAD@Z 00000001400202e8 f i libucrt:output.obj
 0001:0001f354       ??0?$output_processor@_WV?$string_output_adapter@_W@__crt_stdio_output@@V?$format_validation_base@_WV?$string_output_adapter@_W@__crt_stdio_output@@@2@@__crt_stdio_output@@QEAA@AEBV?$string_output_adapter@_W@1@_KQEB_WAEAV__crt_cached_ptd_host@@QEAD@Z 0000000140020354 f i libucrt:output.obj
 0001:0001f3c0       ??0?$output_processor@_WV?$string_output_adapter@_W@__crt_stdio_output@@V?$positional_parameter_base@_WV?$string_output_adapter@_W@__crt_stdio_output@@@2@@__crt_stdio_output@@QEAA@AEBV?$string_output_adapter@_W@1@_KQEB_WAEAV__crt_cached_ptd_host@@QEAD@Z 00000001400203c0 f i libucrt:output.obj
 0001:0001f448       ??0?$output_processor@_WV?$string_output_adapter@_W@__crt_stdio_output@@V?$standard_base@_WV?$string_output_adapter@_W@__crt_stdio_output@@@2@@__crt_stdio_output@@QEAA@AEBV?$string_output_adapter@_W@1@_KQEB_WAEAV__crt_cached_ptd_host@@QEAD@Z 0000000140020448 f i libucrt:output.obj
 0001:0001f4b4       ??0?$stream_output_adapter@D@__crt_stdio_output@@QEAA@QEAU_iobuf@@@Z 00000001400204b4 f i libucrt:output.obj
 0001:0001f4bc       ??0?$stream_output_adapter@_W@__crt_stdio_output@@QEAA@QEAU_iobuf@@@Z 00000001400204bc f i libucrt:output.obj
 0001:0001f4c4       ??0?$string_output_adapter@D@__crt_stdio_output@@QEAA@QEAU?$string_output_adapter_context@D@1@@Z 00000001400204c4 f i libucrt:output.obj
 0001:0001f4cc       ??0?$string_output_adapter@_W@__crt_stdio_output@@QEAA@QEAU?$string_output_adapter_context@_W@1@@Z 00000001400204cc f i libucrt:output.obj
 0001:0001f4d4       ??0__acrt_stdio_temporary_buffering_guard@@QEAA@QEAU_iobuf@@AEAV__crt_cached_ptd_host@@@Z 00000001400204d4 f i libucrt:output.obj
 0001:0001f500       ??0__crt_cached_ptd_host@@QEAA@QEAU__crt_locale_pointers@@@Z 0000000140020500 f i libucrt:output.obj
 0001:0001f548       ??0__crt_scoped_get_last_error_reset@@QEAA@XZ 0000000140020548 f i libucrt:output.obj
 0001:0001f564       ??0formatting_buffer@__crt_stdio_output@@QEAA@XZ 0000000140020564 f i libucrt:output.obj
 0001:0001f578       ??0guard@?$cached@H@__crt_cached_ptd_host@@QEAA@AEAU12@@Z 0000000140020578 f i libucrt:output.obj
 0001:0001f58c       ??1?$c_string_character_source@D@__crt_strtox@@QEAA@XZ 000000014002058c f i libucrt:output.obj
 0001:0001f59c       ??1?$c_string_character_source@_W@__crt_strtox@@QEAA@XZ 000000014002059c f i libucrt:output.obj
 0001:0001f5ac       ??1?$common_data@D@__crt_stdio_output@@QEAA@XZ 00000001400205ac f i libucrt:output.obj
 0001:0001f5d0       ??1?$common_data@_W@__crt_stdio_output@@QEAA@XZ 00000001400205d0 f i libucrt:output.obj
 0001:0001f5f4       ??1?$format_validation_base@DV?$stream_output_adapter@D@__crt_stdio_output@@@__crt_stdio_output@@QEAA@XZ 00000001400205f4 f i libucrt:output.obj
 0001:0001f618       ??1?$format_validation_base@DV?$string_output_adapter@D@__crt_stdio_output@@@__crt_stdio_output@@QEAA@XZ 0000000140020618 f i libucrt:output.obj
 0001:0001f63c       ??1?$format_validation_base@_WV?$stream_output_adapter@_W@__crt_stdio_output@@@__crt_stdio_output@@QEAA@XZ 000000014002063c f i libucrt:output.obj
 0001:0001f660       ??1?$format_validation_base@_WV?$string_output_adapter@_W@__crt_stdio_output@@@__crt_stdio_output@@QEAA@XZ 0000000140020660 f i libucrt:output.obj
 0001:0001f684       ??1?$output_adapter_data@DV?$stream_output_adapter@D@__crt_stdio_output@@@__crt_stdio_output@@QEAA@XZ 0000000140020684 f i libucrt:output.obj
 0001:0001f6a8       ??1?$output_adapter_data@DV?$string_output_adapter@D@__crt_stdio_output@@@__crt_stdio_output@@QEAA@XZ 00000001400206a8 f i libucrt:output.obj
 0001:0001f6cc       ??1?$output_adapter_data@_WV?$stream_output_adapter@_W@__crt_stdio_output@@@__crt_stdio_output@@QEAA@XZ 00000001400206cc f i libucrt:output.obj
 0001:0001f6f0       ??1?$output_adapter_data@_WV?$string_output_adapter@_W@__crt_stdio_output@@@__crt_stdio_output@@QEAA@XZ 00000001400206f0 f i libucrt:output.obj
 0001:0001f714       ??1?$output_processor@DV?$stream_output_adapter@D@__crt_stdio_output@@V?$format_validation_base@DV?$stream_output_adapter@D@__crt_stdio_output@@@2@@__crt_stdio_output@@QEAA@XZ 0000000140020714 f i libucrt:output.obj
 0001:0001f738       ??1?$output_processor@DV?$stream_output_adapter@D@__crt_stdio_output@@V?$positional_parameter_base@DV?$stream_output_adapter@D@__crt_stdio_output@@@2@@__crt_stdio_output@@QEAA@XZ 0000000140020738 f i libucrt:output.obj
 0001:0001f75c       ??1?$output_processor@DV?$stream_output_adapter@D@__crt_stdio_output@@V?$standard_base@DV?$stream_output_adapter@D@__crt_stdio_output@@@2@@__crt_stdio_output@@QEAA@XZ 000000014002075c f i libucrt:output.obj
 0001:0001f780       ??1?$output_processor@DV?$string_output_adapter@D@__crt_stdio_output@@V?$format_validation_base@DV?$string_output_adapter@D@__crt_stdio_output@@@2@@__crt_stdio_output@@QEAA@XZ 0000000140020780 f i libucrt:output.obj
 0001:0001f7a4       ??1?$output_processor@DV?$string_output_adapter@D@__crt_stdio_output@@V?$positional_parameter_base@DV?$string_output_adapter@D@__crt_stdio_output@@@2@@__crt_stdio_output@@QEAA@XZ 00000001400207a4 f i libucrt:output.obj
 0001:0001f7c8       ??1?$output_processor@DV?$string_output_adapter@D@__crt_stdio_output@@V?$standard_base@DV?$string_output_adapter@D@__crt_stdio_output@@@2@@__crt_stdio_output@@QEAA@XZ 00000001400207c8 f i libucrt:output.obj
 0001:0001f7ec       ??1?$output_processor@_WV?$stream_output_adapter@_W@__crt_stdio_output@@V?$format_validation_base@_WV?$stream_output_adapter@_W@__crt_stdio_output@@@2@@__crt_stdio_output@@QEAA@XZ 00000001400207ec f i libucrt:output.obj
 0001:0001f810       ??1?$output_processor@_WV?$stream_output_adapter@_W@__crt_stdio_output@@V?$positional_parameter_base@_WV?$stream_output_adapter@_W@__crt_stdio_output@@@2@@__crt_stdio_output@@QEAA@XZ 0000000140020810 f i libucrt:output.obj
 0001:0001f834       ??1?$output_processor@_WV?$stream_output_adapter@_W@__crt_stdio_output@@V?$standard_base@_WV?$stream_output_adapter@_W@__crt_stdio_output@@@2@@__crt_stdio_output@@QEAA@XZ 0000000140020834 f i libucrt:output.obj
 0001:0001f858       ??1?$output_processor@_WV?$string_output_adapter@_W@__crt_stdio_output@@V?$format_validation_base@_WV?$string_output_adapter@_W@__crt_stdio_output@@@2@@__crt_stdio_output@@QEAA@XZ 0000000140020858 f i libucrt:output.obj
 0001:0001f87c       ??1?$output_processor@_WV?$string_output_adapter@_W@__crt_stdio_output@@V?$positional_parameter_base@_WV?$string_output_adapter@_W@__crt_stdio_output@@@2@@__crt_stdio_output@@QEAA@XZ 000000014002087c f i libucrt:output.obj
 0001:0001f8a0       ??1?$output_processor@_WV?$string_output_adapter@_W@__crt_stdio_output@@V?$standard_base@_WV?$string_output_adapter@_W@__crt_stdio_output@@@2@@__crt_stdio_output@@QEAA@XZ 00000001400208a0 f i libucrt:output.obj
 0001:0001f8c4       ??1?$positional_parameter_base@DV?$stream_output_adapter@D@__crt_stdio_output@@@__crt_stdio_output@@QEAA@XZ 00000001400208c4 f i libucrt:output.obj
 0001:0001f8e8       ??1?$positional_parameter_base@DV?$string_output_adapter@D@__crt_stdio_output@@@__crt_stdio_output@@QEAA@XZ 00000001400208e8 f i libucrt:output.obj
 0001:0001f90c       ??1?$positional_parameter_base@_WV?$stream_output_adapter@_W@__crt_stdio_output@@@__crt_stdio_output@@QEAA@XZ 000000014002090c f i libucrt:output.obj
 0001:0001f930       ??1?$positional_parameter_base@_WV?$string_output_adapter@_W@__crt_stdio_output@@@__crt_stdio_output@@QEAA@XZ 0000000140020930 f i libucrt:output.obj
 0001:0001f954       ??1?$standard_base@DV?$stream_output_adapter@D@__crt_stdio_output@@@__crt_stdio_output@@QEAA@XZ 0000000140020954 f i libucrt:output.obj
 0001:0001f978       ??1?$standard_base@DV?$string_output_adapter@D@__crt_stdio_output@@@__crt_stdio_output@@QEAA@XZ 0000000140020978 f i libucrt:output.obj
 0001:0001f99c       ??1?$standard_base@_WV?$stream_output_adapter@_W@__crt_stdio_output@@@__crt_stdio_output@@QEAA@XZ 000000014002099c f i libucrt:output.obj
 0001:0001f9c0       ??1?$standard_base@_WV?$string_output_adapter@_W@__crt_stdio_output@@@__crt_stdio_output@@QEAA@XZ 00000001400209c0 f i libucrt:output.obj
 0001:0001f9e4       ??1__acrt_stdio_temporary_buffering_guard@@QEAA@XZ 00000001400209e4 f i libucrt:output.obj
 0001:0001fa00       ??1__crt_cached_ptd_host@@QEAA@XZ 0000000140020a00 f i libucrt:output.obj
 0001:0001fa50       ??1__crt_scoped_get_last_error_reset@@QEAA@XZ 0000000140020a50 f i libucrt:output.obj
 0001:0001fa5c       ??1formatting_buffer@__crt_stdio_output@@QEAA@XZ 0000000140020a5c f i libucrt:output.obj
 0001:0001fa80       ??1guard@?$cached@H@__crt_cached_ptd_host@@QEAA@XZ 0000000140020a80 f i libucrt:output.obj
 0001:0001fa94       ??4?$__crt_unique_heap_ptr@DU__crt_internal_free_policy@@@@QEAAAEAV0@$$QEAV0@@Z 0000000140020a94 f i libucrt:output.obj
 0001:0001fac8       ??A?$spectre_mitigated_lookup_table@Ustate_transition_pair@__crt_stdio_output@@$0IA@@__crt_stdio_output@@QEBAAEBUstate_transition_pair@1@_K@Z 0000000140020ac8 f i libucrt:output.obj
 0001:00020214       ?__crt_interlocked_read_32@@YAHPEDH@Z 0000000140021214 f i libucrt:output.obj
 0001:00020218       ?adjust_hexit@?$output_processor@DV?$stream_output_adapter@D@__crt_stdio_output@@V?$format_validation_base@DV?$stream_output_adapter@D@__crt_stdio_output@@@2@@__crt_stdio_output@@CADH_N@Z 0000000140021218 f i libucrt:output.obj
 0001:00020224       ?adjust_hexit@?$output_processor@DV?$stream_output_adapter@D@__crt_stdio_output@@V?$positional_parameter_base@DV?$stream_output_adapter@D@__crt_stdio_output@@@2@@__crt_stdio_output@@CADH_N@Z 0000000140021224 f i libucrt:output.obj
 0001:00020230       ?adjust_hexit@?$output_processor@DV?$stream_output_adapter@D@__crt_stdio_output@@V?$standard_base@DV?$stream_output_adapter@D@__crt_stdio_output@@@2@@__crt_stdio_output@@CADH_N@Z 0000000140021230 f i libucrt:output.obj
 0001:0002023c       ?adjust_hexit@?$output_processor@DV?$string_output_adapter@D@__crt_stdio_output@@V?$format_validation_base@DV?$string_output_adapter@D@__crt_stdio_output@@@2@@__crt_stdio_output@@CADH_N@Z 000000014002123c f i libucrt:output.obj
 0001:00020248       ?adjust_hexit@?$output_processor@DV?$string_output_adapter@D@__crt_stdio_output@@V?$positional_parameter_base@DV?$string_output_adapter@D@__crt_stdio_output@@@2@@__crt_stdio_output@@CADH_N@Z 0000000140021248 f i libucrt:output.obj
 0001:00020254       ?adjust_hexit@?$output_processor@DV?$string_output_adapter@D@__crt_stdio_output@@V?$standard_base@DV?$string_output_adapter@D@__crt_stdio_output@@@2@@__crt_stdio_output@@CADH_N@Z 0000000140021254 f i libucrt:output.obj
 0001:00020260       ?adjust_hexit@?$output_processor@_WV?$stream_output_adapter@_W@__crt_stdio_output@@V?$format_validation_base@_WV?$stream_output_adapter@_W@__crt_stdio_output@@@2@@__crt_stdio_output@@CADH_N@Z 0000000140021260 f i libucrt:output.obj
 0001:0002026c       ?adjust_hexit@?$output_processor@_WV?$stream_output_adapter@_W@__crt_stdio_output@@V?$positional_parameter_base@_WV?$stream_output_adapter@_W@__crt_stdio_output@@@2@@__crt_stdio_output@@CADH_N@Z 000000014002126c f i libucrt:output.obj
 0001:00020278       ?adjust_hexit@?$output_processor@_WV?$stream_output_adapter@_W@__crt_stdio_output@@V?$standard_base@_WV?$stream_output_adapter@_W@__crt_stdio_output@@@2@@__crt_stdio_output@@CADH_N@Z 0000000140021278 f i libucrt:output.obj
 0001:00020284       ?adjust_hexit@?$output_processor@_WV?$string_output_adapter@_W@__crt_stdio_output@@V?$format_validation_base@_WV?$string_output_adapter@_W@__crt_stdio_output@@@2@@__crt_stdio_output@@CADH_N@Z 0000000140021284 f i libucrt:output.obj
 0001:00020290       ?adjust_hexit@?$output_processor@_WV?$string_output_adapter@_W@__crt_stdio_output@@V?$positional_parameter_base@_WV?$string_output_adapter@_W@__crt_stdio_output@@@2@@__crt_stdio_output@@CADH_N@Z 0000000140021290 f i libucrt:output.obj
 0001:0002029c       ?adjust_hexit@?$output_processor@_WV?$string_output_adapter@_W@__crt_stdio_output@@V?$standard_base@_WV?$string_output_adapter@_W@__crt_stdio_output@@@2@@__crt_stdio_output@@CADH_N@Z 000000014002129c f i libucrt:output.obj
 0001:000202a8       ?advance_to_next_pass@?$positional_parameter_base@DV?$stream_output_adapter@D@__crt_stdio_output@@@__crt_stdio_output@@IEAA_NXZ 00000001400212a8 f i libucrt:output.obj
 0001:000202fc       ?advance_to_next_pass@?$positional_parameter_base@DV?$string_output_adapter@D@__crt_stdio_output@@@__crt_stdio_output@@IEAA_NXZ 00000001400212fc f i libucrt:output.obj
 0001:00020350       ?advance_to_next_pass@?$positional_parameter_base@_WV?$stream_output_adapter@_W@__crt_stdio_output@@@__crt_stdio_output@@IEAA_NXZ 0000000140021350 f i libucrt:output.obj
 0001:000203a4       ?advance_to_next_pass@?$positional_parameter_base@_WV?$string_output_adapter@_W@__crt_stdio_output@@@__crt_stdio_output@@IEAA_NXZ 00000001400213a4 f i libucrt:output.obj
 0001:000203f8       ?advance_to_next_pass@?$standard_base@DV?$stream_output_adapter@D@__crt_stdio_output@@@__crt_stdio_output@@IEAA_NXZ 00000001400213f8 f i libucrt:output.obj
 0001:0002040c       ?advance_to_next_pass@?$standard_base@DV?$string_output_adapter@D@__crt_stdio_output@@@__crt_stdio_output@@IEAA_NXZ 000000014002140c f i libucrt:output.obj
 0001:00020420       ?advance_to_next_pass@?$standard_base@_WV?$stream_output_adapter@_W@__crt_stdio_output@@@__crt_stdio_output@@IEAA_NXZ 0000000140021420 f i libucrt:output.obj
 0001:00020434       ?advance_to_next_pass@?$standard_base@_WV?$string_output_adapter@_W@__crt_stdio_output@@@__crt_stdio_output@@IEAA_NXZ 0000000140021434 f i libucrt:output.obj
 0001:00020448       ?check@?$cached@H@__crt_cached_ptd_host@@QEBA_NH@Z 0000000140021448 f i libucrt:output.obj
 0001:00020460       ?check_synchronize_global_state_index@__crt_cached_ptd_host@@AEAA_KAEBV__crt_scoped_get_last_error_reset@@@Z 0000000140021460 f i libucrt:output.obj
 0001:00020480       ?check_synchronize_per_thread_data@__crt_cached_ptd_host@@AEAAPEAU__acrt_ptd@@XZ 0000000140021480 f i libucrt:output.obj
 0001:000204e8       ?create_guard@?$cached@H@__crt_cached_ptd_host@@QEAA?AVguard@12@XZ 00000001400214e8 f i libucrt:output.obj
 0001:000204fc       ?crop_zeroes@__crt_stdio_output@@YAXPEADQEAU__crt_locale_pointers@@@Z 00000001400214fc f i libucrt:output.obj
 0001:00020568       ?disable@guard@?$cached@H@__crt_cached_ptd_host@@QEAAXXZ 0000000140021568 f i libucrt:output.obj
 0001:00020570       ?enable@guard@?$cached@H@__crt_cached_ptd_host@@QEAAXXZ 0000000140021570 f i libucrt:output.obj
 0001:00020578       ?find_next_state@?$output_processor@DV?$stream_output_adapter@D@__crt_stdio_output@@V?$format_validation_base@DV?$stream_output_adapter@D@__crt_stdio_output@@@2@@__crt_stdio_output@@AEBA?AW4state@2@DW432@@Z 0000000140021578 f i libucrt:output.obj
 0001:000205b0       ?find_next_state@?$output_processor@DV?$stream_output_adapter@D@__crt_stdio_output@@V?$positional_parameter_base@DV?$stream_output_adapter@D@__crt_stdio_output@@@2@@__crt_stdio_output@@AEBA?AW4state@2@DW432@@Z 00000001400215b0 f i libucrt:output.obj
 0001:000205e8       ?find_next_state@?$output_processor@DV?$stream_output_adapter@D@__crt_stdio_output@@V?$standard_base@DV?$stream_output_adapter@D@__crt_stdio_output@@@2@@__crt_stdio_output@@AEBA?AW4state@2@DW432@@Z 00000001400215e8 f i libucrt:output.obj
 0001:0002061c       ?find_next_state@?$output_processor@DV?$string_output_adapter@D@__crt_stdio_output@@V?$format_validation_base@DV?$string_output_adapter@D@__crt_stdio_output@@@2@@__crt_stdio_output@@AEBA?AW4state@2@DW432@@Z 000000014002161c f i libucrt:output.obj
 0001:00020654       ?find_next_state@?$output_processor@DV?$string_output_adapter@D@__crt_stdio_output@@V?$positional_parameter_base@DV?$string_output_adapter@D@__crt_stdio_output@@@2@@__crt_stdio_output@@AEBA?AW4state@2@DW432@@Z 0000000140021654 f i libucrt:output.obj
 0001:0002068c       ?find_next_state@?$output_processor@DV?$string_output_adapter@D@__crt_stdio_output@@V?$standard_base@DV?$string_output_adapter@D@__crt_stdio_output@@@2@@__crt_stdio_output@@AEBA?AW4state@2@DW432@@Z 000000014002168c f i libucrt:output.obj
 0001:000206c0       ?find_next_state@?$output_processor@_WV?$stream_output_adapter@_W@__crt_stdio_output@@V?$format_validation_base@_WV?$stream_output_adapter@_W@__crt_stdio_output@@@2@@__crt_stdio_output@@AEBA?AW4state@2@_WW432@@Z 00000001400216c0 f i libucrt:output.obj
 0001:00020700       ?find_next_state@?$output_processor@_WV?$stream_output_adapter@_W@__crt_stdio_output@@V?$positional_parameter_base@_WV?$stream_output_adapter@_W@__crt_stdio_output@@@2@@__crt_stdio_output@@AEBA?AW4state@2@_WW432@@Z 0000000140021700 f i libucrt:output.obj
 0001:00020740       ?find_next_state@?$output_processor@_WV?$stream_output_adapter@_W@__crt_stdio_output@@V?$standard_base@_WV?$stream_output_adapter@_W@__crt_stdio_output@@@2@@__crt_stdio_output@@AEBA?AW4state@2@_WW432@@Z 0000000140021740 f i libucrt:output.obj
 0001:0002077c       ?find_next_state@?$output_processor@_WV?$string_output_adapter@_W@__crt_stdio_output@@V?$format_validation_base@_WV?$string_output_adapter@_W@__crt_stdio_output@@@2@@__crt_stdio_output@@AEBA?AW4state@2@_WW432@@Z 000000014002177c f i libucrt:output.obj
 0001:000207bc       ?find_next_state@?$output_processor@_WV?$string_output_adapter@_W@__crt_stdio_output@@V?$positional_parameter_base@_WV?$string_output_adapter@_W@__crt_stdio_output@@@2@@__crt_stdio_output@@AEBA?AW4state@2@_WW432@@Z 00000001400217bc f i libucrt:output.obj
 0001:000207fc       ?find_next_state@?$output_processor@_WV?$string_output_adapter@_W@__crt_stdio_output@@V?$standard_base@_WV?$string_output_adapter@_W@__crt_stdio_output@@@2@@__crt_stdio_output@@AEBA?AW4state@2@_WW432@@Z 00000001400217fc f i libucrt:output.obj
 0001:00020838       ?force_decimal_point@__crt_stdio_output@@YAXPEADQEAU__crt_locale_pointers@@@Z 0000000140021838 f i libucrt:output.obj
 0001:000208a0       ?force_synchronize_global_state_index@__crt_cached_ptd_host@@AEAA_KAEBV__crt_scoped_get_last_error_reset@@@Z 00000001400218a0 f i libucrt:output.obj
 0001:000208b0       ?force_synchronize_per_thread_data@__crt_cached_ptd_host@@AEAAPEAU__acrt_ptd@@XZ 00000001400218b0 f i libucrt:output.obj
 0001:00020908       ?get@?$c_string_character_source@D@__crt_strtox@@QEAADXZ 0000000140021908 f i libucrt:output.obj
 0001:00020914       ?get@?$c_string_character_source@_W@__crt_strtox@@QEAA_WXZ 0000000140021914 f i libucrt:output.obj
 0001:00020924       ?get_current_state_index@__crt_state_management@@YA_KAEBV__crt_scoped_get_last_error_reset@@@Z 0000000140021924 f i libucrt:output.obj
 0001:00020930       ?get_errno@__crt_cached_ptd_host@@QEAA@XZ 0000000140021930 f i libucrt:output.obj
 0001:00020938       ?get_flags@__crt_stdio_stream@@QEBAJXZ 0000000140021938 f i libucrt:output.obj
 0001:00020940       ?get_locale@__crt_cached_ptd_host@@QEAAPEAU__crt_locale_pointers@@XZ 0000000140021940 f i libucrt:output.obj
 0001:00020968       ?get_parameter_type@?$positional_parameter_base@DV?$stream_output_adapter@D@__crt_stdio_output@@@__crt_stdio_output@@CA?AW4parameter_type@12@F@Z 0000000140021968 f i libucrt:output.obj
 0001:00020970       ?get_parameter_type@?$positional_parameter_base@DV?$stream_output_adapter@D@__crt_stdio_output@@@__crt_stdio_output@@CA?AW4parameter_type@12@G@Z 0000000140021970 f i libucrt:output.obj
 0001:00020978       ?get_parameter_type@?$positional_parameter_base@DV?$stream_output_adapter@D@__crt_stdio_output@@@__crt_stdio_output@@CA?AW4parameter_type@12@H@Z 0000000140021978 f i libucrt:output.obj
 0001:00020980       ?get_parameter_type@?$positional_parameter_base@DV?$stream_output_adapter@D@__crt_stdio_output@@@__crt_stdio_output@@CA?AW4parameter_type@12@I@Z 0000000140021980 f i libucrt:output.obj
 0001:00020988       ?get_parameter_type@?$positional_parameter_base@DV?$stream_output_adapter@D@__crt_stdio_output@@@__crt_stdio_output@@CA?AW4parameter_type@12@U_CRT_DOUBLE@@@Z 0000000140021988 f i libucrt:output.obj
 0001:00020990       ?get_parameter_type@?$positional_parameter_base@DV?$stream_output_adapter@D@__crt_stdio_output@@@__crt_stdio_output@@CA?AW4parameter_type@12@_J@Z 0000000140021990 f i libucrt:output.obj
 0001:00020998       ?get_parameter_type@?$positional_parameter_base@DV?$stream_output_adapter@D@__crt_stdio_output@@@__crt_stdio_output@@CA?AW4parameter_type@12@_K@Z 0000000140021998 f i libucrt:output.obj
 0001:000209a0       ?get_parameter_type@?$positional_parameter_base@DV?$stream_output_adapter@D@__crt_stdio_output@@@__crt_stdio_output@@CA?AW4parameter_type@12@_W@Z 00000001400219a0 f i libucrt:output.obj
 0001:000209a8       ?get_parameter_type@?$positional_parameter_base@DV?$string_output_adapter@D@__crt_stdio_output@@@__crt_stdio_output@@CA?AW4parameter_type@12@F@Z 00000001400219a8 f i libucrt:output.obj
 0001:000209b0       ?get_parameter_type@?$positional_parameter_base@DV?$string_output_adapter@D@__crt_stdio_output@@@__crt_stdio_output@@CA?AW4parameter_type@12@G@Z 00000001400219b0 f i libucrt:output.obj
 0001:000209b8       ?get_parameter_type@?$positional_parameter_base@DV?$string_output_adapter@D@__crt_stdio_output@@@__crt_stdio_output@@CA?AW4parameter_type@12@H@Z 00000001400219b8 f i libucrt:output.obj
 0001:000209c0       ?get_parameter_type@?$positional_parameter_base@DV?$string_output_adapter@D@__crt_stdio_output@@@__crt_stdio_output@@CA?AW4parameter_type@12@I@Z 00000001400219c0 f i libucrt:output.obj
 0001:000209c8       ?get_parameter_type@?$positional_parameter_base@DV?$string_output_adapter@D@__crt_stdio_output@@@__crt_stdio_output@@CA?AW4parameter_type@12@U_CRT_DOUBLE@@@Z 00000001400219c8 f i libucrt:output.obj
 0001:000209d0       ?get_parameter_type@?$positional_parameter_base@DV?$string_output_adapter@D@__crt_stdio_output@@@__crt_stdio_output@@CA?AW4parameter_type@12@_J@Z 00000001400219d0 f i libucrt:output.obj
 0001:000209d8       ?get_parameter_type@?$positional_parameter_base@DV?$string_output_adapter@D@__crt_stdio_output@@@__crt_stdio_output@@CA?AW4parameter_type@12@_K@Z 00000001400219d8 f i libucrt:output.obj
 0001:000209e0       ?get_parameter_type@?$positional_parameter_base@DV?$string_output_adapter@D@__crt_stdio_output@@@__crt_stdio_output@@CA?AW4parameter_type@12@_W@Z 00000001400219e0 f i libucrt:output.obj
 0001:000209e8       ?get_parameter_type@?$positional_parameter_base@_WV?$stream_output_adapter@_W@__crt_stdio_output@@@__crt_stdio_output@@CA?AW4parameter_type@12@F@Z 00000001400219e8 f i libucrt:output.obj
 0001:000209f0       ?get_parameter_type@?$positional_parameter_base@_WV?$stream_output_adapter@_W@__crt_stdio_output@@@__crt_stdio_output@@CA?AW4parameter_type@12@G@Z 00000001400219f0 f i libucrt:output.obj
 0001:000209f8       ?get_parameter_type@?$positional_parameter_base@_WV?$stream_output_adapter@_W@__crt_stdio_output@@@__crt_stdio_output@@CA?AW4parameter_type@12@H@Z 00000001400219f8 f i libucrt:output.obj
 0001:00020a00       ?get_parameter_type@?$positional_parameter_base@_WV?$stream_output_adapter@_W@__crt_stdio_output@@@__crt_stdio_output@@CA?AW4parameter_type@12@I@Z 0000000140021a00 f i libucrt:output.obj
 0001:00020a08       ?get_parameter_type@?$positional_parameter_base@_WV?$stream_output_adapter@_W@__crt_stdio_output@@@__crt_stdio_output@@CA?AW4parameter_type@12@U_CRT_DOUBLE@@@Z 0000000140021a08 f i libucrt:output.obj
 0001:00020a10       ?get_parameter_type@?$positional_parameter_base@_WV?$stream_output_adapter@_W@__crt_stdio_output@@@__crt_stdio_output@@CA?AW4parameter_type@12@_J@Z 0000000140021a10 f i libucrt:output.obj
 0001:00020a18       ?get_parameter_type@?$positional_parameter_base@_WV?$stream_output_adapter@_W@__crt_stdio_output@@@__crt_stdio_output@@CA?AW4parameter_type@12@_K@Z 0000000140021a18 f i libucrt:output.obj
 0001:00020a20       ?get_parameter_type@?$positional_parameter_base@_WV?$stream_output_adapter@_W@__crt_stdio_output@@@__crt_stdio_output@@CA?AW4parameter_type@12@_W@Z 0000000140021a20 f i libucrt:output.obj
 0001:00020a28       ?get_parameter_type@?$positional_parameter_base@_WV?$string_output_adapter@_W@__crt_stdio_output@@@__crt_stdio_output@@CA?AW4parameter_type@12@F@Z 0000000140021a28 f i libucrt:output.obj
 0001:00020a30       ?get_parameter_type@?$positional_parameter_base@_WV?$string_output_adapter@_W@__crt_stdio_output@@@__crt_stdio_output@@CA?AW4parameter_type@12@G@Z 0000000140021a30 f i libucrt:output.obj
 0001:00020a38       ?get_parameter_type@?$positional_parameter_base@_WV?$string_output_adapter@_W@__crt_stdio_output@@@__crt_stdio_output@@CA?AW4parameter_type@12@H@Z 0000000140021a38 f i libucrt:output.obj
 0001:00020a40       ?get_parameter_type@?$positional_parameter_base@_WV?$string_output_adapter@_W@__crt_stdio_output@@@__crt_stdio_output@@CA?AW4parameter_type@12@I@Z 0000000140021a40 f i libucrt:output.obj
 0001:00020a48       ?get_parameter_type@?$positional_parameter_base@_WV?$string_output_adapter@_W@__crt_stdio_output@@@__crt_stdio_output@@CA?AW4parameter_type@12@U_CRT_DOUBLE@@@Z 0000000140021a48 f i libucrt:output.obj
 0001:00020a50       ?get_parameter_type@?$positional_parameter_base@_WV?$string_output_adapter@_W@__crt_stdio_output@@@__crt_stdio_output@@CA?AW4parameter_type@12@_J@Z 0000000140021a50 f i libucrt:output.obj
 0001:00020a58       ?get_parameter_type@?$positional_parameter_base@_WV?$string_output_adapter@_W@__crt_stdio_output@@@__crt_stdio_output@@CA?AW4parameter_type@12@_K@Z 0000000140021a58 f i libucrt:output.obj
 0001:00020a60       ?get_parameter_type@?$positional_parameter_base@_WV?$string_output_adapter@_W@__crt_stdio_output@@@__crt_stdio_output@@CA?AW4parameter_type@12@_W@Z 0000000140021a60 f i libucrt:output.obj
 0001:00020a70       ?get_raw_ptd@__crt_cached_ptd_host@@QEAAPEAU__acrt_ptd@@XZ 0000000140021a70 f i libucrt:output.obj
 0001:00020ad8       ?has_flag@?$output_processor@DV?$stream_output_adapter@D@__crt_stdio_output@@V?$format_validation_base@DV?$stream_output_adapter@D@__crt_stdio_output@@@2@@__crt_stdio_output@@AEBA_NI@Z 0000000140021ad8 f i libucrt:output.obj
 0001:00020ae0       ?has_flag@?$output_processor@DV?$stream_output_adapter@D@__crt_stdio_output@@V?$positional_parameter_base@DV?$stream_output_adapter@D@__crt_stdio_output@@@2@@__crt_stdio_output@@AEBA_NI@Z 0000000140021ae0 f i libucrt:output.obj
 0001:00020ae8       ?has_flag@?$output_processor@DV?$stream_output_adapter@D@__crt_stdio_output@@V?$standard_base@DV?$stream_output_adapter@D@__crt_stdio_output@@@2@@__crt_stdio_output@@AEBA_NI@Z 0000000140021ae8 f i libucrt:output.obj
 0001:00020af0       ?has_flag@?$output_processor@DV?$string_output_adapter@D@__crt_stdio_output@@V?$format_validation_base@DV?$string_output_adapter@D@__crt_stdio_output@@@2@@__crt_stdio_output@@AEBA_NI@Z 0000000140021af0 f i libucrt:output.obj
 0001:00020af8       ?has_flag@?$output_processor@DV?$string_output_adapter@D@__crt_stdio_output@@V?$positional_parameter_base@DV?$string_output_adapter@D@__crt_stdio_output@@@2@@__crt_stdio_output@@AEBA_NI@Z 0000000140021af8 f i libucrt:output.obj
 0001:00020b00       ?has_flag@?$output_processor@DV?$string_output_adapter@D@__crt_stdio_output@@V?$standard_base@DV?$string_output_adapter@D@__crt_stdio_output@@@2@@__crt_stdio_output@@AEBA_NI@Z 0000000140021b00 f i libucrt:output.obj
 0001:00020b08       ?has_flag@?$output_processor@_WV?$stream_output_adapter@_W@__crt_stdio_output@@V?$format_validation_base@_WV?$stream_output_adapter@_W@__crt_stdio_output@@@2@@__crt_stdio_output@@AEBA_NI@Z 0000000140021b08 f i libucrt:output.obj
 0001:00020b10       ?has_flag@?$output_processor@_WV?$stream_output_adapter@_W@__crt_stdio_output@@V?$positional_parameter_base@_WV?$stream_output_adapter@_W@__crt_stdio_output@@@2@@__crt_stdio_output@@AEBA_NI@Z 0000000140021b10 f i libucrt:output.obj
 0001:00020b18       ?has_flag@?$output_processor@_WV?$stream_output_adapter@_W@__crt_stdio_output@@V?$standard_base@_WV?$stream_output_adapter@_W@__crt_stdio_output@@@2@@__crt_stdio_output@@AEBA_NI@Z 0000000140021b18 f i libucrt:output.obj
 0001:00020b20       ?has_flag@?$output_processor@_WV?$string_output_adapter@_W@__crt_stdio_output@@V?$format_validation_base@_WV?$string_output_adapter@_W@__crt_stdio_output@@@2@@__crt_stdio_output@@AEBA_NI@Z 0000000140021b20 f i libucrt:output.obj
 0001:00020b28       ?has_flag@?$output_processor@_WV?$string_output_adapter@_W@__crt_stdio_output@@V?$positional_parameter_base@_WV?$string_output_adapter@_W@__crt_stdio_output@@@2@@__crt_stdio_output@@AEBA_NI@Z 0000000140021b28 f i libucrt:output.obj
 0001:00020b30       ?has_flag@?$output_processor@_WV?$string_output_adapter@_W@__crt_stdio_output@@V?$standard_base@_WV?$string_output_adapter@_W@__crt_stdio_output@@@2@@__crt_stdio_output@@AEBA_NI@Z 0000000140021b30 f i libucrt:output.obj
 0001:00020b38       ?is_positional_parameter_reappearance_consistent@?$positional_parameter_base@DV?$stream_output_adapter@D@__crt_stdio_output@@@__crt_stdio_output@@AEAA_NAEBUparameter_data@12@W4parameter_type@12@DW4length_modifier@2@@Z 0000000140021b38 f i libucrt:output.obj
 0001:00020d6c       ?is_positional_parameter_reappearance_consistent@?$positional_parameter_base@DV?$string_output_adapter@D@__crt_stdio_output@@@__crt_stdio_output@@AEAA_NAEBUparameter_data@12@W4parameter_type@12@DW4length_modifier@2@@Z 0000000140021d6c f i libucrt:output.obj
 0001:00020fa0       ?is_positional_parameter_reappearance_consistent@?$positional_parameter_base@_WV?$stream_output_adapter@_W@__crt_stdio_output@@@__crt_stdio_output@@AEAA_NAEBUparameter_data@12@W4parameter_type@12@_WW4length_modifier@2@@Z 0000000140021fa0 f i libucrt:output.obj
 0001:000211a4       ?is_positional_parameter_reappearance_consistent@?$positional_parameter_base@_WV?$string_output_adapter@_W@__crt_stdio_output@@@__crt_stdio_output@@AEAA_NAEBUparameter_data@12@W4parameter_type@12@_WW4length_modifier@2@@Z 00000001400221a4 f i libucrt:output.obj
 0001:000213a8       ?is_string_backed@__crt_stdio_stream@@QEBA_NXZ 00000001400223a8 f i libucrt:output.obj
 0001:000213b8       ?maximum_signed_value@__crt_strtox@@YAJK@Z 00000001400223b8 f i libucrt:output.obj
 0001:000213c0       ?minimum_signed_value@__crt_strtox@@YAJK@Z 00000001400223c0 f i libucrt:output.obj
 0001:000213c8       ?narrow_null_string@?$output_processor@DV?$stream_output_adapter@D@__crt_stdio_output@@V?$format_validation_base@DV?$stream_output_adapter@D@__crt_stdio_output@@@2@@__crt_stdio_output@@CAPEADXZ 00000001400223c8 f i libucrt:output.obj
 0001:000213d0       ?narrow_null_string@?$output_processor@DV?$stream_output_adapter@D@__crt_stdio_output@@V?$positional_parameter_base@DV?$stream_output_adapter@D@__crt_stdio_output@@@2@@__crt_stdio_output@@CAPEADXZ 00000001400223d0 f i libucrt:output.obj
 0001:000213d8       ?narrow_null_string@?$output_processor@DV?$stream_output_adapter@D@__crt_stdio_output@@V?$standard_base@DV?$stream_output_adapter@D@__crt_stdio_output@@@2@@__crt_stdio_output@@CAPEADXZ 00000001400223d8 f i libucrt:output.obj
 0001:000213e0       ?narrow_null_string@?$output_processor@DV?$string_output_adapter@D@__crt_stdio_output@@V?$format_validation_base@DV?$string_output_adapter@D@__crt_stdio_output@@@2@@__crt_stdio_output@@CAPEADXZ 00000001400223e0 f i libucrt:output.obj
 0001:000213e8       ?narrow_null_string@?$output_processor@DV?$string_output_adapter@D@__crt_stdio_output@@V?$positional_parameter_base@DV?$string_output_adapter@D@__crt_stdio_output@@@2@@__crt_stdio_output@@CAPEADXZ 00000001400223e8 f i libucrt:output.obj
 0001:000213f0       ?narrow_null_string@?$output_processor@DV?$string_output_adapter@D@__crt_stdio_output@@V?$standard_base@DV?$string_output_adapter@D@__crt_stdio_output@@@2@@__crt_stdio_output@@CAPEADXZ 00000001400223f0 f i libucrt:output.obj
 0001:000213f8       ?narrow_null_string@?$output_processor@_WV?$stream_output_adapter@_W@__crt_stdio_output@@V?$format_validation_base@_WV?$stream_output_adapter@_W@__crt_stdio_output@@@2@@__crt_stdio_output@@CAPEADXZ 00000001400223f8 f i libucrt:output.obj
 0001:00021400       ?narrow_null_string@?$output_processor@_WV?$stream_output_adapter@_W@__crt_stdio_output@@V?$positional_parameter_base@_WV?$stream_output_adapter@_W@__crt_stdio_output@@@2@@__crt_stdio_output@@CAPEADXZ 0000000140022400 f i libucrt:output.obj
 0001:00021408       ?narrow_null_string@?$output_processor@_WV?$stream_output_adapter@_W@__crt_stdio_output@@V?$standard_base@_WV?$stream_output_adapter@_W@__crt_stdio_output@@@2@@__crt_stdio_output@@CAPEADXZ 0000000140022408 f i libucrt:output.obj
 0001:00021410       ?narrow_null_string@?$output_processor@_WV?$string_output_adapter@_W@__crt_stdio_output@@V?$format_validation_base@_WV?$string_output_adapter@_W@__crt_stdio_output@@@2@@__crt_stdio_output@@CAPEADXZ 0000000140022410 f i libucrt:output.obj
 0001:00021418       ?narrow_null_string@?$output_processor@_WV?$string_output_adapter@_W@__crt_stdio_output@@V?$positional_parameter_base@_WV?$string_output_adapter@_W@__crt_stdio_output@@@2@@__crt_stdio_output@@CAPEADXZ 0000000140022418 f i libucrt:output.obj
 0001:00021420       ?narrow_null_string@?$output_processor@_WV?$string_output_adapter@_W@__crt_stdio_output@@V?$standard_base@_WV?$string_output_adapter@_W@__crt_stdio_output@@@2@@__crt_stdio_output@@CAPEADXZ 0000000140022420 f i libucrt:output.obj
 0001:00021428       ?parse_digit@__crt_strtox@@YAID@Z 0000000140022428 f i libucrt:output.obj
 0001:00021458       ?parse_digit@__crt_strtox@@YAI_W@Z 0000000140022458 f i libucrt:output.obj
 0001:00021614       ?parse_int_from_format_string@?$output_processor@DV?$stream_output_adapter@D@__crt_stdio_output@@V?$format_validation_base@DV?$stream_output_adapter@D@__crt_stdio_output@@@2@@__crt_stdio_output@@AEAA_NQEAH@Z 0000000140022614 f i libucrt:output.obj
 0001:000216a4       ?parse_int_from_format_string@?$output_processor@DV?$stream_output_adapter@D@__crt_stdio_output@@V?$positional_parameter_base@DV?$stream_output_adapter@D@__crt_stdio_output@@@2@@__crt_stdio_output@@AEAA_NQEAH@Z 00000001400226a4 f i libucrt:output.obj
 0001:00021734       ?parse_int_from_format_string@?$output_processor@DV?$stream_output_adapter@D@__crt_stdio_output@@V?$standard_base@DV?$stream_output_adapter@D@__crt_stdio_output@@@2@@__crt_stdio_output@@AEAA_NQEAH@Z 0000000140022734 f i libucrt:output.obj
 0001:000217c4       ?parse_int_from_format_string@?$output_processor@DV?$string_output_adapter@D@__crt_stdio_output@@V?$format_validation_base@DV?$string_output_adapter@D@__crt_stdio_output@@@2@@__crt_stdio_output@@AEAA_NQEAH@Z 00000001400227c4 f i libucrt:output.obj
 0001:00021854       ?parse_int_from_format_string@?$output_processor@DV?$string_output_adapter@D@__crt_stdio_output@@V?$positional_parameter_base@DV?$string_output_adapter@D@__crt_stdio_output@@@2@@__crt_stdio_output@@AEAA_NQEAH@Z 0000000140022854 f i libucrt:output.obj
 0001:000218e4       ?parse_int_from_format_string@?$output_processor@DV?$string_output_adapter@D@__crt_stdio_output@@V?$standard_base@DV?$string_output_adapter@D@__crt_stdio_output@@@2@@__crt_stdio_output@@AEAA_NQEAH@Z 00000001400228e4 f i libucrt:output.obj
 0001:00021974       ?parse_int_from_format_string@?$output_processor@_WV?$stream_output_adapter@_W@__crt_stdio_output@@V?$format_validation_base@_WV?$stream_output_adapter@_W@__crt_stdio_output@@@2@@__crt_stdio_output@@AEAA_NQEAH@Z 0000000140022974 f i libucrt:output.obj
 0001:00021a04       ?parse_int_from_format_string@?$output_processor@_WV?$stream_output_adapter@_W@__crt_stdio_output@@V?$positional_parameter_base@_WV?$stream_output_adapter@_W@__crt_stdio_output@@@2@@__crt_stdio_output@@AEAA_NQEAH@Z 0000000140022a04 f i libucrt:output.obj
 0001:00021a94       ?parse_int_from_format_string@?$output_processor@_WV?$stream_output_adapter@_W@__crt_stdio_output@@V?$standard_base@_WV?$stream_output_adapter@_W@__crt_stdio_output@@@2@@__crt_stdio_output@@AEAA_NQEAH@Z 0000000140022a94 f i libucrt:output.obj
 0001:00021b24       ?parse_int_from_format_string@?$output_processor@_WV?$string_output_adapter@_W@__crt_stdio_output@@V?$format_validation_base@_WV?$string_output_adapter@_W@__crt_stdio_output@@@2@@__crt_stdio_output@@AEAA_NQEAH@Z 0000000140022b24 f i libucrt:output.obj
 0001:00021bb4       ?parse_int_from_format_string@?$output_processor@_WV?$string_output_adapter@_W@__crt_stdio_output@@V?$positional_parameter_base@_WV?$string_output_adapter@_W@__crt_stdio_output@@@2@@__crt_stdio_output@@AEAA_NQEAH@Z 0000000140022bb4 f i libucrt:output.obj
 0001:00021c44       ?parse_int_from_format_string@?$output_processor@_WV?$string_output_adapter@_W@__crt_stdio_output@@V?$standard_base@_WV?$string_output_adapter@_W@__crt_stdio_output@@@2@@__crt_stdio_output@@AEAA_NQEAH@Z 0000000140022c44 f i libucrt:output.obj
 0001:00021cd4       ?process@?$output_processor@DV?$stream_output_adapter@D@__crt_stdio_output@@V?$format_validation_base@DV?$stream_output_adapter@D@__crt_stdio_output@@@2@@__crt_stdio_output@@QEAAHXZ 0000000140022cd4 f i libucrt:output.obj
 0001:00022070       ?process@?$output_processor@DV?$stream_output_adapter@D@__crt_stdio_output@@V?$positional_parameter_base@DV?$stream_output_adapter@D@__crt_stdio_output@@@2@@__crt_stdio_output@@QEAAHXZ 0000000140023070 f i libucrt:output.obj
 0001:000224a4       ?process@?$output_processor@DV?$stream_output_adapter@D@__crt_stdio_output@@V?$standard_base@DV?$stream_output_adapter@D@__crt_stdio_output@@@2@@__crt_stdio_output@@QEAAHXZ 00000001400234a4 f i libucrt:output.obj
 0001:0002283c       ?process@?$output_processor@DV?$string_output_adapter@D@__crt_stdio_output@@V?$format_validation_base@DV?$string_output_adapter@D@__crt_stdio_output@@@2@@__crt_stdio_output@@QEAAHXZ 000000014002383c f i libucrt:output.obj
 0001:00022bc0       ?process@?$output_processor@DV?$string_output_adapter@D@__crt_stdio_output@@V?$positional_parameter_base@DV?$string_output_adapter@D@__crt_stdio_output@@@2@@__crt_stdio_output@@QEAAHXZ 0000000140023bc0 f i libucrt:output.obj
 0001:00022fd8       ?process@?$output_processor@DV?$string_output_adapter@D@__crt_stdio_output@@V?$standard_base@DV?$string_output_adapter@D@__crt_stdio_output@@@2@@__crt_stdio_output@@QEAAHXZ 0000000140023fd8 f i libucrt:output.obj
 0001:00023358       ?process@?$output_processor@_WV?$stream_output_adapter@_W@__crt_stdio_output@@V?$format_validation_base@_WV?$stream_output_adapter@_W@__crt_stdio_output@@@2@@__crt_stdio_output@@QEAAHXZ 0000000140024358 f i libucrt:output.obj
 0001:00023638       ?process@?$output_processor@_WV?$stream_output_adapter@_W@__crt_stdio_output@@V?$positional_parameter_base@_WV?$stream_output_adapter@_W@__crt_stdio_output@@@2@@__crt_stdio_output@@QEAAHXZ 0000000140024638 f i libucrt:output.obj
 0001:000239a8       ?process@?$output_processor@_WV?$stream_output_adapter@_W@__crt_stdio_output@@V?$standard_base@_WV?$stream_output_adapter@_W@__crt_stdio_output@@@2@@__crt_stdio_output@@QEAAHXZ 00000001400249a8 f i libucrt:output.obj
 0001:00023c78       ?process@?$output_processor@_WV?$string_output_adapter@_W@__crt_stdio_output@@V?$format_validation_base@_WV?$string_output_adapter@_W@__crt_stdio_output@@@2@@__crt_stdio_output@@QEAAHXZ 0000000140024c78 f i libucrt:output.obj
 0001:00023f50       ?process@?$output_processor@_WV?$string_output_adapter@_W@__crt_stdio_output@@V?$positional_parameter_base@_WV?$string_output_adapter@_W@__crt_stdio_output@@@2@@__crt_stdio_output@@QEAAHXZ 0000000140024f50 f i libucrt:output.obj
 0001:000242bc       ?process@?$output_processor@_WV?$string_output_adapter@_W@__crt_stdio_output@@V?$standard_base@_WV?$string_output_adapter@_W@__crt_stdio_output@@@2@@__crt_stdio_output@@QEAAHXZ 00000001400252bc f i libucrt:output.obj
 0001:00024594       ?public_stream@__crt_stdio_stream@@QEBAPEAU_iobuf@@XZ 0000000140025594 f i libucrt:output.obj
 0001:00024598       ?restore_state@?$c_string_character_source@D@__crt_strtox@@QEAA_NQEBD@Z 0000000140025598 f i libucrt:output.obj
 0001:000245a0       ?restore_state@?$c_string_character_source@_W@__crt_strtox@@QEAA_NQEB_W@Z 00000001400255a0 f i libucrt:output.obj
 0001:000245a8       ?save_state@?$c_string_character_source@D@__crt_strtox@@QEBAPEBDXZ 00000001400255a8 f i libucrt:output.obj
 0001:000245ac       ?save_state@?$c_string_character_source@_W@__crt_strtox@@QEBAPEB_WXZ 00000001400255ac f i libucrt:output.obj
 0001:000245b0       ?set@?$cached@H@__crt_cached_ptd_host@@QEAAHH@Z 00000001400255b0 f i libucrt:output.obj
 0001:000245bc       ?set_flag@?$output_processor@DV?$stream_output_adapter@D@__crt_stdio_output@@V?$format_validation_base@DV?$stream_output_adapter@D@__crt_stdio_output@@@2@@__crt_stdio_output@@AEAAXI@Z 00000001400255bc f i libucrt:output.obj
 0001:000245c0       ?set_flag@?$output_processor@DV?$stream_output_adapter@D@__crt_stdio_output@@V?$positional_parameter_base@DV?$stream_output_adapter@D@__crt_stdio_output@@@2@@__crt_stdio_output@@AEAAXI@Z 00000001400255c0 f i libucrt:output.obj
 0001:000245c4       ?set_flag@?$output_processor@DV?$stream_output_adapter@D@__crt_stdio_output@@V?$standard_base@DV?$stream_output_adapter@D@__crt_stdio_output@@@2@@__crt_stdio_output@@AEAAXI@Z 00000001400255c4 f i libucrt:output.obj
 0001:000245c8       ?set_flag@?$output_processor@DV?$string_output_adapter@D@__crt_stdio_output@@V?$format_validation_base@DV?$string_output_adapter@D@__crt_stdio_output@@@2@@__crt_stdio_output@@AEAAXI@Z 00000001400255c8 f i libucrt:output.obj
 0001:000245cc       ?set_flag@?$output_processor@DV?$string_output_adapter@D@__crt_stdio_output@@V?$positional_parameter_base@DV?$string_output_adapter@D@__crt_stdio_output@@@2@@__crt_stdio_output@@AEAAXI@Z 00000001400255cc f i libucrt:output.obj
 0001:000245d0       ?set_flag@?$output_processor@DV?$string_output_adapter@D@__crt_stdio_output@@V?$standard_base@DV?$string_output_adapter@D@__crt_stdio_output@@@2@@__crt_stdio_output@@AEAAXI@Z 00000001400255d0 f i libucrt:output.obj
 0001:000245d4       ?set_flag@?$output_processor@_WV?$stream_output_adapter@_W@__crt_stdio_output@@V?$format_validation_base@_WV?$stream_output_adapter@_W@__crt_stdio_output@@@2@@__crt_stdio_output@@AEAAXI@Z 00000001400255d4 f i libucrt:output.obj
 0001:000245d8       ?set_flag@?$output_processor@_WV?$stream_output_adapter@_W@__crt_stdio_output@@V?$positional_parameter_base@_WV?$stream_output_adapter@_W@__crt_stdio_output@@@2@@__crt_stdio_output@@AEAAXI@Z 00000001400255d8 f i libucrt:output.obj
 0001:000245dc       ?set_flag@?$output_processor@_WV?$stream_output_adapter@_W@__crt_stdio_output@@V?$standard_base@_WV?$stream_output_adapter@_W@__crt_stdio_output@@@2@@__crt_stdio_output@@AEAAXI@Z 00000001400255dc f i libucrt:output.obj
 0001:000245e0       ?set_flag@?$output_processor@_WV?$string_output_adapter@_W@__crt_stdio_output@@V?$format_validation_base@_WV?$string_output_adapter@_W@__crt_stdio_output@@@2@@__crt_stdio_output@@AEAAXI@Z 00000001400255e0 f i libucrt:output.obj
 0001:000245e4       ?set_flag@?$output_processor@_WV?$string_output_adapter@_W@__crt_stdio_output@@V?$positional_parameter_base@_WV?$string_output_adapter@_W@__crt_stdio_output@@@2@@__crt_stdio_output@@AEAAXI@Z 00000001400255e4 f i libucrt:output.obj
 0001:000245e8       ?set_flag@?$output_processor@_WV?$string_output_adapter@_W@__crt_stdio_output@@V?$standard_base@_WV?$string_output_adapter@_W@__crt_stdio_output@@@2@@__crt_stdio_output@@AEAAXI@Z 00000001400255e8 f i libucrt:output.obj
 0001:000245ec       ?should_format@?$positional_parameter_base@DV?$stream_output_adapter@D@__crt_stdio_output@@@__crt_stdio_output@@IEAA_NXZ 00000001400255ec f i libucrt:output.obj
 0001:00024604       ?should_format@?$positional_parameter_base@DV?$string_output_adapter@D@__crt_stdio_output@@@__crt_stdio_output@@IEAA_NXZ 0000000140025604 f i libucrt:output.obj
 0001:0002461c       ?should_format@?$positional_parameter_base@_WV?$stream_output_adapter@_W@__crt_stdio_output@@@__crt_stdio_output@@IEAA_NXZ 000000014002561c f i libucrt:output.obj
 0001:00024634       ?should_format@?$positional_parameter_base@_WV?$string_output_adapter@_W@__crt_stdio_output@@@__crt_stdio_output@@IEAA_NXZ 0000000140025634 f i libucrt:output.obj
 0001:0002464c       ?should_format@?$standard_base@DV?$stream_output_adapter@D@__crt_stdio_output@@@__crt_stdio_output@@IEAA_NXZ 000000014002564c f i libucrt:output.obj
 0001:00024650       ?should_format@?$standard_base@DV?$string_output_adapter@D@__crt_stdio_output@@@__crt_stdio_output@@IEAA_NXZ 0000000140025650 f i libucrt:output.obj
 0001:00024654       ?should_format@?$standard_base@_WV?$stream_output_adapter@_W@__crt_stdio_output@@@__crt_stdio_output@@IEAA_NXZ 0000000140025654 f i libucrt:output.obj
 0001:00024658       ?should_format@?$standard_base@_WV?$string_output_adapter@_W@__crt_stdio_output@@@__crt_stdio_output@@IEAA_NXZ 0000000140025658 f i libucrt:output.obj
 0001:0002465c       ?should_skip_normal_state_processing@?$positional_parameter_base@DV?$stream_output_adapter@D@__crt_stdio_output@@@__crt_stdio_output@@IEAA_NXZ 000000014002565c f i libucrt:output.obj
 0001:00024688       ?should_skip_normal_state_processing@?$positional_parameter_base@DV?$string_output_adapter@D@__crt_stdio_output@@@__crt_stdio_output@@IEAA_NXZ 0000000140025688 f i libucrt:output.obj
 0001:000246b4       ?should_skip_normal_state_processing@?$positional_parameter_base@_WV?$stream_output_adapter@_W@__crt_stdio_output@@@__crt_stdio_output@@IEAA_NXZ 00000001400256b4 f i libucrt:output.obj
 0001:000246e0       ?should_skip_normal_state_processing@?$positional_parameter_base@_WV?$string_output_adapter@_W@__crt_stdio_output@@@__crt_stdio_output@@IEAA_NXZ 00000001400256e0 f i libucrt:output.obj
 0001:0002470c       ?should_skip_normal_state_processing@?$standard_base@DV?$stream_output_adapter@D@__crt_stdio_output@@@__crt_stdio_output@@IEAA_NXZ 000000014002570c f i libucrt:output.obj
 0001:00024710       ?should_skip_normal_state_processing@?$standard_base@DV?$string_output_adapter@D@__crt_stdio_output@@@__crt_stdio_output@@IEAA_NXZ 0000000140025710 f i libucrt:output.obj
 0001:00024714       ?should_skip_normal_state_processing@?$standard_base@_WV?$stream_output_adapter@_W@__crt_stdio_output@@@__crt_stdio_output@@IEAA_NXZ 0000000140025714 f i libucrt:output.obj
 0001:00024718       ?should_skip_normal_state_processing@?$standard_base@_WV?$string_output_adapter@_W@__crt_stdio_output@@@__crt_stdio_output@@IEAA_NXZ 0000000140025718 f i libucrt:output.obj
 0001:0002471c       ?should_skip_type_state_output@?$positional_parameter_base@DV?$stream_output_adapter@D@__crt_stdio_output@@@__crt_stdio_output@@IEBA_NXZ 000000014002571c f i libucrt:output.obj
 0001:00024738       ?should_skip_type_state_output@?$positional_parameter_base@DV?$string_output_adapter@D@__crt_stdio_output@@@__crt_stdio_output@@IEBA_NXZ 0000000140025738 f i libucrt:output.obj
 0001:00024754       ?should_skip_type_state_output@?$positional_parameter_base@_WV?$stream_output_adapter@_W@__crt_stdio_output@@@__crt_stdio_output@@IEBA_NXZ 0000000140025754 f i libucrt:output.obj
 0001:00024770       ?should_skip_type_state_output@?$positional_parameter_base@_WV?$string_output_adapter@_W@__crt_stdio_output@@@__crt_stdio_output@@IEBA_NXZ 0000000140025770 f i libucrt:output.obj
 0001:0002478c       ?should_skip_type_state_output@?$standard_base@DV?$stream_output_adapter@D@__crt_stdio_output@@@__crt_stdio_output@@IEBA_NXZ 000000014002578c f i libucrt:output.obj
 0001:00024790       ?should_skip_type_state_output@?$standard_base@DV?$string_output_adapter@D@__crt_stdio_output@@@__crt_stdio_output@@IEBA_NXZ 0000000140025790 f i libucrt:output.obj
 0001:00024794       ?should_skip_type_state_output@?$standard_base@_WV?$stream_output_adapter@_W@__crt_stdio_output@@@__crt_stdio_output@@IEBA_NXZ 0000000140025794 f i libucrt:output.obj
 0001:00024798       ?should_skip_type_state_output@?$standard_base@_WV?$string_output_adapter@_W@__crt_stdio_output@@@__crt_stdio_output@@IEBA_NXZ 0000000140025798 f i libucrt:output.obj
 0001:0002479c       ?state_case_dot@?$output_processor@DV?$stream_output_adapter@D@__crt_stdio_output@@V?$format_validation_base@DV?$stream_output_adapter@D@__crt_stdio_output@@@2@@__crt_stdio_output@@AEAA_NXZ 000000014002579c f i libucrt:output.obj
 0001:000247a4       ?state_case_dot@?$output_processor@DV?$stream_output_adapter@D@__crt_stdio_output@@V?$positional_parameter_base@DV?$stream_output_adapter@D@__crt_stdio_output@@@2@@__crt_stdio_output@@AEAA_NXZ 00000001400257a4 f i libucrt:output.obj
 0001:000247ac       ?state_case_dot@?$output_processor@DV?$stream_output_adapter@D@__crt_stdio_output@@V?$standard_base@DV?$stream_output_adapter@D@__crt_stdio_output@@@2@@__crt_stdio_output@@AEAA_NXZ 00000001400257ac f i libucrt:output.obj
 0001:000247b4       ?state_case_dot@?$output_processor@DV?$string_output_adapter@D@__crt_stdio_output@@V?$format_validation_base@DV?$string_output_adapter@D@__crt_stdio_output@@@2@@__crt_stdio_output@@AEAA_NXZ 00000001400257b4 f i libucrt:output.obj
 0001:000247bc       ?state_case_dot@?$output_processor@DV?$string_output_adapter@D@__crt_stdio_output@@V?$positional_parameter_base@DV?$string_output_adapter@D@__crt_stdio_output@@@2@@__crt_stdio_output@@AEAA_NXZ 00000001400257bc f i libucrt:output.obj
 0001:000247c4       ?state_case_dot@?$output_processor@DV?$string_output_adapter@D@__crt_stdio_output@@V?$standard_base@DV?$string_output_adapter@D@__crt_stdio_output@@@2@@__crt_stdio_output@@AEAA_NXZ 00000001400257c4 f i libucrt:output.obj
 0001:000247cc       ?state_case_dot@?$output_processor@_WV?$stream_output_adapter@_W@__crt_stdio_output@@V?$format_validation_base@_WV?$stream_output_adapter@_W@__crt_stdio_output@@@2@@__crt_stdio_output@@AEAA_NXZ 00000001400257cc f i libucrt:output.obj
 0001:000247d4       ?state_case_dot@?$output_processor@_WV?$stream_output_adapter@_W@__crt_stdio_output@@V?$positional_parameter_base@_WV?$stream_output_adapter@_W@__crt_stdio_output@@@2@@__crt_stdio_output@@AEAA_NXZ 00000001400257d4 f i libucrt:output.obj
 0001:000247dc       ?state_case_dot@?$output_processor@_WV?$stream_output_adapter@_W@__crt_stdio_output@@V?$standard_base@_WV?$stream_output_adapter@_W@__crt_stdio_output@@@2@@__crt_stdio_output@@AEAA_NXZ 00000001400257dc f i libucrt:output.obj
 0001:000247e4       ?state_case_dot@?$output_processor@_WV?$string_output_adapter@_W@__crt_stdio_output@@V?$format_validation_base@_WV?$string_output_adapter@_W@__crt_stdio_output@@@2@@__crt_stdio_output@@AEAA_NXZ 00000001400257e4 f i libucrt:output.obj
 0001:000247ec       ?state_case_dot@?$output_processor@_WV?$string_output_adapter@_W@__crt_stdio_output@@V?$positional_parameter_base@_WV?$string_output_adapter@_W@__crt_stdio_output@@@2@@__crt_stdio_output@@AEAA_NXZ 00000001400257ec f i libucrt:output.obj
 0001:000247f4       ?state_case_dot@?$output_processor@_WV?$string_output_adapter@_W@__crt_stdio_output@@V?$standard_base@_WV?$string_output_adapter@_W@__crt_stdio_output@@@2@@__crt_stdio_output@@AEAA_NXZ 00000001400257f4 f i libucrt:output.obj
 0001:000247fc       ?state_case_flag@?$output_processor@DV?$stream_output_adapter@D@__crt_stdio_output@@V?$format_validation_base@DV?$stream_output_adapter@D@__crt_stdio_output@@@2@@__crt_stdio_output@@AEAA_NXZ 00000001400257fc f i libucrt:output.obj
 0001:00024834       ?state_case_flag@?$output_processor@DV?$stream_output_adapter@D@__crt_stdio_output@@V?$positional_parameter_base@DV?$stream_output_adapter@D@__crt_stdio_output@@@2@@__crt_stdio_output@@AEAA_NXZ 0000000140025834 f i libucrt:output.obj
 0001:0002486c       ?state_case_flag@?$output_processor@DV?$stream_output_adapter@D@__crt_stdio_output@@V?$standard_base@DV?$stream_output_adapter@D@__crt_stdio_output@@@2@@__crt_stdio_output@@AEAA_NXZ 000000014002586c f i libucrt:output.obj
 0001:000248a4       ?state_case_flag@?$output_processor@DV?$string_output_adapter@D@__crt_stdio_output@@V?$format_validation_base@DV?$string_output_adapter@D@__crt_stdio_output@@@2@@__crt_stdio_output@@AEAA_NXZ 00000001400258a4 f i libucrt:output.obj
 0001:000248dc       ?state_case_flag@?$output_processor@DV?$string_output_adapter@D@__crt_stdio_output@@V?$positional_parameter_base@DV?$string_output_adapter@D@__crt_stdio_output@@@2@@__crt_stdio_output@@AEAA_NXZ 00000001400258dc f i libucrt:output.obj
 0001:00024914       ?state_case_flag@?$output_processor@DV?$string_output_adapter@D@__crt_stdio_output@@V?$standard_base@DV?$string_output_adapter@D@__crt_stdio_output@@@2@@__crt_stdio_output@@AEAA_NXZ 0000000140025914 f i libucrt:output.obj
 0001:0002494c       ?state_case_flag@?$output_processor@_WV?$stream_output_adapter@_W@__crt_stdio_output@@V?$format_validation_base@_WV?$stream_output_adapter@_W@__crt_stdio_output@@@2@@__crt_stdio_output@@AEAA_NXZ 000000014002594c f i libucrt:output.obj
 0001:00024990       ?state_case_flag@?$output_processor@_WV?$stream_output_adapter@_W@__crt_stdio_output@@V?$positional_parameter_base@_WV?$stream_output_adapter@_W@__crt_stdio_output@@@2@@__crt_stdio_output@@AEAA_NXZ 0000000140025990 f i libucrt:output.obj
 0001:000249d4       ?state_case_flag@?$output_processor@_WV?$stream_output_adapter@_W@__crt_stdio_output@@V?$standard_base@_WV?$stream_output_adapter@_W@__crt_stdio_output@@@2@@__crt_stdio_output@@AEAA_NXZ 00000001400259d4 f i libucrt:output.obj
 0001:00024a18       ?state_case_flag@?$output_processor@_WV?$string_output_adapter@_W@__crt_stdio_output@@V?$format_validation_base@_WV?$string_output_adapter@_W@__crt_stdio_output@@@2@@__crt_stdio_output@@AEAA_NXZ 0000000140025a18 f i libucrt:output.obj
 0001:00024a5c       ?state_case_flag@?$output_processor@_WV?$string_output_adapter@_W@__crt_stdio_output@@V?$positional_parameter_base@_WV?$string_output_adapter@_W@__crt_stdio_output@@@2@@__crt_stdio_output@@AEAA_NXZ 0000000140025a5c f i libucrt:output.obj
 0001:00024aa0       ?state_case_flag@?$output_processor@_WV?$string_output_adapter@_W@__crt_stdio_output@@V?$standard_base@_WV?$string_output_adapter@_W@__crt_stdio_output@@@2@@__crt_stdio_output@@AEAA_NXZ 0000000140025aa0 f i libucrt:output.obj
 0001:00024ae4       ?state_case_normal@?$output_processor@DV?$stream_output_adapter@D@__crt_stdio_output@@V?$format_validation_base@DV?$stream_output_adapter@D@__crt_stdio_output@@@2@@__crt_stdio_output@@AEAA_NXZ 0000000140025ae4 f i libucrt:output.obj
 0001:00024c38       ?state_case_normal@?$output_processor@DV?$stream_output_adapter@D@__crt_stdio_output@@V?$positional_parameter_base@DV?$stream_output_adapter@D@__crt_stdio_output@@@2@@__crt_stdio_output@@AEAA_NXZ 0000000140025c38 f i libucrt:output.obj
 0001:00024db8       ?state_case_normal@?$output_processor@DV?$stream_output_adapter@D@__crt_stdio_output@@V?$standard_base@DV?$stream_output_adapter@D@__crt_stdio_output@@@2@@__crt_stdio_output@@AEAA_NXZ 0000000140025db8 f i libucrt:output.obj
 0001:00024f0c       ?state_case_normal@?$output_processor@DV?$string_output_adapter@D@__crt_stdio_output@@V?$format_validation_base@DV?$string_output_adapter@D@__crt_stdio_output@@@2@@__crt_stdio_output@@AEAA_NXZ 0000000140025f0c f i libucrt:output.obj
 0001:00025058       ?state_case_normal@?$output_processor@DV?$string_output_adapter@D@__crt_stdio_output@@V?$positional_parameter_base@DV?$string_output_adapter@D@__crt_stdio_output@@@2@@__crt_stdio_output@@AEAA_NXZ 0000000140026058 f i libucrt:output.obj
 0001:000251d0       ?state_case_normal@?$output_processor@DV?$string_output_adapter@D@__crt_stdio_output@@V?$standard_base@DV?$string_output_adapter@D@__crt_stdio_output@@@2@@__crt_stdio_output@@AEAA_NXZ 00000001400261d0 f i libucrt:output.obj
 0001:0002531c       ?state_case_normal@?$output_processor@_WV?$stream_output_adapter@_W@__crt_stdio_output@@V?$format_validation_base@_WV?$stream_output_adapter@_W@__crt_stdio_output@@@2@@__crt_stdio_output@@AEAA_NXZ 000000014002631c f i libucrt:output.obj
 0001:0002537c       ?state_case_normal@?$output_processor@_WV?$stream_output_adapter@_W@__crt_stdio_output@@V?$positional_parameter_base@_WV?$stream_output_adapter@_W@__crt_stdio_output@@@2@@__crt_stdio_output@@AEAA_NXZ 000000014002637c f i libucrt:output.obj
 0001:00025400       ?state_case_normal@?$output_processor@_WV?$stream_output_adapter@_W@__crt_stdio_output@@V?$standard_base@_WV?$stream_output_adapter@_W@__crt_stdio_output@@@2@@__crt_stdio_output@@AEAA_NXZ 0000000140026400 f i libucrt:output.obj
 0001:00025460       ?state_case_normal@?$output_processor@_WV?$string_output_adapter@_W@__crt_stdio_output@@V?$format_validation_base@_WV?$string_output_adapter@_W@__crt_stdio_output@@@2@@__crt_stdio_output@@AEAA_NXZ 0000000140026460 f i libucrt:output.obj
 0001:000254b4       ?state_case_normal@?$output_processor@_WV?$string_output_adapter@_W@__crt_stdio_output@@V?$positional_parameter_base@_WV?$string_output_adapter@_W@__crt_stdio_output@@@2@@__crt_stdio_output@@AEAA_NXZ 00000001400264b4 f i libucrt:output.obj
 0001:0002552c       ?state_case_normal@?$output_processor@_WV?$string_output_adapter@_W@__crt_stdio_output@@V?$standard_base@_WV?$string_output_adapter@_W@__crt_stdio_output@@@2@@__crt_stdio_output@@AEAA_NXZ 000000014002652c f i libucrt:output.obj
 0001:00025580       ?state_case_normal_common@?$output_processor@DV?$stream_output_adapter@D@__crt_stdio_output@@V?$format_validation_base@DV?$stream_output_adapter@D@__crt_stdio_output@@@2@@__crt_stdio_output@@AEAA_NXZ 0000000140026580 f i libucrt:output.obj
 0001:000256ac       ?state_case_normal_common@?$output_processor@DV?$stream_output_adapter@D@__crt_stdio_output@@V?$positional_parameter_base@DV?$stream_output_adapter@D@__crt_stdio_output@@@2@@__crt_stdio_output@@AEAA_NXZ 00000001400266ac f i libucrt:output.obj
 0001:000257d8       ?state_case_normal_common@?$output_processor@DV?$stream_output_adapter@D@__crt_stdio_output@@V?$standard_base@DV?$stream_output_adapter@D@__crt_stdio_output@@@2@@__crt_stdio_output@@AEAA_NXZ 00000001400267d8 f i libucrt:output.obj
 0001:00025904       ?state_case_normal_common@?$output_processor@DV?$string_output_adapter@D@__crt_stdio_output@@V?$format_validation_base@DV?$string_output_adapter@D@__crt_stdio_output@@@2@@__crt_stdio_output@@AEAA_NXZ 0000000140026904 f i libucrt:output.obj
 0001:00025a28       ?state_case_normal_common@?$output_processor@DV?$string_output_adapter@D@__crt_stdio_output@@V?$positional_parameter_base@DV?$string_output_adapter@D@__crt_stdio_output@@@2@@__crt_stdio_output@@AEAA_NXZ 0000000140026a28 f i libucrt:output.obj
 0001:00025b4c       ?state_case_normal_common@?$output_processor@DV?$string_output_adapter@D@__crt_stdio_output@@V?$standard_base@DV?$string_output_adapter@D@__crt_stdio_output@@@2@@__crt_stdio_output@@AEAA_NXZ 0000000140026b4c f i libucrt:output.obj
 0001:00025c70       ?state_case_normal_common@?$output_processor@_WV?$stream_output_adapter@_W@__crt_stdio_output@@V?$format_validation_base@_WV?$stream_output_adapter@_W@__crt_stdio_output@@@2@@__crt_stdio_output@@AEAA_NXZ 0000000140026c70 f i libucrt:output.obj
 0001:00025cd0       ?state_case_normal_common@?$output_processor@_WV?$stream_output_adapter@_W@__crt_stdio_output@@V?$positional_parameter_base@_WV?$stream_output_adapter@_W@__crt_stdio_output@@@2@@__crt_stdio_output@@AEAA_NXZ 0000000140026cd0 f i libucrt:output.obj
 0001:00025d30       ?state_case_normal_common@?$output_processor@_WV?$stream_output_adapter@_W@__crt_stdio_output@@V?$standard_base@_WV?$stream_output_adapter@_W@__crt_stdio_output@@@2@@__crt_stdio_output@@AEAA_NXZ 0000000140026d30 f i libucrt:output.obj
 0001:00025d90       ?state_case_normal_common@?$output_processor@_WV?$string_output_adapter@_W@__crt_stdio_output@@V?$format_validation_base@_WV?$string_output_adapter@_W@__crt_stdio_output@@@2@@__crt_stdio_output@@AEAA_NXZ 0000000140026d90 f i libucrt:output.obj
 0001:00025de4       ?state_case_normal_common@?$output_processor@_WV?$string_output_adapter@_W@__crt_stdio_output@@V?$positional_parameter_base@_WV?$string_output_adapter@_W@__crt_stdio_output@@@2@@__crt_stdio_output@@AEAA_NXZ 0000000140026de4 f i libucrt:output.obj
 0001:00025e38       ?state_case_normal_common@?$output_processor@_WV?$string_output_adapter@_W@__crt_stdio_output@@V?$standard_base@_WV?$string_output_adapter@_W@__crt_stdio_output@@@2@@__crt_stdio_output@@AEAA_NXZ 0000000140026e38 f i libucrt:output.obj
 0001:00025e8c       ?state_case_normal_tchar@?$output_processor@DV?$stream_output_adapter@D@__crt_stdio_output@@V?$format_validation_base@DV?$stream_output_adapter@D@__crt_stdio_output@@@2@@__crt_stdio_output@@AEAA_ND@Z 0000000140026e8c f i libucrt:output.obj
 0001:00025f6c       ?state_case_normal_tchar@?$output_processor@DV?$stream_output_adapter@D@__crt_stdio_output@@V?$positional_parameter_base@DV?$stream_output_adapter@D@__crt_stdio_output@@@2@@__crt_stdio_output@@AEAA_ND@Z 0000000140026f6c f i libucrt:output.obj
 0001:0002604c       ?state_case_normal_tchar@?$output_processor@DV?$stream_output_adapter@D@__crt_stdio_output@@V?$standard_base@DV?$stream_output_adapter@D@__crt_stdio_output@@@2@@__crt_stdio_output@@AEAA_ND@Z 000000014002704c f i libucrt:output.obj
 0001:0002612c       ?state_case_normal_tchar@?$output_processor@DV?$string_output_adapter@D@__crt_stdio_output@@V?$format_validation_base@DV?$string_output_adapter@D@__crt_stdio_output@@@2@@__crt_stdio_output@@AEAA_ND@Z 000000014002712c f i libucrt:output.obj
 0001:00026208       ?state_case_normal_tchar@?$output_processor@DV?$string_output_adapter@D@__crt_stdio_output@@V?$positional_parameter_base@DV?$string_output_adapter@D@__crt_stdio_output@@@2@@__crt_stdio_output@@AEAA_ND@Z 0000000140027208 f i libucrt:output.obj
 0001:000262e4       ?state_case_normal_tchar@?$output_processor@DV?$string_output_adapter@D@__crt_stdio_output@@V?$standard_base@DV?$string_output_adapter@D@__crt_stdio_output@@@2@@__crt_stdio_output@@AEAA_ND@Z 00000001400272e4 f i libucrt:output.obj
 0001:000263c0       ?state_case_normal_tchar@?$output_processor@_WV?$stream_output_adapter@_W@__crt_stdio_output@@V?$format_validation_base@_WV?$stream_output_adapter@_W@__crt_stdio_output@@@2@@__crt_stdio_output@@AEAA_N_W@Z 00000001400273c0 f i libucrt:output.obj
 0001:000263c8       ?state_case_normal_tchar@?$output_processor@_WV?$stream_output_adapter@_W@__crt_stdio_output@@V?$positional_parameter_base@_WV?$stream_output_adapter@_W@__crt_stdio_output@@@2@@__crt_stdio_output@@AEAA_N_W@Z 00000001400273c8 f i libucrt:output.obj
 0001:000263d0       ?state_case_normal_tchar@?$output_processor@_WV?$stream_output_adapter@_W@__crt_stdio_output@@V?$standard_base@_WV?$stream_output_adapter@_W@__crt_stdio_output@@@2@@__crt_stdio_output@@AEAA_N_W@Z 00000001400273d0 f i libucrt:output.obj
 0001:000263d8       ?state_case_normal_tchar@?$output_processor@_WV?$string_output_adapter@_W@__crt_stdio_output@@V?$format_validation_base@_WV?$string_output_adapter@_W@__crt_stdio_output@@@2@@__crt_stdio_output@@AEAA_N_W@Z 00000001400273d8 f i libucrt:output.obj
 0001:000263e0       ?state_case_normal_tchar@?$output_processor@_WV?$string_output_adapter@_W@__crt_stdio_output@@V?$positional_parameter_base@_WV?$string_output_adapter@_W@__crt_stdio_output@@@2@@__crt_stdio_output@@AEAA_N_W@Z 00000001400273e0 f i libucrt:output.obj
 0001:000263e8       ?state_case_normal_tchar@?$output_processor@_WV?$string_output_adapter@_W@__crt_stdio_output@@V?$standard_base@_WV?$string_output_adapter@_W@__crt_stdio_output@@@2@@__crt_stdio_output@@AEAA_N_W@Z 00000001400273e8 f i libucrt:output.obj
 0001:000263f0       ?state_case_percent@?$output_processor@DV?$stream_output_adapter@D@__crt_stdio_output@@V?$format_validation_base@DV?$stream_output_adapter@D@__crt_stdio_output@@@2@@__crt_stdio_output@@AEAA_NXZ 00000001400273f0 f i libucrt:output.obj
 0001:00026408       ?state_case_percent@?$output_processor@DV?$stream_output_adapter@D@__crt_stdio_output@@V?$positional_parameter_base@DV?$stream_output_adapter@D@__crt_stdio_output@@@2@@__crt_stdio_output@@AEAA_NXZ 0000000140027408 f i libucrt:output.obj
 0001:00026420       ?state_case_percent@?$output_processor@DV?$stream_output_adapter@D@__crt_stdio_output@@V?$standard_base@DV?$stream_output_adapter@D@__crt_stdio_output@@@2@@__crt_stdio_output@@AEAA_NXZ 0000000140027420 f i libucrt:output.obj
 0001:00026438       ?state_case_percent@?$output_processor@DV?$string_output_adapter@D@__crt_stdio_output@@V?$format_validation_base@DV?$string_output_adapter@D@__crt_stdio_output@@@2@@__crt_stdio_output@@AEAA_NXZ 0000000140027438 f i libucrt:output.obj
 0001:00026450       ?state_case_percent@?$output_processor@DV?$string_output_adapter@D@__crt_stdio_output@@V?$positional_parameter_base@DV?$string_output_adapter@D@__crt_stdio_output@@@2@@__crt_stdio_output@@AEAA_NXZ 0000000140027450 f i libucrt:output.obj
 0001:00026468       ?state_case_percent@?$output_processor@DV?$string_output_adapter@D@__crt_stdio_output@@V?$standard_base@DV?$string_output_adapter@D@__crt_stdio_output@@@2@@__crt_stdio_output@@AEAA_NXZ 0000000140027468 f i libucrt:output.obj
 0001:00026480       ?state_case_percent@?$output_processor@_WV?$stream_output_adapter@_W@__crt_stdio_output@@V?$format_validation_base@_WV?$stream_output_adapter@_W@__crt_stdio_output@@@2@@__crt_stdio_output@@AEAA_NXZ 0000000140027480 f i libucrt:output.obj
 0001:00026498       ?state_case_percent@?$output_processor@_WV?$stream_output_adapter@_W@__crt_stdio_output@@V?$positional_parameter_base@_WV?$stream_output_adapter@_W@__crt_stdio_output@@@2@@__crt_stdio_output@@AEAA_NXZ 0000000140027498 f i libucrt:output.obj
 0001:000264b0       ?state_case_percent@?$output_processor@_WV?$stream_output_adapter@_W@__crt_stdio_output@@V?$standard_base@_WV?$stream_output_adapter@_W@__crt_stdio_output@@@2@@__crt_stdio_output@@AEAA_NXZ 00000001400274b0 f i libucrt:output.obj
 0001:000264c8       ?state_case_percent@?$output_processor@_WV?$string_output_adapter@_W@__crt_stdio_output@@V?$format_validation_base@_WV?$string_output_adapter@_W@__crt_stdio_output@@@2@@__crt_stdio_output@@AEAA_NXZ 00000001400274c8 f i libucrt:output.obj
 0001:000264e0       ?state_case_percent@?$output_processor@_WV?$string_output_adapter@_W@__crt_stdio_output@@V?$positional_parameter_base@_WV?$string_output_adapter@_W@__crt_stdio_output@@@2@@__crt_stdio_output@@AEAA_NXZ 00000001400274e0 f i libucrt:output.obj
 0001:000264f8       ?state_case_percent@?$output_processor@_WV?$string_output_adapter@_W@__crt_stdio_output@@V?$standard_base@_WV?$string_output_adapter@_W@__crt_stdio_output@@@2@@__crt_stdio_output@@AEAA_NXZ 00000001400274f8 f i libucrt:output.obj
 0001:00026510       ?state_case_precision@?$output_processor@DV?$stream_output_adapter@D@__crt_stdio_output@@V?$format_validation_base@DV?$stream_output_adapter@D@__crt_stdio_output@@@2@@__crt_stdio_output@@AEAA_NXZ 0000000140027510 f i libucrt:output.obj
 0001:00026540       ?state_case_precision@?$output_processor@DV?$stream_output_adapter@D@__crt_stdio_output@@V?$positional_parameter_base@DV?$stream_output_adapter@D@__crt_stdio_output@@@2@@__crt_stdio_output@@AEAA_NXZ 0000000140027540 f i libucrt:output.obj
 0001:0002658c       ?state_case_precision@?$output_processor@DV?$stream_output_adapter@D@__crt_stdio_output@@V?$standard_base@DV?$stream_output_adapter@D@__crt_stdio_output@@@2@@__crt_stdio_output@@AEAA_NXZ 000000014002758c f i libucrt:output.obj
 0001:000265bc       ?state_case_precision@?$output_processor@DV?$string_output_adapter@D@__crt_stdio_output@@V?$format_validation_base@DV?$string_output_adapter@D@__crt_stdio_output@@@2@@__crt_stdio_output@@AEAA_NXZ 00000001400275bc f i libucrt:output.obj
 0001:000265ec       ?state_case_precision@?$output_processor@DV?$string_output_adapter@D@__crt_stdio_output@@V?$positional_parameter_base@DV?$string_output_adapter@D@__crt_stdio_output@@@2@@__crt_stdio_output@@AEAA_NXZ 00000001400275ec f i libucrt:output.obj
 0001:00026638       ?state_case_precision@?$output_processor@DV?$string_output_adapter@D@__crt_stdio_output@@V?$standard_base@DV?$string_output_adapter@D@__crt_stdio_output@@@2@@__crt_stdio_output@@AEAA_NXZ 0000000140027638 f i libucrt:output.obj
 0001:00026668       ?state_case_precision@?$output_processor@_WV?$stream_output_adapter@_W@__crt_stdio_output@@V?$format_validation_base@_WV?$stream_output_adapter@_W@__crt_stdio_output@@@2@@__crt_stdio_output@@AEAA_NXZ 0000000140027668 f i libucrt:output.obj
 0001:0002669c       ?state_case_precision@?$output_processor@_WV?$stream_output_adapter@_W@__crt_stdio_output@@V?$positional_parameter_base@_WV?$stream_output_adapter@_W@__crt_stdio_output@@@2@@__crt_stdio_output@@AEAA_NXZ 000000014002769c f i libucrt:output.obj
 0001:000266e8       ?state_case_precision@?$output_processor@_WV?$stream_output_adapter@_W@__crt_stdio_output@@V?$standard_base@_WV?$stream_output_adapter@_W@__crt_stdio_output@@@2@@__crt_stdio_output@@AEAA_NXZ 00000001400276e8 f i libucrt:output.obj
 0001:0002671c       ?state_case_precision@?$output_processor@_WV?$string_output_adapter@_W@__crt_stdio_output@@V?$format_validation_base@_WV?$string_output_adapter@_W@__crt_stdio_output@@@2@@__crt_stdio_output@@AEAA_NXZ 000000014002771c f i libucrt:output.obj
 0001:00026750       ?state_case_precision@?$output_processor@_WV?$string_output_adapter@_W@__crt_stdio_output@@V?$positional_parameter_base@_WV?$string_output_adapter@_W@__crt_stdio_output@@@2@@__crt_stdio_output@@AEAA_NXZ 0000000140027750 f i libucrt:output.obj
 0001:0002679c       ?state_case_precision@?$output_processor@_WV?$string_output_adapter@_W@__crt_stdio_output@@V?$standard_base@_WV?$string_output_adapter@_W@__crt_stdio_output@@@2@@__crt_stdio_output@@AEAA_NXZ 000000014002779c f i libucrt:output.obj
 0001:000267d0       ?state_case_size@?$output_processor@DV?$stream_output_adapter@D@__crt_stdio_output@@V?$format_validation_base@DV?$stream_output_adapter@D@__crt_stdio_output@@@2@@__crt_stdio_output@@AEAA_NXZ 00000001400277d0 f i libucrt:output.obj
 0001:00026958       ?state_case_size@?$output_processor@DV?$stream_output_adapter@D@__crt_stdio_output@@V?$positional_parameter_base@DV?$stream_output_adapter@D@__crt_stdio_output@@@2@@__crt_stdio_output@@AEAA_NXZ 0000000140027958 f i libucrt:output.obj
 0001:00026ae0       ?state_case_size@?$output_processor@DV?$stream_output_adapter@D@__crt_stdio_output@@V?$standard_base@DV?$stream_output_adapter@D@__crt_stdio_output@@@2@@__crt_stdio_output@@AEAA_NXZ 0000000140027ae0 f i libucrt:output.obj
 0001:00026c68       ?state_case_size@?$output_processor@DV?$string_output_adapter@D@__crt_stdio_output@@V?$format_validation_base@DV?$string_output_adapter@D@__crt_stdio_output@@@2@@__crt_stdio_output@@AEAA_NXZ 0000000140027c68 f i libucrt:output.obj
 0001:00026df0       ?state_case_size@?$output_processor@DV?$string_output_adapter@D@__crt_stdio_output@@V?$positional_parameter_base@DV?$string_output_adapter@D@__crt_stdio_output@@@2@@__crt_stdio_output@@AEAA_NXZ 0000000140027df0 f i libucrt:output.obj
 0001:00026f78       ?state_case_size@?$output_processor@DV?$string_output_adapter@D@__crt_stdio_output@@V?$standard_base@DV?$string_output_adapter@D@__crt_stdio_output@@@2@@__crt_stdio_output@@AEAA_NXZ 0000000140027f78 f i libucrt:output.obj
 0001:00027100       ?state_case_size@?$output_processor@_WV?$stream_output_adapter@_W@__crt_stdio_output@@V?$format_validation_base@_WV?$stream_output_adapter@_W@__crt_stdio_output@@@2@@__crt_stdio_output@@AEAA_NXZ 0000000140028100 f i libucrt:output.obj
 0001:000272b0       ?state_case_size@?$output_processor@_WV?$stream_output_adapter@_W@__crt_stdio_output@@V?$positional_parameter_base@_WV?$stream_output_adapter@_W@__crt_stdio_output@@@2@@__crt_stdio_output@@AEAA_NXZ 00000001400282b0 f i libucrt:output.obj
 0001:00027460       ?state_case_size@?$output_processor@_WV?$stream_output_adapter@_W@__crt_stdio_output@@V?$standard_base@_WV?$stream_output_adapter@_W@__crt_stdio_output@@@2@@__crt_stdio_output@@AEAA_NXZ 0000000140028460 f i libucrt:output.obj
 0001:00027610       ?state_case_size@?$output_processor@_WV?$string_output_adapter@_W@__crt_stdio_output@@V?$format_validation_base@_WV?$string_output_adapter@_W@__crt_stdio_output@@@2@@__crt_stdio_output@@AEAA_NXZ 0000000140028610 f i libucrt:output.obj
 0001:000277c0       ?state_case_size@?$output_processor@_WV?$string_output_adapter@_W@__crt_stdio_output@@V?$positional_parameter_base@_WV?$string_output_adapter@_W@__crt_stdio_output@@@2@@__crt_stdio_output@@AEAA_NXZ 00000001400287c0 f i libucrt:output.obj
 0001:00027970       ?state_case_size@?$output_processor@_WV?$string_output_adapter@_W@__crt_stdio_output@@V?$standard_base@_WV?$string_output_adapter@_W@__crt_stdio_output@@@2@@__crt_stdio_output@@AEAA_NXZ 0000000140028970 f i libucrt:output.obj
 0001:00027b20       ?state_case_type@?$output_processor@DV?$stream_output_adapter@D@__crt_stdio_output@@V?$format_validation_base@DV?$stream_output_adapter@D@__crt_stdio_output@@@2@@__crt_stdio_output@@AEAA_NXZ 0000000140028b20 f i libucrt:output.obj
 0001:00027f58       ?state_case_type@?$output_processor@DV?$stream_output_adapter@D@__crt_stdio_output@@V?$positional_parameter_base@DV?$stream_output_adapter@D@__crt_stdio_output@@@2@@__crt_stdio_output@@AEAA_NXZ 0000000140028f58 f i libucrt:output.obj
 0001:000283c0       ?state_case_type@?$output_processor@DV?$stream_output_adapter@D@__crt_stdio_output@@V?$standard_base@DV?$stream_output_adapter@D@__crt_stdio_output@@@2@@__crt_stdio_output@@AEAA_NXZ 00000001400293c0 f i libucrt:output.obj
 0001:000287f8       ?state_case_type@?$output_processor@DV?$string_output_adapter@D@__crt_stdio_output@@V?$format_validation_base@DV?$string_output_adapter@D@__crt_stdio_output@@@2@@__crt_stdio_output@@AEAA_NXZ 00000001400297f8 f i libucrt:output.obj
 0001:00028bfc       ?state_case_type@?$output_processor@DV?$string_output_adapter@D@__crt_stdio_output@@V?$positional_parameter_base@DV?$string_output_adapter@D@__crt_stdio_output@@@2@@__crt_stdio_output@@AEAA_NXZ 0000000140029bfc f i libucrt:output.obj
 0001:00029014       ?state_case_type@?$output_processor@DV?$string_output_adapter@D@__crt_stdio_output@@V?$standard_base@DV?$string_output_adapter@D@__crt_stdio_output@@@2@@__crt_stdio_output@@AEAA_NXZ 000000014002a014 f i libucrt:output.obj
 0001:00029418       ?state_case_type@?$output_processor@_WV?$stream_output_adapter@_W@__crt_stdio_output@@V?$format_validation_base@_WV?$stream_output_adapter@_W@__crt_stdio_output@@@2@@__crt_stdio_output@@AEAA_NXZ 000000014002a418 f i libucrt:output.obj
 0001:000298dc       ?state_case_type@?$output_processor@_WV?$stream_output_adapter@_W@__crt_stdio_output@@V?$positional_parameter_base@_WV?$stream_output_adapter@_W@__crt_stdio_output@@@2@@__crt_stdio_output@@AEAA_NXZ 000000014002a8dc f i libucrt:output.obj
 0001:00029db8       ?state_case_type@?$output_processor@_WV?$stream_output_adapter@_W@__crt_stdio_output@@V?$standard_base@_WV?$stream_output_adapter@_W@__crt_stdio_output@@@2@@__crt_stdio_output@@AEAA_NXZ 000000014002adb8 f i libucrt:output.obj
 0001:0002a27c       ?state_case_type@?$output_processor@_WV?$string_output_adapter@_W@__crt_stdio_output@@V?$format_validation_base@_WV?$string_output_adapter@_W@__crt_stdio_output@@@2@@__crt_stdio_output@@AEAA_NXZ 000000014002b27c f i libucrt:output.obj
 0001:0002a6e0       ?state_case_type@?$output_processor@_WV?$string_output_adapter@_W@__crt_stdio_output@@V?$positional_parameter_base@_WV?$string_output_adapter@_W@__crt_stdio_output@@@2@@__crt_stdio_output@@AEAA_NXZ 000000014002b6e0 f i libucrt:output.obj
 0001:0002ab70       ?state_case_type@?$output_processor@_WV?$string_output_adapter@_W@__crt_stdio_output@@V?$standard_base@_WV?$string_output_adapter@_W@__crt_stdio_output@@@2@@__crt_stdio_output@@AEAA_NXZ 000000014002bb70 f i libucrt:output.obj
 0001:0002afd4       ?state_case_width@?$output_processor@DV?$stream_output_adapter@D@__crt_stdio_output@@V?$format_validation_base@DV?$stream_output_adapter@D@__crt_stdio_output@@@2@@__crt_stdio_output@@AEAA_NXZ 000000014002bfd4 f i libucrt:output.obj
 0001:0002b008       ?state_case_width@?$output_processor@DV?$stream_output_adapter@D@__crt_stdio_output@@V?$positional_parameter_base@DV?$stream_output_adapter@D@__crt_stdio_output@@@2@@__crt_stdio_output@@AEAA_NXZ 000000014002c008 f i libucrt:output.obj
 0001:0002b058       ?state_case_width@?$output_processor@DV?$stream_output_adapter@D@__crt_stdio_output@@V?$standard_base@DV?$stream_output_adapter@D@__crt_stdio_output@@@2@@__crt_stdio_output@@AEAA_NXZ 000000014002c058 f i libucrt:output.obj
 0001:0002b08c       ?state_case_width@?$output_processor@DV?$string_output_adapter@D@__crt_stdio_output@@V?$format_validation_base@DV?$string_output_adapter@D@__crt_stdio_output@@@2@@__crt_stdio_output@@AEAA_NXZ 000000014002c08c f i libucrt:output.obj
 0001:0002b0c0       ?state_case_width@?$output_processor@DV?$string_output_adapter@D@__crt_stdio_output@@V?$positional_parameter_base@DV?$string_output_adapter@D@__crt_stdio_output@@@2@@__crt_stdio_output@@AEAA_NXZ 000000014002c0c0 f i libucrt:output.obj
 0001:0002b110       ?state_case_width@?$output_processor@DV?$string_output_adapter@D@__crt_stdio_output@@V?$standard_base@DV?$string_output_adapter@D@__crt_stdio_output@@@2@@__crt_stdio_output@@AEAA_NXZ 000000014002c110 f i libucrt:output.obj
 0001:0002b144       ?state_case_width@?$output_processor@_WV?$stream_output_adapter@_W@__crt_stdio_output@@V?$format_validation_base@_WV?$stream_output_adapter@_W@__crt_stdio_output@@@2@@__crt_stdio_output@@AEAA_NXZ 000000014002c144 f i libucrt:output.obj
 0001:0002b178       ?state_case_width@?$output_processor@_WV?$stream_output_adapter@_W@__crt_stdio_output@@V?$positional_parameter_base@_WV?$stream_output_adapter@_W@__crt_stdio_output@@@2@@__crt_stdio_output@@AEAA_NXZ 000000014002c178 f i libucrt:output.obj
 0001:0002b1cc       ?state_case_width@?$output_processor@_WV?$stream_output_adapter@_W@__crt_stdio_output@@V?$standard_base@_WV?$stream_output_adapter@_W@__crt_stdio_output@@@2@@__crt_stdio_output@@AEAA_NXZ 000000014002c1cc f i libucrt:output.obj
 0001:0002b200       ?state_case_width@?$output_processor@_WV?$string_output_adapter@_W@__crt_stdio_output@@V?$format_validation_base@_WV?$string_output_adapter@_W@__crt_stdio_output@@@2@@__crt_stdio_output@@AEAA_NXZ 000000014002c200 f i libucrt:output.obj
 0001:0002b234       ?state_case_width@?$output_processor@_WV?$string_output_adapter@_W@__crt_stdio_output@@V?$positional_parameter_base@_WV?$string_output_adapter@_W@__crt_stdio_output@@@2@@__crt_stdio_output@@AEAA_NXZ 000000014002c234 f i libucrt:output.obj
 0001:0002b288       ?state_case_width@?$output_processor@_WV?$string_output_adapter@_W@__crt_stdio_output@@V?$standard_base@_WV?$string_output_adapter@_W@__crt_stdio_output@@@2@@__crt_stdio_output@@AEAA_NXZ 000000014002c288 f i libucrt:output.obj
 0001:0002b2bc       ?state_count@?$format_validation_base@DV?$stream_output_adapter@D@__crt_stdio_output@@@__crt_stdio_output@@KAIXZ 000000014002c2bc f i libucrt:output.obj
 0001:0002b2c4       ?state_count@?$format_validation_base@DV?$string_output_adapter@D@__crt_stdio_output@@@__crt_stdio_output@@KAIXZ 000000014002c2c4 f i libucrt:output.obj
 0001:0002b2cc       ?state_count@?$format_validation_base@_WV?$stream_output_adapter@_W@__crt_stdio_output@@@__crt_stdio_output@@KAIXZ 000000014002c2cc f i libucrt:output.obj
 0001:0002b2d4       ?state_count@?$format_validation_base@_WV?$string_output_adapter@_W@__crt_stdio_output@@@__crt_stdio_output@@KAIXZ 000000014002c2d4 f i libucrt:output.obj
 0001:0002b2dc       ?state_count@?$standard_base@DV?$stream_output_adapter@D@__crt_stdio_output@@@__crt_stdio_output@@KAIXZ 000000014002c2dc f i libucrt:output.obj
 0001:0002b2e4       ?state_count@?$standard_base@DV?$string_output_adapter@D@__crt_stdio_output@@@__crt_stdio_output@@KAIXZ 000000014002c2e4 f i libucrt:output.obj
 0001:0002b2ec       ?state_count@?$standard_base@_WV?$stream_output_adapter@_W@__crt_stdio_output@@@__crt_stdio_output@@KAIXZ 000000014002c2ec f i libucrt:output.obj
 0001:0002b2f4       ?state_count@?$standard_base@_WV?$string_output_adapter@_W@__crt_stdio_output@@@__crt_stdio_output@@KAIXZ 000000014002c2f4 f i libucrt:output.obj
 0001:0002b2fc       ?state_transition_table@?$format_validation_base@DV?$stream_output_adapter@D@__crt_stdio_output@@@__crt_stdio_output@@KAAEBV?$spectre_mitigated_lookup_table@Ustate_transition_pair@__crt_stdio_output@@$0IA@@2@XZ 000000014002c2fc f i libucrt:output.obj
 0001:0002b304       ?state_transition_table@?$format_validation_base@DV?$string_output_adapter@D@__crt_stdio_output@@@__crt_stdio_output@@KAAEBV?$spectre_mitigated_lookup_table@Ustate_transition_pair@__crt_stdio_output@@$0IA@@2@XZ 000000014002c304 f i libucrt:output.obj
 0001:0002b30c       ?state_transition_table@?$format_validation_base@_WV?$stream_output_adapter@_W@__crt_stdio_output@@@__crt_stdio_output@@KAAEBV?$spectre_mitigated_lookup_table@Ustate_transition_pair@__crt_stdio_output@@$0IA@@2@XZ 000000014002c30c f i libucrt:output.obj
 0001:0002b314       ?state_transition_table@?$format_validation_base@_WV?$string_output_adapter@_W@__crt_stdio_output@@@__crt_stdio_output@@KAAEBV?$spectre_mitigated_lookup_table@Ustate_transition_pair@__crt_stdio_output@@$0IA@@2@XZ 000000014002c314 f i libucrt:output.obj
 0001:0002b31c       ?state_transition_table@?$standard_base@DV?$stream_output_adapter@D@__crt_stdio_output@@@__crt_stdio_output@@KAAEBV?$spectre_mitigated_lookup_table@Ustate_transition_pair@__crt_stdio_output@@$0IA@@2@XZ 000000014002c31c f i libucrt:output.obj
 0001:0002b324       ?state_transition_table@?$standard_base@DV?$string_output_adapter@D@__crt_stdio_output@@@__crt_stdio_output@@KAAEBV?$spectre_mitigated_lookup_table@Ustate_transition_pair@__crt_stdio_output@@$0IA@@2@XZ 000000014002c324 f i libucrt:output.obj
 0001:0002b32c       ?state_transition_table@?$standard_base@_WV?$stream_output_adapter@_W@__crt_stdio_output@@@__crt_stdio_output@@KAAEBV?$spectre_mitigated_lookup_table@Ustate_transition_pair@__crt_stdio_output@@$0IA@@2@XZ 000000014002c32c f i libucrt:output.obj
 0001:0002b334       ?state_transition_table@?$standard_base@_WV?$string_output_adapter@_W@__crt_stdio_output@@@__crt_stdio_output@@KAAEBV?$spectre_mitigated_lookup_table@Ustate_transition_pair@__crt_stdio_output@@$0IA@@2@XZ 000000014002c334 f i libucrt:output.obj
 0001:0002b33c       ?tchar_string@?$common_data@D@__crt_stdio_output@@IEAAAEAPEADD@Z 000000014002c33c f i libucrt:output.obj
 0001:0002b344       ?tchar_string@?$common_data@D@__crt_stdio_output@@IEAAAEAPEADXZ 000000014002c344 f i libucrt:output.obj
 0001:0002b34c       ?tchar_string@?$common_data@_W@__crt_stdio_output@@IEAAAEAPEA_WXZ 000000014002c34c f i libucrt:output.obj
 0001:0002b354       ?tchar_string@?$common_data@_W@__crt_stdio_output@@IEAAAEAPEA_W_W@Z 000000014002c354 f i libucrt:output.obj
 0001:0002b35c       ?to_integer_size@__crt_stdio_output@@YA_KW4length_modifier@1@@Z 000000014002c35c f i libucrt:output.obj
 0001:0002b3a4       ?type_case_X@?$output_processor@DV?$stream_output_adapter@D@__crt_stdio_output@@V?$format_validation_base@DV?$stream_output_adapter@D@__crt_stdio_output@@@2@@__crt_stdio_output@@AEAA_NXZ 000000014002c3a4 f i libucrt:output.obj
 0001:0002b3ac       ?type_case_X@?$output_processor@DV?$stream_output_adapter@D@__crt_stdio_output@@V?$positional_parameter_base@DV?$stream_output_adapter@D@__crt_stdio_output@@@2@@__crt_stdio_output@@AEAA_NXZ 000000014002c3ac f i libucrt:output.obj
 0001:0002b3b4       ?type_case_X@?$output_processor@DV?$stream_output_adapter@D@__crt_stdio_output@@V?$standard_base@DV?$stream_output_adapter@D@__crt_stdio_output@@@2@@__crt_stdio_output@@AEAA_NXZ 000000014002c3b4 f i libucrt:output.obj
 0001:0002b3bc       ?type_case_X@?$output_processor@DV?$string_output_adapter@D@__crt_stdio_output@@V?$format_validation_base@DV?$string_output_adapter@D@__crt_stdio_output@@@2@@__crt_stdio_output@@AEAA_NXZ 000000014002c3bc f i libucrt:output.obj
 0001:0002b3c4       ?type_case_X@?$output_processor@DV?$string_output_adapter@D@__crt_stdio_output@@V?$positional_parameter_base@DV?$string_output_adapter@D@__crt_stdio_output@@@2@@__crt_stdio_output@@AEAA_NXZ 000000014002c3c4 f i libucrt:output.obj
 0001:0002b3cc       ?type_case_X@?$output_processor@DV?$string_output_adapter@D@__crt_stdio_output@@V?$standard_base@DV?$string_output_adapter@D@__crt_stdio_output@@@2@@__crt_stdio_output@@AEAA_NXZ 000000014002c3cc f i libucrt:output.obj
 0001:0002b3d4       ?type_case_X@?$output_processor@_WV?$stream_output_adapter@_W@__crt_stdio_output@@V?$format_validation_base@_WV?$stream_output_adapter@_W@__crt_stdio_output@@@2@@__crt_stdio_output@@AEAA_NXZ 000000014002c3d4 f i libucrt:output.obj
 0001:0002b3dc       ?type_case_X@?$output_processor@_WV?$stream_output_adapter@_W@__crt_stdio_output@@V?$positional_parameter_base@_WV?$stream_output_adapter@_W@__crt_stdio_output@@@2@@__crt_stdio_output@@AEAA_NXZ 000000014002c3dc f i libucrt:output.obj
 0001:0002b3e4       ?type_case_X@?$output_processor@_WV?$stream_output_adapter@_W@__crt_stdio_output@@V?$standard_base@_WV?$stream_output_adapter@_W@__crt_stdio_output@@@2@@__crt_stdio_output@@AEAA_NXZ 000000014002c3e4 f i libucrt:output.obj
 0001:0002b3ec       ?type_case_X@?$output_processor@_WV?$string_output_adapter@_W@__crt_stdio_output@@V?$format_validation_base@_WV?$string_output_adapter@_W@__crt_stdio_output@@@2@@__crt_stdio_output@@AEAA_NXZ 000000014002c3ec f i libucrt:output.obj
 0001:0002b3f4       ?type_case_X@?$output_processor@_WV?$string_output_adapter@_W@__crt_stdio_output@@V?$positional_parameter_base@_WV?$string_output_adapter@_W@__crt_stdio_output@@@2@@__crt_stdio_output@@AEAA_NXZ 000000014002c3f4 f i libucrt:output.obj
 0001:0002b3fc       ?type_case_X@?$output_processor@_WV?$string_output_adapter@_W@__crt_stdio_output@@V?$standard_base@_WV?$string_output_adapter@_W@__crt_stdio_output@@@2@@__crt_stdio_output@@AEAA_NXZ 000000014002c3fc f i libucrt:output.obj
 0001:0002b404       ?type_case_Z@?$output_processor@DV?$stream_output_adapter@D@__crt_stdio_output@@V?$format_validation_base@DV?$stream_output_adapter@D@__crt_stdio_output@@@2@@__crt_stdio_output@@AEAA_NXZ 000000014002c404 f i libucrt:output.obj
 0001:0002b480       ?type_case_Z@?$output_processor@DV?$stream_output_adapter@D@__crt_stdio_output@@V?$positional_parameter_base@DV?$stream_output_adapter@D@__crt_stdio_output@@@2@@__crt_stdio_output@@AEAA_NXZ 000000014002c480 f i libucrt:output.obj
 0001:0002b528       ?type_case_Z@?$output_processor@DV?$stream_output_adapter@D@__crt_stdio_output@@V?$standard_base@DV?$stream_output_adapter@D@__crt_stdio_output@@@2@@__crt_stdio_output@@AEAA_NXZ 000000014002c528 f i libucrt:output.obj
 0001:0002b5a4       ?type_case_Z@?$output_processor@DV?$string_output_adapter@D@__crt_stdio_output@@V?$format_validation_base@DV?$string_output_adapter@D@__crt_stdio_output@@@2@@__crt_stdio_output@@AEAA_NXZ 000000014002c5a4 f i libucrt:output.obj
 0001:0002b620       ?type_case_Z@?$output_processor@DV?$string_output_adapter@D@__crt_stdio_output@@V?$positional_parameter_base@DV?$string_output_adapter@D@__crt_stdio_output@@@2@@__crt_stdio_output@@AEAA_NXZ 000000014002c620 f i libucrt:output.obj
 0001:0002b6c8       ?type_case_Z@?$output_processor@DV?$string_output_adapter@D@__crt_stdio_output@@V?$standard_base@DV?$string_output_adapter@D@__crt_stdio_output@@@2@@__crt_stdio_output@@AEAA_NXZ 000000014002c6c8 f i libucrt:output.obj
 0001:0002b744       ?type_case_Z@?$output_processor@_WV?$stream_output_adapter@_W@__crt_stdio_output@@V?$format_validation_base@_WV?$stream_output_adapter@_W@__crt_stdio_output@@@2@@__crt_stdio_output@@AEAA_NXZ 000000014002c744 f i libucrt:output.obj
 0001:0002b7c4       ?type_case_Z@?$output_processor@_WV?$stream_output_adapter@_W@__crt_stdio_output@@V?$positional_parameter_base@_WV?$stream_output_adapter@_W@__crt_stdio_output@@@2@@__crt_stdio_output@@AEAA_NXZ 000000014002c7c4 f i libucrt:output.obj
 0001:0002b85c       ?type_case_Z@?$output_processor@_WV?$stream_output_adapter@_W@__crt_stdio_output@@V?$standard_base@_WV?$stream_output_adapter@_W@__crt_stdio_output@@@2@@__crt_stdio_output@@AEAA_NXZ 000000014002c85c f i libucrt:output.obj
 0001:0002b8dc       ?type_case_Z@?$output_processor@_WV?$string_output_adapter@_W@__crt_stdio_output@@V?$format_validation_base@_WV?$string_output_adapter@_W@__crt_stdio_output@@@2@@__crt_stdio_output@@AEAA_NXZ 000000014002c8dc f i libucrt:output.obj
 0001:0002b95c       ?type_case_Z@?$output_processor@_WV?$string_output_adapter@_W@__crt_stdio_output@@V?$positional_parameter_base@_WV?$string_output_adapter@_W@__crt_stdio_output@@@2@@__crt_stdio_output@@AEAA_NXZ 000000014002c95c f i libucrt:output.obj
 0001:0002b9f4       ?type_case_Z@?$output_processor@_WV?$string_output_adapter@_W@__crt_stdio_output@@V?$standard_base@_WV?$string_output_adapter@_W@__crt_stdio_output@@@2@@__crt_stdio_output@@AEAA_NXZ 000000014002c9f4 f i libucrt:output.obj
 0001:0002ba74       ?type_case_a@?$output_processor@DV?$stream_output_adapter@D@__crt_stdio_output@@V?$format_validation_base@DV?$stream_output_adapter@D@__crt_stdio_output@@@2@@__crt_stdio_output@@AEAA_NXZ 000000014002ca74 f i libucrt:output.obj
 0001:0002bcc8       ?type_case_a@?$output_processor@DV?$stream_output_adapter@D@__crt_stdio_output@@V?$positional_parameter_base@DV?$stream_output_adapter@D@__crt_stdio_output@@@2@@__crt_stdio_output@@AEAA_NXZ 000000014002ccc8 f i libucrt:output.obj
 0001:0002bf44       ?type_case_a@?$output_processor@DV?$stream_output_adapter@D@__crt_stdio_output@@V?$standard_base@DV?$stream_output_adapter@D@__crt_stdio_output@@@2@@__crt_stdio_output@@AEAA_NXZ 000000014002cf44 f i libucrt:output.obj
 0001:0002c198       ?type_case_a@?$output_processor@DV?$string_output_adapter@D@__crt_stdio_output@@V?$format_validation_base@DV?$string_output_adapter@D@__crt_stdio_output@@@2@@__crt_stdio_output@@AEAA_NXZ 000000014002d198 f i libucrt:output.obj
 0001:0002c3ec       ?type_case_a@?$output_processor@DV?$string_output_adapter@D@__crt_stdio_output@@V?$positional_parameter_base@DV?$string_output_adapter@D@__crt_stdio_output@@@2@@__crt_stdio_output@@AEAA_NXZ 000000014002d3ec f i libucrt:output.obj
 0001:0002c668       ?type_case_a@?$output_processor@DV?$string_output_adapter@D@__crt_stdio_output@@V?$standard_base@DV?$string_output_adapter@D@__crt_stdio_output@@@2@@__crt_stdio_output@@AEAA_NXZ 000000014002d668 f i libucrt:output.obj
 0001:0002c8bc       ?type_case_a@?$output_processor@_WV?$stream_output_adapter@_W@__crt_stdio_output@@V?$format_validation_base@_WV?$stream_output_adapter@_W@__crt_stdio_output@@@2@@__crt_stdio_output@@AEAA_NXZ 000000014002d8bc f i libucrt:output.obj
 0001:0002cb24       ?type_case_a@?$output_processor@_WV?$stream_output_adapter@_W@__crt_stdio_output@@V?$positional_parameter_base@_WV?$stream_output_adapter@_W@__crt_stdio_output@@@2@@__crt_stdio_output@@AEAA_NXZ 000000014002db24 f i libucrt:output.obj
 0001:0002cdb8       ?type_case_a@?$output_processor@_WV?$stream_output_adapter@_W@__crt_stdio_output@@V?$standard_base@_WV?$stream_output_adapter@_W@__crt_stdio_output@@@2@@__crt_stdio_output@@AEAA_NXZ 000000014002ddb8 f i libucrt:output.obj
 0001:0002d020       ?type_case_a@?$output_processor@_WV?$string_output_adapter@_W@__crt_stdio_output@@V?$format_validation_base@_WV?$string_output_adapter@_W@__crt_stdio_output@@@2@@__crt_stdio_output@@AEAA_NXZ 000000014002e020 f i libucrt:output.obj
 0001:0002d288       ?type_case_a@?$output_processor@_WV?$string_output_adapter@_W@__crt_stdio_output@@V?$positional_parameter_base@_WV?$string_output_adapter@_W@__crt_stdio_output@@@2@@__crt_stdio_output@@AEAA_NXZ 000000014002e288 f i libucrt:output.obj
 0001:0002d51c       ?type_case_a@?$output_processor@_WV?$string_output_adapter@_W@__crt_stdio_output@@V?$standard_base@_WV?$string_output_adapter@_W@__crt_stdio_output@@@2@@__crt_stdio_output@@AEAA_NXZ 000000014002e51c f i libucrt:output.obj
 0001:0002d784       ?type_case_c@?$output_processor@DV?$stream_output_adapter@D@__crt_stdio_output@@V?$format_validation_base@DV?$stream_output_adapter@D@__crt_stdio_output@@@2@@__crt_stdio_output@@AEAA_NXZ 000000014002e784 f i libucrt:output.obj
 0001:0002d78c       ?type_case_c@?$output_processor@DV?$stream_output_adapter@D@__crt_stdio_output@@V?$positional_parameter_base@DV?$stream_output_adapter@D@__crt_stdio_output@@@2@@__crt_stdio_output@@AEAA_NXZ 000000014002e78c f i libucrt:output.obj
 0001:0002d794       ?type_case_c@?$output_processor@DV?$stream_output_adapter@D@__crt_stdio_output@@V?$standard_base@DV?$stream_output_adapter@D@__crt_stdio_output@@@2@@__crt_stdio_output@@AEAA_NXZ 000000014002e794 f i libucrt:output.obj
 0001:0002d79c       ?type_case_c@?$output_processor@DV?$string_output_adapter@D@__crt_stdio_output@@V?$format_validation_base@DV?$string_output_adapter@D@__crt_stdio_output@@@2@@__crt_stdio_output@@AEAA_NXZ 000000014002e79c f i libucrt:output.obj
 0001:0002d7a4       ?type_case_c@?$output_processor@DV?$string_output_adapter@D@__crt_stdio_output@@V?$positional_parameter_base@DV?$string_output_adapter@D@__crt_stdio_output@@@2@@__crt_stdio_output@@AEAA_NXZ 000000014002e7a4 f i libucrt:output.obj
 0001:0002d7ac       ?type_case_c@?$output_processor@DV?$string_output_adapter@D@__crt_stdio_output@@V?$standard_base@DV?$string_output_adapter@D@__crt_stdio_output@@@2@@__crt_stdio_output@@AEAA_NXZ 000000014002e7ac f i libucrt:output.obj
 0001:0002d7b4       ?type_case_c@?$output_processor@_WV?$stream_output_adapter@_W@__crt_stdio_output@@V?$format_validation_base@_WV?$stream_output_adapter@_W@__crt_stdio_output@@@2@@__crt_stdio_output@@AEAA_NXZ 000000014002e7b4 f i libucrt:output.obj
 0001:0002d7bc       ?type_case_c@?$output_processor@_WV?$stream_output_adapter@_W@__crt_stdio_output@@V?$positional_parameter_base@_WV?$stream_output_adapter@_W@__crt_stdio_output@@@2@@__crt_stdio_output@@AEAA_NXZ 000000014002e7bc f i libucrt:output.obj
 0001:0002d7c4       ?type_case_c@?$output_processor@_WV?$stream_output_adapter@_W@__crt_stdio_output@@V?$standard_base@_WV?$stream_output_adapter@_W@__crt_stdio_output@@@2@@__crt_stdio_output@@AEAA_NXZ 000000014002e7c4 f i libucrt:output.obj
 0001:0002d7cc       ?type_case_c@?$output_processor@_WV?$string_output_adapter@_W@__crt_stdio_output@@V?$format_validation_base@_WV?$string_output_adapter@_W@__crt_stdio_output@@@2@@__crt_stdio_output@@AEAA_NXZ 000000014002e7cc f i libucrt:output.obj
 0001:0002d7d4       ?type_case_c@?$output_processor@_WV?$string_output_adapter@_W@__crt_stdio_output@@V?$positional_parameter_base@_WV?$string_output_adapter@_W@__crt_stdio_output@@@2@@__crt_stdio_output@@AEAA_NXZ 000000014002e7d4 f i libucrt:output.obj
 0001:0002d7dc       ?type_case_c@?$output_processor@_WV?$string_output_adapter@_W@__crt_stdio_output@@V?$standard_base@_WV?$string_output_adapter@_W@__crt_stdio_output@@@2@@__crt_stdio_output@@AEAA_NXZ 000000014002e7dc f i libucrt:output.obj
 0001:0002d7e4       ?type_case_c_tchar@?$output_processor@DV?$stream_output_adapter@D@__crt_stdio_output@@V?$format_validation_base@DV?$stream_output_adapter@D@__crt_stdio_output@@@2@@__crt_stdio_output@@AEAA_ND@Z 000000014002e7e4 f i libucrt:output.obj
 0001:0002d8b8       ?type_case_c_tchar@?$output_processor@DV?$stream_output_adapter@D@__crt_stdio_output@@V?$positional_parameter_base@DV?$stream_output_adapter@D@__crt_stdio_output@@@2@@__crt_stdio_output@@AEAA_ND@Z 000000014002e8b8 f i libucrt:output.obj
 0001:0002d9d4       ?type_case_c_tchar@?$output_processor@DV?$stream_output_adapter@D@__crt_stdio_output@@V?$standard_base@DV?$stream_output_adapter@D@__crt_stdio_output@@@2@@__crt_stdio_output@@AEAA_ND@Z 000000014002e9d4 f i libucrt:output.obj
 0001:0002daa8       ?type_case_c_tchar@?$output_processor@DV?$string_output_adapter@D@__crt_stdio_output@@V?$format_validation_base@DV?$string_output_adapter@D@__crt_stdio_output@@@2@@__crt_stdio_output@@AEAA_ND@Z 000000014002eaa8 f i libucrt:output.obj
 0001:0002db7c       ?type_case_c_tchar@?$output_processor@DV?$string_output_adapter@D@__crt_stdio_output@@V?$positional_parameter_base@DV?$string_output_adapter@D@__crt_stdio_output@@@2@@__crt_stdio_output@@AEAA_ND@Z 000000014002eb7c f i libucrt:output.obj
 0001:0002dc98       ?type_case_c_tchar@?$output_processor@DV?$string_output_adapter@D@__crt_stdio_output@@V?$standard_base@DV?$string_output_adapter@D@__crt_stdio_output@@@2@@__crt_stdio_output@@AEAA_ND@Z 000000014002ec98 f i libucrt:output.obj
 0001:0002dd6c       ?type_case_c_tchar@?$output_processor@_WV?$stream_output_adapter@_W@__crt_stdio_output@@V?$format_validation_base@_WV?$stream_output_adapter@_W@__crt_stdio_output@@@2@@__crt_stdio_output@@AEAA_N_W@Z 000000014002ed6c f i libucrt:output.obj
 0001:0002de30       ?type_case_c_tchar@?$output_processor@_WV?$stream_output_adapter@_W@__crt_stdio_output@@V?$positional_parameter_base@_WV?$stream_output_adapter@_W@__crt_stdio_output@@@2@@__crt_stdio_output@@AEAA_N_W@Z 000000014002ee30 f i libucrt:output.obj
 0001:0002df28       ?type_case_c_tchar@?$output_processor@_WV?$stream_output_adapter@_W@__crt_stdio_output@@V?$standard_base@_WV?$stream_output_adapter@_W@__crt_stdio_output@@@2@@__crt_stdio_output@@AEAA_N_W@Z 000000014002ef28 f i libucrt:output.obj
 0001:0002dfec       ?type_case_c_tchar@?$output_processor@_WV?$string_output_adapter@_W@__crt_stdio_output@@V?$format_validation_base@_WV?$string_output_adapter@_W@__crt_stdio_output@@@2@@__crt_stdio_output@@AEAA_N_W@Z 000000014002efec f i libucrt:output.obj
 0001:0002e0b0       ?type_case_c_tchar@?$output_processor@_WV?$string_output_adapter@_W@__crt_stdio_output@@V?$positional_parameter_base@_WV?$string_output_adapter@_W@__crt_stdio_output@@@2@@__crt_stdio_output@@AEAA_N_W@Z 000000014002f0b0 f i libucrt:output.obj
 0001:0002e1a8       ?type_case_c_tchar@?$output_processor@_WV?$string_output_adapter@_W@__crt_stdio_output@@V?$standard_base@_WV?$string_output_adapter@_W@__crt_stdio_output@@@2@@__crt_stdio_output@@AEAA_N_W@Z 000000014002f1a8 f i libucrt:output.obj
 0001:0002e26c       ?type_case_d@?$output_processor@DV?$stream_output_adapter@D@__crt_stdio_output@@V?$format_validation_base@DV?$stream_output_adapter@D@__crt_stdio_output@@@2@@__crt_stdio_output@@AEAA_NXZ 000000014002f26c f i libucrt:output.obj
 0001:0002e278       ?type_case_d@?$output_processor@DV?$stream_output_adapter@D@__crt_stdio_output@@V?$positional_parameter_base@DV?$stream_output_adapter@D@__crt_stdio_output@@@2@@__crt_stdio_output@@AEAA_NXZ 000000014002f278 f i libucrt:output.obj
 0001:0002e284       ?type_case_d@?$output_processor@DV?$stream_output_adapter@D@__crt_stdio_output@@V?$standard_base@DV?$stream_output_adapter@D@__crt_stdio_output@@@2@@__crt_stdio_output@@AEAA_NXZ 000000014002f284 f i libucrt:output.obj
 0001:0002e290       ?type_case_d@?$output_processor@DV?$string_output_adapter@D@__crt_stdio_output@@V?$format_validation_base@DV?$string_output_adapter@D@__crt_stdio_output@@@2@@__crt_stdio_output@@AEAA_NXZ 000000014002f290 f i libucrt:output.obj
 0001:0002e29c       ?type_case_d@?$output_processor@DV?$string_output_adapter@D@__crt_stdio_output@@V?$positional_parameter_base@DV?$string_output_adapter@D@__crt_stdio_output@@@2@@__crt_stdio_output@@AEAA_NXZ 000000014002f29c f i libucrt:output.obj
 0001:0002e2a8       ?type_case_d@?$output_processor@DV?$string_output_adapter@D@__crt_stdio_output@@V?$standard_base@DV?$string_output_adapter@D@__crt_stdio_output@@@2@@__crt_stdio_output@@AEAA_NXZ 000000014002f2a8 f i libucrt:output.obj
 0001:0002e2b4       ?type_case_d@?$output_processor@_WV?$stream_output_adapter@_W@__crt_stdio_output@@V?$format_validation_base@_WV?$stream_output_adapter@_W@__crt_stdio_output@@@2@@__crt_stdio_output@@AEAA_NXZ 000000014002f2b4 f i libucrt:output.obj
 0001:0002e2c0       ?type_case_d@?$output_processor@_WV?$stream_output_adapter@_W@__crt_stdio_output@@V?$positional_parameter_base@_WV?$stream_output_adapter@_W@__crt_stdio_output@@@2@@__crt_stdio_output@@AEAA_NXZ 000000014002f2c0 f i libucrt:output.obj
 0001:0002e2cc       ?type_case_d@?$output_processor@_WV?$stream_output_adapter@_W@__crt_stdio_output@@V?$standard_base@_WV?$stream_output_adapter@_W@__crt_stdio_output@@@2@@__crt_stdio_output@@AEAA_NXZ 000000014002f2cc f i libucrt:output.obj
 0001:0002e2d8       ?type_case_d@?$output_processor@_WV?$string_output_adapter@_W@__crt_stdio_output@@V?$format_validation_base@_WV?$string_output_adapter@_W@__crt_stdio_output@@@2@@__crt_stdio_output@@AEAA_NXZ 000000014002f2d8 f i libucrt:output.obj
 0001:0002e2e4       ?type_case_d@?$output_processor@_WV?$string_output_adapter@_W@__crt_stdio_output@@V?$positional_parameter_base@_WV?$string_output_adapter@_W@__crt_stdio_output@@@2@@__crt_stdio_output@@AEAA_NXZ 000000014002f2e4 f i libucrt:output.obj
 0001:0002e2f0       ?type_case_d@?$output_processor@_WV?$string_output_adapter@_W@__crt_stdio_output@@V?$standard_base@_WV?$string_output_adapter@_W@__crt_stdio_output@@@2@@__crt_stdio_output@@AEAA_NXZ 000000014002f2f0 f i libucrt:output.obj
 0001:0002e2fc       ?type_case_n@?$output_processor@DV?$stream_output_adapter@D@__crt_stdio_output@@V?$format_validation_base@DV?$stream_output_adapter@D@__crt_stdio_output@@@2@@__crt_stdio_output@@AEAA_NXZ 000000014002f2fc f i libucrt:output.obj
 0001:0002e3b4       ?type_case_n@?$output_processor@DV?$stream_output_adapter@D@__crt_stdio_output@@V?$positional_parameter_base@DV?$stream_output_adapter@D@__crt_stdio_output@@@2@@__crt_stdio_output@@AEAA_NXZ 000000014002f3b4 f i libucrt:output.obj
 0001:0002e498       ?type_case_n@?$output_processor@DV?$stream_output_adapter@D@__crt_stdio_output@@V?$standard_base@DV?$stream_output_adapter@D@__crt_stdio_output@@@2@@__crt_stdio_output@@AEAA_NXZ 000000014002f498 f i libucrt:output.obj
 0001:0002e550       ?type_case_n@?$output_processor@DV?$string_output_adapter@D@__crt_stdio_output@@V?$format_validation_base@DV?$string_output_adapter@D@__crt_stdio_output@@@2@@__crt_stdio_output@@AEAA_NXZ 000000014002f550 f i libucrt:output.obj
 0001:0002e608       ?type_case_n@?$output_processor@DV?$string_output_adapter@D@__crt_stdio_output@@V?$positional_parameter_base@DV?$string_output_adapter@D@__crt_stdio_output@@@2@@__crt_stdio_output@@AEAA_NXZ 000000014002f608 f i libucrt:output.obj
 0001:0002e6ec       ?type_case_n@?$output_processor@DV?$string_output_adapter@D@__crt_stdio_output@@V?$standard_base@DV?$string_output_adapter@D@__crt_stdio_output@@@2@@__crt_stdio_output@@AEAA_NXZ 000000014002f6ec f i libucrt:output.obj
 0001:0002e7a4       ?type_case_n@?$output_processor@_WV?$stream_output_adapter@_W@__crt_stdio_output@@V?$format_validation_base@_WV?$stream_output_adapter@_W@__crt_stdio_output@@@2@@__crt_stdio_output@@AEAA_NXZ 000000014002f7a4 f i libucrt:output.obj
 0001:0002e85c       ?type_case_n@?$output_processor@_WV?$stream_output_adapter@_W@__crt_stdio_output@@V?$positional_parameter_base@_WV?$stream_output_adapter@_W@__crt_stdio_output@@@2@@__crt_stdio_output@@AEAA_NXZ 000000014002f85c f i libucrt:output.obj
 0001:0002e940       ?type_case_n@?$output_processor@_WV?$stream_output_adapter@_W@__crt_stdio_output@@V?$standard_base@_WV?$stream_output_adapter@_W@__crt_stdio_output@@@2@@__crt_stdio_output@@AEAA_NXZ 000000014002f940 f i libucrt:output.obj
 0001:0002e9f8       ?type_case_n@?$output_processor@_WV?$string_output_adapter@_W@__crt_stdio_output@@V?$format_validation_base@_WV?$string_output_adapter@_W@__crt_stdio_output@@@2@@__crt_stdio_output@@AEAA_NXZ 000000014002f9f8 f i libucrt:output.obj
 0001:0002eab0       ?type_case_n@?$output_processor@_WV?$string_output_adapter@_W@__crt_stdio_output@@V?$positional_parameter_base@_WV?$string_output_adapter@_W@__crt_stdio_output@@@2@@__crt_stdio_output@@AEAA_NXZ 000000014002fab0 f i libucrt:output.obj
 0001:0002eb94       ?type_case_n@?$output_processor@_WV?$string_output_adapter@_W@__crt_stdio_output@@V?$standard_base@_WV?$string_output_adapter@_W@__crt_stdio_output@@@2@@__crt_stdio_output@@AEAA_NXZ 000000014002fb94 f i libucrt:output.obj
 0001:0002ec4c       ?type_case_o@?$output_processor@DV?$stream_output_adapter@D@__crt_stdio_output@@V?$format_validation_base@DV?$stream_output_adapter@D@__crt_stdio_output@@@2@@__crt_stdio_output@@AEAA_NXZ 000000014002fc4c f i libucrt:output.obj
 0001:0002ec68       ?type_case_o@?$output_processor@DV?$stream_output_adapter@D@__crt_stdio_output@@V?$positional_parameter_base@DV?$stream_output_adapter@D@__crt_stdio_output@@@2@@__crt_stdio_output@@AEAA_NXZ 000000014002fc68 f i libucrt:output.obj
 0001:0002ec84       ?type_case_o@?$output_processor@DV?$stream_output_adapter@D@__crt_stdio_output@@V?$standard_base@DV?$stream_output_adapter@D@__crt_stdio_output@@@2@@__crt_stdio_output@@AEAA_NXZ 000000014002fc84 f i libucrt:output.obj
 0001:0002eca0       ?type_case_o@?$output_processor@DV?$string_output_adapter@D@__crt_stdio_output@@V?$format_validation_base@DV?$string_output_adapter@D@__crt_stdio_output@@@2@@__crt_stdio_output@@AEAA_NXZ 000000014002fca0 f i libucrt:output.obj
 0001:0002ecbc       ?type_case_o@?$output_processor@DV?$string_output_adapter@D@__crt_stdio_output@@V?$positional_parameter_base@DV?$string_output_adapter@D@__crt_stdio_output@@@2@@__crt_stdio_output@@AEAA_NXZ 000000014002fcbc f i libucrt:output.obj
 0001:0002ecd8       ?type_case_o@?$output_processor@DV?$string_output_adapter@D@__crt_stdio_output@@V?$standard_base@DV?$string_output_adapter@D@__crt_stdio_output@@@2@@__crt_stdio_output@@AEAA_NXZ 000000014002fcd8 f i libucrt:output.obj
 0001:0002ecf4       ?type_case_o@?$output_processor@_WV?$stream_output_adapter@_W@__crt_stdio_output@@V?$format_validation_base@_WV?$stream_output_adapter@_W@__crt_stdio_output@@@2@@__crt_stdio_output@@AEAA_NXZ 000000014002fcf4 f i libucrt:output.obj
 0001:0002ed10       ?type_case_o@?$output_processor@_WV?$stream_output_adapter@_W@__crt_stdio_output@@V?$positional_parameter_base@_WV?$stream_output_adapter@_W@__crt_stdio_output@@@2@@__crt_stdio_output@@AEAA_NXZ 000000014002fd10 f i libucrt:output.obj
 0001:0002ed2c       ?type_case_o@?$output_processor@_WV?$stream_output_adapter@_W@__crt_stdio_output@@V?$standard_base@_WV?$stream_output_adapter@_W@__crt_stdio_output@@@2@@__crt_stdio_output@@AEAA_NXZ 000000014002fd2c f i libucrt:output.obj
 0001:0002ed48       ?type_case_o@?$output_processor@_WV?$string_output_adapter@_W@__crt_stdio_output@@V?$format_validation_base@_WV?$string_output_adapter@_W@__crt_stdio_output@@@2@@__crt_stdio_output@@AEAA_NXZ 000000014002fd48 f i libucrt:output.obj
 0001:0002ed64       ?type_case_o@?$output_processor@_WV?$string_output_adapter@_W@__crt_stdio_output@@V?$positional_parameter_base@_WV?$string_output_adapter@_W@__crt_stdio_output@@@2@@__crt_stdio_output@@AEAA_NXZ 000000014002fd64 f i libucrt:output.obj
 0001:0002ed80       ?type_case_o@?$output_processor@_WV?$string_output_adapter@_W@__crt_stdio_output@@V?$standard_base@_WV?$string_output_adapter@_W@__crt_stdio_output@@@2@@__crt_stdio_output@@AEAA_NXZ 000000014002fd80 f i libucrt:output.obj
 0001:0002ed9c       ?type_case_p@?$output_processor@DV?$stream_output_adapter@D@__crt_stdio_output@@V?$format_validation_base@DV?$stream_output_adapter@D@__crt_stdio_output@@@2@@__crt_stdio_output@@AEAA_NXZ 000000014002fd9c f i libucrt:output.obj
 0001:0002edb4       ?type_case_p@?$output_processor@DV?$stream_output_adapter@D@__crt_stdio_output@@V?$positional_parameter_base@DV?$stream_output_adapter@D@__crt_stdio_output@@@2@@__crt_stdio_output@@AEAA_NXZ 000000014002fdb4 f i libucrt:output.obj
 0001:0002edcc       ?type_case_p@?$output_processor@DV?$stream_output_adapter@D@__crt_stdio_output@@V?$standard_base@DV?$stream_output_adapter@D@__crt_stdio_output@@@2@@__crt_stdio_output@@AEAA_NXZ 000000014002fdcc f i libucrt:output.obj
 0001:0002ede4       ?type_case_p@?$output_processor@DV?$string_output_adapter@D@__crt_stdio_output@@V?$format_validation_base@DV?$string_output_adapter@D@__crt_stdio_output@@@2@@__crt_stdio_output@@AEAA_NXZ 000000014002fde4 f i libucrt:output.obj
 0001:0002edfc       ?type_case_p@?$output_processor@DV?$string_output_adapter@D@__crt_stdio_output@@V?$positional_parameter_base@DV?$string_output_adapter@D@__crt_stdio_output@@@2@@__crt_stdio_output@@AEAA_NXZ 000000014002fdfc f i libucrt:output.obj
 0001:0002ee14       ?type_case_p@?$output_processor@DV?$string_output_adapter@D@__crt_stdio_output@@V?$standard_base@DV?$string_output_adapter@D@__crt_stdio_output@@@2@@__crt_stdio_output@@AEAA_NXZ 000000014002fe14 f i libucrt:output.obj
 0001:0002ee2c       ?type_case_p@?$output_processor@_WV?$stream_output_adapter@_W@__crt_stdio_output@@V?$format_validation_base@_WV?$stream_output_adapter@_W@__crt_stdio_output@@@2@@__crt_stdio_output@@AEAA_NXZ 000000014002fe2c f i libucrt:output.obj
 0001:0002ee44       ?type_case_p@?$output_processor@_WV?$stream_output_adapter@_W@__crt_stdio_output@@V?$positional_parameter_base@_WV?$stream_output_adapter@_W@__crt_stdio_output@@@2@@__crt_stdio_output@@AEAA_NXZ 000000014002fe44 f i libucrt:output.obj
 0001:0002ee5c       ?type_case_p@?$output_processor@_WV?$stream_output_adapter@_W@__crt_stdio_output@@V?$standard_base@_WV?$stream_output_adapter@_W@__crt_stdio_output@@@2@@__crt_stdio_output@@AEAA_NXZ 000000014002fe5c f i libucrt:output.obj
 0001:0002ee74       ?type_case_p@?$output_processor@_WV?$string_output_adapter@_W@__crt_stdio_output@@V?$format_validation_base@_WV?$string_output_adapter@_W@__crt_stdio_output@@@2@@__crt_stdio_output@@AEAA_NXZ 000000014002fe74 f i libucrt:output.obj
 0001:0002ee8c       ?type_case_p@?$output_processor@_WV?$string_output_adapter@_W@__crt_stdio_output@@V?$positional_parameter_base@_WV?$string_output_adapter@_W@__crt_stdio_output@@@2@@__crt_stdio_output@@AEAA_NXZ 000000014002fe8c f i libucrt:output.obj
 0001:0002eea4       ?type_case_p@?$output_processor@_WV?$string_output_adapter@_W@__crt_stdio_output@@V?$standard_base@_WV?$string_output_adapter@_W@__crt_stdio_output@@@2@@__crt_stdio_output@@AEAA_NXZ 000000014002fea4 f i libucrt:output.obj
 0001:0002eebc       ?type_case_s@?$output_processor@DV?$stream_output_adapter@D@__crt_stdio_output@@V?$format_validation_base@DV?$stream_output_adapter@D@__crt_stdio_output@@@2@@__crt_stdio_output@@AEAA_NXZ 000000014002febc f i libucrt:output.obj
 0001:0002ef58       ?type_case_s@?$output_processor@DV?$stream_output_adapter@D@__crt_stdio_output@@V?$positional_parameter_base@DV?$stream_output_adapter@D@__crt_stdio_output@@@2@@__crt_stdio_output@@AEAA_NXZ 000000014002ff58 f i libucrt:output.obj
 0001:0002f014       ?type_case_s@?$output_processor@DV?$stream_output_adapter@D@__crt_stdio_output@@V?$standard_base@DV?$stream_output_adapter@D@__crt_stdio_output@@@2@@__crt_stdio_output@@AEAA_NXZ 0000000140030014 f i libucrt:output.obj
 0001:0002f0b0       ?type_case_s@?$output_processor@DV?$string_output_adapter@D@__crt_stdio_output@@V?$format_validation_base@DV?$string_output_adapter@D@__crt_stdio_output@@@2@@__crt_stdio_output@@AEAA_NXZ 00000001400300b0 f i libucrt:output.obj
 0001:0002f14c       ?type_case_s@?$output_processor@DV?$string_output_adapter@D@__crt_stdio_output@@V?$positional_parameter_base@DV?$string_output_adapter@D@__crt_stdio_output@@@2@@__crt_stdio_output@@AEAA_NXZ 000000014003014c f i libucrt:output.obj
 0001:0002f208       ?type_case_s@?$output_processor@DV?$string_output_adapter@D@__crt_stdio_output@@V?$standard_base@DV?$string_output_adapter@D@__crt_stdio_output@@@2@@__crt_stdio_output@@AEAA_NXZ 0000000140030208 f i libucrt:output.obj
 0001:0002f2a4       ?type_case_s@?$output_processor@_WV?$stream_output_adapter@_W@__crt_stdio_output@@V?$format_validation_base@_WV?$stream_output_adapter@_W@__crt_stdio_output@@@2@@__crt_stdio_output@@AEAA_NXZ 00000001400302a4 f i libucrt:output.obj
 0001:0002f340       ?type_case_s@?$output_processor@_WV?$stream_output_adapter@_W@__crt_stdio_output@@V?$positional_parameter_base@_WV?$stream_output_adapter@_W@__crt_stdio_output@@@2@@__crt_stdio_output@@AEAA_NXZ 0000000140030340 f i libucrt:output.obj
 0001:0002f3f4       ?type_case_s@?$output_processor@_WV?$stream_output_adapter@_W@__crt_stdio_output@@V?$standard_base@_WV?$stream_output_adapter@_W@__crt_stdio_output@@@2@@__crt_stdio_output@@AEAA_NXZ 00000001400303f4 f i libucrt:output.obj
 0001:0002f490       ?type_case_s@?$output_processor@_WV?$string_output_adapter@_W@__crt_stdio_output@@V?$format_validation_base@_WV?$string_output_adapter@_W@__crt_stdio_output@@@2@@__crt_stdio_output@@AEAA_NXZ 0000000140030490 f i libucrt:output.obj
 0001:0002f52c       ?type_case_s@?$output_processor@_WV?$string_output_adapter@_W@__crt_stdio_output@@V?$positional_parameter_base@_WV?$string_output_adapter@_W@__crt_stdio_output@@@2@@__crt_stdio_output@@AEAA_NXZ 000000014003052c f i libucrt:output.obj
 0001:0002f5e0       ?type_case_s@?$output_processor@_WV?$string_output_adapter@_W@__crt_stdio_output@@V?$standard_base@_WV?$string_output_adapter@_W@__crt_stdio_output@@@2@@__crt_stdio_output@@AEAA_NXZ 00000001400305e0 f i libucrt:output.obj
 0001:0002f67c       ?type_case_s_compute_narrow_string_length@?$output_processor@DV?$stream_output_adapter@D@__crt_stdio_output@@V?$format_validation_base@DV?$stream_output_adapter@D@__crt_stdio_output@@@2@@__crt_stdio_output@@AEAAHHD@Z 000000014003067c f i libucrt:output.obj
 0001:0002f688       ?type_case_s_compute_narrow_string_length@?$output_processor@DV?$stream_output_adapter@D@__crt_stdio_output@@V?$positional_parameter_base@DV?$stream_output_adapter@D@__crt_stdio_output@@@2@@__crt_stdio_output@@AEAAHHD@Z 0000000140030688 f i libucrt:output.obj
 0001:0002f694       ?type_case_s_compute_narrow_string_length@?$output_processor@DV?$stream_output_adapter@D@__crt_stdio_output@@V?$standard_base@DV?$stream_output_adapter@D@__crt_stdio_output@@@2@@__crt_stdio_output@@AEAAHHD@Z 0000000140030694 f i libucrt:output.obj
 0001:0002f6a0       ?type_case_s_compute_narrow_string_length@?$output_processor@DV?$string_output_adapter@D@__crt_stdio_output@@V?$format_validation_base@DV?$string_output_adapter@D@__crt_stdio_output@@@2@@__crt_stdio_output@@AEAAHHD@Z 00000001400306a0 f i libucrt:output.obj
 0001:0002f6ac       ?type_case_s_compute_narrow_string_length@?$output_processor@DV?$string_output_adapter@D@__crt_stdio_output@@V?$positional_parameter_base@DV?$string_output_adapter@D@__crt_stdio_output@@@2@@__crt_stdio_output@@AEAAHHD@Z 00000001400306ac f i libucrt:output.obj
 0001:0002f6b8       ?type_case_s_compute_narrow_string_length@?$output_processor@DV?$string_output_adapter@D@__crt_stdio_output@@V?$standard_base@DV?$string_output_adapter@D@__crt_stdio_output@@@2@@__crt_stdio_output@@AEAAHHD@Z 00000001400306b8 f i libucrt:output.obj
 0001:0002f6c4       ?type_case_s_compute_narrow_string_length@?$output_processor@_WV?$stream_output_adapter@_W@__crt_stdio_output@@V?$format_validation_base@_WV?$stream_output_adapter@_W@__crt_stdio_output@@@2@@__crt_stdio_output@@AEAAHH_W@Z 00000001400306c4 f i libucrt:output.obj
 0001:0002f738       ?type_case_s_compute_narrow_string_length@?$output_processor@_WV?$stream_output_adapter@_W@__crt_stdio_output@@V?$positional_parameter_base@_WV?$stream_output_adapter@_W@__crt_stdio_output@@@2@@__crt_stdio_output@@AEAAHH_W@Z 0000000140030738 f i libucrt:output.obj
 0001:0002f7ac       ?type_case_s_compute_narrow_string_length@?$output_processor@_WV?$stream_output_adapter@_W@__crt_stdio_output@@V?$standard_base@_WV?$stream_output_adapter@_W@__crt_stdio_output@@@2@@__crt_stdio_output@@AEAAHH_W@Z 00000001400307ac f i libucrt:output.obj
 0001:0002f820       ?type_case_s_compute_narrow_string_length@?$output_processor@_WV?$string_output_adapter@_W@__crt_stdio_output@@V?$format_validation_base@_WV?$string_output_adapter@_W@__crt_stdio_output@@@2@@__crt_stdio_output@@AEAAHH_W@Z 0000000140030820 f i libucrt:output.obj
 0001:0002f894       ?type_case_s_compute_narrow_string_length@?$output_processor@_WV?$string_output_adapter@_W@__crt_stdio_output@@V?$positional_parameter_base@_WV?$string_output_adapter@_W@__crt_stdio_output@@@2@@__crt_stdio_output@@AEAAHH_W@Z 0000000140030894 f i libucrt:output.obj
 0001:0002f908       ?type_case_s_compute_narrow_string_length@?$output_processor@_WV?$string_output_adapter@_W@__crt_stdio_output@@V?$standard_base@_WV?$string_output_adapter@_W@__crt_stdio_output@@@2@@__crt_stdio_output@@AEAAHH_W@Z 0000000140030908 f i libucrt:output.obj
 0001:0002f97c       ?type_case_u@?$output_processor@DV?$stream_output_adapter@D@__crt_stdio_output@@V?$format_validation_base@DV?$stream_output_adapter@D@__crt_stdio_output@@@2@@__crt_stdio_output@@AEAA_NXZ 000000014003097c f i libucrt:output.obj
 0001:0002f984       ?type_case_u@?$output_processor@DV?$stream_output_adapter@D@__crt_stdio_output@@V?$positional_parameter_base@DV?$stream_output_adapter@D@__crt_stdio_output@@@2@@__crt_stdio_output@@AEAA_NXZ 0000000140030984 f i libucrt:output.obj
 0001:0002f98c       ?type_case_u@?$output_processor@DV?$stream_output_adapter@D@__crt_stdio_output@@V?$standard_base@DV?$stream_output_adapter@D@__crt_stdio_output@@@2@@__crt_stdio_output@@AEAA_NXZ 000000014003098c f i libucrt:output.obj
 0001:0002f994       ?type_case_u@?$output_processor@DV?$string_output_adapter@D@__crt_stdio_output@@V?$format_validation_base@DV?$string_output_adapter@D@__crt_stdio_output@@@2@@__crt_stdio_output@@AEAA_NXZ 0000000140030994 f i libucrt:output.obj
 0001:0002f99c       ?type_case_u@?$output_processor@DV?$string_output_adapter@D@__crt_stdio_output@@V?$positional_parameter_base@DV?$string_output_adapter@D@__crt_stdio_output@@@2@@__crt_stdio_output@@AEAA_NXZ 000000014003099c f i libucrt:output.obj
 0001:0002f9a4       ?type_case_u@?$output_processor@DV?$string_output_adapter@D@__crt_stdio_output@@V?$standard_base@DV?$string_output_adapter@D@__crt_stdio_output@@@2@@__crt_stdio_output@@AEAA_NXZ 00000001400309a4 f i libucrt:output.obj
 0001:0002f9ac       ?type_case_u@?$output_processor@_WV?$stream_output_adapter@_W@__crt_stdio_output@@V?$format_validation_base@_WV?$stream_output_adapter@_W@__crt_stdio_output@@@2@@__crt_stdio_output@@AEAA_NXZ 00000001400309ac f i libucrt:output.obj
 0001:0002f9b4       ?type_case_u@?$output_processor@_WV?$stream_output_adapter@_W@__crt_stdio_output@@V?$positional_parameter_base@_WV?$stream_output_adapter@_W@__crt_stdio_output@@@2@@__crt_stdio_output@@AEAA_NXZ 00000001400309b4 f i libucrt:output.obj
 0001:0002f9bc       ?type_case_u@?$output_processor@_WV?$stream_output_adapter@_W@__crt_stdio_output@@V?$standard_base@_WV?$stream_output_adapter@_W@__crt_stdio_output@@@2@@__crt_stdio_output@@AEAA_NXZ 00000001400309bc f i libucrt:output.obj
 0001:0002f9c4       ?type_case_u@?$output_processor@_WV?$string_output_adapter@_W@__crt_stdio_output@@V?$format_validation_base@_WV?$string_output_adapter@_W@__crt_stdio_output@@@2@@__crt_stdio_output@@AEAA_NXZ 00000001400309c4 f i libucrt:output.obj
 0001:0002f9cc       ?type_case_u@?$output_processor@_WV?$string_output_adapter@_W@__crt_stdio_output@@V?$positional_parameter_base@_WV?$string_output_adapter@_W@__crt_stdio_output@@@2@@__crt_stdio_output@@AEAA_NXZ 00000001400309cc f i libucrt:output.obj
 0001:0002f9d4       ?type_case_u@?$output_processor@_WV?$string_output_adapter@_W@__crt_stdio_output@@V?$standard_base@_WV?$string_output_adapter@_W@__crt_stdio_output@@@2@@__crt_stdio_output@@AEAA_NXZ 00000001400309d4 f i libucrt:output.obj
 0001:0002f9dc       ?type_case_x@?$output_processor@DV?$stream_output_adapter@D@__crt_stdio_output@@V?$format_validation_base@DV?$stream_output_adapter@D@__crt_stdio_output@@@2@@__crt_stdio_output@@AEAA_NXZ 00000001400309dc f i libucrt:output.obj
 0001:0002f9e4       ?type_case_x@?$output_processor@DV?$stream_output_adapter@D@__crt_stdio_output@@V?$positional_parameter_base@DV?$stream_output_adapter@D@__crt_stdio_output@@@2@@__crt_stdio_output@@AEAA_NXZ 00000001400309e4 f i libucrt:output.obj
 0001:0002f9ec       ?type_case_x@?$output_processor@DV?$stream_output_adapter@D@__crt_stdio_output@@V?$standard_base@DV?$stream_output_adapter@D@__crt_stdio_output@@@2@@__crt_stdio_output@@AEAA_NXZ 00000001400309ec f i libucrt:output.obj
 0001:0002f9f4       ?type_case_x@?$output_processor@DV?$string_output_adapter@D@__crt_stdio_output@@V?$format_validation_base@DV?$string_output_adapter@D@__crt_stdio_output@@@2@@__crt_stdio_output@@AEAA_NXZ 00000001400309f4 f i libucrt:output.obj
 0001:0002f9fc       ?type_case_x@?$output_processor@DV?$string_output_adapter@D@__crt_stdio_output@@V?$positional_parameter_base@DV?$string_output_adapter@D@__crt_stdio_output@@@2@@__crt_stdio_output@@AEAA_NXZ 00000001400309fc f i libucrt:output.obj
 0001:0002fa04       ?type_case_x@?$output_processor@DV?$string_output_adapter@D@__crt_stdio_output@@V?$standard_base@DV?$string_output_adapter@D@__crt_stdio_output@@@2@@__crt_stdio_output@@AEAA_NXZ 0000000140030a04 f i libucrt:output.obj
 0001:0002fa0c       ?type_case_x@?$output_processor@_WV?$stream_output_adapter@_W@__crt_stdio_output@@V?$format_validation_base@_WV?$stream_output_adapter@_W@__crt_stdio_output@@@2@@__crt_stdio_output@@AEAA_NXZ 0000000140030a0c f i libucrt:output.obj
 0001:0002fa14       ?type_case_x@?$output_processor@_WV?$stream_output_adapter@_W@__crt_stdio_output@@V?$positional_parameter_base@_WV?$stream_output_adapter@_W@__crt_stdio_output@@@2@@__crt_stdio_output@@AEAA_NXZ 0000000140030a14 f i libucrt:output.obj
 0001:0002fa1c       ?type_case_x@?$output_processor@_WV?$stream_output_adapter@_W@__crt_stdio_output@@V?$standard_base@_WV?$stream_output_adapter@_W@__crt_stdio_output@@@2@@__crt_stdio_output@@AEAA_NXZ 0000000140030a1c f i libucrt:output.obj
 0001:0002fa24       ?type_case_x@?$output_processor@_WV?$string_output_adapter@_W@__crt_stdio_output@@V?$format_validation_base@_WV?$string_output_adapter@_W@__crt_stdio_output@@@2@@__crt_stdio_output@@AEAA_NXZ 0000000140030a24 f i libucrt:output.obj
 0001:0002fa2c       ?type_case_x@?$output_processor@_WV?$string_output_adapter@_W@__crt_stdio_output@@V?$positional_parameter_base@_WV?$string_output_adapter@_W@__crt_stdio_output@@@2@@__crt_stdio_output@@AEAA_NXZ 0000000140030a2c f i libucrt:output.obj
 0001:0002fa34       ?type_case_x@?$output_processor@_WV?$string_output_adapter@_W@__crt_stdio_output@@V?$standard_base@_WV?$string_output_adapter@_W@__crt_stdio_output@@@2@@__crt_stdio_output@@AEAA_NXZ 0000000140030a34 f i libucrt:output.obj
 0001:0002fa3c       ?unget@?$c_string_character_source@D@__crt_strtox@@QEAAXD@Z 0000000140030a3c f i libucrt:output.obj
 0001:0002fa68       ?unget@?$c_string_character_source@_W@__crt_strtox@@QEAAX_W@Z 0000000140030a68 f i libucrt:output.obj
 0001:0002fa98       ?unsafe_value@?$cached@H@__crt_cached_ptd_host@@QEAAHXZ 0000000140030a98 f i libucrt:output.obj
 0001:0002fa9c       ?unsafe_value@?$cached@K@__crt_cached_ptd_host@@QEAAKXZ 0000000140030a9c f i libucrt:output.obj
 0001:0002faa0       ?unset_flag@?$output_processor@DV?$stream_output_adapter@D@__crt_stdio_output@@V?$format_validation_base@DV?$stream_output_adapter@D@__crt_stdio_output@@@2@@__crt_stdio_output@@AEAAXI@Z 0000000140030aa0 f i libucrt:output.obj
 0001:0002faa8       ?unset_flag@?$output_processor@DV?$stream_output_adapter@D@__crt_stdio_output@@V?$positional_parameter_base@DV?$stream_output_adapter@D@__crt_stdio_output@@@2@@__crt_stdio_output@@AEAAXI@Z 0000000140030aa8 f i libucrt:output.obj
 0001:0002fab0       ?unset_flag@?$output_processor@DV?$stream_output_adapter@D@__crt_stdio_output@@V?$standard_base@DV?$stream_output_adapter@D@__crt_stdio_output@@@2@@__crt_stdio_output@@AEAAXI@Z 0000000140030ab0 f i libucrt:output.obj
 0001:0002fab8       ?unset_flag@?$output_processor@DV?$string_output_adapter@D@__crt_stdio_output@@V?$format_validation_base@DV?$string_output_adapter@D@__crt_stdio_output@@@2@@__crt_stdio_output@@AEAAXI@Z 0000000140030ab8 f i libucrt:output.obj
 0001:0002fac0       ?unset_flag@?$output_processor@DV?$string_output_adapter@D@__crt_stdio_output@@V?$positional_parameter_base@DV?$string_output_adapter@D@__crt_stdio_output@@@2@@__crt_stdio_output@@AEAAXI@Z 0000000140030ac0 f i libucrt:output.obj
 0001:0002fac8       ?unset_flag@?$output_processor@DV?$string_output_adapter@D@__crt_stdio_output@@V?$standard_base@DV?$string_output_adapter@D@__crt_stdio_output@@@2@@__crt_stdio_output@@AEAAXI@Z 0000000140030ac8 f i libucrt:output.obj
 0001:0002fad0       ?unset_flag@?$output_processor@_WV?$stream_output_adapter@_W@__crt_stdio_output@@V?$format_validation_base@_WV?$stream_output_adapter@_W@__crt_stdio_output@@@2@@__crt_stdio_output@@AEAAXI@Z 0000000140030ad0 f i libucrt:output.obj
 0001:0002fad8       ?unset_flag@?$output_processor@_WV?$stream_output_adapter@_W@__crt_stdio_output@@V?$positional_parameter_base@_WV?$stream_output_adapter@_W@__crt_stdio_output@@@2@@__crt_stdio_output@@AEAAXI@Z 0000000140030ad8 f i libucrt:output.obj
 0001:0002fae0       ?unset_flag@?$output_processor@_WV?$stream_output_adapter@_W@__crt_stdio_output@@V?$standard_base@_WV?$stream_output_adapter@_W@__crt_stdio_output@@@2@@__crt_stdio_output@@AEAAXI@Z 0000000140030ae0 f i libucrt:output.obj
 0001:0002fae8       ?unset_flag@?$output_processor@_WV?$string_output_adapter@_W@__crt_stdio_output@@V?$format_validation_base@_WV?$string_output_adapter@_W@__crt_stdio_output@@@2@@__crt_stdio_output@@AEAAXI@Z 0000000140030ae8 f i libucrt:output.obj
 0001:0002faf0       ?unset_flag@?$output_processor@_WV?$string_output_adapter@_W@__crt_stdio_output@@V?$positional_parameter_base@_WV?$string_output_adapter@_W@__crt_stdio_output@@@2@@__crt_stdio_output@@AEAAXI@Z 0000000140030af0 f i libucrt:output.obj
 0001:0002faf8       ?unset_flag@?$output_processor@_WV?$string_output_adapter@_W@__crt_stdio_output@@V?$standard_base@_WV?$string_output_adapter@_W@__crt_stdio_output@@@2@@__crt_stdio_output@@AEAAXI@Z 0000000140030af8 f i libucrt:output.obj
 0001:0002fb00       ?update_field_width@?$positional_parameter_base@DV?$stream_output_adapter@D@__crt_stdio_output@@@__crt_stdio_output@@IEAA_NXZ 0000000140030b00 f i libucrt:output.obj
 0001:0002fc70       ?update_field_width@?$positional_parameter_base@DV?$string_output_adapter@D@__crt_stdio_output@@@__crt_stdio_output@@IEAA_NXZ 0000000140030c70 f i libucrt:output.obj
 0001:0002fde0       ?update_field_width@?$positional_parameter_base@_WV?$stream_output_adapter@_W@__crt_stdio_output@@@__crt_stdio_output@@IEAA_NXZ 0000000140030de0 f i libucrt:output.obj
 0001:0002ff54       ?update_field_width@?$positional_parameter_base@_WV?$string_output_adapter@_W@__crt_stdio_output@@@__crt_stdio_output@@IEAA_NXZ 0000000140030f54 f i libucrt:output.obj
 0001:000300c8       ?update_field_width@?$standard_base@DV?$stream_output_adapter@D@__crt_stdio_output@@@__crt_stdio_output@@IEAA_NXZ 00000001400310c8 f i libucrt:output.obj
 0001:000300dc       ?update_field_width@?$standard_base@DV?$string_output_adapter@D@__crt_stdio_output@@@__crt_stdio_output@@IEAA_NXZ 00000001400310dc f i libucrt:output.obj
 0001:000300f0       ?update_field_width@?$standard_base@_WV?$stream_output_adapter@_W@__crt_stdio_output@@@__crt_stdio_output@@IEAA_NXZ 00000001400310f0 f i libucrt:output.obj
 0001:00030104       ?update_field_width@?$standard_base@_WV?$string_output_adapter@_W@__crt_stdio_output@@@__crt_stdio_output@@IEAA_NXZ 0000000140031104 f i libucrt:output.obj
 0001:00030120       ?update_locale@__crt_cached_ptd_host@@AEAAXXZ 0000000140031120 f i libucrt:output.obj
 0001:00030130       ?update_locale_slow@__crt_cached_ptd_host@@AEAAXXZ 0000000140031130 f i libucrt:output.obj
 0001:000301a8       ?update_precision@?$positional_parameter_base@DV?$stream_output_adapter@D@__crt_stdio_output@@@__crt_stdio_output@@IEAA_NXZ 00000001400311a8 f i libucrt:output.obj
 0001:00030318       ?update_precision@?$positional_parameter_base@DV?$string_output_adapter@D@__crt_stdio_output@@@__crt_stdio_output@@IEAA_NXZ 0000000140031318 f i libucrt:output.obj
 0001:00030488       ?update_precision@?$positional_parameter_base@_WV?$stream_output_adapter@_W@__crt_stdio_output@@@__crt_stdio_output@@IEAA_NXZ 0000000140031488 f i libucrt:output.obj
 0001:000305fc       ?update_precision@?$positional_parameter_base@_WV?$string_output_adapter@_W@__crt_stdio_output@@@__crt_stdio_output@@IEAA_NXZ 00000001400315fc f i libucrt:output.obj
 0001:00030770       ?update_precision@?$standard_base@DV?$stream_output_adapter@D@__crt_stdio_output@@@__crt_stdio_output@@IEAA_NXZ 0000000140031770 f i libucrt:output.obj
 0001:00030784       ?update_precision@?$standard_base@DV?$string_output_adapter@D@__crt_stdio_output@@@__crt_stdio_output@@IEAA_NXZ 0000000140031784 f i libucrt:output.obj
 0001:00030798       ?update_precision@?$standard_base@_WV?$stream_output_adapter@_W@__crt_stdio_output@@@__crt_stdio_output@@IEAA_NXZ 0000000140031798 f i libucrt:output.obj
 0001:000307ac       ?update_precision@?$standard_base@_WV?$string_output_adapter@_W@__crt_stdio_output@@@__crt_stdio_output@@IEAA_NXZ 00000001400317ac f i libucrt:output.obj
 0001:000307c0       ?valid@?$cached@H@__crt_cached_ptd_host@@QEBA_NXZ 00000001400317c0 f i libucrt:output.obj
 0001:000307c4       ?valid@?$cached@K@__crt_cached_ptd_host@@QEBA_NXZ 00000001400317c4 f i libucrt:output.obj
 0001:000307c8       ?valid@__crt_stdio_stream@@QEBA_NXZ 00000001400317c8 f i libucrt:output.obj
 0001:000307d0       ?validate@?$c_string_character_source@D@__crt_strtox@@QEBA_NXZ 00000001400317d0 f i libucrt:output.obj
 0001:000307f8       ?validate@?$c_string_character_source@_W@__crt_strtox@@QEBA_NXZ 00000001400317f8 f i libucrt:output.obj
 0001:00030820       ?validate@?$stream_output_adapter@D@__crt_stdio_output@@QEBA_NAEAV__crt_cached_ptd_host@@@Z 0000000140031820 f i libucrt:output.obj
 0001:00030860       ?validate@?$stream_output_adapter@_W@__crt_stdio_output@@QEBA_NAEAV__crt_cached_ptd_host@@@Z 0000000140031860 f i libucrt:output.obj
 0001:0003089c       ?validate@?$string_output_adapter@D@__crt_stdio_output@@QEBA_NAEAV__crt_cached_ptd_host@@@Z 000000014003189c f i libucrt:output.obj
 0001:000308d8       ?validate@?$string_output_adapter@_W@__crt_stdio_output@@QEBA_NAEAV__crt_cached_ptd_host@@@Z 00000001400318d8 f i libucrt:output.obj
 0001:00030914       ?validate_and_store_parameter_data@?$positional_parameter_base@DV?$stream_output_adapter@D@__crt_stdio_output@@@__crt_stdio_output@@AEAA_NAEAUparameter_data@12@W4parameter_type@12@DW4length_modifier@2@@Z 0000000140031914 f i libucrt:output.obj
 0001:00030978       ?validate_and_store_parameter_data@?$positional_parameter_base@DV?$string_output_adapter@D@__crt_stdio_output@@@__crt_stdio_output@@AEAA_NAEAUparameter_data@12@W4parameter_type@12@DW4length_modifier@2@@Z 0000000140031978 f i libucrt:output.obj
 0001:000309dc       ?validate_and_store_parameter_data@?$positional_parameter_base@_WV?$stream_output_adapter@_W@__crt_stdio_output@@@__crt_stdio_output@@AEAA_NAEAUparameter_data@12@W4parameter_type@12@_WW4length_modifier@2@@Z 00000001400319dc f i libucrt:output.obj
 0001:00030a40       ?validate_and_store_parameter_data@?$positional_parameter_base@_WV?$string_output_adapter@_W@__crt_stdio_output@@@__crt_stdio_output@@AEAA_NAEAUparameter_data@12@W4parameter_type@12@_WW4length_modifier@2@@Z 0000000140031a40 f i libucrt:output.obj
 0001:00030aa4       ?validate_and_update_state_at_beginning_of_format_character@?$positional_parameter_base@DV?$stream_output_adapter@D@__crt_stdio_output@@@__crt_stdio_output@@IEAA_NXZ 0000000140031aa4 f i libucrt:output.obj
 0001:00030be8       ?validate_and_update_state_at_beginning_of_format_character@?$positional_parameter_base@DV?$string_output_adapter@D@__crt_stdio_output@@@__crt_stdio_output@@IEAA_NXZ 0000000140031be8 f i libucrt:output.obj
 0001:00030d2c       ?validate_and_update_state_at_beginning_of_format_character@?$positional_parameter_base@_WV?$stream_output_adapter@_W@__crt_stdio_output@@@__crt_stdio_output@@IEAA_NXZ 0000000140031d2c f i libucrt:output.obj
 0001:00030e7c       ?validate_and_update_state_at_beginning_of_format_character@?$positional_parameter_base@_WV?$string_output_adapter@_W@__crt_stdio_output@@@__crt_stdio_output@@IEAA_NXZ 0000000140031e7c f i libucrt:output.obj
 0001:00030fcc       ?validate_and_update_state_at_beginning_of_format_character@?$standard_base@DV?$stream_output_adapter@D@__crt_stdio_output@@@__crt_stdio_output@@IEAA_NXZ 0000000140031fcc f i libucrt:output.obj
 0001:00030fd0       ?validate_and_update_state_at_beginning_of_format_character@?$standard_base@DV?$string_output_adapter@D@__crt_stdio_output@@@__crt_stdio_output@@IEAA_NXZ 0000000140031fd0 f i libucrt:output.obj
 0001:00030fd4       ?validate_and_update_state_at_beginning_of_format_character@?$standard_base@_WV?$stream_output_adapter@_W@__crt_stdio_output@@@__crt_stdio_output@@IEAA_NXZ 0000000140031fd4 f i libucrt:output.obj
 0001:00030fd8       ?validate_and_update_state_at_beginning_of_format_character@?$standard_base@_WV?$string_output_adapter@_W@__crt_stdio_output@@@__crt_stdio_output@@IEAA_NXZ 0000000140031fd8 f i libucrt:output.obj
 0001:00030fdc       ?validate_and_update_state_at_end_of_format_string@?$format_validation_base@DV?$stream_output_adapter@D@__crt_stdio_output@@@__crt_stdio_output@@IEAA_NXZ 0000000140031fdc f i libucrt:output.obj
 0001:00031024       ?validate_and_update_state_at_end_of_format_string@?$format_validation_base@DV?$string_output_adapter@D@__crt_stdio_output@@@__crt_stdio_output@@IEAA_NXZ 0000000140032024 f i libucrt:output.obj
 0001:0003106c       ?validate_and_update_state_at_end_of_format_string@?$format_validation_base@_WV?$stream_output_adapter@_W@__crt_stdio_output@@@__crt_stdio_output@@IEAA_NXZ 000000014003206c f i libucrt:output.obj
 0001:000310b4       ?validate_and_update_state_at_end_of_format_string@?$format_validation_base@_WV?$string_output_adapter@_W@__crt_stdio_output@@@__crt_stdio_output@@IEAA_NXZ 00000001400320b4 f i libucrt:output.obj
 0001:000310fc       ?validate_and_update_state_at_end_of_format_string@?$positional_parameter_base@DV?$stream_output_adapter@D@__crt_stdio_output@@@__crt_stdio_output@@IEAA_NXZ 00000001400320fc f i libucrt:output.obj
 0001:000311b4       ?validate_and_update_state_at_end_of_format_string@?$positional_parameter_base@DV?$string_output_adapter@D@__crt_stdio_output@@@__crt_stdio_output@@IEAA_NXZ 00000001400321b4 f i libucrt:output.obj
 0001:0003126c       ?validate_and_update_state_at_end_of_format_string@?$positional_parameter_base@_WV?$stream_output_adapter@_W@__crt_stdio_output@@@__crt_stdio_output@@IEAA_NXZ 000000014003226c f i libucrt:output.obj
 0001:00031324       ?validate_and_update_state_at_end_of_format_string@?$positional_parameter_base@_WV?$string_output_adapter@_W@__crt_stdio_output@@@__crt_stdio_output@@IEAA_NXZ 0000000140032324 f i libucrt:output.obj
 0001:000313dc       ?validate_and_update_state_at_end_of_format_string@?$standard_base@DV?$stream_output_adapter@D@__crt_stdio_output@@@__crt_stdio_output@@IEBA_NXZ 00000001400323dc f i libucrt:output.obj
 0001:000313e0       ?validate_and_update_state_at_end_of_format_string@?$standard_base@DV?$string_output_adapter@D@__crt_stdio_output@@@__crt_stdio_output@@IEBA_NXZ 00000001400323e0 f i libucrt:output.obj
 0001:000313e4       ?validate_and_update_state_at_end_of_format_string@?$standard_base@_WV?$stream_output_adapter@_W@__crt_stdio_output@@@__crt_stdio_output@@IEBA_NXZ 00000001400323e4 f i libucrt:output.obj
 0001:000313e8       ?validate_and_update_state_at_end_of_format_string@?$standard_base@_WV?$string_output_adapter@_W@__crt_stdio_output@@@__crt_stdio_output@@IEBA_NXZ 00000001400323e8 f i libucrt:output.obj
 0001:000313ec       ?validate_state_for_type_case_a@?$positional_parameter_base@DV?$stream_output_adapter@D@__crt_stdio_output@@@__crt_stdio_output@@IEAA_NXZ 00000001400323ec f i libucrt:output.obj
 0001:000314d0       ?validate_state_for_type_case_a@?$positional_parameter_base@DV?$string_output_adapter@D@__crt_stdio_output@@@__crt_stdio_output@@IEAA_NXZ 00000001400324d0 f i libucrt:output.obj
 0001:000315b4       ?validate_state_for_type_case_a@?$positional_parameter_base@_WV?$stream_output_adapter@_W@__crt_stdio_output@@@__crt_stdio_output@@IEAA_NXZ 00000001400325b4 f i libucrt:output.obj
 0001:00031698       ?validate_state_for_type_case_a@?$positional_parameter_base@_WV?$string_output_adapter@_W@__crt_stdio_output@@@__crt_stdio_output@@IEAA_NXZ 0000000140032698 f i libucrt:output.obj
 0001:0003177c       ?validate_state_for_type_case_a@?$standard_base@DV?$stream_output_adapter@D@__crt_stdio_output@@@__crt_stdio_output@@IEBA_NXZ 000000014003277c f i libucrt:output.obj
 0001:00031780       ?validate_state_for_type_case_a@?$standard_base@DV?$string_output_adapter@D@__crt_stdio_output@@@__crt_stdio_output@@IEBA_NXZ 0000000140032780 f i libucrt:output.obj
 0001:00031784       ?validate_state_for_type_case_a@?$standard_base@_WV?$stream_output_adapter@_W@__crt_stdio_output@@@__crt_stdio_output@@IEBA_NXZ 0000000140032784 f i libucrt:output.obj
 0001:00031788       ?validate_state_for_type_case_a@?$standard_base@_WV?$string_output_adapter@_W@__crt_stdio_output@@@__crt_stdio_output@@IEBA_NXZ 0000000140032788 f i libucrt:output.obj
 0001:0003178c       ?validate_stream_is_ansi_if_required@?$__acrt_stdio_char_traits@D@@SA_NQEAU_iobuf@@@Z 000000014003278c f i libucrt:output.obj
 0001:00031828       ?validate_stream_is_ansi_if_required@?$__acrt_stdio_char_traits@_W@@SA_NQEAU_iobuf@@@Z 0000000140032828 f i libucrt:output.obj
 0001:0003182c       ?wide_character_to_digit@__crt_strtox@@YAH_W@Z 000000014003282c f i libucrt:output.obj
 0001:000319cc       ?wide_null_string@?$output_processor@DV?$stream_output_adapter@D@__crt_stdio_output@@V?$format_validation_base@DV?$stream_output_adapter@D@__crt_stdio_output@@@2@@__crt_stdio_output@@CAPEA_WXZ 00000001400329cc f i libucrt:output.obj
 0001:000319d4       ?wide_null_string@?$output_processor@DV?$stream_output_adapter@D@__crt_stdio_output@@V?$positional_parameter_base@DV?$stream_output_adapter@D@__crt_stdio_output@@@2@@__crt_stdio_output@@CAPEA_WXZ 00000001400329d4 f i libucrt:output.obj
 0001:000319dc       ?wide_null_string@?$output_processor@DV?$stream_output_adapter@D@__crt_stdio_output@@V?$standard_base@DV?$stream_output_adapter@D@__crt_stdio_output@@@2@@__crt_stdio_output@@CAPEA_WXZ 00000001400329dc f i libucrt:output.obj
 0001:000319e4       ?wide_null_string@?$output_processor@DV?$string_output_adapter@D@__crt_stdio_output@@V?$format_validation_base@DV?$string_output_adapter@D@__crt_stdio_output@@@2@@__crt_stdio_output@@CAPEA_WXZ 00000001400329e4 f i libucrt:output.obj
 0001:000319ec       ?wide_null_string@?$output_processor@DV?$string_output_adapter@D@__crt_stdio_output@@V?$positional_parameter_base@DV?$string_output_adapter@D@__crt_stdio_output@@@2@@__crt_stdio_output@@CAPEA_WXZ 00000001400329ec f i libucrt:output.obj
 0001:000319f4       ?wide_null_string@?$output_processor@DV?$string_output_adapter@D@__crt_stdio_output@@V?$standard_base@DV?$string_output_adapter@D@__crt_stdio_output@@@2@@__crt_stdio_output@@CAPEA_WXZ 00000001400329f4 f i libucrt:output.obj
 0001:000319fc       ?wide_null_string@?$output_processor@_WV?$stream_output_adapter@_W@__crt_stdio_output@@V?$format_validation_base@_WV?$stream_output_adapter@_W@__crt_stdio_output@@@2@@__crt_stdio_output@@CAPEA_WXZ 00000001400329fc f i libucrt:output.obj
 0001:00031a04       ?wide_null_string@?$output_processor@_WV?$stream_output_adapter@_W@__crt_stdio_output@@V?$positional_parameter_base@_WV?$stream_output_adapter@_W@__crt_stdio_output@@@2@@__crt_stdio_output@@CAPEA_WXZ 0000000140032a04 f i libucrt:output.obj
 0001:00031a0c       ?wide_null_string@?$output_processor@_WV?$stream_output_adapter@_W@__crt_stdio_output@@V?$standard_base@_WV?$stream_output_adapter@_W@__crt_stdio_output@@@2@@__crt_stdio_output@@CAPEA_WXZ 0000000140032a0c f i libucrt:output.obj
 0001:00031a14       ?wide_null_string@?$output_processor@_WV?$string_output_adapter@_W@__crt_stdio_output@@V?$format_validation_base@_WV?$string_output_adapter@_W@__crt_stdio_output@@@2@@__crt_stdio_output@@CAPEA_WXZ 0000000140032a14 f i libucrt:output.obj
 0001:00031a1c       ?wide_null_string@?$output_processor@_WV?$string_output_adapter@_W@__crt_stdio_output@@V?$positional_parameter_base@_WV?$string_output_adapter@_W@__crt_stdio_output@@@2@@__crt_stdio_output@@CAPEA_WXZ 0000000140032a1c f i libucrt:output.obj
 0001:00031a24       ?wide_null_string@?$output_processor@_WV?$string_output_adapter@_W@__crt_stdio_output@@V?$standard_base@_WV?$string_output_adapter@_W@__crt_stdio_output@@@2@@__crt_stdio_output@@CAPEA_WXZ 0000000140032a24 f i libucrt:output.obj
 0001:00031a2c       ?write_character@?$output_adapter_common@DV?$stream_output_adapter@D@__crt_stdio_output@@@__crt_stdio_output@@QEBAXDQEAHAEAV__crt_cached_ptd_host@@@Z 0000000140032a2c f i libucrt:output.obj
 0001:00031a78       ?write_character@?$output_adapter_common@_WV?$stream_output_adapter@_W@__crt_stdio_output@@@__crt_stdio_output@@QEBAX_WQEAHAEAV__crt_cached_ptd_host@@@Z 0000000140032a78 f i libucrt:output.obj
 0001:00031ac8       ?write_character@?$string_output_adapter@D@__crt_stdio_output@@QEBA_NDQEAHAEAV__crt_cached_ptd_host@@@Z 0000000140032ac8 f i libucrt:output.obj
 0001:00031b10       ?write_character@?$string_output_adapter@_W@__crt_stdio_output@@QEBA_N_WQEAHAEAV__crt_cached_ptd_host@@@Z 0000000140032b10 f i libucrt:output.obj
 0001:00031b58       ?write_character_without_count_update@?$stream_output_adapter@D@__crt_stdio_output@@QEBA_NDAEAV__crt_cached_ptd_host@@@Z 0000000140032b58 f i libucrt:output.obj
 0001:00031b98       ?write_character_without_count_update@?$stream_output_adapter@_W@__crt_stdio_output@@QEBA_N_WAEAV__crt_cached_ptd_host@@@Z 0000000140032b98 f i libucrt:output.obj
 0001:00031bdc       ?write_stored_string_tchar@?$output_processor@DV?$stream_output_adapter@D@__crt_stdio_output@@V?$format_validation_base@DV?$stream_output_adapter@D@__crt_stdio_output@@@2@@__crt_stdio_output@@AEAA_ND@Z 0000000140032bdc f i libucrt:output.obj
 0001:00031d10       ?write_stored_string_tchar@?$output_processor@DV?$stream_output_adapter@D@__crt_stdio_output@@V?$positional_parameter_base@DV?$stream_output_adapter@D@__crt_stdio_output@@@2@@__crt_stdio_output@@AEAA_ND@Z 0000000140032d10 f i libucrt:output.obj
 0001:00031e44       ?write_stored_string_tchar@?$output_processor@DV?$stream_output_adapter@D@__crt_stdio_output@@V?$standard_base@DV?$stream_output_adapter@D@__crt_stdio_output@@@2@@__crt_stdio_output@@AEAA_ND@Z 0000000140032e44 f i libucrt:output.obj
 0001:00031f78       ?write_stored_string_tchar@?$output_processor@DV?$string_output_adapter@D@__crt_stdio_output@@V?$format_validation_base@DV?$string_output_adapter@D@__crt_stdio_output@@@2@@__crt_stdio_output@@AEAA_ND@Z 0000000140032f78 f i libucrt:output.obj
 0001:00032060       ?write_stored_string_tchar@?$output_processor@DV?$string_output_adapter@D@__crt_stdio_output@@V?$positional_parameter_base@DV?$string_output_adapter@D@__crt_stdio_output@@@2@@__crt_stdio_output@@AEAA_ND@Z 0000000140033060 f i libucrt:output.obj
 0001:00032148       ?write_stored_string_tchar@?$output_processor@DV?$string_output_adapter@D@__crt_stdio_output@@V?$standard_base@DV?$string_output_adapter@D@__crt_stdio_output@@@2@@__crt_stdio_output@@AEAA_ND@Z 0000000140033148 f i libucrt:output.obj
 0001:00032230       ?write_stored_string_tchar@?$output_processor@_WV?$stream_output_adapter@_W@__crt_stdio_output@@V?$format_validation_base@_WV?$stream_output_adapter@_W@__crt_stdio_output@@@2@@__crt_stdio_output@@AEAA_N_W@Z 0000000140033230 f i libucrt:output.obj
 0001:00032364       ?write_stored_string_tchar@?$output_processor@_WV?$stream_output_adapter@_W@__crt_stdio_output@@V?$positional_parameter_base@_WV?$stream_output_adapter@_W@__crt_stdio_output@@@2@@__crt_stdio_output@@AEAA_N_W@Z 0000000140033364 f i libucrt:output.obj
 0001:00032498       ?write_stored_string_tchar@?$output_processor@_WV?$stream_output_adapter@_W@__crt_stdio_output@@V?$standard_base@_WV?$stream_output_adapter@_W@__crt_stdio_output@@@2@@__crt_stdio_output@@AEAA_N_W@Z 0000000140033498 f i libucrt:output.obj
 0001:000325cc       ?write_stored_string_tchar@?$output_processor@_WV?$string_output_adapter@_W@__crt_stdio_output@@V?$format_validation_base@_WV?$string_output_adapter@_W@__crt_stdio_output@@@2@@__crt_stdio_output@@AEAA_N_W@Z 00000001400335cc f i libucrt:output.obj
 0001:000326e0       ?write_stored_string_tchar@?$output_processor@_WV?$string_output_adapter@_W@__crt_stdio_output@@V?$positional_parameter_base@_WV?$string_output_adapter@_W@__crt_stdio_output@@@2@@__crt_stdio_output@@AEAA_N_W@Z 00000001400336e0 f i libucrt:output.obj
 0001:000327f4       ?write_stored_string_tchar@?$output_processor@_WV?$string_output_adapter@_W@__crt_stdio_output@@V?$standard_base@_WV?$string_output_adapter@_W@__crt_stdio_output@@@2@@__crt_stdio_output@@AEAA_N_W@Z 00000001400337f4 f i libucrt:output.obj
 0001:00032908       ?write_string@?$stream_output_adapter@D@__crt_stdio_output@@QEBAXQEBDHQEAHAEAV__crt_cached_ptd_host@@@Z 0000000140033908 f i libucrt:output.obj
 0001:00032930       ?write_string@?$stream_output_adapter@_W@__crt_stdio_output@@QEBAXQEB_WHQEAHAEAV__crt_cached_ptd_host@@@Z 0000000140033930 f i libucrt:output.obj
 0001:00032958       ?write_string@?$string_output_adapter@D@__crt_stdio_output@@QEBAXQEBDHQEAHAEAV__crt_cached_ptd_host@@@Z 0000000140033958 f i libucrt:output.obj
 0001:000329fc       ?write_string@?$string_output_adapter@_W@__crt_stdio_output@@QEBAXQEB_WHQEAHAEAV__crt_cached_ptd_host@@@Z 00000001400339fc f i libucrt:output.obj
 0001:00032aa4       ?write_string_impl@?$output_adapter_common@DV?$stream_output_adapter@D@__crt_stdio_output@@@__crt_stdio_output@@IEBAXQEBDHQEAHAEAV__crt_cached_ptd_host@@@Z 0000000140033aa4 f i libucrt:output.obj
 0001:00032b70       ?write_string_impl@?$output_adapter_common@_WV?$stream_output_adapter@_W@__crt_stdio_output@@@__crt_stdio_output@@IEBAXQEB_WHQEAHAEAV__crt_cached_ptd_host@@@Z 0000000140033b70 f i libucrt:output.obj
 0001:00032c50       __acrt_disable_global_locale_sync 0000000140033c50 f i libucrt:output.obj
 0001:00032c58       __acrt_enable_global_locale_sync 0000000140033c58 f i libucrt:output.obj
 0001:00032c64       __acrt_isleadbyte_l_noupdate 0000000140033c64 f i libucrt:output.obj
 0001:00032c88       __acrt_locale_changed      0000000140033c88 f i libucrt:output.obj
 0001:00032c94       __acrt_locale_get_ctype_array_value 0000000140033c94 f i libucrt:output.obj
 0001:00032cac       __ascii_iswalpha           0000000140033cac f i libucrt:output.obj
 0001:00032cc8       __ascii_toupper            0000000140033cc8 f i libucrt:output.obj
 0001:00032cd8       __ascii_towupper           0000000140033cd8 f i libucrt:output.obj
 0001:00032ce8       __stdio_common_vfprintf    0000000140033ce8 f   libucrt:output.obj
 0001:00032e0c       __stdio_common_vfprintf_p  0000000140033e0c f   libucrt:output.obj
 0001:00032f30       __stdio_common_vfprintf_s  0000000140033f30 f   libucrt:output.obj
 0001:00033054       __stdio_common_vfwprintf   0000000140034054 f   libucrt:output.obj
 0001:00033178       __stdio_common_vfwprintf_p 0000000140034178 f   libucrt:output.obj
 0001:0003329c       __stdio_common_vfwprintf_s 000000014003429c f   libucrt:output.obj
 0001:000333c0       __stdio_common_vsnprintf_s 00000001400343c0 f   libucrt:output.obj
 0001:00033598       __stdio_common_vsnwprintf_s 0000000140034598 f   libucrt:output.obj
 0001:00033774       __stdio_common_vsprintf    0000000140034774 f   libucrt:output.obj
 0001:000339c8       __stdio_common_vsprintf_p  00000001400349c8 f   libucrt:output.obj
 0001:00033a80       __stdio_common_vsprintf_s  0000000140034a80 f   libucrt:output.obj
 0001:00033b94       __stdio_common_vswprintf   0000000140034b94 f   libucrt:output.obj
 0001:00033df0       __stdio_common_vswprintf_p 0000000140034df0 f   libucrt:output.obj
 0001:00033ea8       __stdio_common_vswprintf_s 0000000140034ea8 f   libucrt:output.obj
 0001:00033fbc       _ctype_fast_check_internal 0000000140034fbc f i libucrt:output.obj
 0001:00033fd0       _isdigit_fast_internal     0000000140034fd0 f i libucrt:output.obj
 0001:00033fe4       _tolower_fast_internal     0000000140034fe4 f i libucrt:output.obj
 0001:00034018       _seh_filter_dll            0000000140035018 f   libucrt:exception_filter.obj
 0001:0003402c       _seh_filter_exe            000000014003502c f   libucrt:exception_filter.obj
 0001:0003428c       __acrt_report_runtime_error 000000014003528c f   libucrt:report_runtime_error.obj
 0001:000343ec       _invoke_watson_if_error    00000001400353ec f i libucrt:report_runtime_error.obj
 0001:00034420       _query_app_type            0000000140035420 f   libucrt:report_runtime_error.obj
 0001:00034428       _set_app_type              0000000140035428 f   libucrt:report_runtime_error.obj
 0001:00034430       ??$__crt_fast_decode_pointer@P6AHPEAU_exception@@@Z@@YAP6AHPEAU_exception@@@ZQ6AH0@Z@Z 0000000140035430 f i libucrt:matherr.obj
 0001:00034448       ??$__crt_fast_encode_pointer@P6AHPEAU_exception@@@Z@@YAP6AHPEAU_exception@@@ZQ6AH0@Z@Z 0000000140035448 f i libucrt:matherr.obj
 0001:00034468       ?__crt_rotate_pointer_value@@YA_K_KH@Z 0000000140035468 f i libucrt:matherr.obj
 0001:00034474       ?get_current_state_index@__crt_state_management@@YA_KXZ 0000000140035474 f i libucrt:matherr.obj
 0001:00034478       ?initialize@?$dual_state_global@P6AHPEAU_exception@@@Z@__crt_state_management@@QEAAXQ6AHPEAU_exception@@@Z@Z 0000000140035478 f i libucrt:matherr.obj
 0001:00034488       ?value@?$dual_state_global@P6AHPEAU_exception@@@Z@__crt_state_management@@QEAAAEAP6AHPEAU_exception@@@ZXZ 0000000140035488 f i libucrt:matherr.obj
 0001:0003448c       __acrt_has_user_matherr    000000014003548c f   libucrt:matherr.obj
 0001:000344ac       __acrt_initialize_user_matherr 00000001400354ac f   libucrt:matherr.obj
 0001:000344b4       __acrt_invoke_user_matherr 00000001400354b4 f   libucrt:matherr.obj
 0001:000344f0       __setusermatherr           00000001400354f0 f   libucrt:matherr.obj
 0001:00034518       ??$?RE@__crt_internal_free_policy@@QEBAXQEBE@Z 0000000140035518 f i libucrt:argv_parsing.obj
 0001:00034520       ??$?RPEAD@__crt_internal_free_policy@@QEBAXQEBQEAD@Z 0000000140035520 f i libucrt:argv_parsing.obj
 0001:00034528       ??$?RPEA_W@__crt_internal_free_policy@@QEBAXQEBQEA_W@Z 0000000140035528 f i libucrt:argv_parsing.obj
 0001:00034824       ??$get_module_file_name@$$TAEAY0BAF@DH@?$__crt_char_traits@D@@SAK$$QEA$$TAEAY0BAF@D$$QEAH@Z 0000000140035824 f i libucrt:argv_parsing.obj
 0001:00034830       ??$get_module_file_name@$$TAEAY0BAF@_WH@?$__crt_char_traits@_W@@SAK$$QEA$$TAEAY0BAF@_W$$QEAH@Z 0000000140035830 f i libucrt:argv_parsing.obj
 0001:00034bac       ??$set_program_name@PEAD@?$__crt_char_traits@D@@SAX$$QEAPEAD@Z 0000000140035bac f i libucrt:argv_parsing.obj
 0001:00034bb8       ??$set_program_name@PEA_W@?$__crt_char_traits@_W@@SAX$$QEAPEA_W@Z 0000000140035bb8 f i libucrt:argv_parsing.obj
 0001:00034bd4       ??0?$__crt_unique_heap_ptr@EU__crt_internal_free_policy@@@@QEAA@QEAE@Z 0000000140035bd4 f i libucrt:argv_parsing.obj
 0001:00034bdc       ??0?$__crt_unique_heap_ptr@PEADU__crt_internal_free_policy@@@@QEAA@QEAPEAD@Z 0000000140035bdc f i libucrt:argv_parsing.obj
 0001:00034be4       ??0?$__crt_unique_heap_ptr@PEA_WU__crt_internal_free_policy@@@@QEAA@QEAPEA_W@Z 0000000140035be4 f i libucrt:argv_parsing.obj
 0001:00034bec       ??1?$__crt_unique_heap_ptr@EU__crt_internal_free_policy@@@@QEAA@XZ 0000000140035bec f i libucrt:argv_parsing.obj
 0001:00034c08       ??1?$__crt_unique_heap_ptr@PEADU__crt_internal_free_policy@@@@QEAA@XZ 0000000140035c08 f i libucrt:argv_parsing.obj
 0001:00034c24       ??1?$__crt_unique_heap_ptr@PEA_WU__crt_internal_free_policy@@@@QEAA@XZ 0000000140035c24 f i libucrt:argv_parsing.obj
 0001:00034c40       ??B?$__crt_unique_heap_ptr@EU__crt_internal_free_policy@@@@QEBA_NXZ 0000000140035c40 f i libucrt:argv_parsing.obj
 0001:00034c80       ?detach@?$__crt_unique_heap_ptr@EU__crt_internal_free_policy@@@@QEAAPEAEXZ 0000000140035c80 f i libucrt:argv_parsing.obj
 0001:00034c88       ?detach@?$__crt_unique_heap_ptr@PEADU__crt_internal_free_policy@@@@QEAAPEAPEADXZ 0000000140035c88 f i libucrt:argv_parsing.obj
 0001:00034c90       ?detach@?$__crt_unique_heap_ptr@PEA_WU__crt_internal_free_policy@@@@QEAAPEAPEA_WXZ 0000000140035c90 f i libucrt:argv_parsing.obj
 0001:00034cb4       ?get@?$__crt_unique_heap_ptr@EU__crt_internal_free_policy@@@@QEBAPEAEXZ 0000000140035cb4 f i libucrt:argv_parsing.obj
 0001:00034cb8       ?get@?$__crt_unique_heap_ptr@PEADU__crt_internal_free_policy@@@@QEBAPEAPEADXZ 0000000140035cb8 f i libucrt:argv_parsing.obj
 0001:00034cbc       ?get@?$__crt_unique_heap_ptr@PEA_WU__crt_internal_free_policy@@@@QEBAPEAPEA_WXZ 0000000140035cbc f i libucrt:argv_parsing.obj
 0001:00034cc0       ?get_address_of@?$__crt_unique_heap_ptr@PEADU__crt_internal_free_policy@@@@QEAAPEAPEAPEADXZ 0000000140035cc0 f i libucrt:argv_parsing.obj
 0001:00034cc4       ?get_address_of@?$__crt_unique_heap_ptr@PEA_WU__crt_internal_free_policy@@@@QEAAPEAPEAPEA_WXZ 0000000140035cc4 f i libucrt:argv_parsing.obj
 0001:00034ce8       ?is_valid@?$__crt_unique_heap_ptr@EU__crt_internal_free_policy@@@@QEBA_NXZ 0000000140035ce8 f i libucrt:argv_parsing.obj
 0001:00034cf0       ?release@?$__crt_unique_heap_ptr@EU__crt_internal_free_policy@@@@QEAAXXZ 0000000140035cf0 f i libucrt:argv_parsing.obj
 0001:00034d0c       ?release@?$__crt_unique_heap_ptr@PEADU__crt_internal_free_policy@@@@QEAAXXZ 0000000140035d0c f i libucrt:argv_parsing.obj
 0001:00034d28       ?release@?$__crt_unique_heap_ptr@PEA_WU__crt_internal_free_policy@@@@QEAAXXZ 0000000140035d28 f i libucrt:argv_parsing.obj
 0001:00034d60       __acrt_allocate_buffer_for_argv 0000000140035d60 f   libucrt:argv_parsing.obj
 0001:00034dc0       _configure_narrow_argv     0000000140035dc0 f   libucrt:argv_parsing.obj
 0001:00034f48       _configure_wide_argv       0000000140035f48 f   libucrt:argv_parsing.obj
 0001:000350cc       _set_pgmptr                00000001400360cc f i libucrt:argv_parsing.obj
 0001:000350d4       _set_wpgmptr               00000001400360d4 f i libucrt:argv_parsing.obj
 0001:000350dc       ??$?R_W@__crt_internal_free_policy@@QEBAXQEB_W@Z 00000001400360dc f i libucrt:environment_initialization.obj
 0001:00035604       ??$get_environment_from_os@$$V@?$__crt_char_traits@D@@SAPEADXZ 0000000140036604 f i libucrt:environment_initialization.obj
 0001:0003560c       ??$get_environment_from_os@$$V@?$__crt_char_traits@_W@@SAPEA_WXZ 000000014003660c f i libucrt:environment_initialization.obj
 0001:000357b0       ??$set_variable_in_environment_nolock@PEADH@?$__crt_char_traits@D@@SAH$$QEAPEAD$$QEAH@Z 00000001400367b0 f i libucrt:environment_initialization.obj
 0001:000357bc       ??$set_variable_in_environment_nolock@PEA_WH@?$__crt_char_traits@_W@@SAH$$QEAPEA_W$$QEAH@Z 00000001400367bc f i libucrt:environment_initialization.obj
 0001:000357c8       ??$tcscpy_s@PEADAEB_KAEAPEAD@?$__crt_char_traits@D@@SAH$$QEAPEADAEB_KAEAPEAD@Z 00000001400367c8 f i libucrt:environment_initialization.obj
 0001:000357d8       ??$tcscpy_s@PEA_WAEB_KAEAPEA_W@?$__crt_char_traits@_W@@SAH$$QEAPEA_WAEB_KAEAPEA_W@Z 00000001400367d8 f i libucrt:environment_initialization.obj
 0001:000357e8       ??$tcslen@AEAPEAD@?$__crt_char_traits@D@@SA_KAEAPEAD@Z 00000001400367e8 f i libucrt:environment_initialization.obj
 0001:000357fc       ??$tcslen@AEAPEA_W@?$__crt_char_traits@_W@@SA_KAEAPEA_W@Z 00000001400367fc f i libucrt:environment_initialization.obj
 0001:00035810       ??$uninitialize@A6AXAEAPEAPEAD@_E@?$dual_state_global@PEAPEAD@__crt_state_management@@QEAAXA6AXAEAPEAPEAD@_E@Z 0000000140036810 f i libucrt:environment_initialization.obj
 0001:00035868       ??$uninitialize@A6AXAEAPEAPEA_W@_E@?$dual_state_global@PEAPEA_W@__crt_state_management@@QEAAXA6AXAEAPEAPEA_W@_E@Z 0000000140036868 f i libucrt:environment_initialization.obj
 0001:000358f8       ??0?$__crt_unique_heap_ptr@_WU__crt_internal_free_policy@@@@QEAA@QEA_W@Z 00000001400368f8 f i libucrt:environment_initialization.obj
 0001:00035900       ??1?$__crt_unique_heap_ptr@_WU__crt_internal_free_policy@@@@QEAA@XZ 0000000140036900 f i libucrt:environment_initialization.obj
 0001:0003591c       ??B?$__crt_unique_heap_ptr@PEADU__crt_internal_free_policy@@@@QEBA_NXZ 000000014003691c f i libucrt:environment_initialization.obj
 0001:00035924       ??B?$__crt_unique_heap_ptr@PEA_WU__crt_internal_free_policy@@@@QEBA_NXZ 0000000140036924 f i libucrt:environment_initialization.obj
 0001:0003592c       ??B?$__crt_unique_heap_ptr@_WU__crt_internal_free_policy@@@@QEBA_NXZ 000000014003692c f i libucrt:environment_initialization.obj
 0001:00035934       ?__crt_compute_required_transform_buffer_count@@YA_KIQEBD@Z 0000000140036934 f i libucrt:environment_initialization.obj
 0001:00035958       ?__crt_compute_required_transform_buffer_count@@YA_KIQEB_W@Z 0000000140036958 f i libucrt:environment_initialization.obj
 0001:00035988       ?__crt_transform_string@@YA_KIQEBDQEA_W_K@Z 0000000140036988 f i libucrt:environment_initialization.obj
 0001:000359ac       ?__crt_transform_string@@YA_KIQEB_WQEAD_K@Z 00000001400369ac f i libucrt:environment_initialization.obj
 0001:000359dc       ?detach@?$__crt_unique_heap_ptr@DU__crt_internal_free_policy@@@@QEAAPEADXZ 00000001400369dc f i libucrt:environment_initialization.obj
 0001:000359e4       ?detach@?$__crt_unique_heap_ptr@_WU__crt_internal_free_policy@@@@QEAAPEA_WXZ 00000001400369e4 f i libucrt:environment_initialization.obj
 0001:000359ec       ?get@?$__crt_unique_heap_ptr@_WU__crt_internal_free_policy@@@@QEBAPEA_WXZ 00000001400369ec f i libucrt:environment_initialization.obj
 0001:00035a20       ?initialize@?$dual_state_global@PEAPEAD@__crt_state_management@@QEAAXQEAPEAD@Z 0000000140036a20 f i libucrt:environment_initialization.obj
 0001:00035a30       ?initialize@?$dual_state_global@PEAPEA_W@__crt_state_management@@QEAAXQEAPEA_W@Z 0000000140036a30 f i libucrt:environment_initialization.obj
 0001:00035a40       ?is_valid@?$__crt_unique_heap_ptr@PEADU__crt_internal_free_policy@@@@QEBA_NXZ 0000000140036a40 f i libucrt:environment_initialization.obj
 0001:00035a48       ?is_valid@?$__crt_unique_heap_ptr@PEA_WU__crt_internal_free_policy@@@@QEBA_NXZ 0000000140036a48 f i libucrt:environment_initialization.obj
 0001:00035a50       ?is_valid@?$__crt_unique_heap_ptr@_WU__crt_internal_free_policy@@@@QEBA_NXZ 0000000140036a50 f i libucrt:environment_initialization.obj
 0001:00035a64       ?release@?$__crt_unique_heap_ptr@_WU__crt_internal_free_policy@@@@QEAAXXZ 0000000140036a64 f i libucrt:environment_initialization.obj
 0001:00035a80       ?value@?$dual_state_global@PEAPEAD@__crt_state_management@@QEAAAEAPEAPEADXZ 0000000140036a80 f i libucrt:environment_initialization.obj
 0001:00035a84       ?value@?$dual_state_global@PEAPEA_W@__crt_state_management@@QEAAAEAPEAPEA_WXZ 0000000140036a84 f i libucrt:environment_initialization.obj
 0001:00035a88       __dcrt_get_or_create_narrow_environment_nolock 0000000140036a88 f   libucrt:environment_initialization.obj
 0001:00035ac4       __dcrt_get_or_create_wide_environment_nolock 0000000140036ac4 f   libucrt:environment_initialization.obj
 0001:00035b00       __dcrt_uninitialize_environments_nolock 0000000140036b00 f   libucrt:environment_initialization.obj
 0001:00035b44       __p__environ               0000000140036b44 f   libucrt:environment_initialization.obj
 0001:00035b4c       __p__wenviron              0000000140036b4c f   libucrt:environment_initialization.obj
 0001:00035b54       _get_initial_narrow_environment 0000000140036b54 f   libucrt:environment_initialization.obj
 0001:00035ba4       _get_initial_wide_environment 0000000140036ba4 f   libucrt:environment_initialization.obj
 0001:00035bf4       _initialize_narrow_environment 0000000140036bf4 f   libucrt:environment_initialization.obj
 0001:00035bfc       _initialize_wide_environment 0000000140036bfc f   libucrt:environment_initialization.obj
 0001:00035c04       _initterm                  0000000140036c04 f   libucrt:initterm.obj
 0001:00035c48       _initterm_e                0000000140036c48 f   libucrt:initterm.obj
 0001:00035c90       ??$?B$$A6AXPEAXK0@Z@__crt_fast_encoded_nullptr_t@@QEBAP6AXPEAXK0@ZXZ 0000000140036c90 f i libucrt:exit.obj
 0001:00035d00       ??$__crt_fast_decode_pointer@P6AXPEAXK0@Z@@YAP6AXPEAXK0@ZQ6AX0K0@Z@Z 0000000140036d00 f i libucrt:exit.obj
 0001:00035d18       ??$__crt_fast_encode_pointer@P6AXPEAXK0@Z@@YAP6AXPEAXK0@ZQ6AX0K0@Z@Z 0000000140036d18 f i libucrt:exit.obj
 0001:00035d38       ??$__crt_get_proc_address@P6AXI@Z@@YAP6AXI@ZQEAUHINSTANCE__@@QEBD@Z 0000000140036d38 f i libucrt:exit.obj
 0001:00035d60       ??0?$__crt_unique_handle_t@U__crt_hmodule_traits@@@@QEAA@QEAUHINSTANCE__@@@Z 0000000140036d60 f i libucrt:exit.obj
 0001:00035d68       ??1?$__crt_unique_handle_t@U__crt_hmodule_traits@@@@QEAA@XZ 0000000140036d68 f i libucrt:exit.obj
 0001:00035e68       ?__acrt_select_exit_lock@@YA?AW4__acrt_lock_id@@XZ 0000000140036e68 f i libucrt:exit.obj
 0001:00035e70       ?__crt_fast_encode_pointer@@YA?AU__crt_fast_encoded_nullptr_t@@$$T@Z 0000000140036e70 f i libucrt:exit.obj
 0001:00035e84       ?close@?$__crt_unique_handle_t@U__crt_hmodule_traits@@@@QEAAXXZ 0000000140036e84 f i libucrt:exit.obj
 0001:00035ea8       ?close@__crt_hmodule_traits@@SA_NPEAUHINSTANCE__@@@Z 0000000140036ea8 f i libucrt:exit.obj
 0001:00035fb8       ?get@?$__crt_unique_handle_t@U__crt_hmodule_traits@@@@QEBAPEAUHINSTANCE__@@XZ 0000000140036fb8 f i libucrt:exit.obj
 0001:00035fbc       ?get_address_of@?$__crt_unique_handle_t@U__crt_hmodule_traits@@@@QEAAPEAPEAUHINSTANCE__@@XZ 0000000140036fbc f i libucrt:exit.obj
 0001:00035fc0       ?get_invalid_value@__crt_hmodule_traits@@SAPEAUHINSTANCE__@@XZ 0000000140036fc0 f i libucrt:exit.obj
 0001:000360ac       _Exit                      00000001400370ac f   libucrt:exit.obj
 0001:000360b8       __acrt_initialize_thread_local_exit_callback 00000001400370b8 f   libucrt:exit.obj
 0001:000360c0       _c_exit                    00000001400370c0 f   libucrt:exit.obj
 0001:000360d0       _cexit                     00000001400370d0 f   libucrt:exit.obj
 0001:000360e0       _exit                      00000001400370e0 f   libucrt:exit.obj
 0001:000360ec       _is_c_termination_complete 00000001400370ec f   libucrt:exit.obj
 0001:000360f4       _register_thread_local_exe_atexit_callback 00000001400370f4 f   libucrt:exit.obj
 0001:00036134       exit                       0000000140037134 f   libucrt:exit.obj
 0001:00036140       quick_exit                 0000000140037140 f   libucrt:exit.obj
 0001:0003614c       ??$__crt_interlocked_read@H@@YAHPEDH@Z 000000014003714c f i libucrt:setmode.obj
 0001:00036150       ?value@?$dual_state_global@H@__crt_state_management@@QEAAAEAHXZ 0000000140037150 f i libucrt:setmode.obj
 0001:00036154       _get_fmode                 0000000140037154 f   libucrt:setmode.obj
 0001:00036184       _set_fmode                 0000000140037184 f   libucrt:setmode.obj
 0001:000361c4       _setmode                   00000001400371c4 f   libucrt:setmode.obj
 0001:000362e0       _setmode_nolock            00000001400372e0 f   libucrt:setmode.obj
 0001:000363c4       __acrt_initialize_command_line 00000001400373c4 f   libucrt:argv_data.obj
 0001:000363ec       __acrt_uninitialize_command_line 00000001400373ec f   libucrt:argv_data.obj
 0001:000363f0       __p___argc                 00000001400373f0 f   libucrt:argv_data.obj
 0001:000363f8       __p___argv                 00000001400373f8 f   libucrt:argv_data.obj
 0001:00036400       __p___wargv                0000000140037400 f   libucrt:argv_data.obj
 0001:00036408       __p__acmdln                0000000140037408 f   libucrt:argv_data.obj
 0001:00036410       __p__pgmptr                0000000140037410 f   libucrt:argv_data.obj
 0001:00036418       __p__wcmdln                0000000140037418 f   libucrt:argv_data.obj
 0001:00036420       __p__wpgmptr               0000000140037420 f   libucrt:argv_data.obj
 0001:00036428       _get_pgmptr                0000000140037428 f   libucrt:argv_data.obj
 0001:00036460       _get_wpgmptr               0000000140037460 f   libucrt:argv_data.obj
 0001:0003649c       ??$?RU__crt_locale_data@@@__crt_internal_free_policy@@QEBAXQEBU__crt_locale_data@@@Z 000000014003749c f i libucrt:wsetlocale.obj
 0001:000364a4       ??$?RU__crt_locale_pointers@@@__crt_internal_free_policy@@QEBAXQEBU__crt_locale_pointers@@@Z 00000001400374a4 f i libucrt:wsetlocale.obj
 0001:000364ac       ??$?RU__crt_multibyte_data@@@__crt_internal_free_policy@@QEBAXQEBU__crt_multibyte_data@@@Z 00000001400374ac f i libucrt:wsetlocale.obj
 0001:000368b0       ??0?$__crt_unique_heap_ptr@U__crt_locale_data@@U__crt_internal_free_policy@@@@QEAA@QEAU__crt_locale_data@@@Z 00000001400378b0 f i libucrt:wsetlocale.obj
 0001:000368b8       ??0?$__crt_unique_heap_ptr@U__crt_locale_pointers@@U__crt_internal_free_policy@@@@QEAA@QEAU__crt_locale_pointers@@@Z 00000001400378b8 f i libucrt:wsetlocale.obj
 0001:000368c0       ??0?$__crt_unique_heap_ptr@U__crt_multibyte_data@@U__crt_internal_free_policy@@@@QEAA@QEAU__crt_multibyte_data@@@Z 00000001400378c0 f i libucrt:wsetlocale.obj
 0001:000368c8       ??0_expandlocale_locale_name_cache@@QEAA@QEA_W_KQEAU__crt_qualified_locale_data@@@Z 00000001400378c8 f i libucrt:wsetlocale.obj
 0001:00036924       ??1?$__crt_unique_heap_ptr@U__crt_locale_data@@U__crt_internal_free_policy@@@@QEAA@XZ 0000000140037924 f i libucrt:wsetlocale.obj
 0001:00036940       ??1?$__crt_unique_heap_ptr@U__crt_locale_pointers@@U__crt_internal_free_policy@@@@QEAA@XZ 0000000140037940 f i libucrt:wsetlocale.obj
 0001:0003695c       ??1?$__crt_unique_heap_ptr@U__crt_multibyte_data@@U__crt_internal_free_policy@@@@QEAA@XZ 000000014003795c f i libucrt:wsetlocale.obj
 0001:00036978       ??1_expandlocale_locale_name_cache@@QEAA@XZ 0000000140037978 f i libucrt:wsetlocale.obj
 0001:000369c0       ??B?$__crt_unique_heap_ptr@U__crt_locale_data@@U__crt_internal_free_policy@@@@QEBA_NXZ 00000001400379c0 f i libucrt:wsetlocale.obj
 0001:000369c8       ??B?$__crt_unique_heap_ptr@U__crt_locale_pointers@@U__crt_internal_free_policy@@@@QEBA_NXZ 00000001400379c8 f i libucrt:wsetlocale.obj
 0001:000369d0       ??B?$__crt_unique_heap_ptr@U__crt_multibyte_data@@U__crt_internal_free_policy@@@@QEBA_NXZ 00000001400379d0 f i libucrt:wsetlocale.obj
 0001:00036c50       ?commit_locale_name@_expandlocale_locale_name_cache@@QEAAXQEB_W_K@Z 0000000140037c50 f i libucrt:wsetlocale.obj
 0001:00036cc8       ?commit_locale_name_cache_already_updated@_expandlocale_locale_name_cache@@QEAAXQEB_W_K@Z 0000000140037cc8 f i libucrt:wsetlocale.obj
 0001:00036d08       ?detach@?$__crt_unique_heap_ptr@U__crt_locale_data@@U__crt_internal_free_policy@@@@QEAAPEAU__crt_locale_data@@XZ 0000000140037d08 f i libucrt:wsetlocale.obj
 0001:00036d10       ?detach@?$__crt_unique_heap_ptr@U__crt_locale_pointers@@U__crt_internal_free_policy@@@@QEAAPEAU__crt_locale_pointers@@XZ 0000000140037d10 f i libucrt:wsetlocale.obj
 0001:00036d18       ?detach@?$__crt_unique_heap_ptr@U__crt_multibyte_data@@U__crt_internal_free_policy@@@@QEAAPEAU__crt_multibyte_data@@XZ 0000000140037d18 f i libucrt:wsetlocale.obj
 0001:00036d20       ?get@?$__crt_unique_heap_ptr@U__crt_locale_data@@U__crt_internal_free_policy@@@@QEBAPEAU__crt_locale_data@@XZ 0000000140037d20 f i libucrt:wsetlocale.obj
 0001:00036d24       ?get@?$__crt_unique_heap_ptr@U__crt_locale_pointers@@U__crt_internal_free_policy@@@@QEBAPEAU__crt_locale_pointers@@XZ 0000000140037d24 f i libucrt:wsetlocale.obj
 0001:00036d28       ?get@?$__crt_unique_heap_ptr@U__crt_multibyte_data@@U__crt_internal_free_policy@@@@QEBAPEAU__crt_multibyte_data@@XZ 0000000140037d28 f i libucrt:wsetlocale.obj
 0001:00036d2c       ?is_valid@?$__crt_unique_heap_ptr@U__crt_locale_data@@U__crt_internal_free_policy@@@@QEBA_NXZ 0000000140037d2c f i libucrt:wsetlocale.obj
 0001:00036d34       ?is_valid@?$__crt_unique_heap_ptr@U__crt_locale_pointers@@U__crt_internal_free_policy@@@@QEBA_NXZ 0000000140037d34 f i libucrt:wsetlocale.obj
 0001:00036d3c       ?is_valid@?$__crt_unique_heap_ptr@U__crt_multibyte_data@@U__crt_internal_free_policy@@@@QEBA_NXZ 0000000140037d3c f i libucrt:wsetlocale.obj
 0001:00036d44       ?release@?$__crt_unique_heap_ptr@U__crt_locale_data@@U__crt_internal_free_policy@@@@QEAAXXZ 0000000140037d44 f i libucrt:wsetlocale.obj
 0001:00036d60       ?release@?$__crt_unique_heap_ptr@U__crt_locale_pointers@@U__crt_internal_free_policy@@@@QEAAXXZ 0000000140037d60 f i libucrt:wsetlocale.obj
 0001:00036d7c       ?release@?$__crt_unique_heap_ptr@U__crt_multibyte_data@@U__crt_internal_free_policy@@@@QEAAXXZ 0000000140037d7c f i libucrt:wsetlocale.obj
 0001:00036d98       ?value@?$dual_state_global@PEAU__crt_locale_data@@@__crt_state_management@@QEAAAEAPEAU__crt_locale_data@@XZ 0000000140037d98 f i libucrt:wsetlocale.obj
 0001:00036d9c       __acrt_copy_locale_name    0000000140037d9c f   libucrt:wsetlocale.obj
 0001:00036e20       __acrt_set_locale_changed  0000000140037e20 f   libucrt:wsetlocale.obj
 0001:00036e2c       __acrt_uninitialize_locale 0000000140037e2c f   libucrt:wsetlocale.obj
 0001:00036e5c       __ascii_tolower            0000000140037e5c f i libucrt:wsetlocale.obj
 0001:00036e6c       __ascii_towlower           0000000140037e6c f i libucrt:wsetlocale.obj
 0001:00036e7c       __lc_lctowcs               0000000140037e7c f   libucrt:wsetlocale.obj
 0001:00036f20       __lc_wcstolc               0000000140037f20 f   libucrt:wsetlocale.obj
 0001:00037088       _configthreadlocale        0000000140038088 f   libucrt:wsetlocale.obj
 0001:000371b4       _create_locale             00000001400381b4 f   libucrt:wsetlocale.obj
 0001:000376ac       _free_locale               00000001400386ac f   libucrt:wsetlocale.obj
 0001:00037750       _get_current_locale        0000000140038750 f   libucrt:wsetlocale.obj
 0001:0003780c       _wcreate_locale            000000014003880c f   libucrt:wsetlocale.obj
 0001:00037954       _wcscats                   0000000140038954 f   libucrt:wsetlocale.obj
 0001:000379bc       _wsetlocale                00000001400389bc f   libucrt:wsetlocale.obj
 0001:000387d8       ?value@?$dual_state_global@J@__crt_state_management@@QEAAAEAJXZ 00000001400397d8 f i libucrt:new_mode.obj
 0001:000387dc       _query_new_mode            00000001400397dc f   libucrt:new_mode.obj
 0001:000387e4       _set_new_mode              00000001400397e4 f   libucrt:new_mode.obj
 0001:00038810       __p__commode               0000000140039810 f   libucrt:ncommode.obj
 0001:00038818       ??$?B$$A6AXXZ@__crt_fast_encoded_nullptr_t@@QEBAP6AXXZXZ 0000000140039818 f i libucrt:onexit.obj
 0001:00038820       ??$?BP6AXXZ@__crt_fast_encoded_nullptr_t@@QEBAPEAP6AXXZXZ 0000000140039820 f i libucrt:onexit.obj
 0001:00038828       ??$?RP6AXXZ@__crt_internal_free_policy@@QEBAXQEBQ6AXXZ@Z 0000000140039828 f i libucrt:onexit.obj
 0001:00038900       ??$__crt_fast_decode_pointer@P6AXXZ@@YAP6AXXZQ6AXXZ@Z 0000000140039900 f i libucrt:onexit.obj
 0001:00038918       ??$__crt_fast_decode_pointer@PEAP6AXXZ@@YAPEAP6AXXZQEAP6AXXZ@Z 0000000140039918 f i libucrt:onexit.obj
 0001:00038930       ??$__crt_fast_encode_pointer@P6AHXZ@@YAP6AHXZQ6AHXZ@Z 0000000140039930 f i libucrt:onexit.obj
 0001:00038950       ??$__crt_fast_encode_pointer@P6AXXZ@@YAP6AXXZQ6AXXZ@Z 0000000140039950 f i libucrt:onexit.obj
 0001:00038970       ??$__crt_fast_encode_pointer@PEAP6AXXZ@@YAPEAP6AXXZQEAP6AXXZ@Z 0000000140039970 f i libucrt:onexit.obj
 0001:000389c4       ??0?$__crt_unique_heap_ptr@P6AXXZU__crt_internal_free_policy@@@@QEAA@QEAP6AXXZ@Z 00000001400399c4 f i libucrt:onexit.obj
 0001:000389cc       ??1?$__crt_unique_heap_ptr@P6AXXZU__crt_internal_free_policy@@@@QEAA@XZ 00000001400399cc f i libucrt:onexit.obj
 0001:000389e8       ??1scoped_global_state_reset@__crt_state_management@@QEAA@XZ 00000001400399e8 f i libucrt:onexit.obj
 0001:00038cdc       ?detach@?$__crt_unique_heap_ptr@P6AXXZU__crt_internal_free_policy@@@@QEAAPEAP6AXXZXZ 0000000140039cdc f i libucrt:onexit.obj
 0001:00038ce4       ?release@?$__crt_unique_heap_ptr@P6AXXZU__crt_internal_free_policy@@@@QEAAXXZ 0000000140039ce4 f i libucrt:onexit.obj
 0001:00038d00       _crt_at_quick_exit         0000000140039d00 f   libucrt:onexit.obj
 0001:00038d10       _crt_atexit                0000000140039d10 f   libucrt:onexit.obj
 0001:00038d20       _execute_onexit_table      0000000140039d20 f   libucrt:onexit.obj
 0001:00038d64       _initialize_onexit_table   0000000140039d64 f   libucrt:onexit.obj
 0001:00038d8c       _register_onexit_function  0000000140039d8c f   libucrt:onexit.obj
 0001:00038f14       ??$?BX@__crt_fast_encoded_nullptr_t@@QEBAPEAXXZ 0000000140039f14 f i libucrt:initialization.obj
 0001:00038f1c       ??$__crt_fast_encode_pointer@PEAX@@YAPEAXQEAX@Z 0000000140039f1c f i libucrt:initialization.obj
 0001:00038fd8       ?__acrt_stdio_is_initialized@@YA_NXZ 0000000140039fd8 f i libucrt:initialization.obj
 0001:00038fe4       ?initialize@?$dual_state_global@PEAU__crt_locale_data@@@__crt_state_management@@QEAAXQEAU__crt_locale_data@@@Z 0000000140039fe4 f i libucrt:initialization.obj
 0001:00038ff4       __acrt_initialize          0000000140039ff4 f   libucrt:initialization.obj
 0001:00039008       __acrt_thread_attach       000000014003a008 f   libucrt:initialization.obj
 0001:0003901c       __acrt_thread_detach       000000014003a01c f   libucrt:initialization.obj
 0001:0003902c       __acrt_uninitialize        000000014003a02c f   libucrt:initialization.obj
 0001:00039064       __acrt_uninitialize_critical 000000014003a064 f   libucrt:initialization.obj
 0001:00039088       _get_terminate             000000014003a088 f   libucrt:terminate.obj
 0001:000390ac       set_terminate              000000014003a0ac f   libucrt:terminate.obj
 0001:000390d8       terminate                  000000014003a0d8 f   libucrt:terminate.obj
 0001:00039104       free                       000000014003a104 f   libucrt:free.obj
 0001:00039118       _set_abort_behavior        000000014003a118 f   libucrt:abort.obj
 0001:00039134       abort                      000000014003a134 f   libucrt:abort.obj
 0001:0003918c       malloc                     000000014003a18c f   libucrt:malloc.obj
 0001:000391f8       strcpy_s                   000000014003a1f8 f   libucrt:strcpy_s.obj
 0001:00039258       calloc                     000000014003a258 f   libucrt:calloc.obj
 0001:00039260       ??$is_overflow_condition@_K@__crt_strtox@@YA_NI_K@Z 000000014003a260 f i libucrt:atox.obj
 0001:00039298       ??$make_c_string_character_source@D$$T@__crt_strtox@@YA?AV?$c_string_character_source@D@0@QEBD$$T@Z 000000014003a298 f i libucrt:atox.obj
 0001:000392ac       ??$make_c_string_character_source@_W$$T@__crt_strtox@@YA?AV?$c_string_character_source@_W@0@QEB_W$$T@Z 000000014003a2ac f i libucrt:atox.obj
 0001:000392c0       ??$parse_integer@KV?$c_string_character_source@D@__crt_strtox@@$00@__crt_strtox@@YAKAEAV__crt_cached_ptd_host@@V?$c_string_character_source@D@0@H_N@Z 000000014003a2c0 f i libucrt:atox.obj
 0001:000395b0       ??$parse_integer@KV?$c_string_character_source@_W@__crt_strtox@@$00@__crt_strtox@@YAKAEAV__crt_cached_ptd_host@@V?$c_string_character_source@_W@0@H_N@Z 000000014003a5b0 f i libucrt:atox.obj
 0001:00039d4c       ??$parse_integer@_KV?$c_string_character_source@D@__crt_strtox@@$00@__crt_strtox@@YA_KAEAV__crt_cached_ptd_host@@V?$c_string_character_source@D@0@H_N@Z 000000014003ad4c f i libucrt:atox.obj
 0001:0003a028       ??$parse_integer@_KV?$c_string_character_source@_W@__crt_strtox@@$00@__crt_strtox@@YA_KAEAV__crt_cached_ptd_host@@V?$c_string_character_source@_W@0@H_N@Z 000000014003b028 f i libucrt:atox.obj
 0001:0003a7ac       ??$parse_integer_from_string@JD$$T@__crt_strtox@@YAJQEBD$$THQEAU__crt_locale_pointers@@@Z 000000014003b7ac f i libucrt:atox.obj
 0001:0003a868       ??$parse_integer_from_string@J_W$$T@__crt_strtox@@YAJQEB_W$$THQEAU__crt_locale_pointers@@@Z 000000014003b868 f i libucrt:atox.obj
 0001:0003a924       ??$parse_integer_from_string@_JD$$T@__crt_strtox@@YA_JQEBD$$THQEAU__crt_locale_pointers@@@Z 000000014003b924 f i libucrt:atox.obj
 0001:0003a9e4       ??$parse_integer_from_string@_J_W$$T@__crt_strtox@@YA_JQEB_W$$THQEAU__crt_locale_pointers@@@Z 000000014003b9e4 f i libucrt:atox.obj
 0001:0003aaa4       ?is_space@__crt_strtox@@YA_NDQEAU__crt_locale_pointers@@@Z 000000014003baa4 f i libucrt:atox.obj
 0001:0003aac4       ?is_space@__crt_strtox@@YA_N_WPEAU__crt_locale_pointers@@@Z 000000014003bac4 f i libucrt:atox.obj
 0001:0003aadc       ?maximum_signed_value@__crt_strtox@@YA_J_K@Z 000000014003badc f i libucrt:atox.obj
 0001:0003aae8       ?minimum_signed_value@__crt_strtox@@YA_J_K@Z 000000014003bae8 f i libucrt:atox.obj
 0001:0003aaf4       __acrt_get_locale_data_prefix 000000014003baf4 f i libucrt:atox.obj
 0001:0003aaf8       _atoi64                    000000014003baf8 f   libucrt:atox.obj
 0001:0003abac       _atoi64_l                  000000014003bbac f   libucrt:atox.obj
 0001:0003ac68       _atoi_l                    000000014003bc68 f   libucrt:atox.obj
 0001:0003ad24       _atol_l                    000000014003bd24 f   libucrt:atox.obj
 0001:0003ade0       _atoll_l                   000000014003bde0 f   libucrt:atox.obj
 0001:0003ae9c       _chvalidchk_l              000000014003be9c f i libucrt:atox.obj
 0001:0003af00       _ischartype_l              000000014003bf00 f i libucrt:atox.obj
 0001:0003af78       _wtoi                      000000014003bf78 f   libucrt:atox.obj
 0001:0003b028       _wtoi64                    000000014003c028 f   libucrt:atox.obj
 0001:0003b0dc       _wtoi64_l                  000000014003c0dc f   libucrt:atox.obj
 0001:0003b198       _wtoi_l                    000000014003c198 f   libucrt:atox.obj
 0001:0003b254       _wtol                      000000014003c254 f   libucrt:atox.obj
 0001:0003b304       _wtol_l                    000000014003c304 f   libucrt:atox.obj
 0001:0003b3c0       _wtoll                     000000014003c3c0 f   libucrt:atox.obj
 0001:0003b474       _wtoll_l                   000000014003c474 f   libucrt:atox.obj
 0001:0003b530       atoi                       000000014003c530 f   libucrt:atox.obj
 0001:0003b5e0       atol                       000000014003c5e0 f   libucrt:atox.obj
 0001:0003b690       atoll                      000000014003c690 f   libucrt:atox.obj
 0001:0003b760       strncmp                    000000014003c760 f   libucrt:strncmp.obj
 0001:0003b7e0       wcsncmp                    000000014003c7e0 f   libucrt:wcsncmp.obj
 0001:0003b80c       ??$__crt_fast_decode_pointer@P6AXPEB_W00I_K@Z@@YAP6AXPEB_W00I_K@ZQ6AX000I1@Z@Z 000000014003c80c f i libucrt:invalid_parameter.obj
 0001:0003b824       ??$__crt_fast_encode_pointer@P6AXPEB_W00I_K@Z@@YAP6AXPEB_W00I_K@ZQ6AX000I1@Z@Z 000000014003c824 f i libucrt:invalid_parameter.obj
 0001:0003b844       ??$initialize_from_array@$$BY00Q6AXPEB_W00I_K@Z@?$dual_state_global@P6AXPEB_W00I_K@Z@__crt_state_management@@QEAAXAEAY00Q6AXPEB_W00I_K@Z@Z 000000014003c844 f i libucrt:invalid_parameter.obj
 0001:0003b8bc       ?check_synchronize_global_state_index@__crt_cached_ptd_host@@AEAA_KXZ 000000014003c8bc f i libucrt:invalid_parameter.obj
 0001:0003b8f0       ?dangerous_get_state_array@?$dual_state_global@P6AXPEB_W00I_K@Z@__crt_state_management@@QEAAPEAP6AXPEB_W00I_K@ZXZ 000000014003c8f0 f i libucrt:invalid_parameter.obj
 0001:0003b8f4       ?get_current_global_state_index@__crt_cached_ptd_host@@QEAA_KXZ 000000014003c8f4 f i libucrt:invalid_parameter.obj
 0001:0003b934       ?get_raw_ptd_noexit@__crt_cached_ptd_host@@QEAAPEAU__acrt_ptd@@XZ 000000014003c934 f i libucrt:invalid_parameter.obj
 0001:0003b9a0       ?try_synchronize_per_thread_data@__crt_cached_ptd_host@@AEAAPEAU__acrt_ptd@@XZ 000000014003c9a0 f i libucrt:invalid_parameter.obj
 0001:0003ba04       ?value@?$dual_state_global@P6AXPEB_W00I_K@Z@__crt_state_management@@QEAAAEAP6AXPEB_W00I_K@ZAEAV__crt_cached_ptd_host@@@Z 000000014003ca04 f i libucrt:invalid_parameter.obj
 0001:0003ba50       ?value@?$dual_state_global@P6AXPEB_W00I_K@Z@__crt_state_management@@QEAAAEAP6AXPEB_W00I_K@ZXZ 000000014003ca50 f i libucrt:invalid_parameter.obj
 0001:0003ba54       __acrt_call_reportfault    000000014003ca54 f   libucrt:invalid_parameter.obj
 0001:0003bbb0       __acrt_initialize_invalid_parameter_handler 000000014003cbb0 f   libucrt:invalid_parameter.obj
 0001:0003bbb8       _get_invalid_parameter_handler 000000014003cbb8 f   libucrt:invalid_parameter.obj
 0001:0003bbd4       _get_thread_local_invalid_parameter_handler 000000014003cbd4 f   libucrt:invalid_parameter.obj
 0001:0003bbf0       _invalid_parameter         000000014003cbf0 f   libucrt:invalid_parameter.obj
 0001:0003bc8c       _invalid_parameter_internal 000000014003cc8c f   libucrt:invalid_parameter.obj
 0001:0003bd58       _invalid_parameter_noinfo  000000014003cd58 f   libucrt:invalid_parameter.obj
 0001:0003bd78       _invalid_parameter_noinfo_noreturn 000000014003cd78 f   libucrt:invalid_parameter.obj
 0001:0003bda8       _invoke_watson             000000014003cda8 f   libucrt:invalid_parameter.obj
 0001:0003bdf0       _set_invalid_parameter_handler 000000014003cdf0 f   libucrt:invalid_parameter.obj
 0001:0003be24       _set_thread_local_invalid_parameter_handler 000000014003ce24 f   libucrt:invalid_parameter.obj
 0001:0003be4c       ?get_doserrno@__crt_cached_ptd_host@@QEAA@XZ 000000014003ce4c f i libucrt:errno.obj
 0001:0003be54       ?set@?$cached@K@__crt_cached_ptd_host@@QEAAKK@Z 000000014003ce54 f i libucrt:errno.obj
 0001:0003be60       __acrt_errno_from_os_error 000000014003ce60 f   libucrt:errno.obj
 0001:0003bea8       __acrt_errno_map_os_error  000000014003cea8 f   libucrt:errno.obj
 0001:0003bef0       __acrt_errno_map_os_error_ptd 000000014003cef0 f   libucrt:errno.obj
 0001:0003bf14       __doserrno                 000000014003cf14 f   libucrt:errno.obj
 0001:0003bf34       _errno                     000000014003cf34 f   libucrt:errno.obj
 0001:0003bf54       _get_doserrno              000000014003cf54 f   libucrt:errno.obj
 0001:0003bf90       _get_errno                 000000014003cf90 f   libucrt:errno.obj
 0001:0003bfcc       _set_doserrno              000000014003cfcc f   libucrt:errno.obj
 0001:0003c008       _set_errno                 000000014003d008 f   libucrt:errno.obj
 0001:0003c044       _calloc_base               000000014003d044 f   libucrt:calloc_base.obj
 0001:0003c0c4       _free_base                 000000014003d0c4 f   libucrt:free_base.obj
 0001:0003c138       ??$?B$$A6AHPEA_WK_J@Z@__crt_fast_encoded_nullptr_t@@QEBAP6AHPEA_WK_J@ZXZ 000000014003d138 f i libucrt:winapi_thunks.obj
 0001:0003c1e4       ??$__crt_fast_decode_pointer@P6AHPEA_WK_J@Z@@YAP6AHPEA_WK_J@ZQ6AH0K1@Z@Z 000000014003d1e4 f i libucrt:winapi_thunks.obj
 0001:0003c1fc       ??$__crt_fast_decode_pointer@PEAX@@YAPEAXQEAX@Z 000000014003d1fc f i libucrt:winapi_thunks.obj
 0001:0003c214       ??$__crt_fast_encode_pointer@P6AHPEA_WK_J@Z@@YAP6AHPEA_WK_J@ZQ6AH0K1@Z@Z 000000014003d214 f i libucrt:winapi_thunks.obj
 0001:0003cc90       GetCurrentThreadEffectiveToken 000000014003dc90 f i libucrt:winapi_thunks.obj
 0001:0003cc98       __acrt_AppPolicyGetProcessTerminationMethodInternal 000000014003dc98 f   libucrt:winapi_thunks.obj
 0001:0003ccf0       __acrt_AppPolicyGetShowDeveloperDiagnosticInternal 000000014003dcf0 f   libucrt:winapi_thunks.obj
 0001:0003cd48       __acrt_AppPolicyGetThreadInitializationTypeInternal 000000014003dd48 f   libucrt:winapi_thunks.obj
 0001:0003cda0       __acrt_AppPolicyGetWindowingModelInternal 000000014003dda0 f   libucrt:winapi_thunks.obj
 0001:0003cdf8       __acrt_AreFileApisANSI     000000014003ddf8 f   libucrt:winapi_thunks.obj
 0001:0003ce3c       __acrt_CompareStringEx     000000014003de3c f   libucrt:winapi_thunks.obj
 0001:0003cf28       __acrt_EnumSystemLocalesEx 000000014003df28 f   libucrt:winapi_thunks.obj
 0001:0003cfc8       __acrt_FlsAlloc            000000014003dfc8 f   libucrt:winapi_thunks.obj
 0001:0003cfd0       __acrt_FlsFree             000000014003dfd0 f   libucrt:winapi_thunks.obj
 0001:0003cfd8       __acrt_FlsGetValue         000000014003dfd8 f   libucrt:winapi_thunks.obj
 0001:0003cfe0       __acrt_FlsSetValue         000000014003dfe0 f   libucrt:winapi_thunks.obj
 0001:0003cfe8       __acrt_GetDateFormatEx     000000014003dfe8 f   libucrt:winapi_thunks.obj
 0001:0003d0a8       __acrt_GetEnabledXStateFeatures 000000014003e0a8 f   libucrt:winapi_thunks.obj
 0001:0003d0ec       __acrt_GetLocaleInfoEx     000000014003e0ec f   libucrt:winapi_thunks.obj
 0001:0003d17c       __acrt_GetSystemTimePreciseAsFileTime 000000014003e17c f   libucrt:winapi_thunks.obj
 0001:0003d1d4       __acrt_GetTempPath2W       000000014003e1d4 f   libucrt:winapi_thunks.obj
 0001:0003d234       __acrt_GetTimeFormatEx     000000014003e234 f   libucrt:winapi_thunks.obj
 0001:0003d2e8       __acrt_GetUserDefaultLocaleName 000000014003e2e8 f   libucrt:winapi_thunks.obj
 0001:0003d354       __acrt_GetXStateFeaturesMask 000000014003e354 f   libucrt:winapi_thunks.obj
 0001:0003d3b0       __acrt_InitializeCriticalSectionEx 000000014003e3b0 f   libucrt:winapi_thunks.obj
 0001:0003d420       __acrt_IsValidLocaleName   000000014003e420 f   libucrt:winapi_thunks.obj
 0001:0003d484       __acrt_LCIDToLocaleName    000000014003e484 f   libucrt:winapi_thunks.obj
 0001:0003d508       __acrt_LCMapStringEx       000000014003e508 f   libucrt:winapi_thunks.obj
 0001:0003d5f4       __acrt_LocaleNameToLCID    000000014003e5f4 f   libucrt:winapi_thunks.obj
 0001:0003d654       __acrt_LocateXStateFeature 000000014003e654 f   libucrt:winapi_thunks.obj
 0001:0003d6c0       __acrt_MessageBoxA         000000014003e6c0 f   libucrt:winapi_thunks.obj
 0001:0003d73c       __acrt_MessageBoxW         000000014003e73c f   libucrt:winapi_thunks.obj
 0001:0003d7b8       __acrt_RoInitialize        000000014003e7b8 f   libucrt:winapi_thunks.obj
 0001:0003d804       __acrt_RoUninitialize      000000014003e804 f   libucrt:winapi_thunks.obj
 0001:0003d844       __acrt_RtlGenRandom        000000014003e844 f   libucrt:winapi_thunks.obj
 0001:0003d8a0       __acrt_SetThreadStackGuarantee 000000014003e8a0 f   libucrt:winapi_thunks.obj
 0001:0003d8ec       __acrt_can_show_message_box 000000014003e8ec f   libucrt:winapi_thunks.obj
 0001:0003d95c       __acrt_can_use_vista_locale_apis 000000014003e95c f   libucrt:winapi_thunks.obj
 0001:0003d98c       __acrt_can_use_xstate_apis 000000014003e98c f   libucrt:winapi_thunks.obj
 0001:0003d9bc       __acrt_eagerly_load_locale_apis 000000014003e9bc f   libucrt:winapi_thunks.obj
 0001:0003db18       __acrt_get_parent_window   000000014003eb18 f   libucrt:winapi_thunks.obj
 0001:0003dba4       __acrt_initialize_winapi_thunks 000000014003eba4 f   libucrt:winapi_thunks.obj
 0001:0003dbc8       __acrt_is_interactive      000000014003ebc8 f   libucrt:winapi_thunks.obj
 0001:0003dca8       __acrt_uninitialize_winapi_thunks 000000014003eca8 f   libucrt:winapi_thunks.obj
 0001:0003dcec       ??0__crt_stdio_stream@@QEAA@QEAU__crt_stdio_stream_data@@@Z 000000014003ecec f i libucrt:closeall.obj
 0001:0003dcf4       ?is_in_use@__crt_stdio_stream@@QEBA_NXZ 000000014003ecf4 f i libucrt:closeall.obj
 0001:0003dd04       _fcloseall                 000000014003ed04 f   libucrt:closeall.obj
 0001:0003e1c8       ?__acrt_stdio_reset_buffer@@YAXV__crt_stdio_stream@@@Z 000000014003f1c8 f i libucrt:fflush.obj
 0001:0003e2b8       ?has_all_of@__crt_stdio_stream@@QEBA_NJ@Z 000000014003f2b8 f i libucrt:fflush.obj
 0001:0003e304       ?set_flags@__crt_stdio_stream@@QEBA_NJ@Z 000000014003f304 f i libucrt:fflush.obj
 0001:0003e324       ?unset_flags@__crt_stdio_stream@@QEBA_NJ@Z 000000014003f324 f i libucrt:fflush.obj
 0001:0003e34c       __acrt_stdio_flush_nolock  000000014003f34c f   libucrt:fflush.obj
 0001:0003e3d8       _fflush_nolock             000000014003f3d8 f   libucrt:fflush.obj
 0001:0003e4ac       _flushall                  000000014003f4ac f   libucrt:fflush.obj
 0001:0003e4b4       fflush                     000000014003f4b4 f   libucrt:fflush.obj
 0001:0003e51c       ?has_any_of@__crt_stdio_stream@@QEBA_NJ@Z 000000014003f51c f i libucrt:_freebuf.obj
 0001:0003e52c       ?has_crt_buffer@__crt_stdio_stream@@QEBA_NXZ 000000014003f52c f i libucrt:_freebuf.obj
 0001:0003e53c       __acrt_stdio_free_buffer_nolock 000000014003f53c f   libucrt:_freebuf.obj
 0001:0003e794       __acrt_initialize_lowio    000000014003f794 f   libucrt:ioinit.obj
 0001:0003e7d0       __acrt_uninitialize_lowio  000000014003f7d0 f   libucrt:ioinit.obj
 0001:0003e810       _malloc_base               000000014003f810 f   libucrt:malloc_base.obj
 0001:0003f124       ??1?$__crt_simd_cleanup_guard@$00@@QEAA@XZ 0000000140040124 f i libucrt:strnlen.obj
 0001:0003f128       ??1?$__crt_simd_cleanup_guard@$0A@@@QEAA@XZ 0000000140040128 f i libucrt:strnlen.obj
 0001:0003f12c       ?compare_equals@?$__crt_simd_traits@$00E@@SA?AT__m256i@@T2@0@Z 000000014004012c f i libucrt:strnlen.obj
 0001:0003f138       ?compare_equals@?$__crt_simd_traits@$00G@@SA?AT__m256i@@T2@0@Z 0000000140040138 f i libucrt:strnlen.obj
 0001:0003f144       ?compare_equals@?$__crt_simd_traits@$0A@E@@SA?AT__m128i@@T2@0@Z 0000000140040144 f i libucrt:strnlen.obj
 0001:0003f150       ?compare_equals@?$__crt_simd_traits@$0A@G@@SA?AT__m128i@@T2@0@Z 0000000140040150 f i libucrt:strnlen.obj
 0001:0003f15c       ?compute_byte_mask@?$__crt_simd_pack_traits@$00@@SAHT__m256i@@@Z 000000014004015c f i libucrt:strnlen.obj
 0001:0003f168       ?compute_byte_mask@?$__crt_simd_pack_traits@$0A@@@SAHT__m128i@@@Z 0000000140040168 f i libucrt:strnlen.obj
 0001:0003f174       ?get_zero_pack@?$__crt_simd_pack_traits@$00@@SA?AT__m256i@@XZ 0000000140040174 f i libucrt:strnlen.obj
 0001:0003f17c       ?get_zero_pack@?$__crt_simd_pack_traits@$0A@@@SA?AT__m128i@@XZ 000000014004017c f i libucrt:strnlen.obj
 0001:0003f180       strnlen                    0000000140040180 f   libucrt:strnlen.obj
 0001:0003f2d0       wcslen                     00000001400402d0 f   libucrt:strnlen.obj
 0001:0003f3fc       wcsnlen                    00000001400403fc f   libucrt:strnlen.obj
 0001:0003f5d4       ?value@?$dual_state_global@PEAU__crt_multibyte_data@@@__crt_state_management@@QEAAAEAPEAU__crt_multibyte_data@@XZ 00000001400405d4 f i libucrt:locale_update.obj
 0001:0003f5d8       ?value_explicit@?$dual_state_global@PEAU__crt_locale_data@@@__crt_state_management@@QEAAAEAPEAU__crt_locale_data@@_K@Z 00000001400405d8 f i libucrt:locale_update.obj
 0001:0003f5e0       ?value_explicit@?$dual_state_global@PEAU__crt_multibyte_data@@@__crt_state_management@@QEAAAEAPEAU__crt_multibyte_data@@_K@Z 00000001400405e0 f i libucrt:locale_update.obj
 0001:0003f5e8       __acrt_should_sync_with_global_locale 00000001400405e8 f i libucrt:locale_update.obj
 0001:0003f5f8       __acrt_update_locale_info  00000001400405f8 f   libucrt:locale_update.obj
 0001:0003f62c       __acrt_update_locale_info_explicit 000000014004062c f   libucrt:locale_update.obj
 0001:0003f664       __acrt_update_multibyte_info 0000000140040664 f   libucrt:locale_update.obj
 0001:0003f698       __acrt_update_multibyte_info_explicit 0000000140040698 f   libucrt:locale_update.obj
 0001:0003f6d0       ?__acrt_fp_classify@@YA?AW4__acrt_fp_class@@AEBN@Z 00000001400406d0 f i libucrt:cvt.obj
 0001:0003f72c       ?__acrt_fp_is_negative@@YA_NAEBN@Z 000000014004072c f i libucrt:cvt.obj
 0001:00040398       ?strrchr@@YAPEADQEADH@Z    0000000140041398 f i libucrt:cvt.obj
 0001:000403a0       __acrt_fp_format           00000001400413a0 f   libucrt:cvt.obj
 0001:00040688       ?value_or@?$cached@H@__crt_cached_ptd_host@@QEBAHH@Z 0000000140041688 f i libucrt:wctomb.obj
 0001:00040694       _wctomb_internal           0000000140041694 f   libucrt:wctomb.obj
 0001:00040844       _wctomb_l                  0000000140041844 f   libucrt:wctomb.obj
 0001:00040930       _wctomb_s_l                0000000140041930 f   libucrt:wctomb.obj
 0001:000409e0       wctomb                     00000001400419e0 f   libucrt:wctomb.obj
 0001:00040aa8       wctomb_s                   0000000140041aa8 f   libucrt:wctomb.obj
 0001:00040b48       _isleadbyte_fast_internal  0000000140041b48 f i libucrt:mbtowc.obj
 0001:00040b60       _mbtowc_internal           0000000140041b60 f   libucrt:mbtowc.obj
 0001:00040cd8       _mbtowc_l                  0000000140041cd8 f   libucrt:mbtowc.obj
 0001:00040d7c       mbtowc                     0000000140041d7c f   libucrt:mbtowc.obj
 0001:00040e14       ?lowio_handle@__crt_stdio_stream@@QEBAHXZ 0000000140041e14 f i libucrt:fileno.obj
 0001:00040e1c       _fileno                    0000000140041e1c f   libucrt:fileno.obj
 0001:00040e44       _get_printf_count_output   0000000140041e44 f   libucrt:printf_count_output.obj
 0001:00040e5c       _set_printf_count_output   0000000140041e5c f   libucrt:printf_count_output.obj
 0001:00040f20       _fputwc_nolock             0000000140041f20 f   libucrt:fputwc.obj
 0001:00040fbc       _fputwc_nolock_internal    0000000140041fbc f   libucrt:fputwc.obj
 0001:00041148       _fputwchar                 0000000140042148 f   libucrt:fputwc.obj
 0001:0004116c       _putwc_nolock              000000014004216c f   libucrt:fputwc.obj
 0001:00041174       fputwc                     0000000140042174 f   libucrt:fputwc.obj
 0001:00041210       putwc                      0000000140042210 f   libucrt:fputwc.obj
 0001:00041218       putwchar                   0000000140042218 f   libucrt:fputwc.obj
 0001:00041388       _fputc_nolock              0000000140042388 f   libucrt:fputc.obj
 0001:00041434       _fputc_nolock_internal     0000000140042434 f   libucrt:fputc.obj
 0001:0004144c       _fputchar                  000000014004244c f   libucrt:fputc.obj
 0001:00041470       _putc_nolock               0000000140042470 f   libucrt:fputc.obj
 0001:00041478       fputc                      0000000140042478 f   libucrt:fputc.obj
 0001:00041510       putc                       0000000140042510 f   libucrt:fputc.obj
 0001:00041518       putchar                    0000000140042518 f   libucrt:fputc.obj
 0001:00041520       ?has_any_buffer@__crt_stdio_stream@@QEBA_NXZ 0000000140042520 f i libucrt:_sftbuf.obj
 0001:00041534       ?has_temporary_buffer@__crt_stdio_stream@@QEBA_NXZ 0000000140042534 f i libucrt:_sftbuf.obj
 0001:00041544       __acrt_should_use_temporary_buffer 0000000140042544 f   libucrt:_sftbuf.obj
 0001:00041590       __acrt_stdio_begin_temporary_buffering_nolock 0000000140042590 f   libucrt:_sftbuf.obj
 0001:00041658       __acrt_stdio_end_temporary_buffering_nolock 0000000140042658 f   libucrt:_sftbuf.obj
 0001:00041698       ??$?RU__acrt_ptd@@@__crt_internal_free_policy@@QEBAXQEBU__acrt_ptd@@@Z 0000000140042698 f i libucrt:per_thread_data.obj
 0001:000418cc       ??0?$__crt_unique_heap_ptr@U__acrt_ptd@@U__crt_internal_free_policy@@@@QEAA@QEAU__acrt_ptd@@@Z 00000001400428cc f i libucrt:per_thread_data.obj
 0001:000418d4       ??1?$__crt_unique_heap_ptr@U__acrt_ptd@@U__crt_internal_free_policy@@@@QEAA@XZ 00000001400428d4 f i libucrt:per_thread_data.obj
 0001:000418f0       ??B?$__crt_unique_heap_ptr@U__acrt_ptd@@U__crt_internal_free_policy@@@@QEBA_NXZ 00000001400428f0 f i libucrt:per_thread_data.obj
 0001:00041b44       ?dangerous_get_state_array@?$dual_state_global@PEAU__crt_locale_data@@@__crt_state_management@@QEAAPEAPEAU__crt_locale_data@@XZ 0000000140042b44 f i libucrt:per_thread_data.obj
 0001:00041d58       ?detach@?$__crt_unique_heap_ptr@U__acrt_ptd@@U__crt_internal_free_policy@@@@QEAAPEAU__acrt_ptd@@XZ 0000000140042d58 f i libucrt:per_thread_data.obj
 0001:00041d60       ?get@?$__crt_unique_heap_ptr@U__acrt_ptd@@U__crt_internal_free_policy@@@@QEBAPEAU__acrt_ptd@@XZ 0000000140042d60 f i libucrt:per_thread_data.obj
 0001:00041f80       ?is_valid@?$__crt_unique_heap_ptr@U__acrt_ptd@@U__crt_internal_free_policy@@@@QEBA_NXZ 0000000140042f80 f i libucrt:per_thread_data.obj
 0001:00041f88       ?release@?$__crt_unique_heap_ptr@U__acrt_ptd@@U__crt_internal_free_policy@@@@QEAAXXZ 0000000140042f88 f i libucrt:per_thread_data.obj
 0001:00042020       __acrt_freeptd             0000000140043020 f   libucrt:per_thread_data.obj
 0001:00042064       __acrt_getptd              0000000140043064 f   libucrt:per_thread_data.obj
 0001:00042138       __acrt_getptd_head         0000000140043138 f   libucrt:per_thread_data.obj
 0001:000421dc       __acrt_getptd_noexit       00000001400431dc f   libucrt:per_thread_data.obj
 0001:000422a4       __acrt_getptd_noexit_explicit 00000001400432a4 f   libucrt:per_thread_data.obj
 0001:00042364       __acrt_initialize_ptd      0000000140043364 f   libucrt:per_thread_data.obj
 0001:000423a0       __acrt_uninitialize_ptd    00000001400433a0 f   libucrt:per_thread_data.obj
 0001:000423c4       __threadhandle             00000001400433c4 f   libucrt:per_thread_data.obj
 0001:000423cc       __threadid                 00000001400433cc f   libucrt:per_thread_data.obj
 0001:000423d4       __p___mb_cur_max           00000001400433d4 f   libucrt:nlsdata.obj
 0001:00042404       _set_error_mode            0000000140043404 f   libucrt:set_error_mode.obj
 0001:000424c8       wcscat_s                   00000001400434c8 f   libucrt:wcscat_s.obj
 0001:000425ac       wcscpy_s                   00000001400435ac f   libucrt:wcscpy_s.obj
 0001:00042708       wcsncpy_s                  0000000140043708 f   libucrt:wcsncpy_s.obj
 0001:0004294c       ??$message_box@$$TAEBQEBDAEBQEBDK@?$__crt_char_traits@D@@SAH$$QEA$$TAEBQEBD1$$QEAK@Z 000000014004394c f i libucrt:crtmbox.obj
 0001:00042960       ??$message_box@$$TAEBQEB_WAEBQEB_WK@?$__crt_char_traits@_W@@SAH$$QEA$$TAEBQEB_W1$$QEAK@Z 0000000140043960 f i libucrt:crtmbox.obj
 0001:00042974       ??$message_box@PEAUHWND__@@AEBQEBDAEBQEBDAEBI@?$__crt_char_traits@D@@SAH$$QEAPEAUHWND__@@AEBQEBD1AEBI@Z 0000000140043974 f i libucrt:crtmbox.obj
 0001:00042988       ??$message_box@PEAUHWND__@@AEBQEB_WAEBQEB_WAEBI@?$__crt_char_traits@_W@@SAH$$QEAPEAUHWND__@@AEBQEB_W1AEBI@Z 0000000140043988 f i libucrt:crtmbox.obj
 0001:0004299c       ??$output_debug_string@AEBQEBD@?$__crt_char_traits@D@@SAXAEBQEBD@Z 000000014004399c f i libucrt:crtmbox.obj
 0001:000429a4       ??$output_debug_string@AEBQEB_W@?$__crt_char_traits@_W@@SAXAEBQEB_W@Z 00000001400439a4 f i libucrt:crtmbox.obj
 0001:000429b0       __acrt_show_narrow_message_box 00000001400439b0 f   libucrt:crtmbox.obj
 0001:00042a54       __acrt_show_wide_message_box 0000000140043a54 f   libucrt:crtmbox.obj
 0001:00042b20       ??$__acrt_convert_wcs_mbs_cp@D_WV<lambda_7c9dea7b4ca7285d2cdb541a38da6275>@@U__crt_win32_buffer_internal_dynamic_resizing@@@@YAHQEBDAEAV?$__crt_win32_buffer@_WU__crt_win32_buffer_internal_dynamic_resizing@@@@AEBV<lambda_7c9dea7b4ca7285d2cdb541a38da6275>@@I@Z 0000000140043b20 f i libucrt:argv_wildcards.obj
 0001:00042c9c       ??$__acrt_convert_wcs_mbs_cp@_WDV<lambda_d8593a27d1aa8c02be35c86a17d324c4>@@U__crt_win32_buffer_internal_dynamic_resizing@@@@YAHQEB_WAEAV?$__crt_win32_buffer@DU__crt_win32_buffer_internal_dynamic_resizing@@@@AEBV<lambda_d8593a27d1aa8c02be35c86a17d324c4>@@I@Z 0000000140043c9c f i libucrt:argv_wildcards.obj
 0001:00042e28       ??$__acrt_mbs_to_wcs_cp@U__crt_win32_buffer_internal_dynamic_resizing@@@@YAHQEBDAEAV?$__crt_win32_buffer@_WU__crt_win32_buffer_internal_dynamic_resizing@@@@I@Z 0000000140043e28 f i libucrt:argv_wildcards.obj
 0001:00042e38       ??$__acrt_wcs_to_mbs_cp@U__crt_win32_buffer_internal_dynamic_resizing@@@@YAHQEB_WAEAV?$__crt_win32_buffer@DU__crt_win32_buffer_internal_dynamic_resizing@@@@I@Z 0000000140043e38 f i libucrt:argv_wildcards.obj
 0001:00043c68       ??$tcslen@AEBQEBD@?$__crt_char_traits@D@@SA_KAEBQEBD@Z 0000000140044c68 f i libucrt:argv_wildcards.obj
 0001:00043c7c       ??$tcslen@AEBQEB_W@?$__crt_char_traits@_W@@SA_KAEBQEB_W@Z 0000000140044c7c f i libucrt:argv_wildcards.obj
 0001:00043c90       ??$tcsncpy_s@AEAPEAD_KAEAPEADAEB_K@?$__crt_char_traits@D@@SAHAEAPEAD$$QEA_K0AEB_K@Z 0000000140044c90 f i libucrt:argv_wildcards.obj
 0001:00043ca4       ??$tcsncpy_s@AEAPEA_W_KAEAPEA_WAEB_K@?$__crt_char_traits@_W@@SAHAEAPEA_W$$QEA_K0AEB_K@Z 0000000140044ca4 f i libucrt:argv_wildcards.obj
 0001:00043cb8       ??$tcsncpy_s@PEADAEB_KAEBQEBDAEB_K@?$__crt_char_traits@D@@SAH$$QEAPEADAEB_KAEBQEBD1@Z 0000000140044cb8 f i libucrt:argv_wildcards.obj
 0001:00043ccc       ??$tcsncpy_s@PEAD_KAEBQEBDAEB_K@?$__crt_char_traits@D@@SAH$$QEAPEAD$$QEA_KAEBQEBDAEB_K@Z 0000000140044ccc f i libucrt:argv_wildcards.obj
 0001:00043ce0       ??$tcsncpy_s@PEA_WAEB_KAEBQEB_WAEB_K@?$__crt_char_traits@_W@@SAH$$QEAPEA_WAEB_KAEBQEB_W1@Z 0000000140044ce0 f i libucrt:argv_wildcards.obj
 0001:00043cf4       ??$tcsncpy_s@PEA_W_KAEBQEB_WAEB_K@?$__crt_char_traits@_W@@SAH$$QEAPEA_W$$QEA_KAEBQEB_WAEB_K@Z 0000000140044cf4 f i libucrt:argv_wildcards.obj
 0001:00043d08       ??$tcspbrk@AEAPEADAEAY02$$CBD@?$__crt_char_traits@D@@SAPEADAEAPEADAEAY02$$CBD@Z 0000000140044d08 f i libucrt:argv_wildcards.obj
 0001:00043d10       ??$tcspbrk@AEAPEA_WAEAY02$$CB_W@?$__crt_char_traits@_W@@SAPEA_WAEAPEA_WAEAY02$$CB_W@Z 0000000140044d10 f i libucrt:argv_wildcards.obj
 0001:00043d18       ??0?$__crt_unique_handle_t@U__crt_findfile_traits@@@@QEAA@QEAX@Z 0000000140044d18 f i libucrt:argv_wildcards.obj
 0001:00043d20       ??0?$__crt_win32_buffer@DU__crt_win32_buffer_internal_dynamic_resizing@@@@QEAA@XZ 0000000140044d20 f i libucrt:argv_wildcards.obj
 0001:00043d3c       ??0?$__crt_win32_buffer@_WU__crt_win32_buffer_internal_dynamic_resizing@@@@QEAA@XZ 0000000140044d3c f i libucrt:argv_wildcards.obj
 0001:00043d80       ??0_LocaleUpdate@@QEAA@QEAU__crt_locale_pointers@@@Z 0000000140044d80 f i libucrt:argv_wildcards.obj
 0001:00043e1c       ??1?$__crt_unique_handle_t@U__crt_findfile_traits@@@@QEAA@XZ 0000000140044e1c f i libucrt:argv_wildcards.obj
 0001:00043e40       ??1?$__crt_win32_buffer@DU__crt_win32_buffer_internal_dynamic_resizing@@@@QEAA@XZ 0000000140044e40 f i libucrt:argv_wildcards.obj
 0001:00043e64       ??1?$__crt_win32_buffer@_WU__crt_win32_buffer_internal_dynamic_resizing@@@@QEAA@XZ 0000000140044e64 f i libucrt:argv_wildcards.obj
 0001:00043f00       ??1_LocaleUpdate@@QEAA@XZ  0000000140044f00 f i libucrt:argv_wildcards.obj
 0001:00043f24       ??R<lambda_7c9dea7b4ca7285d2cdb541a38da6275>@@QEBA@IQEBDQEA_W_K@Z 0000000140044f24 f i libucrt:argv_wildcards.obj
 0001:00043fb4       ??R<lambda_d8593a27d1aa8c02be35c86a17d324c4>@@QEBA@IQEB_WQEAD_K@Z 0000000140044fb4 f i libucrt:argv_wildcards.obj
 0001:00043fe4       ?GetLocaleT@_LocaleUpdate@@QEAAPEAU__crt_locale_pointers@@XZ 0000000140044fe4 f i libucrt:argv_wildcards.obj
 0001:00043fec       ?__acrt_get_utf8_acp_compatibility_codepage@@YAIXZ 0000000140044fec f i libucrt:argv_wildcards.obj
 0001:00044038       ?_deallocate@?$__crt_win32_buffer@DU__crt_win32_buffer_internal_dynamic_resizing@@@@AEAAXXZ 0000000140045038 f i libucrt:argv_wildcards.obj
 0001:0004405c       ?_deallocate@?$__crt_win32_buffer@_WU__crt_win32_buffer_internal_dynamic_resizing@@@@AEAAXXZ 000000014004505c f i libucrt:argv_wildcards.obj
 0001:00044080       ?allocate@?$__crt_win32_buffer@DU__crt_win32_buffer_internal_dynamic_resizing@@@@QEAAH_K@Z 0000000140045080 f i libucrt:argv_wildcards.obj
 0001:000440e4       ?allocate@?$__crt_win32_buffer@_WU__crt_win32_buffer_internal_dynamic_resizing@@@@QEAAH_K@Z 00000001400450e4 f i libucrt:argv_wildcards.obj
 0001:00044148       ?allocate@__crt_win32_buffer_internal_dynamic_resizing@@SAHQEAPEAX_KAEBV__crt_win32_buffer_empty_debug_info@@@Z 0000000140045148 f i libucrt:argv_wildcards.obj
 0001:00044334       ?capacity@?$__crt_win32_buffer@DU__crt_win32_buffer_internal_dynamic_resizing@@@@QEBA_KXZ 0000000140045334 f i libucrt:argv_wildcards.obj
 0001:0004433c       ?capacity@?$__crt_win32_buffer@_WU__crt_win32_buffer_internal_dynamic_resizing@@@@QEBA_KXZ 000000014004533c f i libucrt:argv_wildcards.obj
 0001:00044344       ?close@?$__crt_unique_handle_t@U__crt_findfile_traits@@@@QEAAXXZ 0000000140045344 f i libucrt:argv_wildcards.obj
 0001:00044368       ?close@__crt_findfile_traits@@SA_NPEAX@Z 0000000140045368 f i libucrt:argv_wildcards.obj
 0001:0004437c       ?data@?$__crt_win32_buffer@DU__crt_win32_buffer_internal_dynamic_resizing@@@@QEAAPEADXZ 000000014004537c f i libucrt:argv_wildcards.obj
 0001:00044384       ?data@?$__crt_win32_buffer@_WU__crt_win32_buffer_internal_dynamic_resizing@@@@QEAAPEA_WXZ 0000000140045384 f i libucrt:argv_wildcards.obj
 0001:0004438c       ?deallocate@__crt_win32_buffer_internal_dynamic_resizing@@SAXQEAXAEBV__crt_win32_buffer_empty_debug_info@@@Z 000000014004538c f i libucrt:argv_wildcards.obj
 0001:00044394       ?debug_info@?$__crt_win32_buffer@DU__crt_win32_buffer_internal_dynamic_resizing@@@@QEBAAEBV__crt_win32_buffer_empty_debug_info@@XZ 0000000140045394 f i libucrt:argv_wildcards.obj
 0001:00044398       ?debug_info@?$__crt_win32_buffer@_WU__crt_win32_buffer_internal_dynamic_resizing@@@@QEBAAEBV__crt_win32_buffer_empty_debug_info@@XZ 0000000140045398 f i libucrt:argv_wildcards.obj
 0001:0004453c       ?get@?$__crt_unique_handle_t@U__crt_findfile_traits@@@@QEBAPEAXXZ 000000014004553c f i libucrt:argv_wildcards.obj
 0001:000445e8       ?get_invalid_value@__crt_findfile_traits@@SAPEAXXZ 00000001400455e8 f i libucrt:argv_wildcards.obj
 0001:000446a8       ?set_to_nullptr@?$__crt_win32_buffer@DU__crt_win32_buffer_internal_dynamic_resizing@@@@QEAAXXZ 00000001400456a8 f i libucrt:argv_wildcards.obj
 0001:000446e4       ?set_to_nullptr@?$__crt_win32_buffer@_WU__crt_win32_buffer_internal_dynamic_resizing@@@@QEAAXXZ 00000001400456e4 f i libucrt:argv_wildcards.obj
 0001:00044720       ?size@?$__crt_win32_buffer@DU__crt_win32_buffer_internal_dynamic_resizing@@@@QEAAX_K@Z 0000000140045720 f i libucrt:argv_wildcards.obj
 0001:00044728       ?size@?$__crt_win32_buffer@_WU__crt_win32_buffer_internal_dynamic_resizing@@@@QEAAX_K@Z 0000000140045728 f i libucrt:argv_wildcards.obj
 0001:00044748       ?strpbrk@@YAPEADQEADQEBD@Z 0000000140045748 f i libucrt:argv_wildcards.obj
 0001:00044750       ?wcspbrk@@YAPEA_WPEA_WPEB_W@Z 0000000140045750 f i libucrt:argv_wildcards.obj
 0001:00044758       __acrt_expand_narrow_argv_wildcards 0000000140045758 f   libucrt:argv_wildcards.obj
 0001:00044760       __acrt_expand_wide_argv_wildcards 0000000140045760 f   libucrt:argv_wildcards.obj
 0001:00044768       ??$__acrt_convert_wcs_mbs_cp@_WDV<lambda_f788ae46380686e8b737efdd8c720d07>@@U__crt_win32_buffer_no_resizing@@@@YAHQEB_WAEAV?$__crt_win32_buffer@DU__crt_win32_buffer_no_resizing@@@@AEBV<lambda_f788ae46380686e8b737efdd8c720d07>@@I@Z 0000000140045768 f i libucrt:getmodulefilenamea.obj
 0001:00044884       ??$__acrt_wcs_to_mbs_cp@U__crt_win32_buffer_no_resizing@@@@YAHQEB_WAEAV?$__crt_win32_buffer@DU__crt_win32_buffer_no_resizing@@@@I@Z 0000000140045884 f i libucrt:getmodulefilenamea.obj
 0001:00044894       ??0?$__crt_win32_buffer@DU__crt_win32_buffer_no_resizing@@@@QEAA@QEAD_K@Z 0000000140045894 f i libucrt:getmodulefilenamea.obj
 0001:000448b0       ??1?$__crt_win32_buffer@DU__crt_win32_buffer_no_resizing@@@@QEAA@XZ 00000001400458b0 f i libucrt:getmodulefilenamea.obj
 0001:000448bc       ??R<lambda_f788ae46380686e8b737efdd8c720d07>@@QEBA@IQEB_WQEAD_K@Z 00000001400458bc f i libucrt:getmodulefilenamea.obj
 0001:000448ec       ?_deallocate@?$__crt_win32_buffer@DU__crt_win32_buffer_no_resizing@@@@AEAAXXZ 00000001400458ec f i libucrt:getmodulefilenamea.obj
 0001:000448f8       ?allocate@?$__crt_win32_buffer@DU__crt_win32_buffer_no_resizing@@@@QEAAH_K@Z 00000001400458f8 f i libucrt:getmodulefilenamea.obj
 0001:00044928       ?allocate@__crt_win32_buffer_no_resizing@@SAHQEAPEAX_KAEBV__crt_win32_buffer_empty_debug_info@@@Z 0000000140045928 f i libucrt:getmodulefilenamea.obj
 0001:00044940       ?capacity@?$__crt_win32_buffer@DU__crt_win32_buffer_no_resizing@@@@QEBA_KXZ 0000000140045940 f i libucrt:getmodulefilenamea.obj
 0001:00044948       ?data@?$__crt_win32_buffer@DU__crt_win32_buffer_no_resizing@@@@QEAAPEADXZ 0000000140045948 f i libucrt:getmodulefilenamea.obj
 0001:00044950       ?deallocate@__crt_win32_buffer_no_resizing@@SAXQEAXAEBV__crt_win32_buffer_empty_debug_info@@@Z 0000000140045950 f i libucrt:getmodulefilenamea.obj
 0001:00044954       ?debug_info@?$__crt_win32_buffer@DU__crt_win32_buffer_no_resizing@@@@QEBAAEBV__crt_win32_buffer_empty_debug_info@@XZ 0000000140045954 f i libucrt:getmodulefilenamea.obj
 0001:00044958       ?set_to_nullptr@?$__crt_win32_buffer@DU__crt_win32_buffer_no_resizing@@@@QEAAXXZ 0000000140045958 f i libucrt:getmodulefilenamea.obj
 0001:00044970       ?size@?$__crt_win32_buffer@DU__crt_win32_buffer_no_resizing@@@@QEAAX_K@Z 0000000140045970 f i libucrt:getmodulefilenamea.obj
 0001:00044978       ?size@?$__crt_win32_buffer@DU__crt_win32_buffer_no_resizing@@@@QEBA_KXZ 0000000140045978 f i libucrt:getmodulefilenamea.obj
 0001:00044980       __acrt_GetModuleFileNameA  0000000140045980 f   libucrt:getmodulefilenamea.obj
 0001:00044c9c       ??$initialize_from_array@$$BY10BAA@E@?$dual_state_global@PEAE@__crt_state_management@@QEAAXAEAY10BAA@E@Z 0000000140045c9c f i libucrt:mbctype.obj
 0001:00044ca0       ??$initialize_from_array@$$BY10BAB@E@?$dual_state_global@PEAE@__crt_state_management@@QEAAXAEAY10BAB@E@Z 0000000140045ca0 f i libucrt:mbctype.obj
 0001:00044eac       ?dangerous_get_state_array@?$dual_state_global@PEAE@__crt_state_management@@QEAAPEAPEAEXZ 0000000140045eac f i libucrt:mbctype.obj
 0001:00044eb0       ?dangerous_get_state_array@?$dual_state_global@PEAU__crt_multibyte_data@@@__crt_state_management@@QEAAPEAPEAU__crt_multibyte_data@@XZ 0000000140045eb0 f i libucrt:mbctype.obj
 0001:00044f34       ?initialize@?$dual_state_global@PEAU__crt_multibyte_data@@@__crt_state_management@@QEAAXQEAU__crt_multibyte_data@@@Z 0000000140045f34 f i libucrt:mbctype.obj
 0001:000454ec       ?value@?$dual_state_global@PEAE@__crt_state_management@@QEAAAEAPEAEXZ 00000001400464ec f i libucrt:mbctype.obj
 0001:000454f0       __acrt_initialize_multibyte 00000001400464f0 f   libucrt:mbctype.obj
 0001:00045550       __acrt_update_thread_multibyte_data 0000000140046550 f   libucrt:mbctype.obj
 0001:0004556c       __p__mbcasemap             000000014004656c f   libucrt:mbctype.obj
 0001:00045574       __p__mbctype               0000000140046574 f   libucrt:mbctype.obj
 0001:0004557c       _getmbcp                   000000014004657c f   libucrt:mbctype.obj
 0001:000455b8       _setmbcp                   00000001400465b8 f   libucrt:mbctype.obj
 0001:000455e0       _setmbcp_nolock            00000001400465e0 f   libucrt:mbctype.obj
 0001:0004599c       _ismbbalnum                000000014004699c f   libucrt:ismbbyte.obj
 0001:000459b4       _ismbbalnum_l              00000001400469b4 f   libucrt:ismbbyte.obj
 0001:000459d0       _ismbbalpha                00000001400469d0 f   libucrt:ismbbyte.obj
 0001:000459e8       _ismbbalpha_l              00000001400469e8 f   libucrt:ismbbyte.obj
 0001:00045a04       _ismbbblank                0000000140046a04 f   libucrt:ismbbyte.obj
 0001:00045a20       _ismbbblank_l              0000000140046a20 f   libucrt:ismbbyte.obj
 0001:00045a40       _ismbbgraph                0000000140046a40 f   libucrt:ismbbyte.obj
 0001:00045a58       _ismbbgraph_l              0000000140046a58 f   libucrt:ismbbyte.obj
 0001:00045a74       _ismbbkalnum               0000000140046a74 f   libucrt:ismbbyte.obj
 0001:00045a88       _ismbbkalnum_l             0000000140046a88 f   libucrt:ismbbyte.obj
 0001:00045aa0       _ismbbkana                 0000000140046aa0 f   libucrt:ismbbyte.obj
 0001:00045aa8       _ismbbkana_l               0000000140046aa8 f   libucrt:ismbbyte.obj
 0001:00045b10       _ismbbkprint               0000000140046b10 f   libucrt:ismbbyte.obj
 0001:00045b24       _ismbbkprint_l             0000000140046b24 f   libucrt:ismbbyte.obj
 0001:00045b3c       _ismbbkpunct               0000000140046b3c f   libucrt:ismbbyte.obj
 0001:00045b50       _ismbbkpunct_l             0000000140046b50 f   libucrt:ismbbyte.obj
 0001:00045b68       _ismbblead                 0000000140046b68 f   libucrt:ismbbyte.obj
 0001:00045b7c       _ismbblead_l               0000000140046b7c f   libucrt:ismbbyte.obj
 0001:00045b94       _ismbbprint                0000000140046b94 f   libucrt:ismbbyte.obj
 0001:00045bac       _ismbbprint_l              0000000140046bac f   libucrt:ismbbyte.obj
 0001:00045bc8       _ismbbpunct                0000000140046bc8 f   libucrt:ismbbyte.obj
 0001:00045bdc       _ismbbpunct_l              0000000140046bdc f   libucrt:ismbbyte.obj
 0001:00045bf4       _ismbbtrail                0000000140046bf4 f   libucrt:ismbbyte.obj
 0001:00045c08       _ismbbtrail_l              0000000140046c08 f   libucrt:ismbbyte.obj
 0001:00045cac       __acrt_MultiByteToWideChar 0000000140046cac f   libucrt:multibytetowidechar.obj
 0001:00045dc4       __acrt_WideCharToMultiByte 0000000140046dc4 f   libucrt:widechartomultibyte.obj
 0001:00045f44       __dcrt_get_narrow_environment_from_os 0000000140046f44 f   libucrt:get_environment_from_os.obj
 0001:00046054       __dcrt_get_wide_environment_from_os 0000000140047054 f   libucrt:get_environment_from_os.obj
 0001:00046aec       ??$get_or_create_environment_nolock@$$V@?$__crt_char_traits@D@@SAPEAPEADXZ 0000000140047aec f i libucrt:setenv.obj
 0001:00046af4       ??$get_or_create_environment_nolock@$$V@?$__crt_char_traits@_W@@SAPEAPEA_WXZ 0000000140047af4 f i libucrt:setenv.obj
 0001:00046afc       ??$set_environment_variable@AEBQEADQEAD@?$__crt_char_traits@D@@SAHAEBQEAD$$QEBQEAD@Z 0000000140047afc f i libucrt:setenv.obj
 0001:00046b08       ??$set_environment_variable@AEBQEA_WQEA_W@?$__crt_char_traits@_W@@SAHAEBQEA_W$$QEBQEA_W@Z 0000000140047b08 f i libucrt:setenv.obj
 0001:00046b18       ??$tcschr@AEBQEADD@?$__crt_char_traits@D@@SAPEADAEBQEAD$$QEAD@Z 0000000140047b18 f i libucrt:setenv.obj
 0001:00046b24       ??$tcschr@AEBQEA_WD@?$__crt_char_traits@_W@@SAPEA_WAEBQEA_W$$QEAD@Z 0000000140047b24 f i libucrt:setenv.obj
 0001:00046b30       ??$tcscpy_s@AEAPEADAEB_KAEAPEAD@?$__crt_char_traits@D@@SAHAEAPEADAEB_K0@Z 0000000140047b30 f i libucrt:setenv.obj
 0001:00046b40       ??$tcscpy_s@AEAPEA_WAEB_KAEAPEA_W@?$__crt_char_traits@_W@@SAHAEAPEA_WAEB_K0@Z 0000000140047b40 f i libucrt:setenv.obj
 0001:00046b50       ??$tcscpy_s@AEBQEADAEB_KAEBQEAD@?$__crt_char_traits@D@@SAHAEBQEADAEB_K0@Z 0000000140047b50 f i libucrt:setenv.obj
 0001:00046b60       ??$tcscpy_s@AEBQEA_WAEB_KAEBQEA_W@?$__crt_char_traits@_W@@SAHAEBQEA_WAEB_K0@Z 0000000140047b60 f i libucrt:setenv.obj
 0001:00046b70       ??$tcslen@AEBQEAD@?$__crt_char_traits@D@@SA_KAEBQEAD@Z 0000000140047b70 f i libucrt:setenv.obj
 0001:00046b84       ??$tcslen@AEBQEA_W@?$__crt_char_traits@_W@@SA_KAEBQEA_W@Z 0000000140047b84 f i libucrt:setenv.obj
 0001:00046b98       ??$tcsnicoll@AEBQEBDAEAPEADAEB_K@?$__crt_char_traits@D@@SAHAEBQEBDAEAPEADAEB_K@Z 0000000140047b98 f i libucrt:setenv.obj
 0001:00046ba8       ??$tcsnicoll@AEBQEB_WAEAPEA_WAEB_K@?$__crt_char_traits@_W@@SAHAEBQEB_WAEAPEA_WAEB_K@Z 0000000140047ba8 f i libucrt:setenv.obj
 0001:00046be8       ?strchr@@YAPEADQEADH@Z     0000000140047be8 f i libucrt:setenv.obj
 0001:00046bf0       ?wcschr@@YAPEA_WPEA_W_W@Z  0000000140047bf0 f i libucrt:setenv.obj
 0001:00046bf8       __dcrt_set_variable_in_narrow_environment_nolock 0000000140047bf8 f   libucrt:setenv.obj
 0001:00046c00       __dcrt_set_variable_in_wide_environment_nolock 0000000140047c00 f   libucrt:setenv.obj
 0001:00046c08       __acrt_initialize_locks    0000000140047c08 f   libucrt:locks.obj
 0001:00046c50       __acrt_lock                0000000140047c50 f   libucrt:locks.obj
 0001:00046c6c       __acrt_uninitialize_locks  0000000140047c6c f   libucrt:locks.obj
 0001:00046ca4       __acrt_unlock              0000000140047ca4 f   libucrt:locks.obj
 0001:00046cc0       _lock_locales              0000000140047cc0 f   libucrt:locks.obj
 0001:00046cdc       _unlock_locales            0000000140047cdc f   libucrt:locks.obj
 0001:00046cec       __acrt_app_verifier_enabled 0000000140047cec f   libucrt:peb_access.obj
 0001:00046d08       __acrt_is_secure_process   0000000140047d08 f   libucrt:peb_access.obj
 0001:00046eac       __acrt_get_begin_thread_init_policy 0000000140047eac f   libucrt:win_policies.obj
 0001:00046eec       __acrt_get_developer_information_policy 0000000140047eec f   libucrt:win_policies.obj
 0001:00046f30       __acrt_get_process_end_policy 0000000140047f30 f   libucrt:win_policies.obj
 0001:00046f60       __acrt_get_windowing_model_policy 0000000140047f60 f   libucrt:win_policies.obj
 0001:00046fc8       ??$?RU__crt_lowio_handle_data@@@__crt_internal_free_policy@@QEBAXQEBU__crt_lowio_handle_data@@@Z 0000000140047fc8 f i libucrt:osfinfo.obj
 0001:00046fd0       ??0?$__crt_unique_heap_ptr@U__crt_lowio_handle_data@@U__crt_internal_free_policy@@@@QEAA@QEAU__crt_lowio_handle_data@@@Z 0000000140047fd0 f i libucrt:osfinfo.obj
 0001:00046fd8       ??1?$__crt_unique_heap_ptr@U__crt_lowio_handle_data@@U__crt_internal_free_policy@@@@QEAA@XZ 0000000140047fd8 f i libucrt:osfinfo.obj
 0001:00046ff4       ??B?$__crt_unique_heap_ptr@U__crt_lowio_handle_data@@U__crt_internal_free_policy@@@@QEBA_NXZ 0000000140047ff4 f i libucrt:osfinfo.obj
 0001:00046ffc       ?detach@?$__crt_unique_heap_ptr@U__crt_lowio_handle_data@@U__crt_internal_free_policy@@@@QEAAPEAU__crt_lowio_handle_data@@XZ 0000000140047ffc f i libucrt:osfinfo.obj
 0001:00047004       ?get@?$__crt_unique_heap_ptr@U__crt_lowio_handle_data@@U__crt_internal_free_policy@@@@QEBAPEAU__crt_lowio_handle_data@@XZ 0000000140048004 f i libucrt:osfinfo.obj
 0001:00047008       ?is_valid@?$__crt_unique_heap_ptr@U__crt_lowio_handle_data@@U__crt_internal_free_policy@@@@QEBA_NXZ 0000000140048008 f i libucrt:osfinfo.obj
 0001:00047010       ?release@?$__crt_unique_heap_ptr@U__crt_lowio_handle_data@@U__crt_internal_free_policy@@@@QEAAXXZ 0000000140048010 f i libucrt:osfinfo.obj
 0001:0004702c       __acrt_lowio_create_handle_array 000000014004802c f   libucrt:osfinfo.obj
 0001:000470d4       __acrt_lowio_destroy_handle_array 00000001400480d4 f   libucrt:osfinfo.obj
 0001:00047124       __acrt_lowio_ensure_fh_exists 0000000140048124 f   libucrt:osfinfo.obj
 0001:000471cc       __acrt_lowio_lock_fh       00000001400481cc f   libucrt:osfinfo.obj
 0001:000471f4       __acrt_lowio_set_os_handle 00000001400481f4 f   libucrt:osfinfo.obj
 0001:000472b4       __acrt_lowio_unlock_fh     00000001400482b4 f   libucrt:osfinfo.obj
 0001:000472dc       _alloc_osfhnd              00000001400482dc f   libucrt:osfinfo.obj
 0001:0004741c       _free_osfhnd               000000014004841c f   libucrt:osfinfo.obj
 0001:000474d8       _get_osfhandle             00000001400484d8 f   libucrt:osfinfo.obj
 0001:00047550       _open_osfhandle            0000000140048550 f   libucrt:osfinfo.obj
 0001:00047650       ?dangerous_get_state_array@?$dual_state_global@H@__crt_state_management@@QEAAPEAHXZ 0000000140048650 f i libucrt:txtmode.obj
 0001:00047654       __acrt_initialize_fmode    0000000140048654 f   libucrt:txtmode.obj
 0001:00047670       __p__fmode                 0000000140048670 f   libucrt:txtmode.obj
 0001:00047678       ??$?RG@__crt_internal_free_policy@@QEBAXQEBG@Z 0000000140048678 f i libucrt:initctype.obj
 0001:00047680       ??$?RJ@__crt_internal_free_policy@@QEBAXQEBJ@Z 0000000140048680 f i libucrt:initctype.obj
 0001:00047688       ??0?$__crt_unique_heap_ptr@GU__crt_internal_free_policy@@@@QEAA@QEAG@Z 0000000140048688 f i libucrt:initctype.obj
 0001:00047690       ??0?$__crt_unique_heap_ptr@JU__crt_internal_free_policy@@@@QEAA@QEAJ@Z 0000000140048690 f i libucrt:initctype.obj
 0001:00047698       ??1?$__crt_unique_heap_ptr@GU__crt_internal_free_policy@@@@QEAA@XZ 0000000140048698 f i libucrt:initctype.obj
 0001:000476b4       ??1?$__crt_unique_heap_ptr@JU__crt_internal_free_policy@@@@QEAA@XZ 00000001400486b4 f i libucrt:initctype.obj
 0001:000476d0       ?detach@?$__crt_unique_heap_ptr@GU__crt_internal_free_policy@@@@QEAAPEAGXZ 00000001400486d0 f i libucrt:initctype.obj
 0001:000476d8       ?detach@?$__crt_unique_heap_ptr@JU__crt_internal_free_policy@@@@QEAAPEAJXZ 00000001400486d8 f i libucrt:initctype.obj
 0001:000476e0       ?release@?$__crt_unique_heap_ptr@GU__crt_internal_free_policy@@@@QEAAXXZ 00000001400486e0 f i libucrt:initctype.obj
 0001:000476fc       ?release@?$__crt_unique_heap_ptr@JU__crt_internal_free_policy@@@@QEAAXXZ 00000001400486fc f i libucrt:initctype.obj
 0001:00047718       ___lc_codepage_func        0000000140048718 f   libucrt:initctype.obj
 0001:00047748       ___lc_collate_cp_func      0000000140048748 f   libucrt:initctype.obj
 0001:00047778       ___lc_locale_name_func     0000000140048778 f   libucrt:initctype.obj
 0001:000477ac       ___mb_cur_max_func         00000001400487ac f   libucrt:initctype.obj
 0001:000477dc       ___mb_cur_max_l_func       00000001400487dc f   libucrt:initctype.obj
 0001:000477ec       __acrt_locale_initialize_ctype 00000001400487ec f   libucrt:initctype.obj
 0001:00047e50       ??$?RUlconv@@@__crt_internal_free_policy@@QEBAXQEBUlconv@@@Z 0000000140048e50 f i libucrt:initmon.obj
 0001:00047e58       ??0?$__crt_unique_heap_ptr@Ulconv@@U__crt_internal_free_policy@@@@QEAA@QEAUlconv@@@Z 0000000140048e58 f i libucrt:initmon.obj
 0001:00047e60       ??1?$__crt_unique_heap_ptr@Ulconv@@U__crt_internal_free_policy@@@@QEAA@XZ 0000000140048e60 f i libucrt:initmon.obj
 0001:00047e7c       ?detach@?$__crt_unique_heap_ptr@Ulconv@@U__crt_internal_free_policy@@@@QEAAPEAUlconv@@XZ 0000000140048e7c f i libucrt:initmon.obj
 0001:00047e84       ?release@?$__crt_unique_heap_ptr@Ulconv@@U__crt_internal_free_policy@@@@QEAAXXZ 0000000140048e84 f i libucrt:initmon.obj
 0001:00047ea0       __acrt_locale_free_monetary 0000000140048ea0 f   libucrt:initmon.obj
 0001:00047fac       __acrt_locale_initialize_monetary 0000000140048fac f   libucrt:initmon.obj
 0001:000484fc       __acrt_locale_free_numeric 00000001400494fc f   libucrt:initnum.obj
 0001:00048568       __acrt_locale_initialize_numeric 0000000140049568 f   libucrt:initnum.obj
 0001:00048884       ??$?RU__crt_lc_time_data@@@__crt_internal_free_policy@@QEBAXQEBU__crt_lc_time_data@@@Z 0000000140049884 f i libucrt:inittime.obj
 0001:000488d4       ??0?$__crt_unique_heap_ptr@U__crt_lc_time_data@@U__crt_internal_free_policy@@@@QEAA@QEAU__crt_lc_time_data@@@Z 00000001400498d4 f i libucrt:inittime.obj
 0001:000488dc       ??1?$__crt_unique_heap_ptr@U__crt_lc_time_data@@U__crt_internal_free_policy@@@@QEAA@XZ 00000001400498dc f i libucrt:inittime.obj
 0001:000488f8       ??B?$__crt_unique_heap_ptr@U__crt_lc_time_data@@U__crt_internal_free_policy@@@@QEBA_NXZ 00000001400498f8 f i libucrt:inittime.obj
 0001:00048900       ?detach@?$__crt_unique_heap_ptr@U__crt_lc_time_data@@U__crt_internal_free_policy@@@@QEAAPEAU__crt_lc_time_data@@XZ 0000000140049900 f i libucrt:inittime.obj
 0001:0004893c       ?get@?$__crt_unique_heap_ptr@U__crt_lc_time_data@@U__crt_internal_free_policy@@@@QEBAPEAU__crt_lc_time_data@@XZ 000000014004993c f i libucrt:inittime.obj
 0001:00048d00       ?is_valid@?$__crt_unique_heap_ptr@U__crt_lc_time_data@@U__crt_internal_free_policy@@@@QEBA_NXZ 0000000140049d00 f i libucrt:inittime.obj
 0001:00048d08       ?release@?$__crt_unique_heap_ptr@U__crt_lc_time_data@@U__crt_internal_free_policy@@@@QEAAXXZ 0000000140049d08 f i libucrt:inittime.obj
 0001:00048d24       __acrt_locale_free_time    0000000140049d24 f   libucrt:inittime.obj
 0001:00048e2c       __acrt_locale_initialize_time 0000000140049e2c f   libucrt:inittime.obj
 0001:00048ec8       __pctype_func              0000000140049ec8 f   libucrt:ctype.obj
 0001:00048ef8       __pwctype_func             0000000140049ef8 f   libucrt:ctype.obj
 0001:00048ff8       wcsncat_s                  0000000140049ff8 f   libucrt:wcsncat_s.obj
 0001:000490f0       wcscspn                    000000014004a0f0 f   libucrt:wcscspn.obj
 0001:00049130       wcspbrk                    000000014004a130 f   libucrt:wcspbrk.obj
 0001:00049164       ??0?$__crt_scoped_stack_ptr@_W@@QEAA@U?$__crt_scoped_stack_ptr_tag@_W@@@Z 000000014004a164 f i libucrt:getstringtypea.obj
 0001:0004916c       ??0?$__crt_scoped_stack_ptr_tag@_W@@QEAA@QEA_W@Z 000000014004a16c f i libucrt:getstringtypea.obj
 0001:00049174       ??1?$__crt_scoped_stack_ptr@_W@@QEAA@XZ 000000014004a174 f i libucrt:getstringtypea.obj
 0001:00049198       ?get@?$__crt_scoped_stack_ptr@_W@@QEBAPEA_WXZ 000000014004a198 f i libucrt:getstringtypea.obj
 0001:0004919c       _MallocaComputeSize        000000014004a19c f i libucrt:getstringtypea.obj
 0001:000491ac       _MarkAllocaS               000000014004a1ac f i libucrt:getstringtypea.obj
 0001:000491bc       __acrt_GetStringTypeA      000000014004a1bc f   libucrt:getstringtypea.obj
 0001:0004934c       _freea_crt                 000000014004a34c f i libucrt:getstringtypea.obj
 0001:0004936c       __acrt_add_locale_ref      000000014004a36c f   libucrt:locale_refcounting.obj
 0001:000493f8       __acrt_free_locale         000000014004a3f8 f   libucrt:locale_refcounting.obj
 0001:00049570       __acrt_locale_add_lc_time_reference 000000014004a570 f   libucrt:locale_refcounting.obj
 0001:00049598       __acrt_locale_free_lc_time_if_unreferenced 000000014004a598 f   libucrt:locale_refcounting.obj
 0001:000495d0       __acrt_locale_release_lc_time_reference 000000014004a5d0 f   libucrt:locale_refcounting.obj
 0001:000495f8       __acrt_release_locale_ref  000000014004a5f8 f   libucrt:locale_refcounting.obj
 0001:000496a0       __acrt_update_thread_locale_data 000000014004a6a0 f   libucrt:locale_refcounting.obj
 0001:00049710       _updatetlocinfoEx_nolock   000000014004a710 f   libucrt:locale_refcounting.obj
 0001:00049fc4       __acrt_get_qualified_locale 000000014004afc4 f   libucrt:get_qualified_locale.obj
 0001:0004aadc       __acrt_get_qualified_locale_downlevel 000000014004badc f   libucrt:getqloc_downlevel.obj
 0001:0004ad5c       localeconv                 000000014004bd5c f   libucrt:localeconv.obj
 0001:0004ad90       _recalloc                  000000014004bd90 f   libucrt:recalloc.obj
 0001:0004ad98       _recalloc_base             000000014004bd98 f   libucrt:recalloc.obj
 0001:0004ae30       __acrt_getheap             000000014004be30 f   libucrt:heap_handle.obj
 0001:0004ae38       __acrt_initialize_heap     000000014004be38 f   libucrt:heap_handle.obj
 0001:0004ae54       __acrt_uninitialize_heap   000000014004be54 f   libucrt:heap_handle.obj
 0001:0004ae60       _get_heap_handle           000000014004be60 f   libucrt:heap_handle.obj
 0001:0004ae68       __acrt_execute_initializers 000000014004be68 f   libucrt:shared_initialization.obj
 0001:0004aefc       __acrt_execute_uninitializers 000000014004befc f   libucrt:shared_initialization.obj
 0001:0004af44       ??$?B$$A6AH_K@Z@__crt_fast_encoded_nullptr_t@@QEBAP6AH_K@ZXZ 000000014004bf44 f i libucrt:new_handler.obj
 0001:0004af4c       ??$__crt_fast_decode_pointer@P6AH_K@Z@@YAP6AH_K@ZQ6AH0@Z@Z 000000014004bf4c f i libucrt:new_handler.obj
 0001:0004af64       ??$__crt_fast_encode_pointer@P6AH_K@Z@@YAP6AH_K@ZQ6AH0@Z@Z 000000014004bf64 f i libucrt:new_handler.obj
 0001:0004af84       ?_set_new_handler@@YAP6AH_K@ZH@Z 000000014004bf84 f   libucrt:new_handler.obj
 0001:0004af90       ?initialize@?$dual_state_global@P6AH_K@Z@__crt_state_management@@QEAAXQ6AH_K@Z@Z 000000014004bf90 f i libucrt:new_handler.obj
 0001:0004afa0       ?value@?$dual_state_global@P6AH_K@Z@__crt_state_management@@QEAAAEAP6AH_K@ZXZ 000000014004bfa0 f i libucrt:new_handler.obj
 0001:0004afa4       __acrt_initialize_new_handler 000000014004bfa4 f   libucrt:new_handler.obj
 0001:0004afac       _callnewh                  000000014004bfac f   libucrt:new_handler.obj
 0001:0004afec       _query_new_handler         000000014004bfec f   libucrt:new_handler.obj
 0001:0004b024       _set_new_handler           000000014004c024 f   libucrt:new_handler.obj
 0001:0004b080       ??$?B$$A6AXH@Z@__crt_fast_encoded_nullptr_t@@QEBAP6AXH@ZXZ 000000014004c080 f i libucrt:signal.obj
 0001:0004b0f8       ??$__crt_fast_decode_pointer@P6AXH@Z@@YAP6AXH@ZQ6AXH@Z@Z 000000014004c0f8 f i libucrt:signal.obj
 0001:0004b110       ??$__crt_fast_encode_pointer@P6AXH@Z@@YAP6AXH@ZQ6AXH@Z@Z 000000014004c110 f i libucrt:signal.obj
 0001:0004b244       ?initialize@?$dual_state_global@P6AXH@Z@__crt_state_management@@QEAAXQ6AXH@Z@Z 000000014004c244 f i libucrt:signal.obj
 0001:0004b2d4       ?value@?$dual_state_global@P6AXH@Z@__crt_state_management@@QEAAAEAP6AXH@ZXZ 000000014004c2d4 f i libucrt:signal.obj
 0001:0004b2d8       __acrt_get_sigabrt_handler 000000014004c2d8 f   libucrt:signal.obj
 0001:0004b308       __acrt_initialize_signal_handlers 000000014004c308 f   libucrt:signal.obj
 0001:0004b328       __fpecode                  000000014004c328 f   libucrt:signal.obj
 0001:0004b33c       __pxcptinfoptrs            000000014004c33c f   libucrt:signal.obj
 0001:0004b350       raise                      000000014004c350 f   libucrt:signal.obj
 0001:0004b5cc       signal                     000000014004c5cc f   libucrt:signal.obj
 0001:0004b790       _iswctype_l                000000014004c790 f   libucrt:iswctype.obj
 0001:0004b798       iswctype                   000000014004c798 f   libucrt:iswctype.obj
 0001:0004b804       _isctype                   000000014004c804 f   libucrt:isctype.obj
 0001:0004b834       _isctype_l                 000000014004c834 f   libucrt:isctype.obj
 0001:0004ba0c       __acrt_DownlevelLCIDToLocaleName 000000014004ca0c f   libucrt:lcidtoname_downlevel.obj
 0001:0004baf4       __acrt_DownlevelLocaleNameToLCID 000000014004caf4 f   libucrt:lcidtoname_downlevel.obj
 0001:0004bcbc       _fclose_nolock             000000014004ccbc f   libucrt:fclose.obj
 0001:0004bd54       fclose                     000000014004cd54 f   libucrt:fclose.obj
 0001:0004bf30       _commit                    000000014004cf30 f   libucrt:commit.obj
 0001:0004c970       _utf8_no_of_trailbytes     000000014004d970 f i libucrt:write.obj
 0001:0004c980       _write                     000000014004d980 f   libucrt:write.obj
 0001:0004ca18       _write_internal            000000014004da18 f   libucrt:write.obj
 0001:0004cb38       _write_nolock              000000014004db38 f   libucrt:write.obj
 0001:0004cf28       __acrt_fp_strflt_to_string 000000014004df28 f   libucrt:_fptostr.obj
 0001:0004e180       ??0big_integer@__crt_strtox@@QEAA@AEBU01@@Z 000000014004f180 f i libucrt:cfout.obj
 0001:0004e1b0       ??0big_integer@__crt_strtox@@QEAA@XZ 000000014004f1b0 f i libucrt:cfout.obj
 0001:0004e260       ??4big_integer@__crt_strtox@@QEAAAEAU01@AEBU01@@Z 000000014004f260 f i libucrt:cfout.obj
 0001:0004e290       ??8__crt_strtox@@YA_NAEBUbig_integer@0@0@Z 000000014004f290 f i libucrt:cfout.obj
 0001:0004e2c0       ??9__crt_strtox@@YA_NAEBUbig_integer@0@0@Z 000000014004f2c0 f i libucrt:cfout.obj
 0001:0004e300       ?add_carry@__crt_strtox@@YAIAEAIII@Z 000000014004f300 f i libucrt:cfout.obj
 0001:0004e320       ?add_multiply_carry@__crt_strtox@@YAIAEAIIII@Z 000000014004f320 f i libucrt:cfout.obj
 0001:0004e340       ?bit_scan_reverse@__crt_strtox@@YAII@Z 000000014004f340 f i libucrt:cfout.obj
 0001:0004e360       ?count_sequential_high_zeroes@__crt_strtox@@YAII@Z 000000014004f360 f i libucrt:cfout.obj
 0001:0004e380       ?divide@__crt_strtox@@YA_KAEAUbig_integer@1@AEBU21@@Z 000000014004f380 f i libucrt:cfout.obj
 0001:0004e820       ?is_zero@__crt_strtox@@YA_NAEBUbig_integer@1@@Z 000000014004f820 f i libucrt:cfout.obj
 0001:0004e830       ?make_big_integer@__crt_strtox@@YA?AUbig_integer@1@_K@Z 000000014004f830 f i libucrt:cfout.obj
 0001:0004e850       ?make_big_integer_power_of_two@__crt_strtox@@YA?AUbig_integer@1@I@Z 000000014004f850 f i libucrt:cfout.obj
 0001:0004e8c0       ?multiply@__crt_strtox@@YA_NAEAUbig_integer@1@AEBU21@@Z 000000014004f8c0 f i libucrt:cfout.obj
 0001:0004ec60       ?multiply@__crt_strtox@@YA_NAEAUbig_integer@1@I@Z 000000014004fc60 f i libucrt:cfout.obj
 0001:0004ed50       ?multiply_64_32@__crt_strtox@@YA_K_KI@Z 000000014004fd50 f i libucrt:cfout.obj
 0001:0004ed60       ?multiply_by_power_of_ten@__crt_strtox@@YA_NAEAUbig_integer@1@I@Z 000000014004fd60 f i libucrt:cfout.obj
 0001:0004f2d0       ?multiply_core@__crt_strtox@@YAIQEAIII@Z 00000001400502d0 f i libucrt:cfout.obj
 0001:0004f320       ?shift_left@__crt_strtox@@YA_NAEAUbig_integer@1@I@Z 0000000140050320 f i libucrt:cfout.obj
 0001:0004f49c       __acrt_fltout              000000014005049c f   libucrt:cfout.obj
 0001:000507b4       __fpe_flt_rounds           00000001400517b4 f   libucrt:fegetround.obj
 0001:000507fc       fegetround                 00000001400517fc f   libucrt:fegetround.obj
 0001:00050810       ?__c32rtomb_utf8@__crt_mbstring@@YA_KPEAD_UPEAU_Mbstatet@@AEAV__crt_cached_ptd_host@@@Z 0000000140051810 f   libucrt:c32rtomb.obj
 0001:000508b4       c32rtomb                   00000001400518b4 f   libucrt:c32rtomb.obj
 0001:00050978       ?__mbrtowc_utf8@__crt_mbstring@@YA_KPEA_WPEBD_KPEAU_Mbstatet@@AEAV__crt_cached_ptd_host@@@Z 0000000140051978 f   libucrt:mbrtowc.obj
 0001:000509bc       ?__mbsrtowcs_utf8@__crt_mbstring@@YA_KPEA_WPEAPEBD_KPEAU_Mbstatet@@AEAV__crt_cached_ptd_host@@@Z 00000001400519bc f   libucrt:mbrtowc.obj
 0001:00050fec       btowc                      0000000140051fec f   libucrt:mbrtowc.obj
 0001:000510c4       mbrlen                     00000001400520c4 f   libucrt:mbrtowc.obj
 0001:0005118c       mbrtowc                    000000014005218c f   libucrt:mbrtowc.obj
 0001:00051274       mbsrtowcs                  0000000140052274 f   libucrt:mbrtowc.obj
 0001:00051318       mbsrtowcs_s                0000000140052318 f   libucrt:mbrtowc.obj
 0001:00051804       ?has_big_buffer@__crt_stdio_stream@@QEBA_NXZ 0000000140052804 f i libucrt:_flsbuf.obj
 0001:00051890       __acrt_stdio_flush_and_write_narrow_nolock 0000000140052890 f   libucrt:_flsbuf.obj
 0001:0005195c       __acrt_stdio_flush_and_write_wide_nolock 000000014005295c f   libucrt:_flsbuf.obj
 0001:00051a28       _isatty                    0000000140052a28 f   libucrt:isatty.obj
 0001:00051a88       __acrt_OutputDebugStringA  0000000140052a88 f   libucrt:outputdebugstringa.obj
 0001:00051c30       qsort                      0000000140052c30 f   libucrt:qsort.obj
 0001:00052120       strncpy_s                  0000000140053120 f   libucrt:strncpy_s.obj
 0001:000522b0       strpbrk                    00000001400532b0 f   libucrt:strpbrk.obj
 0001:00052678       _mbsdec                    0000000140053678 f   libucrt:mbsdec.obj
 0001:00052680       _mbsdec_l                  0000000140053680 f   libucrt:mbsdec.obj
 0001:00052714       ??B?$__crt_scoped_stack_ptr@_W@@QEBA_NXZ 0000000140053714 f i libucrt:lcmapstringa.obj
 0001:00052a50       __acrt_LCMapStringA        0000000140053a50 f   libucrt:lcmapstringa.obj
 0001:00052b00       _wcsnicoll                 0000000140053b00 f   libucrt:wcsnicol.obj
 0001:00052b50       _wcsnicoll_l               0000000140053b50 f   libucrt:wcsnicol.obj
 0001:00052c40       _strnicoll                 0000000140053c40 f   libucrt:strnicol.obj
 0001:00052c58       _strnicoll_l               0000000140053c58 f   libucrt:strnicol.obj
 0001:00052d58       __acrt_SetEnvironmentVariableA 0000000140053d58 f   libucrt:setenvironmentvariablea.obj
 0001:00053074       __acrt_GetLocaleInfoA      0000000140054074 f   libucrt:getlocaleinfoa.obj
 0001:00053764       _i64toa                    0000000140054764 f   libucrt:xtoa.obj
 0001:00053798       _i64toa_s                  0000000140054798 f   libucrt:xtoa.obj
 0001:000537bc       _i64tow                    00000001400547bc f   libucrt:xtoa.obj
 0001:000537f0       _i64tow_s                  00000001400547f0 f   libucrt:xtoa.obj
 0001:00053814       _itoa                      0000000140054814 f   libucrt:xtoa.obj
 0001:00053844       _itoa_s                    0000000140054844 f   libucrt:xtoa.obj
 0001:00053864       _itow                      0000000140054864 f   libucrt:xtoa.obj
 0001:00053894       _itow_s                    0000000140054894 f   libucrt:xtoa.obj
 0001:000538b4       _ltoa                      00000001400548b4 f   libucrt:xtoa.obj
 0001:000538e4       _ltoa_s                    00000001400548e4 f   libucrt:xtoa.obj
 0001:00053904       _ltow                      0000000140054904 f   libucrt:xtoa.obj
 0001:00053934       _ltow_s                    0000000140054934 f   libucrt:xtoa.obj
 0001:00053954       _ui64toa                   0000000140054954 f   libucrt:xtoa.obj
 0001:00053978       _ui64toa_s                 0000000140054978 f   libucrt:xtoa.obj
 0001:0005398c       _ui64tow                   000000014005498c f   libucrt:xtoa.obj
 0001:000539b0       _ui64tow_s                 00000001400549b0 f   libucrt:xtoa.obj
 0001:000539c4       _ultoa                     00000001400549c4 f   libucrt:xtoa.obj
 0001:000539e8       _ultoa_s                   00000001400549e8 f   libucrt:xtoa.obj
 0001:000539fc       _ultow                     00000001400549fc f   libucrt:xtoa.obj
 0001:00053a20       _ultow_s                   0000000140054a20 f   libucrt:xtoa.obj
 0001:00053a34       __ascii_wcsicmp            0000000140054a34 f   libucrt:wcsicmp.obj
 0001:00053a74       _towlower_fast_internal    0000000140054a74 f i libucrt:wcsicmp.obj
 0001:00053a9c       _towlower_internal         0000000140054a9c f i libucrt:wcsicmp.obj
 0001:00053ad0       _wcsicmp                   0000000140054ad0 f   libucrt:wcsicmp.obj
 0001:00053b18       _wcsicmp_l                 0000000140054b18 f   libucrt:wcsicmp.obj
 0001:00053c4c       __ascii_wcsnicmp           0000000140054c4c f   libucrt:wcsnicmp.obj
 0001:00053c98       _wcsnicmp                  0000000140054c98 f   libucrt:wcsnicmp.obj
 0001:00053ce0       _wcsnicmp_l                0000000140054ce0 f   libucrt:wcsnicmp.obj
 0001:00053e34       wcscmp                     0000000140054e34 f   libucrt:wcscmp.obj
 0001:00053e6c       _msize                     0000000140054e6c f   libucrt:msize.obj
 0001:00053e74       _msize_base                0000000140054e74 f   libucrt:msize.obj
 0001:00053eb0       _realloc_base              0000000140054eb0 f   libucrt:realloc_base.obj
 0001:00053f2c       __acrt_GetStringTypeW      0000000140054f2c f   libucrt:getstringtypew.obj
 0001:000540c8       _close                     00000001400550c8 f   libucrt:close.obj
 0001:00054160       _close_internal            0000000140055160 f   libucrt:close.obj
 0001:00054224       _close_nolock              0000000140055224 f   libucrt:close.obj
 0001:000542bc       _close_nolock_internal     00000001400552bc f   libucrt:close.obj
 0001:0005438c       ??$?RU__crt_stdio_stream_data@@@__crt_internal_free_policy@@QEBAXQEBU__crt_stdio_stream_data@@@Z 000000014005538c f i libucrt:stream.obj
 0001:00054394       ??0?$__crt_unique_heap_ptr@U__crt_stdio_stream_data@@U__crt_internal_free_policy@@@@QEAA@QEAU__crt_stdio_stream_data@@@Z 0000000140055394 f i libucrt:stream.obj
 0001:0005439c       ??0__crt_stdio_stream@@QEAA@XZ 000000014005539c f i libucrt:stream.obj
 0001:000543a4       ??1?$__crt_unique_heap_ptr@U__crt_stdio_stream_data@@U__crt_internal_free_policy@@@@QEAA@XZ 00000001400553a4 f i libucrt:stream.obj
 0001:000543c0       ?__acrt_stdio_allocate_stream@@YA?AV__crt_stdio_stream@@XZ 00000001400553c0 f   libucrt:stream.obj
 0001:00054418       ?__acrt_stdio_free_stream@@YAXV__crt_stdio_stream@@@Z 0000000140055418 f   libucrt:stream.obj
 0001:00054434       ?deallocate@__crt_stdio_stream@@QEAAXXZ 0000000140055434 f i libucrt:stream.obj
 0001:00054440       ?detach@?$__crt_unique_heap_ptr@U__crt_stdio_stream_data@@U__crt_internal_free_policy@@@@QEAAPEAU__crt_stdio_stream_data@@XZ 0000000140055440 f i libucrt:stream.obj
 0001:00054534       ?lock@__crt_stdio_stream@@QEBAXXZ 0000000140055534 f i libucrt:stream.obj
 0001:0005453c       ?release@?$__crt_unique_heap_ptr@U__crt_stdio_stream_data@@U__crt_internal_free_policy@@@@QEAAXXZ 000000014005553c f i libucrt:stream.obj
 0001:00054558       ?try_allocate@__crt_stdio_stream@@QEAA_NXZ 0000000140055558 f i libucrt:stream.obj
 0001:00054578       ?unlock@__crt_stdio_stream@@QEBAXXZ 0000000140055578 f i libucrt:stream.obj
 0001:00054a50       _lseek                     0000000140055a50 f   libucrt:lseek.obj
 0001:00054ae8       _lseek_internal            0000000140055ae8 f   libucrt:lseek.obj
 0001:00054af0       _lseek_nolock              0000000140055af0 f   libucrt:lseek.obj
 0001:00054b88       _lseek_nolock_internal     0000000140055b88 f   libucrt:lseek.obj
 0001:00054b90       _lseeki64                  0000000140055b90 f   libucrt:lseek.obj
 0001:00054c2c       _lseeki64_internal         0000000140055c2c f   libucrt:lseek.obj
 0001:00054c34       _lseeki64_nolock           0000000140055c34 f   libucrt:lseek.obj
 0001:00054cd0       _lseeki64_nolock_internal  0000000140055cd0 f   libucrt:lseek.obj
 0001:00054d74       _putwch                    0000000140055d74 f   libucrt:putwch.obj
 0001:00054db0       _putwch_nolock             0000000140055db0 f   libucrt:putwch.obj
 0001:00054dec       _putwch_nolock_internal    0000000140055dec f   libucrt:putwch.obj
 0001:000554fc       _read                      00000001400564fc f   libucrt:read.obj
 0001:0005561c       _read_nolock               000000014005661c f   libucrt:read.obj
 0001:00055a6c       _controlfp_s               0000000140056a6c f   libucrt:contrlfp.obj
 0001:00055ad0       fegetenv                   0000000140056ad0 f   libucrt:fegetenv.obj
 0001:00055af0       fesetenv                   0000000140056af0 f   libucrt:fesetenv.obj
 0001:00055b48       feholdexcept               0000000140056b48 f   libucrt:feholdexcept.obj
 0001:00055b98       ceil                       0000000140056b98 f   libucrt:ceil.obj
 0001:00055c60       log10                      0000000140056c60 f   libucrt:log10.obj
 0001:0005620c       ??$__acrt_fenv_shift_bits@W4__acrt_fenv_abstract_control@@@@YA?AW4__acrt_fenv_abstract_control@@W40@0I@Z 000000014005720c f i libucrt:_fenvutils.obj
 0001:00056218       ??$__acrt_fenv_shift_bits@W4__acrt_fenv_abstract_status@@@@YA?AW4__acrt_fenv_abstract_status@@W40@0I@Z 0000000140057218 f i libucrt:_fenvutils.obj
 0001:00056224       ??$__acrt_fenv_translate_bit@W4__acrt_fenv_abstract_control@@W4__acrt_fenv_machine_sse_control@@@@YA?AW4__acrt_fenv_abstract_control@@W4__acrt_fenv_machine_sse_control@@0W40@1@Z 0000000140057224 f i libucrt:_fenvutils.obj
 0001:00056230       ??$__acrt_fenv_translate_bit@W4__acrt_fenv_abstract_status@@W4__acrt_fenv_machine_sse_status@@@@YA?AW4__acrt_fenv_abstract_status@@W4__acrt_fenv_machine_sse_status@@0W40@1@Z 0000000140057230 f i libucrt:_fenvutils.obj
 0001:0005623c       ??$__acrt_fenv_translate_bit@W4__acrt_fenv_machine_sse_control@@W4__acrt_fenv_abstract_control@@@@YA?AW4__acrt_fenv_machine_sse_control@@W4__acrt_fenv_abstract_control@@0W40@1@Z 000000014005723c f i libucrt:_fenvutils.obj
 0001:00056248       ??$__acrt_fenv_translate_bit@W4__acrt_fenv_machine_sse_status@@W4__acrt_fenv_abstract_status@@@@YA?AW4__acrt_fenv_machine_sse_status@@W4__acrt_fenv_abstract_status@@0W40@1@Z 0000000140057248 f i libucrt:_fenvutils.obj
 0001:00056254       ??$__acrt_fenv_unshift_bits@W4__acrt_fenv_abstract_control@@@@YA?AW4__acrt_fenv_abstract_control@@W40@0I@Z 0000000140057254 f i libucrt:_fenvutils.obj
 0001:00056260       ??$__acrt_fenv_unshift_bits@W4__acrt_fenv_abstract_status@@@@YA?AW4__acrt_fenv_abstract_status@@W40@0I@Z 0000000140057260 f i libucrt:_fenvutils.obj
 0001:00056424       ??I@YA?AW4__acrt_fenv_abstract_control@@W40@0@Z 0000000140057424 f i libucrt:_fenvutils.obj
 0001:0005642c       ??I@YA?AW4__acrt_fenv_abstract_status@@W40@0@Z 000000014005742c f i libucrt:_fenvutils.obj
 0001:00056434       ??I@YA?AW4__acrt_fenv_machine_sse_control@@W40@0@Z 0000000140057434 f i libucrt:_fenvutils.obj
 0001:0005643c       ??I@YA?AW4__acrt_fenv_machine_sse_status@@W40@0@Z 000000014005743c f i libucrt:_fenvutils.obj
 0001:00056444       ??U@YA?AW4__acrt_fenv_abstract_control@@W40@0@Z 0000000140057444 f i libucrt:_fenvutils.obj
 0001:0005644c       ??U@YA?AW4__acrt_fenv_abstract_status@@W40@0@Z 000000014005744c f i libucrt:_fenvutils.obj
 0001:00056454       ??U@YA?AW4__acrt_fenv_machine_sse_control@@W40@0@Z 0000000140057454 f i libucrt:_fenvutils.obj
 0001:0005645c       ??_5@YAAEAW4__acrt_fenv_abstract_control@@AEAW40@W40@@Z 000000014005745c f i libucrt:_fenvutils.obj
 0001:00056464       ??_5@YAAEAW4__acrt_fenv_abstract_status@@AEAW40@W40@@Z 0000000140057464 f i libucrt:_fenvutils.obj
 0001:0005646c       ??_5@YAAEAW4__acrt_fenv_machine_sse_control@@AEAW40@W40@@Z 000000014005746c f i libucrt:_fenvutils.obj
 0001:00056474       ??_5@YAAEAW4__acrt_fenv_machine_sse_status@@AEAW40@W40@@Z 0000000140057474 f i libucrt:_fenvutils.obj
 0001:0005647c       ?__acrt_fenv_shift_abstract_sse_control@@YA?AW4__acrt_fenv_abstract_control@@W41@@Z 000000014005747c f i libucrt:_fenvutils.obj
 0001:00056490       ?__acrt_fenv_shift_abstract_sse_status@@YA?AW4__acrt_fenv_abstract_status@@W41@@Z 0000000140057490 f i libucrt:_fenvutils.obj
 0001:0005649c       ?__acrt_fenv_unshift_abstract_sse_control@@YA?AW4__acrt_fenv_abstract_control@@W41@@Z 000000014005749c f i libucrt:_fenvutils.obj
 0001:000564b4       ?__acrt_fenv_unshift_abstract_sse_status@@YA?AW4__acrt_fenv_abstract_status@@W41@@Z 00000001400574b4 f i libucrt:_fenvutils.obj
 0001:00056774       __acrt_fenv_expand_round_control 0000000140057774 f   libucrt:_fenvutils.obj
 0001:0005678c       __acrt_fenv_get_common_round_control 000000014005778c f   libucrt:_fenvutils.obj
 0001:00056798       __acrt_fenv_get_control    0000000140057798 f   libucrt:_fenvutils.obj
 0001:0005687c       __acrt_fenv_get_fp_status_word_from_exception_mask 000000014005787c f   libucrt:_fenvutils.obj
 0001:00056888       __acrt_fenv_get_status     0000000140057888 f   libucrt:_fenvutils.obj
 0001:000568e0       __acrt_fenv_set_control    00000001400578e0 f   libucrt:_fenvutils.obj
 0001:00056a18       __acrt_fenv_set_status     0000000140057a18 f   libucrt:_fenvutils.obj
 0001:00056a8c       ?reset_and_return@__crt_mbstring@@YA_K_KPEAU_Mbstatet@@@Z 0000000140057a8c f   libucrt:common_utf8.obj
 0001:00056a94       ?return_illegal_sequence@__crt_mbstring@@YA_KPEAU_Mbstatet@@AEAV__crt_cached_ptd_host@@@Z 0000000140057a94 f   libucrt:common_utf8.obj
 0001:00056aa8       ?__mbrtoc32_utf8@__crt_mbstring@@YA_KPEA_UPEBD_KPEAU_Mbstatet@@AEAV__crt_cached_ptd_host@@@Z 0000000140057aa8 f   libucrt:mbrtoc32.obj
 0001:00056c84       mbrtoc32                   0000000140057c84 f   libucrt:mbrtoc32.obj
 0001:00056d28       __acrt_stdio_allocate_buffer_nolock 0000000140057d28 f   libucrt:_getbuf.obj
 0001:000570b0       _mbstowcs_l                00000001400580b0 f   libucrt:mbstowcs.obj
 0001:00057158       _mbstowcs_s_l              0000000140058158 f   libucrt:mbstowcs.obj
 0001:00057210       mbstowcs                   0000000140058210 f   libucrt:mbstowcs.obj
 0001:000572ac       mbstowcs_s                 00000001400582ac f   libucrt:mbstowcs.obj
 0001:00057354       __strncnt                  0000000140058354 f   libucrt:strncnt.obj
 0001:0005736c       __acrt_CompareStringW      000000014005836c f   libucrt:comparestringw.obj
 0001:0005742c       __ascii_strnicmp           000000014005842c f   libucrt:strnicmp.obj
 0001:00057478       _strnicmp                  0000000140058478 f   libucrt:strnicmp.obj
 0001:000574c8       _strnicmp_l                00000001400584c8 f   libucrt:strnicmp.obj
 0001:000578fc       __acrt_CompareStringA      00000001400588fc f   libucrt:comparestringa.obj
 0001:00057988       _towlower_l                0000000140058988 f   libucrt:towlower.obj
 0001:00057a7c       towlower                   0000000140058a7c f   libucrt:towlower.obj
 0001:00057bac       __dcrt_lowio_ensure_console_output_initialized 0000000140058bac f   libucrt:initcon.obj
 0001:00057c00       __dcrt_terminate_console_output 0000000140058c00 f   libucrt:initcon.obj
 0001:00057c1c       __dcrt_write_console       0000000140058c1c f   libucrt:initcon.obj
 0001:00057df0       _clearfp                   0000000140058df0 f   libucrt:ieee.obj
 0001:00057e5c       _control87                 0000000140058e5c f   libucrt:ieee.obj
 0001:00057e64       _controlfp                 0000000140058e64 f   libucrt:ieee.obj
 0001:00057e70       _fpreset                   0000000140058e70 f   libucrt:ieee.obj
 0001:00057f38       _set_controlfp             0000000140058f38 f   libucrt:ieee.obj
 0001:00057f6c       _statusfp                  0000000140058f6c f   libucrt:ieee.obj
 0001:0005838c       _handle_error              000000014005938c f   libucrt:libm_error.obj
 0001:000584b4       _handle_errorf             00000001400594b4 f   libucrt:libm_error.obj
 0001:000585e8       _handle_nan                00000001400595e8 f   libucrt:libm_error.obj
 0001:00058604       _handle_nanf               0000000140059604 f   libucrt:libm_error.obj
 0001:00058620       __acrt_initialize_fma3     0000000140059620 f   libucrt:fma3_available.obj
 0001:00058690       _get_FMA3_enable           0000000140059690 f   libucrt:fma3_available.obj
 0001:00058698       _set_FMA3_enable           0000000140059698 f   libucrt:fma3_available.obj
 0001:000586b0       _log10_special             00000001400596b0 f   libucrt:log_special.obj
 0001:000586d0       _log10f_special            00000001400596d0 f   libucrt:log_special.obj
 0001:000586f0       _log_special               00000001400596f0 f   libucrt:log_special.obj
 0001:000587a8       _logf_special              00000001400597a8 f   libucrt:log_special.obj
 0001:00058864       __acrt_LCMapStringW        0000000140059864 f   libucrt:lcmapstringw.obj
 0001:00058900       _get_fpsr                  0000000140059900 f   libucrt:fpsr.obj
 0001:00058910       _set_fpsr                  0000000140059910 f   libucrt:fpsr.obj
 0001:0005891a       _fclrf                     000000014005991a f   libucrt:fpsr.obj
 0001:0005892e       _frnd                      000000014005992e f   libucrt:fpsr.obj
 0001:00058950       ?should_round_up@__crt_strtox@@YA_N_N000@Z 0000000140059950 f i libucrt:fpexcept.obj
 0001:000589d8       _errcode                   00000001400599d8 f   libucrt:fpexcept.obj
 0001:00058a1c       _except1                   0000000140059a1c f   libucrt:fpexcept.obj
 0001:00058b10       _except2                   0000000140059b10 f   libucrt:fpexcept.obj
 0001:00058c4c       _handle_exc                0000000140059c4c f   libucrt:fpexcept.obj
 0001:00058f40       _handle_qnan2              0000000140059f40 f   libucrt:fpexcept.obj
 0001:00058f48       _raise_exc                 0000000140059f48 f   libucrt:fpexcept.obj
 0001:00058f70       _raise_exc_ex              0000000140059f70 f   libucrt:fpexcept.obj
 0001:00059278       _raise_excf                000000014005a278 f   libucrt:fpexcept.obj
 0001:000592a4       _set_errno_from_matherr    000000014005a2a4 f   libucrt:fpexcept.obj
 0001:000592d4       _umatherr                  000000014005a2d4 f   libucrt:fpexcept.obj
 0001:000593a4       _clrfp                     000000014005a3a4 f   libucrt:fpctrl.obj
 0001:000593c4       _ctrlfp                    000000014005a3c4 f   libucrt:fpctrl.obj
 0001:00059440       _set_statfp                000000014005a440 f   libucrt:fpctrl.obj
 0001:00059460       _statfp                    000000014005a460 f   libucrt:fpctrl.obj
 0001:00059474       _add_exp                   000000014005a474 f   libucrt:util.obj
 0001:000594c4       _decomp                    000000014005a4c4 f   libucrt:util.obj
 0001:000595f4       _get_exp                   000000014005a5f4 f   libucrt:util.obj
 0001:00059614       _set_bexp                  000000014005a614 f   libucrt:util.obj
 0001:00059644       _set_exp                   000000014005a644 f   libucrt:util.obj
 0001:0005967c       _sptype                    000000014005a67c f   libucrt:util.obj
 0001:000596f4       QueryPerformanceCounter    000000014005a6f4 f   kernel32:KERNEL32.dll
 0001:000596fa       GetCurrentProcessId        000000014005a6fa f   kernel32:KERNEL32.dll
 0001:00059700       GetCurrentThreadId         000000014005a700 f   kernel32:KERNEL32.dll
 0001:00059706       GetSystemTimeAsFileTime    000000014005a706 f   kernel32:KERNEL32.dll
 0001:0005970c       InitializeSListHead        000000014005a70c f   kernel32:KERNEL32.dll
 0001:00059712       RtlCaptureContext          000000014005a712 f   kernel32:KERNEL32.dll
 0001:00059718       RtlLookupFunctionEntry     000000014005a718 f   kernel32:KERNEL32.dll
 0001:0005971e       RtlVirtualUnwind           000000014005a71e f   kernel32:KERNEL32.dll
 0001:00059724       IsDebuggerPresent          000000014005a724 f   kernel32:KERNEL32.dll
 0001:0005972a       UnhandledExceptionFilter   000000014005a72a f   kernel32:KERNEL32.dll
 0001:00059730       SetUnhandledExceptionFilter 000000014005a730 f   kernel32:KERNEL32.dll
 0001:00059736       GetStartupInfoW            000000014005a736 f   kernel32:KERNEL32.dll
 0001:0005973c       IsProcessorFeaturePresent  000000014005a73c f   kernel32:KERNEL32.dll
 0001:00059742       GetModuleHandleW           000000014005a742 f   kernel32:KERNEL32.dll
 0001:00059748       RtlPcToFileHeader          000000014005a748 f   kernel32:KERNEL32.dll
 0001:0005974e       RaiseException             000000014005a74e f   kernel32:KERNEL32.dll
 0001:00059754       RtlUnwindEx                000000014005a754 f   kernel32:KERNEL32.dll
 0001:0005975a       InterlockedPushEntrySList  000000014005a75a f   kernel32:KERNEL32.dll
 0001:00059760       InterlockedFlushSList      000000014005a760 f   kernel32:KERNEL32.dll
 0001:00059766       GetLastError               000000014005a766 f   kernel32:KERNEL32.dll
 0001:0005976c       SetLastError               000000014005a76c f   kernel32:KERNEL32.dll
 0001:00059772       EncodePointer              000000014005a772 f   kernel32:KERNEL32.dll
 0001:00059778       EnterCriticalSection       000000014005a778 f   kernel32:KERNEL32.dll
 0001:0005977e       LeaveCriticalSection       000000014005a77e f   kernel32:KERNEL32.dll
 0001:00059784       DeleteCriticalSection      000000014005a784 f   kernel32:KERNEL32.dll
 0001:0005978a       InitializeCriticalSectionAndSpinCount 000000014005a78a f   kernel32:KERNEL32.dll
 0001:00059790       TlsAlloc                   000000014005a790 f   kernel32:KERNEL32.dll
 0001:00059796       TlsGetValue                000000014005a796 f   kernel32:KERNEL32.dll
 0001:0005979c       TlsSetValue                000000014005a79c f   kernel32:KERNEL32.dll
 0001:000597a2       TlsFree                    000000014005a7a2 f   kernel32:KERNEL32.dll
 0001:000597a8       FreeLibrary                000000014005a7a8 f   kernel32:KERNEL32.dll
 0001:000597ae       GetProcAddress             000000014005a7ae f   kernel32:KERNEL32.dll
 0001:000597b4       LoadLibraryExW             000000014005a7b4 f   kernel32:KERNEL32.dll
 0001:000597ba       RtlUnwind                  000000014005a7ba f   kernel32:KERNEL32.dll
 0001:000597c0       GetStdHandle               000000014005a7c0 f   kernel32:KERNEL32.dll
 0001:000597c6       WriteFile                  000000014005a7c6 f   kernel32:KERNEL32.dll
 0001:000597cc       GetModuleFileNameW         000000014005a7cc f   kernel32:KERNEL32.dll
 0001:000597d2       GetCurrentProcess          000000014005a7d2 f   kernel32:KERNEL32.dll
 0001:000597d8       ExitProcess                000000014005a7d8 f   kernel32:KERNEL32.dll
 0001:000597de       TerminateProcess           000000014005a7de f   kernel32:KERNEL32.dll
 0001:000597e4       GetModuleHandleExW         000000014005a7e4 f   kernel32:KERNEL32.dll
 0001:000597ea       GetCommandLineA            000000014005a7ea f   kernel32:KERNEL32.dll
 0001:000597f0       GetCommandLineW            000000014005a7f0 f   kernel32:KERNEL32.dll
 0001:000597f6       HeapAlloc                  000000014005a7f6 f   kernel32:KERNEL32.dll
 0001:000597fc       HeapFree                   000000014005a7fc f   kernel32:KERNEL32.dll
 0001:00059802       GetTempPathW               000000014005a802 f   kernel32:KERNEL32.dll
 0001:00059808       FlsAlloc                   000000014005a808 f   kernel32:KERNEL32.dll
 0001:0005980e       FlsGetValue                000000014005a80e f   kernel32:KERNEL32.dll
 0001:00059814       FlsSetValue                000000014005a814 f   kernel32:KERNEL32.dll
 0001:0005981a       FlsFree                    000000014005a81a f   kernel32:KERNEL32.dll
 0001:00059820       GetDateFormatW             000000014005a820 f   kernel32:KERNEL32.dll
 0001:00059826       GetTimeFormatW             000000014005a826 f   kernel32:KERNEL32.dll
 0001:0005982c       CompareStringW             000000014005a82c f   kernel32:KERNEL32.dll
 0001:00059832       LCMapStringW               000000014005a832 f   kernel32:KERNEL32.dll
 0001:00059838       GetLocaleInfoW             000000014005a838 f   kernel32:KERNEL32.dll
 0001:0005983e       IsValidLocale              000000014005a83e f   kernel32:KERNEL32.dll
 0001:00059844       GetUserDefaultLCID         000000014005a844 f   kernel32:KERNEL32.dll
 0001:0005984a       EnumSystemLocalesW         000000014005a84a f   kernel32:KERNEL32.dll
 0001:00059850       GetFileType                000000014005a850 f   kernel32:KERNEL32.dll
 0001:00059856       GetCurrentThread           000000014005a856 f   kernel32:KERNEL32.dll
 0001:0005985c       OutputDebugStringW         000000014005a85c f   kernel32:KERNEL32.dll
 0001:00059862       FindClose                  000000014005a862 f   kernel32:KERNEL32.dll
 0001:00059868       FindFirstFileExW           000000014005a868 f   kernel32:KERNEL32.dll
 0001:0005986e       FindNextFileW              000000014005a86e f   kernel32:KERNEL32.dll
 0001:00059874       IsValidCodePage            000000014005a874 f   kernel32:KERNEL32.dll
 0001:0005987a       GetACP                     000000014005a87a f   kernel32:KERNEL32.dll
 0001:00059880       GetOEMCP                   000000014005a880 f   kernel32:KERNEL32.dll
 0001:00059886       GetCPInfo                  000000014005a886 f   kernel32:KERNEL32.dll
 0001:0005988c       MultiByteToWideChar        000000014005a88c f   kernel32:KERNEL32.dll
 0001:00059892       WideCharToMultiByte        000000014005a892 f   kernel32:KERNEL32.dll
 0001:00059898       GetEnvironmentStringsW     000000014005a898 f   kernel32:KERNEL32.dll
 0001:0005989e       FreeEnvironmentStringsW    000000014005a89e f   kernel32:KERNEL32.dll
 0001:000598a4       SetEnvironmentVariableW    000000014005a8a4 f   kernel32:KERNEL32.dll
 0001:000598aa       SetStdHandle               000000014005a8aa f   kernel32:KERNEL32.dll
 0001:000598b0       GetStringTypeW             000000014005a8b0 f   kernel32:KERNEL32.dll
 0001:000598b6       GetProcessHeap             000000014005a8b6 f   kernel32:KERNEL32.dll
 0001:000598bc       SetConsoleCtrlHandler      000000014005a8bc f   kernel32:KERNEL32.dll
 0001:000598c2       FlushFileBuffers           000000014005a8c2 f   kernel32:KERNEL32.dll
 0001:000598c8       GetConsoleOutputCP         000000014005a8c8 f   kernel32:KERNEL32.dll
 0001:000598ce       GetConsoleMode             000000014005a8ce f   kernel32:KERNEL32.dll
 0001:000598d4       GetFileSizeEx              000000014005a8d4 f   kernel32:KERNEL32.dll
 0001:000598da       SetFilePointerEx           000000014005a8da f   kernel32:KERNEL32.dll
 0001:000598e0       HeapSize                   000000014005a8e0 f   kernel32:KERNEL32.dll
 0001:000598e6       HeapReAlloc                000000014005a8e6 f   kernel32:KERNEL32.dll
 0001:000598ec       CloseHandle                000000014005a8ec f   kernel32:KERNEL32.dll
 0001:000598f2       ReadFile                   000000014005a8f2 f   kernel32:KERNEL32.dll
 0001:000598f8       ReadConsoleW               000000014005a8f8 f   kernel32:KERNEL32.dll
 0001:000598fe       CreateFileW                000000014005a8fe f   kernel32:KERNEL32.dll
 0001:00059904       WriteConsoleW              000000014005a904 f   kernel32:KERNEL32.dll
 0001:0005990c       __GSHandlerCheck           000000014005a90c f   LIBCMT:gshandler.obj
 0001:0005992c       __GSHandlerCheckCommon     000000014005a92c f   LIBCMT:gshandler.obj
 0001:000599a0       __security_check_cookie    000000014005a9a0 f   LIBCMT:amdsecgs.obj
 0001:000599c0       _FindPESection             000000014005a9c0 f   LIBCMT:pesect.obj
 0001:00059a10       _IsNonwritableInCurrentImage 000000014005aa10 f   LIBCMT:pesect.obj
 0001:00059a60       _ValidateImageBase         000000014005aa60 f   LIBCMT:pesect.obj
 0001:00059a8c       __GSHandlerCheck_SEH       000000014005aa8c f   LIBCMT:gshandlerseh.obj
 0001:00059b14       __raise_securityfailure    000000014005ab14 f   LIBCMT:gs_report.obj
 0001:00059b48       __report_gsfailure         000000014005ab48 f   LIBCMT:gs_report.obj
 0001:00059c1c       __report_rangecheckfailure 000000014005ac1c f   LIBCMT:gs_report.obj
 0001:00059c30       __report_securityfailure   000000014005ac30 f   LIBCMT:gs_report.obj
 0001:00059ccc       __report_securityfailureEx 000000014005accc f   LIBCMT:gs_report.obj
 0001:00059ed0       __chkstk                   000000014005aed0 f   LIBCMT:chkstk.obj
 0001:00059ed0       _alloca_probe              000000014005aed0 f   LIBCMT:chkstk.obj
 0001:00059f20       __GSHandlerCheck_EH        000000014005af20 f   LIBCMT:gshandlereh.obj
 0001:00059fb0       memcmp                     000000014005afb0 f   libvcruntime:memcmp.obj
 0001:0005a078       __C_specific_handler_noexcept 000000014005b078 f   libvcruntime:chandler_noexcept.obj
 0001:0005a0c4       strrchr                    000000014005b0c4 f   libvcruntime:strrchr.obj
 0001:0005a200       strchr                     000000014005b200 f   libvcruntime:strchr.obj
 0001:0005a280       wcschr                     000000014005b280 f   libvcruntime:wcschr.obj
 0001:0005a310       _guard_dispatch_icall_nop  000000014005b310 f   LIBCMT:guard_dispatch.obj
 0001:0005a330       _guard_xfg_dispatch_icall_nop 000000014005b330 f   LIBCMT:guard_xfg_dispatch.obj
 0002:00000000       __imp_QueryPerformanceCounter 000000014005c000     kernel32:KERNEL32.dll
 0002:00000008       __imp_GetCurrentProcessId  000000014005c008     kernel32:KERNEL32.dll
 0002:00000010       __imp_GetCurrentThreadId   000000014005c010     kernel32:KERNEL32.dll
 0002:00000018       __imp_GetSystemTimeAsFileTime 000000014005c018     kernel32:KERNEL32.dll
 0002:00000020       __imp_InitializeSListHead  000000014005c020     kernel32:KERNEL32.dll
 0002:00000028       __imp_RtlCaptureContext    000000014005c028     kernel32:KERNEL32.dll
 0002:00000030       __imp_RtlLookupFunctionEntry 000000014005c030     kernel32:KERNEL32.dll
 0002:00000038       __imp_RtlVirtualUnwind     000000014005c038     kernel32:KERNEL32.dll
 0002:00000040       __imp_IsDebuggerPresent    000000014005c040     kernel32:KERNEL32.dll
 0002:00000048       __imp_UnhandledExceptionFilter 000000014005c048     kernel32:KERNEL32.dll
 0002:00000050       __imp_SetUnhandledExceptionFilter 000000014005c050     kernel32:KERNEL32.dll
 0002:00000058       __imp_GetStartupInfoW      000000014005c058     kernel32:KERNEL32.dll
 0002:00000060       __imp_IsProcessorFeaturePresent 000000014005c060     kernel32:KERNEL32.dll
 0002:00000068       __imp_GetModuleHandleW     000000014005c068     kernel32:KERNEL32.dll
 0002:00000070       __imp_RtlPcToFileHeader    000000014005c070     kernel32:KERNEL32.dll
 0002:00000078       __imp_RaiseException       000000014005c078     kernel32:KERNEL32.dll
 0002:00000080       __imp_RtlUnwindEx          000000014005c080     kernel32:KERNEL32.dll
 0002:00000088       __imp_InterlockedPushEntrySList 000000014005c088     kernel32:KERNEL32.dll
 0002:00000090       __imp_InterlockedFlushSList 000000014005c090     kernel32:KERNEL32.dll
 0002:00000098       __imp_GetLastError         000000014005c098     kernel32:KERNEL32.dll
 0002:000000a0       __imp_SetLastError         000000014005c0a0     kernel32:KERNEL32.dll
 0002:000000a8       __imp_EncodePointer        000000014005c0a8     kernel32:KERNEL32.dll
 0002:000000b0       __imp_EnterCriticalSection 000000014005c0b0     kernel32:KERNEL32.dll
 0002:000000b8       __imp_LeaveCriticalSection 000000014005c0b8     kernel32:KERNEL32.dll
 0002:000000c0       __imp_DeleteCriticalSection 000000014005c0c0     kernel32:KERNEL32.dll
 0002:000000c8       __imp_InitializeCriticalSectionAndSpinCount 000000014005c0c8     kernel32:KERNEL32.dll
 0002:000000d0       __imp_TlsAlloc             000000014005c0d0     kernel32:KERNEL32.dll
 0002:000000d8       __imp_TlsGetValue          000000014005c0d8     kernel32:KERNEL32.dll
 0002:000000e0       __imp_TlsSetValue          000000014005c0e0     kernel32:KERNEL32.dll
 0002:000000e8       __imp_TlsFree              000000014005c0e8     kernel32:KERNEL32.dll
 0002:000000f0       __imp_FreeLibrary          000000014005c0f0     kernel32:KERNEL32.dll
 0002:000000f8       __imp_GetProcAddress       000000014005c0f8     kernel32:KERNEL32.dll
 0002:00000100       __imp_LoadLibraryExW       000000014005c100     kernel32:KERNEL32.dll
 0002:00000108       __imp_RtlUnwind            000000014005c108     kernel32:KERNEL32.dll
 0002:00000110       __imp_GetStdHandle         000000014005c110     kernel32:KERNEL32.dll
 0002:00000118       __imp_WriteFile            000000014005c118     kernel32:KERNEL32.dll
 0002:00000120       __imp_GetModuleFileNameW   000000014005c120     kernel32:KERNEL32.dll
 0002:00000128       __imp_GetCurrentProcess    000000014005c128     kernel32:KERNEL32.dll
 0002:00000130       __imp_ExitProcess          000000014005c130     kernel32:KERNEL32.dll
 0002:00000138       __imp_TerminateProcess     000000014005c138     kernel32:KERNEL32.dll
 0002:00000140       __imp_GetModuleHandleExW   000000014005c140     kernel32:KERNEL32.dll
 0002:00000148       __imp_GetCommandLineA      000000014005c148     kernel32:KERNEL32.dll
 0002:00000150       __imp_GetCommandLineW      000000014005c150     kernel32:KERNEL32.dll
 0002:00000158       __imp_HeapAlloc            000000014005c158     kernel32:KERNEL32.dll
 0002:00000160       __imp_HeapFree             000000014005c160     kernel32:KERNEL32.dll
 0002:00000168       __imp_GetTempPathW         000000014005c168     kernel32:KERNEL32.dll
 0002:00000170       __imp_FlsAlloc             000000014005c170     kernel32:KERNEL32.dll
 0002:00000178       __imp_FlsGetValue          000000014005c178     kernel32:KERNEL32.dll
 0002:00000180       __imp_FlsSetValue          000000014005c180     kernel32:KERNEL32.dll
 0002:00000188       __imp_FlsFree              000000014005c188     kernel32:KERNEL32.dll
 0002:00000190       __imp_GetDateFormatW       000000014005c190     kernel32:KERNEL32.dll
 0002:00000198       __imp_GetTimeFormatW       000000014005c198     kernel32:KERNEL32.dll
 0002:000001a0       __imp_CompareStringW       000000014005c1a0     kernel32:KERNEL32.dll
 0002:000001a8       __imp_LCMapStringW         000000014005c1a8     kernel32:KERNEL32.dll
 0002:000001b0       __imp_GetLocaleInfoW       000000014005c1b0     kernel32:KERNEL32.dll
 0002:000001b8       __imp_IsValidLocale        000000014005c1b8     kernel32:KERNEL32.dll
 0002:000001c0       __imp_GetUserDefaultLCID   000000014005c1c0     kernel32:KERNEL32.dll
 0002:000001c8       __imp_EnumSystemLocalesW   000000014005c1c8     kernel32:KERNEL32.dll
 0002:000001d0       __imp_GetFileType          000000014005c1d0     kernel32:KERNEL32.dll
 0002:000001d8       __imp_GetCurrentThread     000000014005c1d8     kernel32:KERNEL32.dll
 0002:000001e0       __imp_OutputDebugStringW   000000014005c1e0     kernel32:KERNEL32.dll
 0002:000001e8       __imp_FindClose            000000014005c1e8     kernel32:KERNEL32.dll
 0002:000001f0       __imp_FindFirstFileExW     000000014005c1f0     kernel32:KERNEL32.dll
 0002:000001f8       __imp_FindNextFileW        000000014005c1f8     kernel32:KERNEL32.dll
 0002:00000200       __imp_IsValidCodePage      000000014005c200     kernel32:KERNEL32.dll
 0002:00000208       __imp_GetACP               000000014005c208     kernel32:KERNEL32.dll
 0002:00000210       __imp_GetOEMCP             000000014005c210     kernel32:KERNEL32.dll
 0002:00000218       __imp_GetCPInfo            000000014005c218     kernel32:KERNEL32.dll
 0002:00000220       __imp_MultiByteToWideChar  000000014005c220     kernel32:KERNEL32.dll
 0002:00000228       __imp_WideCharToMultiByte  000000014005c228     kernel32:KERNEL32.dll
 0002:00000230       __imp_GetEnvironmentStringsW 000000014005c230     kernel32:KERNEL32.dll
 0002:00000238       __imp_FreeEnvironmentStringsW 000000014005c238     kernel32:KERNEL32.dll
 0002:00000240       __imp_SetEnvironmentVariableW 000000014005c240     kernel32:KERNEL32.dll
 0002:00000248       __imp_SetStdHandle         000000014005c248     kernel32:KERNEL32.dll
 0002:00000250       __imp_GetStringTypeW       000000014005c250     kernel32:KERNEL32.dll
 0002:00000258       __imp_GetProcessHeap       000000014005c258     kernel32:KERNEL32.dll
 0002:00000260       __imp_SetConsoleCtrlHandler 000000014005c260     kernel32:KERNEL32.dll
 0002:00000268       __imp_FlushFileBuffers     000000014005c268     kernel32:KERNEL32.dll
 0002:00000270       __imp_GetConsoleOutputCP   000000014005c270     kernel32:KERNEL32.dll
 0002:00000278       __imp_GetConsoleMode       000000014005c278     kernel32:KERNEL32.dll
 0002:00000280       __imp_GetFileSizeEx        000000014005c280     kernel32:KERNEL32.dll
 0002:00000288       __imp_SetFilePointerEx     000000014005c288     kernel32:KERNEL32.dll
 0002:00000290       __imp_HeapSize             000000014005c290     kernel32:KERNEL32.dll
 0002:00000298       __imp_HeapReAlloc          000000014005c298     kernel32:KERNEL32.dll
 0002:000002a0       __imp_CloseHandle          000000014005c2a0     kernel32:KERNEL32.dll
 0002:000002a8       __imp_ReadFile             000000014005c2a8     kernel32:KERNEL32.dll
 0002:000002b0       __imp_ReadConsoleW         000000014005c2b0     kernel32:KERNEL32.dll
 0002:000002b8       __imp_CreateFileW          000000014005c2b8     kernel32:KERNEL32.dll
 0002:000002c0       __imp_WriteConsoleW        000000014005c2c0     kernel32:KERNEL32.dll
 0002:000002c8       \177KERNEL32_NULL_THUNK_DATA 000000014005c2c8     kernel32:KERNEL32.dll
 0002:000002d0       __guard_check_icall_fptr   000000014005c2d0     LIBCMT:guard_support.obj
 0002:000002d8       __guard_xfg_check_icall_fptr 000000014005c2d8     LIBCMT:guard_support.obj
 0002:000002e0       __guard_dispatch_icall_fptr 000000014005c2e0     LIBCMT:guard_support.obj
 0002:000002e8       __guard_xfg_dispatch_icall_fptr 000000014005c2e8     LIBCMT:guard_support.obj
 0002:000002f0       __guard_xfg_table_dispatch_icall_fptr 000000014005c2f0     LIBCMT:guard_support.obj
 0002:000002f8       __castguard_check_failure_os_handled_fptr 000000014005c2f8     LIBCMT:guard_support.obj
 0002:00000300       __guard_memcpy_fptr        000000014005c300     libvcruntime:softmemtag.obj
 0002:00000308       __xc_a                     000000014005c308     LIBCMT:initializers.obj
 0002:00000318       __xc_z                     000000014005c318     LIBCMT:initializers.obj
 0002:00000320       __xi_a                     000000014005c320     LIBCMT:initializers.obj
 0002:00000338       __acrt_stdio_initializer   000000014005c338     libucrt:stdio_initializer.obj
 0002:00000340       __acrt_multibyte_initializer 000000014005c340     libucrt:multibyte_initializer.obj
 0002:00000348       __acrt_fmode_initializer   000000014005c348     libucrt:fmode_initializer.obj
 0002:00000350       __acrt_tran_fma3_initializer 000000014005c350     libucrt:fma3_initializer.obj
 0002:00000358       __xi_z                     000000014005c358     LIBCMT:initializers.obj
 0002:00000360       __xp_a                     000000014005c360     LIBCMT:initializers.obj
 0002:00000368       __acrt_locale_terminator   000000014005c368     libucrt:locale_initializer.obj
 0002:00000370       __dcrt_console_output_terminator 000000014005c370     libucrt:console_output_initializer.obj
 0002:00000378       __acrt_stdio_terminator    000000014005c378     libucrt:stdio_initializer.obj
 0002:00000380       __xp_z                     000000014005c380     LIBCMT:initializers.obj
 0002:00000388       __xt_a                     000000014005c388     LIBCMT:initializers.obj
 0002:00000390       __xt_z                     000000014005c390     LIBCMT:initializers.obj
 0002:000003a8       ??_C@_0BC@PEGFHAFH@msvc_CXX_1?5begin?6@ 000000014005c3a8     main.obj
 0002:000003c0       ??_C@_0BG@BJCCIMP@msvc_CXX_1?3goto?5try?5?6@ 000000014005c3c0     main.obj
 0002:000003d8       ??_C@_0BK@BOKJHFBK@msvc_CXX_1?3goto?5catch?3?$CFd?6@ 000000014005c3d8     main.obj
 0002:000003f8       ??_C@_0BA@ENFCKDEC@msvc_CXX_1?5end?6@ 000000014005c3f8     main.obj
 0002:00000408       ??_C@_0BC@MNOIEMJC@msvc_CXX_2?5begin?6@ 000000014005c408     main.obj
 0002:00000420       ??_C@_0BG@LMFIEEAB@msvc_CXX_2?3goto?5try?5?6@ 000000014005c420     main.obj
 0002:00000438       ??_C@_0BN@NIOKFMII@msvc_CXX_2?3goto?5catch?5?$CI?4?4?4?$CJ?6@ 000000014005c438     main.obj
 0002:00000458       ??_C@_0BA@HMLKLJNP@msvc_CXX_2?5end?6@ 000000014005c458     main.obj
 0002:00000468       ??_C@_0BC@NKJDFINB@msvc_CXX_3?5begin?6@ 000000014005c468     main.obj
 0002:00000480       ??_C@_0BG@GBMOJNIE@msvc_CXX_3?3goto?5try?5?6@ 000000014005c480     main.obj
 0002:00000498       ??_C@_0BK@FAOCIEOJ@msvc_CXX_3?3goto?5int?5a?3?$CFd?6@ 000000014005c498     main.obj
 0002:000004b8       ??_C@_0BM@PDMNDBPK@msvc_CXX_3?3goto?5float?5a?3?$CFf?6@ 000000014005c4b8     main.obj
 0002:000004d8       ??_C@_0BN@LNINGHMO@msvc_CXX_3?3goto?5catch?5?$CI?4?4?4?$CJ?6@ 000000014005c4d8     main.obj
 0002:000004f8       ??_C@_0BA@NKMNLCGL@msvc_CXX_3?5end?6@ 000000014005c4f8     main.obj
 0002:00000508       ??_C@_0BC@LOPCDFBI@msvc_CXX_4?5begin?6@ 000000014005c508     main.obj
 0002:00000520       ??_C@_0BJ@OCNGCBNG@msvc_CXX_4?3goto?5try?5111?6@ 000000014005c520     main.obj
 0002:00000540       ??_C@_0BO@HCHEBCLL@msvc_CXX_4?3goto?5catch?5111?3?$CFd?6@ 000000014005c540     main.obj
 0002:00000560       ??_C@_0BJ@LFIFEKLB@msvc_CXX_4?3goto?5try?5222?6@ 000000014005c560     main.obj
 0002:00000580       ??_C@_0BO@ELIHHNGL@msvc_CXX_4?3goto?5catch?5222?3?$CFd?6@ 000000014005c580     main.obj
 0002:000005a0       ??_C@_0BA@BPGKIMOF@msvc_CXX_4?5end?6@ 000000014005c5a0     main.obj
 0002:000005b8       ??_7type_info@@6B@         000000014005c5b8     LIBCMT:std_type_info_static.obj
 0002:000005c0       __xmm@ffffffffffffffffffffffffffffffff 000000014005c5c0     LIBCMT:utility.obj
 0002:000005d0       ?s_negLengthTab@FH4@@3QBCB 000000014005c5d0     libvcruntime:risctrnsctrl.obj
 0002:000005e0       ?s_shiftTab@FH4@@3QBEB     000000014005c5e0     libvcruntime:risctrnsctrl.obj
 0002:00000728       _pDestructExceptionObject  000000014005c728     libvcruntime:ehhelpers.obj
 0002:00000738       ??_7exception@std@@6B@     000000014005c738     libvcruntime:frame.obj
 0002:00000748       ??_C@_0BC@EOODALEL@Unknown?5exception@ 000000014005c748     libvcruntime:frame.obj
 0002:00000768       ??_7bad_exception@std@@6B@ 000000014005c768     libvcruntime:frame.obj
 0002:00000778       ??_C@_0O@DPKOEFFH@bad?5exception@ 000000014005c778     libvcruntime:frame.obj
 0002:00000ea0       ??_C@_08EHJDFFNH@__based?$CI@ 000000014005cea0     libvcruntime:undname.obj
 0002:00000eb0       ??_C@_07KOLFKCDI@__cdecl@  000000014005ceb0     libvcruntime:undname.obj
 0002:00000eb8       ??_C@_08GHMPAG@__pascal@   000000014005ceb8     libvcruntime:undname.obj
 0002:00000ec8       ??_C@_09IFJBGAPI@__stdcall@ 000000014005cec8     libvcruntime:undname.obj
 0002:00000ed8       ??_C@_0L@NPHFGOKO@__thiscall@ 000000014005ced8     libvcruntime:undname.obj
 0002:00000ee8       ??_C@_0L@JMKHOMEK@__fastcall@ 000000014005cee8     libvcruntime:undname.obj
 0002:00000ef8       ??_C@_0N@BCKKPABJ@__vectorcall@ 000000014005cef8     libvcruntime:undname.obj
 0002:00000f08       ??_C@_09HIJEGCPM@__clrcall@ 000000014005cf08     libvcruntime:undname.obj
 0002:00000f14       ??_C@_06GHPCKEAG@__eabi@   000000014005cf14     libvcruntime:undname.obj
 0002:00000f20       ??_C@_09IOPIDJLG@__swift_1@ 000000014005cf20     libvcruntime:undname.obj
 0002:00000f30       ??_C@_09KFNFGKHF@__swift_2@ 000000014005cf30     libvcruntime:undname.obj
 0002:00000f40       ??_C@_09LMMOFLDE@__swift_3@ 000000014005cf40     libvcruntime:undname.obj
 0002:00000f50       ??_C@_07JOMMBBKO@__ptr64@  000000014005cf50     libvcruntime:undname.obj
 0002:00000f58       ??_C@_0L@PILCLIHE@__restrict@ 000000014005cf58     libvcruntime:undname.obj
 0002:00000f68       ??_C@_0M@GFIIJFMG@__unaligned@ 000000014005cf68     libvcruntime:undname.obj
 0002:00000f78       ??_C@_09DHDLOLLB@restrict?$CI@ 000000014005cf78     libvcruntime:undname.obj
 0002:00000f82       ??_C@_00CNPNBAHC@@         000000014005cf82     libvcruntime:undname.obj
 0002:00000f84       ??_C@_04NIHEBCM@?5new@     000000014005cf84     libvcruntime:undname.obj
 0002:00000f90       ??_C@_07FPCDHGMM@?5delete@ 000000014005cf90     libvcruntime:undname.obj
 0002:00000f98       ??_C@_01NEMOKFLO@?$DN@     000000014005cf98     libvcruntime:undname.obj
 0002:00000f9c       ??_C@_02GPIOPFAK@?$DO?$DO@ 000000014005cf9c     libvcruntime:undname.obj
 0002:00000fa0       ??_C@_02FODMEDOG@?$DM?$DM@ 000000014005cfa0     libvcruntime:undname.obj
 0002:00000fa4       ??_C@_01DCLJPIOD@?$CB@     000000014005cfa4     libvcruntime:undname.obj
 0002:00000fa8       ??_C@_02EGOFBIJA@?$DN?$DN@ 000000014005cfa8     libvcruntime:undname.obj
 0002:00000fac       ??_C@_02FDNJECIE@?$CB?$DN@ 000000014005cfac     libvcruntime:undname.obj
 0002:00000fb0       ??_C@_02GPECMEKF@?$FL?$FN@ 000000014005cfb0     libvcruntime:undname.obj
 0002:00000fb8       ??_C@_08LHJFAFGD@operator@ 000000014005cfb8     libvcruntime:undname.obj
 0002:00000fc4       ??_C@_02HBOOOICD@?9?$DO@   000000014005cfc4     libvcruntime:undname.obj
 0002:00000fc8       ??_C@_01NBENCBCI@?$CK@     000000014005cfc8     libvcruntime:undname.obj
 0002:00000fcc       ??_C@_02ECNGHCIF@?$CL?$CL@ 000000014005cfcc     libvcruntime:undname.obj
 0002:00000fd0       ??_C@_02BAABKJLB@?9?9@     000000014005cfd0     libvcruntime:undname.obj
 0002:00000fd4       ??_C@_01JOAMLHOP@?9@       000000014005cfd4     libvcruntime:undname.obj
 0002:00000fd8       ??_C@_01MIFGBAGJ@?$CL@     000000014005cfd8     libvcruntime:undname.obj
 0002:00000fdc       ??_C@_01HNPIGOCE@?$CG@     000000014005cfdc     libvcruntime:undname.obj
 0002:00000fe0       ??_C@_03MNHNFDLC@?9?$DO?$CK@ 000000014005cfe0     libvcruntime:undname.obj
 0002:00000fe4       ??_C@_01KMDKNFGN@?1@       000000014005cfe4     libvcruntime:undname.obj
 0002:00000fe8       ??_C@_01FGNFDNOH@?$CF@     000000014005cfe8     libvcruntime:undname.obj
 0002:00000fec       ??_C@_01MNNFJEPP@?$DM@     000000014005cfec     libvcruntime:undname.obj
 0002:00000ff0       ??_C@_02EHCHHCKH@?$DM?$DN@ 000000014005cff0     libvcruntime:undname.obj
 0002:00000ff4       ??_C@_01PPODPGHN@?$DO@     000000014005cff4     libvcruntime:undname.obj
 0002:00000ff8       ??_C@_02EEKDKGMJ@?$DO?$DN@ 000000014005cff8     libvcruntime:undname.obj
 0002:00000ffc       ??_C@_01IHBHIGKO@?0@       000000014005cffc     libvcruntime:undname.obj
 0002:00001000       ??_C@_02HCKGKOFO@?$CI?$CJ@ 000000014005d000     libvcruntime:undname.obj
 0002:00001004       ??_C@_01PJKLJHI@?$HO@      000000014005d004     libvcruntime:undname.obj
 0002:00001008       ??_C@_01JKBOJNNK@?$FO@     000000014005d008     libvcruntime:undname.obj
 0002:0000100c       ??_C@_01DNKMNLPK@?$HM@     000000014005d00c     libvcruntime:undname.obj
 0002:00001010       ??_C@_02PPKAJPJL@?$CG?$CG@ 000000014005d010     libvcruntime:undname.obj
 0002:00001014       ??_C@_02NONPIBCD@?$HM?$HM@ 000000014005d014     libvcruntime:undname.obj
 0002:00001018       ??_C@_02FPIMKNGF@?$CK?$DN@ 000000014005d018     libvcruntime:undname.obj
 0002:0000101c       ??_C@_02FOEOMHFC@?$CL?$DN@ 000000014005d01c     libvcruntime:undname.obj
 0002:00001020       ??_C@_02FKMDLLOA@?9?$DN@   000000014005d020     libvcruntime:undname.obj
 0002:00001024       ??_C@_02FJEHGPIO@?1?$DN@   000000014005d024     libvcruntime:undname.obj
 0002:00001028       ??_C@_02FENAOKFI@?$CF?$DN@ 000000014005d028     libvcruntime:undname.obj
 0002:0000102c       ??_C@_03IKFCCPFF@?$DO?$DO?$DN@ 000000014005d02c     libvcruntime:undname.obj
 0002:00001030       ??_C@_03CDNPDDLA@?$DM?$DM?$DN@ 000000014005d030     libvcruntime:undname.obj
 0002:00001034       ??_C@_02FGJGFEAB@?$CG?$DN@ 000000014005d034     libvcruntime:undname.obj
 0002:00001038       ??_C@_02DHLNPPGH@?$HM?$DN@ 000000014005d038     libvcruntime:undname.obj
 0002:0000103c       ??_C@_02MHEGNOJ@?$FO?$DN@  000000014005d03c     libvcruntime:undname.obj
 0002:00001040       ??_C@_09IFPLHPGF@?$GAvftable?8@ 000000014005d040     libvcruntime:undname.obj
 0002:00001050       ??_C@_09BLBHBJP@?$GAvbtable?8@ 000000014005d050     libvcruntime:undname.obj
 0002:00001060       ??_C@_07FEEIOKP@?$GAvcall?8@ 000000014005d060     libvcruntime:undname.obj
 0002:00001068       ??_C@_08LLFFHHDJ@?$GAtypeof?8@ 000000014005d068     libvcruntime:undname.obj
 0002:00001078       ??_C@_0BF@KDPPACIK@?$GAlocal?5static?5guard?8@ 000000014005d078     libvcruntime:undname.obj
 0002:00001090       ??_C@_08OBABFOLI@?$GAstring?8@ 000000014005d090     libvcruntime:undname.obj
 0002:000010a0       ??_C@_0BD@JDLKDPAB@?$GAvbase?5destructor?8@ 000000014005d0a0     libvcruntime:undname.obj
 0002:000010b8       ??_C@_0BN@DEGPLNFK@?$GAvector?5deleting?5destructor?8@ 000000014005d0b8     libvcruntime:undname.obj
 0002:000010d8       ??_C@_0BO@OBMKPJIG@?$GAdefault?5constructor?5closure?8@ 000000014005d0d8     libvcruntime:undname.obj
 0002:000010f8       ??_C@_0BN@IMDCHIKM@?$GAscalar?5deleting?5destructor?8@ 000000014005d0f8     libvcruntime:undname.obj
 0002:00001118       ??_C@_0BO@PFGOCPJJ@?$GAvector?5constructor?5iterator?8@ 000000014005d118     libvcruntime:undname.obj
 0002:00001138       ??_C@_0BN@LFPFMEDL@?$GAvector?5destructor?5iterator?8@ 000000014005d138     libvcruntime:undname.obj
 0002:00001158       ??_C@_0CE@IKBNEHA@?$GAvector?5vbase?5constructor?5itera@ 000000014005d158     libvcruntime:undname.obj
 0002:00001180       ??_C@_0BL@NILFHHPC@?$GAvirtual?5displacement?5map?8@ 000000014005d180     libvcruntime:undname.obj
 0002:000011a0       ??_C@_0CB@JONCMFFK@?$GAeh?5vector?5constructor?5iterator@ 000000014005d1a0     libvcruntime:undname.obj
 0002:000011c8       ??_C@_0CA@GCEOPDGL@?$GAeh?5vector?5destructor?5iterator?8@ 000000014005d1c8     libvcruntime:undname.obj
 0002:000011e8       ??_C@_0CH@OOJPLCPH@?$GAeh?5vector?5vbase?5constructor?5it@ 000000014005d1e8     libvcruntime:undname.obj
 0002:00001210       ??_C@_0BL@LLKPOHJI@?$GAcopy?5constructor?5closure?8@ 000000014005d210     libvcruntime:undname.obj
 0002:00001230       ??_C@_0BA@KBCDOMBN@?$GAudt?5returning?8@ 000000014005d230     libvcruntime:undname.obj
 0002:00001240       ??_C@_03KLGMFNMG@?$GAEH@   000000014005d240     libvcruntime:undname.obj
 0002:00001244       ??_C@_05KHLCHHI@?$GARTTI@  000000014005d244     libvcruntime:undname.obj
 0002:00001250       ??_C@_0BA@KKLDJDLB@?$GAlocal?5vftable?8@ 000000014005d250     libvcruntime:undname.obj
 0002:00001260       ??_C@_0CE@IIHCMGGL@?$GAlocal?5vftable?5constructor?5clos@ 000000014005d260     libvcruntime:undname.obj
 0002:00001284       ??_C@_06FHBGPFGH@?5new?$FL?$FN@ 000000014005d284     libvcruntime:undname.obj
 0002:00001290       ??_C@_09LBNFPBCA@?5delete?$FL?$FN@ 000000014005d290     libvcruntime:undname.obj
 0002:000012a0       ??_C@_0P@HJKNJFNN@?$GAomni?5callsig?8@ 000000014005d2a0     libvcruntime:undname.obj
 0002:000012b0       ??_C@_0BL@CNOONJFP@?$GAplacement?5delete?5closure?8@ 000000014005d2b0     libvcruntime:undname.obj
 0002:000012d0       ??_C@_0BN@CKNJLHMB@?$GAplacement?5delete?$FL?$FN?5closure?8@ 000000014005d2d0     libvcruntime:undname.obj
 0002:000012f0       ??_C@_0CG@CFDHKGGD@?$GAmanaged?5vector?5constructor?5ite@ 000000014005d2f0     libvcruntime:undname.obj
 0002:00001318       ??_C@_0CF@IMGKMJNO@?$GAmanaged?5vector?5destructor?5iter@ 000000014005d318     libvcruntime:undname.obj
 0002:00001340       ??_C@_0CG@HLDDJMAG@?$GAeh?5vector?5copy?5constructor?5ite@ 000000014005d340     libvcruntime:undname.obj
 0002:00001368       ??_C@_0CM@FCBBDIGB@?$GAeh?5vector?5vbase?5copy?5construct@ 000000014005d368     libvcruntime:undname.obj
 0002:00001398       ??_C@_0BL@CLIPGLGB@?$GAdynamic?5initializer?5for?5?8@ 000000014005d398     libvcruntime:undname.obj
 0002:000013b8       ??_C@_0CB@PDBIFEP@?$GAdynamic?5atexit?5destructor?5for?5@ 000000014005d3b8     libvcruntime:undname.obj
 0002:000013e0       ??_C@_0CD@CGAJBKEJ@?$GAvector?5copy?5constructor?5iterat@ 000000014005d3e0     libvcruntime:undname.obj
 0002:00001408       ??_C@_0CJ@GJELGAMM@?$GAvector?5vbase?5copy?5constructor?5@ 000000014005d408     libvcruntime:undname.obj
 0002:00001438       ??_C@_0CL@FGIJHLCE@?$GAmanaged?5vector?5copy?5constructo@ 000000014005d438     libvcruntime:undname.obj
 0002:00001468       ??_C@_0BM@PMGGMLDN@?$GAlocal?5static?5thread?5guard?8@ 000000014005d468     libvcruntime:undname.obj
 0002:00001488       ??_C@_0N@BDNMDMOL@operator?5?$CC?$CC?5@ 000000014005d488     libvcruntime:undname.obj
 0002:00001498       ??_C@_0BC@GGEBGALA@operator?5co_await@ 000000014005d498     libvcruntime:undname.obj
 0002:000014b0       ??_C@_0M@GAAIMMOH@operator?$DM?$DN?$DO@ 000000014005d4b0     libvcruntime:undname.obj
 0002:000014c0       ??_C@_0BC@DAFEJGAK@?5Type?5Descriptor?8@ 000000014005d4c0     libvcruntime:undname.obj
 0002:000014d8       ??_C@_0BM@LDKODKLH@?5Base?5Class?5Descriptor?5at?5?$CI@ 000000014005d4d8     libvcruntime:undname.obj
 0002:000014f8       ??_C@_0BD@LGICGFMM@?5Base?5Class?5Array?8@ 000000014005d4f8     libvcruntime:undname.obj
 0002:00001510       ??_C@_0BN@MECKDCOJ@?5Class?5Hierarchy?5Descriptor?8@ 000000014005d510     libvcruntime:undname.obj
 0002:00001530       ??_C@_0BK@CFCOFLF@?5Complete?5Object?5Locator?8@ 000000014005d530     libvcruntime:undname.obj
 0002:00001550       ??_C@_0BG@JNJLAMPM@?$GAanonymous?5namespace?8@ 000000014005d550     libvcruntime:undname.obj
 0002:00001568       ??_C@_04HEJADOOB@CV?3?5@   000000014005d568     libvcruntime:undname.obj
 0002:00001570       ??_C@_02MOLJINC@?3?3@      000000014005d570     libvcruntime:undname.obj
 0002:00001578       ??_C@_0BE@JAEOCHPE@template?9parameter?9@ 000000014005d578     libvcruntime:undname.obj
 0002:00001590       ??_C@_0BF@LNLGBBNL@?$GAtemplate?9parameter?9@ 000000014005d590     libvcruntime:undname.obj
 0002:000015a8       ??_C@_0O@KHGCOMHP@generic?9type?9@ 000000014005d5a8     libvcruntime:undname.obj
 0002:000015b8       ??_C@_0P@ODDENDLM@?$GAgeneric?9type?9@ 000000014005d5b8     libvcruntime:undname.obj
 0002:000015c8       ??_C@_02OHHJMEON@?8?8@     000000014005d5c8     libvcruntime:undname.obj
 0002:000015d0       ??_C@_0BN@IBLMMFAP@?$GAnon?9type?9template?9parameter@ 000000014005d5d0     libvcruntime:undname.obj
 0002:000015f0       ??_C@_03DLDNIBIK@?$CFlf@   000000014005d5f0     libvcruntime:undname.obj
 0002:000015f4       ??_C@_04OFALKAJ@?$DP?$DP_C@ 000000014005d5f4     libvcruntime:undname.obj
 0002:000015fc       ??_C@_03KHICJKCI@?4?4?4@   000000014005d5fc     libvcruntime:undname.obj
 0002:00001600       ??_C@_04HIBGFPH@NULL@      000000014005d600     libvcruntime:undname.obj
 0002:00001608       ??_C@_02DPKJAMEF@?$CFd@    000000014005d608     libvcruntime:undname.obj
 0002:00001610       ??_C@_0BK@IHCCFNEL@?$GAtemplate?9type?9parameter?9@ 000000014005d610     libvcruntime:undname.obj
 0002:00001630       ??_C@_0BK@OFCNNNKO@?$GAgeneric?9class?9parameter?9@ 000000014005d630     libvcruntime:undname.obj
 0002:00001650       ??_C@_0BL@NGJBLFIL@?$GAgeneric?9method?9parameter?9@ 000000014005d650     libvcruntime:undname.obj
 0002:00001670       ??_C@_07OHNGEDJK@nullptr@  000000014005d670     libvcruntime:undname.obj
 0002:00001678       ??_C@_06COJIGPIB@lambda@   000000014005d678     libvcruntime:undname.obj
 0002:00001680       ??_C@_04GKJNKENE@void@     000000014005d680     libvcruntime:undname.obj
 0002:00001688       ??_C@_0BE@EODMJLIF@?$GAtemplate?9parameter@ 000000014005d688     libvcruntime:undname.obj
 0002:0000169c       ??_C@_03OPGICMGF@?$HN?8?5@ 000000014005d69c     libvcruntime:undname.obj
 0002:000016a0       ??_C@_02IGFCGPIL@?$HN?8@   000000014005d6a0     libvcruntime:undname.obj
 0002:000016a8       ??_C@_0N@CBHHHENL@?$GAvtordispex?$HL@ 000000014005d6a8     libvcruntime:undname.obj
 0002:000016b8       ??_C@_0L@GHPFDFH@?$GAvtordisp?$HL@ 000000014005d6b8     libvcruntime:undname.obj
 0002:000016c8       ??_C@_0L@HNGCOGAE@?$GAadjustor?$HL@ 000000014005d6c8     libvcruntime:undname.obj
 0002:000016d8       ??_C@_0CB@KJDOOODE@?$GAlocal?5static?5destructor?5helper@ 000000014005d6d8     libvcruntime:undname.obj
 0002:00001700       ??_C@_0DB@ILEFOCIJ@?$GAtemplate?5static?5data?5member?5co@ 000000014005d700     libvcruntime:undname.obj
 0002:00001738       ??_C@_0DA@HGFJFBBE@?$GAtemplate?5static?5data?5member?5de@ 000000014005d738     libvcruntime:undname.obj
 0002:00001768       ??_C@_07PGOEDBHP@static?5@ 000000014005d768     libvcruntime:undname.obj
 0002:00001770       ??_C@_08NIEOINHE@virtual?5@ 000000014005d770     libvcruntime:undname.obj
 0002:00001780       ??_C@_09LAPHOOG@private?3?5@ 000000014005d780     libvcruntime:undname.obj
 0002:00001790       ??_C@_0M@GAIFPFIP@protected?3?5@ 000000014005d790     libvcruntime:undname.obj
 0002:000017a0       ??_C@_08GPDDCMKI@public?3?5@ 000000014005d7a0     libvcruntime:undname.obj
 0002:000017b0       ??_C@_08KJLFOPNE@?$FLthunk?$FN?3@ 000000014005d7b0     libvcruntime:undname.obj
 0002:000017c0       ??_C@_0M@DHNBOJMP@extern?5?$CCC?$CC?5@ 000000014005d7c0     libvcruntime:undname.obj
 0002:000017cc       ??_C@_02KCKGHPCA@?$CJ?5@   000000014005d7cc     libvcruntime:undname.obj
 0002:000017d0       ??_C@_05CIHEBHNO@char?5@   000000014005d7d0     libvcruntime:undname.obj
 0002:000017d8       ??_C@_06EHJMALKF@short?5@  000000014005d7d8     libvcruntime:undname.obj
 0002:000017e0       ??_C@_04LAHKHJMA@int?5@    000000014005d7e0     libvcruntime:undname.obj
 0002:000017e8       ??_C@_05CJIMAING@long?5@   000000014005d7e8     libvcruntime:undname.obj
 0002:000017f0       ??_C@_09EBBEKKIH@unsigned?5@ 000000014005d7f0     libvcruntime:undname.obj
 0002:000017fc       ??_C@_05BEFAKPML@void?5@   000000014005d7fc     libvcruntime:undname.obj
 0002:00001808       ??_C@_09GAIEOBLP@volatile?5@ 000000014005d808     libvcruntime:undname.obj
 0002:00001818       ??_C@_08PABEKFH@volatile@  000000014005d818     libvcruntime:undname.obj
 0002:00001828       ??_C@_0BA@LKIJLKPP@std?3?3nullptr_t?5@ 000000014005d828     libvcruntime:undname.obj
 0002:00001838       ??_C@_0P@GCOCNKDM@std?3?3nullptr_t@ 000000014005d838     libvcruntime:undname.obj
 0002:00001848       ??_C@_0L@EGPHHEKN@?$DMellipsis?$DO@ 000000014005d848     libvcruntime:undname.obj
 0002:00001854       ??_C@_04EENFHACM@?0?4?4?4@ 000000014005d854     libvcruntime:undname.obj
 0002:00001860       ??_C@_0M@ELJOJFFH@?0?$DMellipsis?$DO@ 000000014005d860     libvcruntime:undname.obj
 0002:00001870       ??_C@_09DNHFEOJI@?5noexcept@ 000000014005d870     libvcruntime:undname.obj
 0002:0000187c       ??_C@_03PBJBJNON@cpu@      000000014005d87c     libvcruntime:undname.obj
 0002:00001880       ??_C@_03DCBBJBAA@amp@      000000014005d880     libvcruntime:undname.obj
 0002:00001884       ??_C@_02KEGNLNML@?0?5@     000000014005d884     libvcruntime:undname.obj
 0002:00001888       ??_C@_04ENMBGAPA@char@     000000014005d888     libvcruntime:undname.obj
 0002:00001890       ??_C@_05BFKKPKCG@short@    000000014005d890     libvcruntime:undname.obj
 0002:00001898       ??_C@_03JBIPMCLC@int@      000000014005d898     libvcruntime:undname.obj
 0002:0000189c       ??_C@_04GOKPGOLB@long@     000000014005d89c     libvcruntime:undname.obj
 0002:000018a4       ??_C@_05KNFBNCOH@float@    000000014005d8a4     libvcruntime:undname.obj
 0002:000018ac       ??_C@_06BNJCAIGJ@double@   000000014005d8ac     libvcruntime:undname.obj
 0002:000018b4       ??_C@_04DDKJGDCM@bool@     000000014005d8b4     libvcruntime:undname.obj
 0002:000018bc       ??_C@_06EBGKOKIG@__int8@   000000014005d8bc     libvcruntime:undname.obj
 0002:000018c8       ??_C@_07ICFHOGAF@__int16@  000000014005d8c8     libvcruntime:undname.obj
 0002:000018d0       ??_C@_07OFLPPHGP@__int32@  000000014005d8d0     libvcruntime:undname.obj
 0002:000018d8       ??_C@_07LFCOJCAC@__int64@  000000014005d8d8     libvcruntime:undname.obj
 0002:000018e0       ??_C@_08GAHOLHEO@__int128@ 000000014005d8e0     libvcruntime:undname.obj
 0002:000018f0       ??_C@_09EEKGDCPH@?$DMunknown?$DO@ 000000014005d8f0     libvcruntime:undname.obj
 0002:00001900       ??_C@_07CFHGOPCN@char8_t@  000000014005d900     libvcruntime:undname.obj
 0002:00001908       ??_C@_08HBIPOFJB@char16_t@ 000000014005d908     libvcruntime:undname.obj
 0002:00001918       ??_C@_08IECNCBKG@char32_t@ 000000014005d918     libvcruntime:undname.obj
 0002:00001928       ??_C@_07CLGGIAMF@wchar_t@  000000014005d928     libvcruntime:undname.obj
 0002:00001930       ??_C@_04HAPDLBFF@auto@     000000014005d930     libvcruntime:undname.obj
 0002:00001938       ??_C@_0P@LHCGKIGK@decltype?$CIauto?$CJ@ 000000014005d938     libvcruntime:undname.obj
 0002:00001948       ??_C@_05PCNBGHCF@this?5@   000000014005d948     libvcruntime:undname.obj
 0002:00001950       ??_C@_06GCICPBLB@__w64?5@  000000014005d950     libvcruntime:undname.obj
 0002:00001958       ??_C@_07NFANNNEC@UNKNOWN@  000000014005d958     libvcruntime:undname.obj
 0002:00001960       ??_C@_07EDHNAJHC@signed?5@ 000000014005d960     libvcruntime:undname.obj
 0002:00001968       ??_C@_05BNCCCJPP@const@    000000014005d968     libvcruntime:undname.obj
 0002:00001970       ??_C@_09EFNPDFFP@?5volatile@ 000000014005d970     libvcruntime:undname.obj
 0002:00001980       ??_C@_0P@GCIFDJCJ@?$GAunknown?5ecsu?8@ 000000014005d980     libvcruntime:undname.obj
 0002:00001990       ??_C@_06MOJHIBMG@union?5@  000000014005d990     libvcruntime:undname.obj
 0002:00001998       ??_C@_07DIBCDNGL@struct?5@ 000000014005d998     libvcruntime:undname.obj
 0002:000019a0       ??_C@_06LJBABKPM@class?5@  000000014005d9a0     libvcruntime:undname.obj
 0002:000019a8       ??_C@_08KOFANOFK@coclass?5@ 000000014005d9a8     libvcruntime:undname.obj
 0002:000019b8       ??_C@_0N@DLIEFKNA@cointerface?5@ 000000014005d9b8     libvcruntime:undname.obj
 0002:000019c8       ??_C@_05LJGMCFOG@enum?5@   000000014005d9c8     libvcruntime:undname.obj
 0002:000019d0       ??_C@_06LIJLOJAG@const?5@  000000014005d9d0     libvcruntime:undname.obj
 0002:000019d8       ??_C@_02KJPKDIBN@?$CG?5@   000000014005d9d8     libvcruntime:undname.obj
 0002:000019dc       ??_C@_03PCKGMOPB@?$CG?$CG?5@ 000000014005d9dc     libvcruntime:undname.obj
 0002:000019e0       ??_C@_0M@EALIELKG@cli?3?3array?$DM@ 000000014005d9e0     libvcruntime:undname.obj
 0002:000019f0       ??_C@_0O@GKABPPIF@cli?3?3pin_ptr?$DM@ 000000014005d9f0     libvcruntime:undname.obj
 0002:00001a00       ??_C@_02GOGNNPBN@?$CJ?$FL@ 000000014005da00     libvcruntime:undname.obj
 0002:00001a04       ??_C@_06EEGAIFAK@?$HLflat?$HN@ 000000014005da04     libvcruntime:undname.obj
 0002:00001a0c       ??_C@_05JIBOFOHK@?$HLfor?5@ 000000014005da0c     libvcruntime:undname.obj
 0002:00001a14       ??_C@_02MDINNEEG@s?5@      000000014005da14     libvcruntime:undname.obj
 0002:00001a20       ??_7DNameNode@@6B@         000000014005da20     libvcruntime:undname.obj
 0002:00001a48       ??_7charNode@@6B@          000000014005da48     libvcruntime:undname.obj
 0002:00001a70       ??_7pcharNode@@6B@         000000014005da70     libvcruntime:undname.obj
 0002:00001a98       ??_7pDNameNode@@6B@        000000014005da98     libvcruntime:undname.obj
 0002:00001ac0       ??_7DNameStatusNode@@6B@   000000014005dac0     libvcruntime:undname.obj
 0002:00001ae8       ??_7pairNode@@6B@          000000014005dae8     libvcruntime:undname.obj
 0002:00001c10       ??_C@_04OKOHEJBO@?5?$DP?$DP?5@ 000000014005dc10     libvcruntime:undname.obj
 0002:00001c20       ?nodes@?1??make@DNameStatusNode@@SAPEBV2@W4DNameStatus@@@Z@4QBV2@B 000000014005dc20     libvcruntime:undname.obj
 0002:00001c78       ??_C@_1DM@KHCHBNEB@?$AAa?$AAp?$AAi?$AA?9?$AAm?$AAs?$AA?9?$AAw?$AAi?$AAn?$AA?9?$AAc?$AAo?$AAr?$AAe@ 000000014005dc78     libvcruntime:winapi_downlevel.obj
 0002:00001cb8       ??_C@_1DK@LPPGFMPP@?$AAa?$AAp?$AAi?$AA?9?$AAm?$AAs?$AA?9?$AAw?$AAi?$AAn?$AA?9?$AAc?$AAo?$AAr?$AAe@ 000000014005dcb8     libvcruntime:winapi_downlevel.obj
 0002:00001cf8       ??_C@_1BC@GDMECMAK@?$AAk?$AAe?$AAr?$AAn?$AAe?$AAl?$AA3?$AA2@ 000000014005dcf8     libvcruntime:winapi_downlevel.obj
 0002:00001d10       ??_C@_1BA@PFFKHIOG@?$AAa?$AAp?$AAi?$AA?9?$AAm?$AAs?$AA?9@ 000000014005dd10     libvcruntime:winapi_downlevel.obj
 0002:00001d28       ??_C@_08KNHFBNJ@FlsAlloc@  000000014005dd28     libvcruntime:winapi_downlevel.obj
 0002:00001d40       ??_C@_07PEJMOBNF@FlsFree@  000000014005dd40     libvcruntime:winapi_downlevel.obj
 0002:00001d50       ??_C@_0M@GDNOONDI@FlsGetValue@ 000000014005dd50     libvcruntime:winapi_downlevel.obj
 0002:00001d68       ??_C@_0M@JCPCPOEF@FlsSetValue@ 000000014005dd68     libvcruntime:winapi_downlevel.obj
 0002:00001d80       ??_C@_0BM@HCFOFFN@InitializeCriticalSectionEx@ 000000014005dd80     libvcruntime:winapi_downlevel.obj
 0002:00001da0       _Fenv1                     000000014005dda0     libucrt:output.obj
 0002:00001db0       ?standard_lookup_table_spectre@__crt_stdio_output@@3V?$spectre_mitigated_lookup_table@Ustate_transition_pair@__crt_stdio_output@@$0IA@@1@B 000000014005ddb0     libucrt:output.obj
 0002:00001eb0       ?format_validation_lookup_table_spectre@__crt_stdio_output@@3V?$spectre_mitigated_lookup_table@Ustate_transition_pair@__crt_stdio_output@@$0IA@@1@B 000000014005deb0     libucrt:output.obj
 0002:00001fb0       ??_C@_1O@CEDCILHN@?$AA?$CI?$AAn?$AAu?$AAl?$AAl?$AA?$CJ@ 000000014005dfb0     libucrt:output.obj
 0002:00001fc0       ??_C@_06OJHGLDPL@?$CInull?$CJ@ 000000014005dfc0     libucrt:output.obj
 0002:00001fd0       __acrt_exception_action_table 000000014005dfd0     libucrt:exception_filter.obj
 0002:00002090       __acrt_signal_action_table_count 000000014005e090     libucrt:exception_filter.obj
 0002:00002098       __acrt_signal_action_table_size 000000014005e098     libucrt:exception_filter.obj
 0002:000020a0       __acrt_signal_action_first_fpe_index 000000014005e0a0     libucrt:exception_filter.obj
 0002:000020a8       __acrt_signal_action_fpe_count 000000014005e0a8     libucrt:exception_filter.obj
 0002:000020b0       ??_C@_1DE@JNGNBFGO@?$AAR?$AAu?$AAn?$AAt?$AAi?$AAm?$AAe?$AA?5?$AAE?$AAr?$AAr?$AAo?$AAr?$AA?$CB?$AA?6@ 000000014005e0b0     libucrt:report_runtime_error.obj
 0002:000020e8       ??_C@_1CO@EAEJAADC@?$AA?$DM?$AAp?$AAr?$AAo?$AAg?$AAr?$AAa?$AAm?$AA?5?$AAn?$AAa?$AAm?$AAe?$AA?5?$AAu@ 000000014005e0e8     libucrt:report_runtime_error.obj
 0002:00002118       ??_C@_17LGKOMLJ@?$AA?4?$AA?4?$AA?4@ 000000014005e118     libucrt:report_runtime_error.obj
 0002:00002120       ??_C@_15IABLJNFO@?$AA?6?$AA?6@ 000000014005e120     libucrt:report_runtime_error.obj
 0002:00002130       ??_C@_1EK@MBDPDCGA@?$AAM?$AAi?$AAc?$AAr?$AAo?$AAs?$AAo?$AAf?$AAt?$AA?5?$AAV?$AAi?$AAs?$AAu?$AAa@ 000000014005e130     libucrt:report_runtime_error.obj
 0002:00002270       ??_C@_1BI@BGOHAHKC@?$AAm?$AAs?$AAc?$AAo?$AAr?$AAe?$AAe?$AA?4?$AAd?$AAl?$AAl@ 000000014005e270     libucrt:exit.obj
 0002:00002288       ??_C@_0P@MIGLKIOC@CorExitProcess@ 000000014005e288     libucrt:exit.obj
 0002:00002320       __lc_category              000000014005e320     libucrt:wsetlocale.obj
 0002:000023b0       ??_C@_1O@GIFLHMA@?$AAL?$AAC?$AA_?$AAA?$AAL?$AAL@ 000000014005e3b0     libucrt:wsetlocale.obj
 0002:000023c0       ??_C@_1BG@PPOMIBNJ@?$AAL?$AAC?$AA_?$AAC?$AAO?$AAL?$AAL?$AAA?$AAT?$AAE@ 000000014005e3c0     libucrt:wsetlocale.obj
 0002:000023d8       ??_C@_1BC@FFJGAPJM@?$AAL?$AAC?$AA_?$AAC?$AAT?$AAY?$AAP?$AAE@ 000000014005e3d8     libucrt:wsetlocale.obj
 0002:000023f0       ??_C@_1BI@PCKFNJFB@?$AAL?$AAC?$AA_?$AAM?$AAO?$AAN?$AAE?$AAT?$AAA?$AAR?$AAY@ 000000014005e3f0     libucrt:wsetlocale.obj
 0002:00002408       ??_C@_1BG@ENIEDKID@?$AAL?$AAC?$AA_?$AAN?$AAU?$AAM?$AAE?$AAR?$AAI?$AAC@ 000000014005e408     libucrt:wsetlocale.obj
 0002:00002420       ??_C@_1BA@HAAOMIIG@?$AAL?$AAC?$AA_?$AAT?$AAI?$AAM?$AAE@ 000000014005e420     libucrt:wsetlocale.obj
 0002:00002430       ??_C@_15NBPDDFIP@?$AA?$DN?$AA?$DL@ 000000014005e430     libucrt:wsetlocale.obj
 0002:00002438       ??_C@_13PJJBFPED@?$AA?$DL@ 000000014005e438     libucrt:wsetlocale.obj
 0002:0000243c       ??_C@_13NMPKAAJP@?$AA?$DN@ 000000014005e43c     libucrt:wsetlocale.obj
 0002:00002440       ??_C@_13IMODFHAA@?$AA?9@   000000014005e440     libucrt:wsetlocale.obj
 0002:00002448       ??_C@_17EFJLDFDO@?$AA?9?$AA_?$AA?4@ 000000014005e448     libucrt:wsetlocale.obj
 0002:00002450       ??_C@_13FHBKNHDA@?$AAC@    000000014005e450     libucrt:wsetlocale.obj
 0002:00002458       ??_C@_17MBJJLFDM@?$AA_?$AA?4?$AA?0@ 000000014005e458     libucrt:wsetlocale.obj
 0002:00002460       ??_C@_13ENNFDPBH@?$AA_@    000000014005e460     libucrt:wsetlocale.obj
 0002:00002464       ??_C@_13JOFGPIOO@?$AA?4@   000000014005e464     libucrt:wsetlocale.obj
 0002:00002728       RtlNtPathSeperatorString   000000014005e728     libucrt:winapi_thunks.obj
 0002:00002738       ??_C@_13FPGAJAPJ@?$AA?2@   000000014005e738     libucrt:winapi_thunks.obj
 0002:00002740       RtlDosPathSeperatorsString 000000014005e740     libucrt:winapi_thunks.obj
 0002:00002750       ??_C@_15MNCACJLI@?$AA?2?$AA?1@ 000000014005e750     libucrt:winapi_thunks.obj
 0002:00002758       RtlAlternateDosPathSeperatorString 000000014005e758     libucrt:winapi_thunks.obj
 0002:00002768       ??_C@_13CGOKJPIL@?$AA?1@   000000014005e768     libucrt:winapi_thunks.obj
 0002:00002820       ??_C@_1EA@JGEFHKEI@?$AAa?$AAp?$AAi?$AA?9?$AAm?$AAs?$AA?9?$AAw?$AAi?$AAn?$AA?9?$AAc?$AAo?$AAr?$AAe@ 000000014005e820     libucrt:winapi_thunks.obj
 0002:00002860       ??_C@_1DI@KMEPCBPN@?$AAa?$AAp?$AAi?$AA?9?$AAm?$AAs?$AA?9?$AAw?$AAi?$AAn?$AA?9?$AAc?$AAo?$AAr?$AAe@ 000000014005e860     libucrt:winapi_thunks.obj
 0002:00002898       ??_C@_1DI@IJCEHOCB@?$AAa?$AAp?$AAi?$AA?9?$AAm?$AAs?$AA?9?$AAw?$AAi?$AAn?$AA?9?$AAc?$AAo?$AAr?$AAe@ 000000014005e898     libucrt:winapi_thunks.obj
 0002:000028d0       ??_C@_1EI@MPIAOHOC@?$AAa?$AAp?$AAi?$AA?9?$AAm?$AAs?$AA?9?$AAw?$AAi?$AAn?$AA?9?$AAc?$AAo?$AAr?$AAe@ 000000014005e8d0     libucrt:winapi_thunks.obj
 0002:00002920       ??_C@_1FK@FPHCKFIE@?$AAa?$AAp?$AAi?$AA?9?$AAm?$AAs?$AA?9?$AAw?$AAi?$AAn?$AA?9?$AAc?$AAo?$AAr?$AAe@ 000000014005e920     libucrt:winapi_thunks.obj
 0002:00002980       ??_C@_1EM@DILCGIIO@?$AAa?$AAp?$AAi?$AA?9?$AAm?$AAs?$AA?9?$AAw?$AAi?$AAn?$AA?9?$AAc?$AAo?$AAr?$AAe@ 000000014005e980     libucrt:winapi_thunks.obj
 0002:000029d0       ??_C@_1DM@LNCGDDPN@?$AAa?$AAp?$AAi?$AA?9?$AAm?$AAs?$AA?9?$AAw?$AAi?$AAn?$AA?9?$AAc?$AAo?$AAr?$AAe@ 000000014005e9d0     libucrt:winapi_thunks.obj
 0002:00002a10       ??_C@_1DO@FPAPJEMD@?$AAa?$AAp?$AAi?$AA?9?$AAm?$AAs?$AA?9?$AAw?$AAi?$AAn?$AA?9?$AAc?$AAo?$AAr?$AAe@ 000000014005ea10     libucrt:winapi_thunks.obj
 0002:00002a50       ??_C@_1DK@NDHNAHIO@?$AAa?$AAp?$AAi?$AA?9?$AAm?$AAs?$AA?9?$AAw?$AAi?$AAn?$AA?9?$AAc?$AAo?$AAr?$AAe@ 000000014005ea50     libucrt:winapi_thunks.obj
 0002:00002a90       ??_C@_1DM@KGHDGBCM@?$AAa?$AAp?$AAi?$AA?9?$AAm?$AAs?$AA?9?$AAw?$AAi?$AAn?$AA?9?$AAc?$AAo?$AAr?$AAe@ 000000014005ea90     libucrt:winapi_thunks.obj
 0002:00002ad0       ??_C@_1EO@IJIOEFOH@?$AAa?$AAp?$AAi?$AA?9?$AAm?$AAs?$AA?9?$AAw?$AAi?$AAn?$AA?9?$AAr?$AAt?$AAc?$AAo@ 000000014005ead0     libucrt:winapi_thunks.obj
 0002:00002b20       ??_C@_1FG@HHGEKANL@?$AAa?$AAp?$AAi?$AA?9?$AAm?$AAs?$AA?9?$AAw?$AAi?$AAn?$AA?9?$AAs?$AAe?$AAc?$AAu@ 000000014005eb20     libucrt:winapi_thunks.obj
 0002:00002b80       ??_C@_1EG@DBIOJECG@?$AAe?$AAx?$AAt?$AA?9?$AAm?$AAs?$AA?9?$AAw?$AAi?$AAn?$AA?9?$AAn?$AAt?$AAu?$AAs@ 000000014005eb80     libucrt:winapi_thunks.obj
 0002:00002bd0       ??_C@_1EO@FIHMJCLF@?$AAe?$AAx?$AAt?$AA?9?$AAm?$AAs?$AA?9?$AAw?$AAi?$AAn?$AA?9?$AAn?$AAt?$AAu?$AAs@ 000000014005ebd0     libucrt:winapi_thunks.obj
 0002:00002c20       ??_C@_1BC@DNHGCMLG@?$AAa?$AAd?$AAv?$AAa?$AAp?$AAi?$AA3?$AA2@ 000000014005ec20     libucrt:winapi_thunks.obj
 0002:00002c38       ??_C@_1BG@CJPGBMEF@?$AAk?$AAe?$AAr?$AAn?$AAe?$AAl?$AAb?$AAa?$AAs?$AAe@ 000000014005ec38     libucrt:winapi_thunks.obj
 0002:00002c50       ??_C@_1M@OAIMIKLP@?$AAn?$AAt?$AAd?$AAl?$AAl@ 000000014005ec50     libucrt:winapi_thunks.obj
 0002:00002c60       ??_C@_1EG@DPGNFKGC@?$AAa?$AAp?$AAi?$AA?9?$AAm?$AAs?$AA?9?$AAw?$AAi?$AAn?$AA?9?$AAa?$AAp?$AAp?$AAm@ 000000014005ec60     libucrt:winapi_thunks.obj
 0002:00002ca8       ??_C@_1O@BCCLBEOE@?$AAu?$AAs?$AAe?$AAr?$AA3?$AA2@ 000000014005eca8     libucrt:winapi_thunks.obj
 0002:00002cb8       ??_C@_1BA@IAIFMGEF@?$AAe?$AAx?$AAt?$AA?9?$AAm?$AAs?$AA?9@ 000000014005ecb8     libucrt:winapi_thunks.obj
 0002:00002cd0       ??_C@_0BA@FHFNEAED@AreFileApisANSI@ 000000014005ecd0     libucrt:winapi_thunks.obj
 0002:00002ce8       ??_C@_0BA@IHGNDAEB@CompareStringEx@ 000000014005ece8     libucrt:winapi_thunks.obj
 0002:00002d00       ??_C@_0BE@LJANKFHF@EnumSystemLocalesEx@ 000000014005ed00     libucrt:winapi_thunks.obj
 0002:00002d20       ??_C@_0BA@HNOPNCHB@GetActiveWindow@ 000000014005ed20     libucrt:winapi_thunks.obj
 0002:00002d38       ??_C@_0BA@EPCJIIPD@GetDateFormatEx@ 000000014005ed38     libucrt:winapi_thunks.obj
 0002:00002d50       ??_C@_0O@NNMIPI@GetTempPath2W@ 000000014005ed50     libucrt:winapi_thunks.obj
 0002:00002d68       ??_C@_0BJ@DIBIJBHA@GetEnabledXStateFeatures@ 000000014005ed68     libucrt:winapi_thunks.obj
 0002:00002d90       ??_C@_0BD@HHGDFDBJ@GetLastActivePopup@ 000000014005ed90     libucrt:winapi_thunks.obj
 0002:00002db0       ??_C@_0BA@ONOKGCMP@GetLocaleInfoEx@ 000000014005edb0     libucrt:winapi_thunks.obj
 0002:00002dc8       ??_C@_0BI@DFKBFLJE@GetProcessWindowStation@ 000000014005edc8     libucrt:winapi_thunks.obj
 0002:00002de8       ??_C@_0BP@FPNJPEJC@GetSystemTimePreciseAsFileTime@ 000000014005ede8     libucrt:winapi_thunks.obj
 0002:00002e10       ??_C@_0BA@CIJJKCJJ@GetTimeFormatEx@ 000000014005ee10     libucrt:winapi_thunks.obj
 0002:00002e28       ??_C@_0BJ@PBCCBIPI@GetUserDefaultLocaleName@ 000000014005ee28     libucrt:winapi_thunks.obj
 0002:00002e50       ??_C@_0BK@DEKFELLI@GetUserObjectInformationW@ 000000014005ee50     libucrt:winapi_thunks.obj
 0002:00002e78       ??_C@_0BG@IKLDMBLM@GetXStateFeaturesMask@ 000000014005ee78     libucrt:winapi_thunks.obj
 0002:00002ea0       ??_C@_0BC@CELBKLLA@IsValidLocaleName@ 000000014005eea0     libucrt:winapi_thunks.obj
 0002:00002ec0       ??_C@_0O@KKBNKAPF@LCMapStringEx@ 000000014005eec0     libucrt:winapi_thunks.obj
 0002:00002ed8       ??_C@_0BB@CDHDDLLP@LCIDToLocaleName@ 000000014005eed8     libucrt:winapi_thunks.obj
 0002:00002ef8       ??_C@_0BB@HBDEELFH@LocaleNameToLCID@ 000000014005eef8     libucrt:winapi_thunks.obj
 0002:00002f18       ??_C@_0BE@KINNKFDA@LocateXStateFeature@ 000000014005ef18     libucrt:winapi_thunks.obj
 0002:00002f38       ??_C@_0M@CHKKJDAI@MessageBoxA@ 000000014005ef38     libucrt:winapi_thunks.obj
 0002:00002f50       ??_C@_0M@DLDCCGNP@MessageBoxW@ 000000014005ef50     libucrt:winapi_thunks.obj
 0002:00002f60       ??_C@_0N@PPOMPGGK@RoInitialize@ 000000014005ef60     libucrt:winapi_thunks.obj
 0002:00002f78       ??_C@_0P@LLFHBIJD@RoUninitialize@ 000000014005ef78     libucrt:winapi_thunks.obj
 0002:00002f90       ??_C@_0CF@OJOFEIGO@AppPolicyGetProcessTerminationM@ 000000014005ef90     libucrt:winapi_thunks.obj
 0002:00002fc0       ??_C@_0CF@NNDFDCOC@AppPolicyGetThreadInitializatio@ 000000014005efc0     libucrt:winapi_thunks.obj
 0002:00002ff0       ??_C@_0CE@OICFMIKE@AppPolicyGetShowDeveloperDiagno@ 000000014005eff0     libucrt:winapi_thunks.obj
 0002:00003018       ??_C@_0BL@ODDJNEDA@AppPolicyGetWindowingModel@ 000000014005f018     libucrt:winapi_thunks.obj
 0002:00003040       ??_C@_0BI@BKLFFAPO@SetThreadStackGuarantee@ 000000014005f040     libucrt:winapi_thunks.obj
 0002:00003060       ??_C@_0BC@JEAENNKH@SystemFunction036@ 000000014005f060     libucrt:winapi_thunks.obj
 0002:00003100       ??_C@_03OEIAHPBN@INF@      000000014005f100     libucrt:cvt.obj
 0002:00003104       ??_C@_03OJHLLCGB@inf@      000000014005f104     libucrt:cvt.obj
 0002:00003108       ??_C@_03LKNCIKJB@NAN@      000000014005f108     libucrt:cvt.obj
 0002:0000310c       ??_C@_03LHCJEHON@nan@      000000014005f10c     libucrt:cvt.obj
 0002:00003110       ??_C@_09OFJJIMPC@NAN?$CISNAN?$CJ@ 000000014005f110     libucrt:cvt.obj
 0002:00003120       ??_C@_09IPFBKMDL@nan?$CIsnan?$CJ@ 000000014005f120     libucrt:cvt.obj
 0002:00003130       ??_C@_08IKHNHAJ@NAN?$CIIND?$CJ@ 000000014005f130     libucrt:cvt.obj
 0002:00003140       ??_C@_08OFCDMILK@nan?$CIind?$CJ@ 000000014005f140     libucrt:cvt.obj
 0002:0000314c       ??_C@_05KLBDPFGC@e?$CL000@ 000000014005f14c     libucrt:cvt.obj
 0002:00003160       __lc_time_c                000000014005f160     libucrt:nlsdata.obj
 0002:00003420       ??_C@_03KOEHGMDN@Sun@      000000014005f420     libucrt:nlsdata.obj
 0002:00003424       ??_C@_03PDAGKDH@Mon@       000000014005f424     libucrt:nlsdata.obj
 0002:00003428       ??_C@_03NAGEINEP@Tue@      000000014005f428     libucrt:nlsdata.obj
 0002:0000342c       ??_C@_03MHOMLAJA@Wed@      000000014005f42c     libucrt:nlsdata.obj
 0002:00003430       ??_C@_03IOFIKPDN@Thu@      000000014005f430     libucrt:nlsdata.obj
 0002:00003434       ??_C@_03IDIOELNC@Fri@      000000014005f434     libucrt:nlsdata.obj
 0002:00003438       ??_C@_03FEFJNEK@Sat@       000000014005f438     libucrt:nlsdata.obj
 0002:0000343c       ??_C@_06OOPIFAJ@Sunday@    000000014005f43c     libucrt:nlsdata.obj
 0002:00003444       ??_C@_06JLEDEDGH@Monday@   000000014005f444     libucrt:nlsdata.obj
 0002:00003450       ??_C@_07BAAGCFCM@Tuesday@  000000014005f450     libucrt:nlsdata.obj
 0002:00003458       ??_C@_09DLIGFAKA@Wednesday@ 000000014005f458     libucrt:nlsdata.obj
 0002:00003468       ??_C@_08HACCIKIA@Thursday@ 000000014005f468     libucrt:nlsdata.obj
 0002:00003474       ??_C@_06JECMNKMI@Friday@   000000014005f474     libucrt:nlsdata.obj
 0002:00003480       ??_C@_08INBOOONO@Saturday@ 000000014005f480     libucrt:nlsdata.obj
 0002:0000348c       ??_C@_03JIHJHPIE@Jan@      000000014005f48c     libucrt:nlsdata.obj
 0002:00003490       ??_C@_03HJBDCHOM@Feb@      000000014005f490     libucrt:nlsdata.obj
 0002:00003494       ??_C@_03ODNJBKGA@Mar@      000000014005f494     libucrt:nlsdata.obj
 0002:00003498       ??_C@_03LEOLGMJP@Apr@      000000014005f498     libucrt:nlsdata.obj
 0002:0000349c       ??_C@_03CNMDKL@May@        000000014005f49c     libucrt:nlsdata.obj
 0002:000034a0       ??_C@_03IDFGHECI@Jun@      000000014005f4a0     libucrt:nlsdata.obj
 0002:000034a4       ??_C@_03LBGABGKK@Jul@      000000014005f4a4     libucrt:nlsdata.obj
 0002:000034a8       ??_C@_03IFJFEIGA@Aug@      000000014005f4a8     libucrt:nlsdata.obj
 0002:000034ac       ??_C@_03GGCAPAJC@Sep@      000000014005f4ac     libucrt:nlsdata.obj
 0002:000034b0       ??_C@_03BMAOKBAD@Oct@      000000014005f4b0     libucrt:nlsdata.obj
 0002:000034b4       ??_C@_03JPJOFNIA@Nov@      000000014005f4b4     libucrt:nlsdata.obj
 0002:000034b8       ??_C@_03MKABNOCG@Dec@      000000014005f4b8     libucrt:nlsdata.obj
 0002:000034c0       ??_C@_07CGJPFGJA@January@  000000014005f4c0     libucrt:nlsdata.obj
 0002:000034c8       ??_C@_08GNJGEPFN@February@ 000000014005f4c8     libucrt:nlsdata.obj
 0002:000034d4       ??_C@_05HPCKOFNC@March@    000000014005f4d4     libucrt:nlsdata.obj
 0002:000034dc       ??_C@_05DMJDNLEJ@April@    000000014005f4dc     libucrt:nlsdata.obj
 0002:000034e4       ??_C@_04CNLMGBGM@June@     000000014005f4e4     libucrt:nlsdata.obj
 0002:000034ec       ??_C@_04MIEPOIFP@July@     000000014005f4ec     libucrt:nlsdata.obj
 0002:000034f4       ??_C@_06LBBHFDDG@August@   000000014005f4f4     libucrt:nlsdata.obj
 0002:00003500       ??_C@_09BHHEALKD@September@ 000000014005f500     libucrt:nlsdata.obj
 0002:00003510       ??_C@_07JJNFCEND@October@  000000014005f510     libucrt:nlsdata.obj
 0002:00003518       ??_C@_08HCHEGEOA@November@ 000000014005f518     libucrt:nlsdata.obj
 0002:00003528       ??_C@_08EDHMEBNP@December@ 000000014005f528     libucrt:nlsdata.obj
 0002:00003534       ??_C@_02DEDBPAFC@AM@       000000014005f534     libucrt:nlsdata.obj
 0002:00003538       ??_C@_02CJNFDJBF@PM@       000000014005f538     libucrt:nlsdata.obj
 0002:00003540       ??_C@_08BPBNCDIB@MM?1dd?1yy@ 000000014005f540     libucrt:nlsdata.obj
 0002:00003550       ??_C@_0BE@CKGJFCPC@dddd?0?5MMMM?5dd?0?5yyyy@ 000000014005f550     libucrt:nlsdata.obj
 0002:00003568       ??_C@_08JCCMCCIL@HH?3mm?3ss@ 000000014005f568     libucrt:nlsdata.obj
 0002:00003578       ??_C@_17MBGCMIPB@?$AAS?$AAu?$AAn@ 000000014005f578     libucrt:nlsdata.obj
 0002:00003580       ??_C@_17KBOMKBF@?$AAM?$AAo?$AAn@ 000000014005f580     libucrt:nlsdata.obj
 0002:00003588       ??_C@_17BMKGEGOJ@?$AAT?$AAu?$AAe@ 000000014005f588     libucrt:nlsdata.obj
 0002:00003590       ??_C@_17CJEDCEPE@?$AAW?$AAe?$AAd@ 000000014005f590     libucrt:nlsdata.obj
 0002:00003598       ??_C@_17PDPHAADD@?$AAT?$AAh?$AAu@ 000000014005f598     libucrt:nlsdata.obj
 0002:000035a0       ??_C@_17HFOLPPLP@?$AAF?$AAr?$AAi@ 000000014005f5a0     libucrt:nlsdata.obj
 0002:000035a8       ??_C@_17GGIBDPIH@?$AAS?$AAa?$AAt@ 000000014005f5a8     libucrt:nlsdata.obj
 0002:000035b0       ??_C@_1O@IHNHDHPB@?$AAS?$AAu?$AAn?$AAd?$AAa?$AAy@ 000000014005f5b0     libucrt:nlsdata.obj
 0002:000035c0       ??_C@_1O@MMNBFLIA@?$AAM?$AAo?$AAn?$AAd?$AAa?$AAy@ 000000014005f5c0     libucrt:nlsdata.obj
 0002:000035d0       ??_C@_1BA@ENFBFFEK@?$AAT?$AAu?$AAe?$AAs?$AAd?$AAa?$AAy@ 000000014005f5d0     libucrt:nlsdata.obj
 0002:000035e0       ??_C@_1BE@EBOGMDOH@?$AAW?$AAe?$AAd?$AAn?$AAe?$AAs?$AAd?$AAa?$AAy@ 000000014005f5e0     libucrt:nlsdata.obj
 0002:000035f8       ??_C@_1BC@HHMNLIHE@?$AAT?$AAh?$AAu?$AAr?$AAs?$AAd?$AAa?$AAy@ 000000014005f5f8     libucrt:nlsdata.obj
 0002:00003610       ??_C@_1O@PDICJHAG@?$AAF?$AAr?$AAi?$AAd?$AAa?$AAy@ 000000014005f610     libucrt:nlsdata.obj
 0002:00003620       ??_C@_1BC@ENMNNPAJ@?$AAS?$AAa?$AAt?$AAu?$AAr?$AAd?$AAa?$AAy@ 000000014005f620     libucrt:nlsdata.obj
 0002:00003638       ??_C@_17DKNBKCHM@?$AAJ?$AAa?$AAn@ 000000014005f638     libucrt:nlsdata.obj
 0002:00003640       ??_C@_17LMDJEKJN@?$AAF?$AAe?$AAb@ 000000014005f640     libucrt:nlsdata.obj
 0002:00003648       ??_C@_17CKNLEDEC@?$AAM?$AAa?$AAr@ 000000014005f648     libucrt:nlsdata.obj
 0002:00003650       ??_C@_17LFPOIHDD@?$AAA?$AAp?$AAr@ 000000014005f650     libucrt:nlsdata.obj
 0002:00003658       ??_C@_17PNNKMEED@?$AAM?$AAa?$AAy@ 000000014005f658     libucrt:nlsdata.obj
 0002:00003660       ??_C@_17KCJGOCPB@?$AAJ?$AAu?$AAn@ 000000014005f660     libucrt:nlsdata.obj
 0002:00003668       ??_C@_17IJPCKHK@?$AAJ?$AAu?$AAl@ 000000014005f668     libucrt:nlsdata.obj
 0002:00003670       ??_C@_17ICPELBCN@?$AAA?$AAu?$AAg@ 000000014005f670     libucrt:nlsdata.obj
 0002:00003678       ??_C@_17HCHCOKMG@?$AAS?$AAe?$AAp@ 000000014005f678     libucrt:nlsdata.obj
 0002:00003680       ??_C@_17FNLKOI@?$AAO?$AAc?$AAt@ 000000014005f680     libucrt:nlsdata.obj
 0002:00003688       ??_C@_17BBDMLCIG@?$AAN?$AAo?$AAv@ 000000014005f688     libucrt:nlsdata.obj
 0002:00003690       ??_C@_17EGKACKIF@?$AAD?$AAe?$AAc@ 000000014005f690     libucrt:nlsdata.obj
 0002:00003698       ??_C@_1BA@EFMEIEBA@?$AAJ?$AAa?$AAn?$AAu?$AAa?$AAr?$AAy@ 000000014005f698     libucrt:nlsdata.obj
 0002:000036a8       ??_C@_1BC@JGDDFFAM@?$AAF?$AAe?$AAb?$AAr?$AAu?$AAa?$AAr?$AAy@ 000000014005f6a8     libucrt:nlsdata.obj
 0002:000036c0       ??_C@_1M@IKEENEDF@?$AAM?$AAa?$AAr?$AAc?$AAh@ 000000014005f6c0     libucrt:nlsdata.obj
 0002:000036d0       ??_C@_1M@GJNLMHFD@?$AAA?$AAp?$AAr?$AAi?$AAl@ 000000014005f6d0     libucrt:nlsdata.obj
 0002:000036e0       ??_C@_19EPFLPGAP@?$AAJ?$AAu?$AAn?$AAe@ 000000014005f6e0     libucrt:nlsdata.obj
 0002:000036f0       ??_C@_19BIFMLPCD@?$AAJ?$AAu?$AAl?$AAy@ 000000014005f6f0     libucrt:nlsdata.obj
 0002:00003700       ??_C@_1O@PAHLKOAC@?$AAA?$AAu?$AAg?$AAu?$AAs?$AAt@ 000000014005f700     libucrt:nlsdata.obj
 0002:00003710       ??_C@_1BE@DKAAMBJL@?$AAS?$AAe?$AAp?$AAt?$AAe?$AAm?$AAb?$AAe?$AAr@ 000000014005f710     libucrt:nlsdata.obj
 0002:00003728       ??_C@_1BA@EPANDLNG@?$AAO?$AAc?$AAt?$AAo?$AAb?$AAe?$AAr@ 000000014005f728     libucrt:nlsdata.obj
 0002:00003738       ??_C@_1BC@BGLIFPF@?$AAN?$AAo?$AAv?$AAe?$AAm?$AAb?$AAe?$AAr@ 000000014005f738     libucrt:nlsdata.obj
 0002:00003750       ??_C@_1BC@FEMKIFH@?$AAD?$AAe?$AAc?$AAe?$AAm?$AAb?$AAe?$AAr@ 000000014005f750     libucrt:nlsdata.obj
 0002:00003764       ??_C@_15ODEHAHHF@?$AAA?$AAM@ 000000014005f764     libucrt:nlsdata.obj
 0002:0000376c       ??_C@_15CLMNNGEL@?$AAP?$AAM@ 000000014005f76c     libucrt:nlsdata.obj
 0002:00003778       ??_C@_1BC@IEBCMHCM@?$AAM?$AAM?$AA?1?$AAd?$AAd?$AA?1?$AAy?$AAy@ 000000014005f778     libucrt:nlsdata.obj
 0002:00003790       ??_C@_1CI@KNAKOEBC@?$AAd?$AAd?$AAd?$AAd?$AA?0?$AA?5?$AAM?$AAM?$AAM?$AAM?$AA?5?$AAd?$AAd?$AA?0?$AA?5@ 000000014005f790     libucrt:nlsdata.obj
 0002:000037b8       ??_C@_1BC@GDGBMEMK@?$AAH?$AAH?$AA?3?$AAm?$AAm?$AA?3?$AAs?$AAs@ 000000014005f7b8     libucrt:nlsdata.obj
 0002:000037d0       ??_C@_1M@BMHNFIME@?$AAe?$AAn?$AA?9?$AAU?$AAS@ 000000014005f7d0     libucrt:nlsdata.obj
 0002:00003800       ??_C@_1M@HPNHIDJI@?$AAj?$AAa?$AA?9?$AAJ?$AAP@ 000000014005f800     libucrt:mbctype.obj
 0002:00003810       ??_C@_1M@BIBDDEMK@?$AAz?$AAh?$AA?9?$AAC?$AAN@ 000000014005f810     libucrt:mbctype.obj
 0002:00003820       ??_C@_1M@JLOOOEGK@?$AAk?$AAo?$AA?9?$AAK?$AAR@ 000000014005f820     libucrt:mbctype.obj
 0002:00003830       ??_C@_1M@CLNBBOPM@?$AAz?$AAh?$AA?9?$AAT?$AAW@ 000000014005f830     libucrt:mbctype.obj
 0002:00003840       __newctype                 000000014005f840     libucrt:ctype.obj
 0002:00003b40       __newclmap                 000000014005fb40     libucrt:ctype.obj
 0002:00003cc0       __newcumap                 000000014005fcc0     libucrt:ctype.obj
 0002:00003e40       _wctype                    000000014005fe40     libucrt:ctype.obj
 0002:00004050       __acrt_rg_language         0000000140060050     libucrt:get_qualified_locale.obj
 0002:00004460       __acrt_rg_language_count   0000000140060460     libucrt:get_qualified_locale.obj
 0002:00004470       __acrt_rg_country          0000000140060470     libucrt:get_qualified_locale.obj
 0002:000045e0       __acrt_rg_country_count    00000001400605e0     libucrt:get_qualified_locale.obj
 0002:000045e8       ??_C@_1BC@LLOKLNP@?$AAa?$AAm?$AAe?$AAr?$AAi?$AAc?$AAa?$AAn@ 00000001400605e8     libucrt:get_qualified_locale.obj
 0002:00004600       ??_C@_1CC@HEIGCDGG@?$AAa?$AAm?$AAe?$AAr?$AAi?$AAc?$AAa?$AAn?$AA?5?$AAe?$AAn?$AAg?$AAl?$AAi?$AAs@ 0000000140060600     libucrt:get_qualified_locale.obj
 0002:00004628       ??_C@_1CC@IHCNOMIN@?$AAa?$AAm?$AAe?$AAr?$AAi?$AAc?$AAa?$AAn?$AA?9?$AAe?$AAn?$AAg?$AAl?$AAi?$AAs@ 0000000140060628     libucrt:get_qualified_locale.obj
 0002:00004650       ??_C@_1BG@GKAGPCGG@?$AAa?$AAu?$AAs?$AAt?$AAr?$AAa?$AAl?$AAi?$AAa?$AAn@ 0000000140060650     libucrt:get_qualified_locale.obj
 0002:00004668       ??_C@_1BA@GMENCENF@?$AAb?$AAe?$AAl?$AAg?$AAi?$AAa?$AAn@ 0000000140060668     libucrt:get_qualified_locale.obj
 0002:00004678       ??_C@_1BC@PJMIIAAN@?$AAc?$AAa?$AAn?$AAa?$AAd?$AAi?$AAa?$AAn@ 0000000140060678     libucrt:get_qualified_locale.obj
 0002:00004690       ??_C@_17NOIMNFBF@?$AAc?$AAh?$AAh@ 0000000140060690     libucrt:get_qualified_locale.obj
 0002:00004698       ??_C@_17GGDALCHA@?$AAc?$AAh?$AAi@ 0000000140060698     libucrt:get_qualified_locale.obj
 0002:000046a0       ??_C@_1BA@NPNJKIBL@?$AAc?$AAh?$AAi?$AAn?$AAe?$AAs?$AAe@ 00000001400606a0     libucrt:get_qualified_locale.obj
 0002:000046b0       ??_C@_1CC@DINBAMMJ@?$AAc?$AAh?$AAi?$AAn?$AAe?$AAs?$AAe?$AA?9?$AAh?$AAo?$AAn?$AAg?$AAk?$AAo?$AAn@ 00000001400606b0     libucrt:get_qualified_locale.obj
 0002:000046d8       ??_C@_1CG@IOBJPACO@?$AAc?$AAh?$AAi?$AAn?$AAe?$AAs?$AAe?$AA?9?$AAs?$AAi?$AAm?$AAp?$AAl?$AAi?$AAf@ 00000001400606d8     libucrt:get_qualified_locale.obj
 0002:00004700       ??_C@_1CE@GAJNDCKG@?$AAc?$AAh?$AAi?$AAn?$AAe?$AAs?$AAe?$AA?9?$AAs?$AAi?$AAn?$AAg?$AAa?$AAp?$AAo@ 0000000140060700     libucrt:get_qualified_locale.obj
 0002:00004728       ??_C@_1CI@PAJPIOOD@?$AAc?$AAh?$AAi?$AAn?$AAe?$AAs?$AAe?$AA?9?$AAt?$AAr?$AAa?$AAd?$AAi?$AAt?$AAi@ 0000000140060728     libucrt:get_qualified_locale.obj
 0002:00004750       ??_C@_1BM@NILJBMMD@?$AAd?$AAu?$AAt?$AAc?$AAh?$AA?9?$AAb?$AAe?$AAl?$AAg?$AAi?$AAa?$AAn@ 0000000140060750     libucrt:get_qualified_locale.obj
 0002:00004770       ??_C@_1CC@OOJPJNEJ@?$AAe?$AAn?$AAg?$AAl?$AAi?$AAs?$AAh?$AA?9?$AAa?$AAm?$AAe?$AAr?$AAi?$AAc?$AAa@ 0000000140060770     libucrt:get_qualified_locale.obj
 0002:00004798       ??_C@_1BI@IOLFEEM@?$AAe?$AAn?$AAg?$AAl?$AAi?$AAs?$AAh?$AA?9?$AAa?$AAu?$AAs@ 0000000140060798     libucrt:get_qualified_locale.obj
 0002:000047b0       ??_C@_1BO@HFFNLENJ@?$AAe?$AAn?$AAg?$AAl?$AAi?$AAs?$AAh?$AA?9?$AAb?$AAe?$AAl?$AAi?$AAz?$AAe@ 00000001400607b0     libucrt:get_qualified_locale.obj
 0002:000047d0       ??_C@_1BI@HAPKJMPO@?$AAe?$AAn?$AAg?$AAl?$AAi?$AAs?$AAh?$AA?9?$AAc?$AAa?$AAn@ 00000001400607d0     libucrt:get_qualified_locale.obj
 0002:000047e8       ??_C@_1CE@HLNDMIOJ@?$AAe?$AAn?$AAg?$AAl?$AAi?$AAs?$AAh?$AA?9?$AAc?$AAa?$AAr?$AAi?$AAb?$AAb?$AAe@ 00000001400607e8     libucrt:get_qualified_locale.obj
 0002:00004810       ??_C@_1BI@LDHJHHAC@?$AAe?$AAn?$AAg?$AAl?$AAi?$AAs?$AAh?$AA?9?$AAi?$AAr?$AAe@ 0000000140060810     libucrt:get_qualified_locale.obj
 0002:00004828       ??_C@_1CA@NJMMCFOC@?$AAe?$AAn?$AAg?$AAl?$AAi?$AAs?$AAh?$AA?9?$AAj?$AAa?$AAm?$AAa?$AAi?$AAc?$AAa@ 0000000140060828     libucrt:get_qualified_locale.obj
 0002:00004848       ??_C@_1BG@BHJEBBGG@?$AAe?$AAn?$AAg?$AAl?$AAi?$AAs?$AAh?$AA?9?$AAn?$AAz@ 0000000140060848     libucrt:get_qualified_locale.obj
 0002:00004860       ??_C@_1CK@FGOEJJCO@?$AAe?$AAn?$AAg?$AAl?$AAi?$AAs?$AAh?$AA?9?$AAs?$AAo?$AAu?$AAt?$AAh?$AA?5?$AAa@ 0000000140060860     libucrt:get_qualified_locale.obj
 0002:00004890       ??_C@_1DE@PDBJPCJ@?$AAe?$AAn?$AAg?$AAl?$AAi?$AAs?$AAh?$AA?9?$AAt?$AAr?$AAi?$AAn?$AAi?$AAd?$AAa@ 0000000140060890     libucrt:get_qualified_locale.obj
 0002:000048c8       ??_C@_1BG@JGCANDME@?$AAe?$AAn?$AAg?$AAl?$AAi?$AAs?$AAh?$AA?9?$AAu?$AAk@ 00000001400608c8     libucrt:get_qualified_locale.obj
 0002:000048e0       ??_C@_1BG@DINKMLE@?$AAe?$AAn?$AAg?$AAl?$AAi?$AAs?$AAh?$AA?9?$AAu?$AAs@ 00000001400608e0     libucrt:get_qualified_locale.obj
 0002:000048f8       ??_C@_1BI@NMFDBHJE@?$AAe?$AAn?$AAg?$AAl?$AAi?$AAs?$AAh?$AA?9?$AAu?$AAs?$AAa@ 00000001400608f8     libucrt:get_qualified_locale.obj
 0002:00004910       ??_C@_1BO@OIHKJKII@?$AAf?$AAr?$AAe?$AAn?$AAc?$AAh?$AA?9?$AAb?$AAe?$AAl?$AAg?$AAi?$AAa?$AAn@ 0000000140060910     libucrt:get_qualified_locale.obj
 0002:00004930       ??_C@_1CA@NKAELJKI@?$AAf?$AAr?$AAe?$AAn?$AAc?$AAh?$AA?9?$AAc?$AAa?$AAn?$AAa?$AAd?$AAi?$AAa?$AAn@ 0000000140060930     libucrt:get_qualified_locale.obj
 0002:00004950       ??_C@_1CE@MGKCNLGN@?$AAf?$AAr?$AAe?$AAn?$AAc?$AAh?$AA?9?$AAl?$AAu?$AAx?$AAe?$AAm?$AAb?$AAo?$AAu@ 0000000140060950     libucrt:get_qualified_locale.obj
 0002:00004978       ??_C@_1BK@CEGEAILM@?$AAf?$AAr?$AAe?$AAn?$AAc?$AAh?$AA?9?$AAs?$AAw?$AAi?$AAs?$AAs@ 0000000140060978     libucrt:get_qualified_locale.obj
 0002:00004998       ??_C@_1CA@PAFKEOCC@?$AAg?$AAe?$AAr?$AAm?$AAa?$AAn?$AA?9?$AAa?$AAu?$AAs?$AAt?$AAr?$AAi?$AAa?$AAn@ 0000000140060998     libucrt:get_qualified_locale.obj
 0002:000049b8       ??_C@_1CI@HCFHGOFD@?$AAg?$AAe?$AAr?$AAm?$AAa?$AAn?$AA?9?$AAl?$AAi?$AAc?$AAh?$AAt?$AAe?$AAn?$AAs@ 00000001400609b8     libucrt:get_qualified_locale.obj
 0002:000049e0       ??_C@_1CE@FEDDNPDG@?$AAg?$AAe?$AAr?$AAm?$AAa?$AAn?$AA?9?$AAl?$AAu?$AAx?$AAe?$AAm?$AAb?$AAo?$AAu@ 00000001400609e0     libucrt:get_qualified_locale.obj
 0002:00004a08       ??_C@_1BK@LIMINNMN@?$AAg?$AAe?$AAr?$AAm?$AAa?$AAn?$AA?9?$AAs?$AAw?$AAi?$AAs?$AAs@ 0000000140060a08     libucrt:get_qualified_locale.obj
 0002:00004a28       ??_C@_1BM@LGMDBEPD@?$AAi?$AAr?$AAi?$AAs?$AAh?$AA?9?$AAe?$AAn?$AAg?$AAl?$AAi?$AAs?$AAh@ 0000000140060a28     libucrt:get_qualified_locale.obj
 0002:00004a48       ??_C@_1BM@NNCFBAEE@?$AAi?$AAt?$AAa?$AAl?$AAi?$AAa?$AAn?$AA?9?$AAs?$AAw?$AAi?$AAs?$AAs@ 0000000140060a48     libucrt:get_qualified_locale.obj
 0002:00004a68       ??_C@_1BE@FEDJNPIB@?$AAn?$AAo?$AAr?$AAw?$AAe?$AAg?$AAi?$AAa?$AAn@ 0000000140060a68     libucrt:get_qualified_locale.obj
 0002:00004a80       ??_C@_1CC@CILKDEIE@?$AAn?$AAo?$AAr?$AAw?$AAe?$AAg?$AAi?$AAa?$AAn?$AA?9?$AAb?$AAo?$AAk?$AAm?$AAa@ 0000000140060a80     libucrt:get_qualified_locale.obj
 0002:00004aa8       ??_C@_1CE@DHMMHEPL@?$AAn?$AAo?$AAr?$AAw?$AAe?$AAg?$AAi?$AAa?$AAn?$AA?9?$AAn?$AAy?$AAn?$AAo?$AAr@ 0000000140060aa8     libucrt:get_qualified_locale.obj
 0002:00004ad0       ??_C@_1CK@OPNMHECD@?$AAp?$AAo?$AAr?$AAt?$AAu?$AAg?$AAu?$AAe?$AAs?$AAe?$AA?9?$AAb?$AAr?$AAa?$AAz@ 0000000140060ad0     libucrt:get_qualified_locale.obj
 0002:00004b00       ??_C@_1CE@KEEHCDB@?$AAs?$AAp?$AAa?$AAn?$AAi?$AAs?$AAh?$AA?9?$AAa?$AAr?$AAg?$AAe?$AAn?$AAt?$AAi@ 0000000140060b00     libucrt:get_qualified_locale.obj
 0002:00004b28       ??_C@_1CA@GIAOLHJD@?$AAs?$AAp?$AAa?$AAn?$AAi?$AAs?$AAh?$AA?9?$AAb?$AAo?$AAl?$AAi?$AAv?$AAi?$AAa@ 0000000140060b28     libucrt:get_qualified_locale.obj
 0002:00004b48       ??_C@_1BM@OJNDFNPD@?$AAs?$AAp?$AAa?$AAn?$AAi?$AAs?$AAh?$AA?9?$AAc?$AAh?$AAi?$AAl?$AAe@ 0000000140060b48     libucrt:get_qualified_locale.obj
 0002:00004b68       ??_C@_1CC@OCOLPALL@?$AAs?$AAp?$AAa?$AAn?$AAi?$AAs?$AAh?$AA?9?$AAc?$AAo?$AAl?$AAo?$AAm?$AAb?$AAi@ 0000000140060b68     libucrt:get_qualified_locale.obj
 0002:00004b90       ??_C@_1CG@BPOFMKBB@?$AAs?$AAp?$AAa?$AAn?$AAi?$AAs?$AAh?$AA?9?$AAc?$AAo?$AAs?$AAt?$AAa?$AA?5?$AAr@ 0000000140060b90     libucrt:get_qualified_locale.obj
 0002:00004bb8       ??_C@_1DG@IGOBAPBB@?$AAs?$AAp?$AAa?$AAn?$AAi?$AAs?$AAh?$AA?9?$AAd?$AAo?$AAm?$AAi?$AAn?$AAi?$AAc@ 0000000140060bb8     libucrt:get_qualified_locale.obj
 0002:00004bf0       ??_C@_1CA@JHAPGEGI@?$AAs?$AAp?$AAa?$AAn?$AAi?$AAs?$AAh?$AA?9?$AAe?$AAc?$AAu?$AAa?$AAd?$AAo?$AAr@ 0000000140060bf0     libucrt:get_qualified_locale.obj
 0002:00004c10       ??_C@_1CI@LAPALJPP@?$AAs?$AAp?$AAa?$AAn?$AAi?$AAs?$AAh?$AA?9?$AAe?$AAl?$AA?5?$AAs?$AAa?$AAl?$AAv@ 0000000140060c10     libucrt:get_qualified_locale.obj
 0002:00004c38       ??_C@_1CE@PDGBOFOM@?$AAs?$AAp?$AAa?$AAn?$AAi?$AAs?$AAh?$AA?9?$AAg?$AAu?$AAa?$AAt?$AAe?$AAm?$AAa@ 0000000140060c38     libucrt:get_qualified_locale.obj
 0002:00004c60       ??_C@_1CC@NBEBAODI@?$AAs?$AAp?$AAa?$AAn?$AAi?$AAs?$AAh?$AA?9?$AAh?$AAo?$AAn?$AAd?$AAu?$AAr?$AAa@ 0000000140060c60     libucrt:get_qualified_locale.obj
 0002:00004c88       ??_C@_1CA@LLKGHBMF@?$AAs?$AAp?$AAa?$AAn?$AAi?$AAs?$AAh?$AA?9?$AAm?$AAe?$AAx?$AAi?$AAc?$AAa?$AAn@ 0000000140060c88     libucrt:get_qualified_locale.obj
 0002:00004ca8       ??_C@_1BO@LKNDOIGD@?$AAs?$AAp?$AAa?$AAn?$AAi?$AAs?$AAh?$AA?9?$AAm?$AAo?$AAd?$AAe?$AAr?$AAn@ 0000000140060ca8     libucrt:get_qualified_locale.obj
 0002:00004cc8       ??_C@_1CE@NMDMOEEB@?$AAs?$AAp?$AAa?$AAn?$AAi?$AAs?$AAh?$AA?9?$AAn?$AAi?$AAc?$AAa?$AAr?$AAa?$AAg@ 0000000140060cc8     libucrt:get_qualified_locale.obj
 0002:00004cf0       ??_C@_1BO@LLCBEJGB@?$AAs?$AAp?$AAa?$AAn?$AAi?$AAs?$AAh?$AA?9?$AAp?$AAa?$AAn?$AAa?$AAm?$AAa@ 0000000140060cf0     libucrt:get_qualified_locale.obj
 0002:00004d10       ??_C@_1CC@FKPGGIHO@?$AAs?$AAp?$AAa?$AAn?$AAi?$AAs?$AAh?$AA?9?$AAp?$AAa?$AAr?$AAa?$AAg?$AAu?$AAa@ 0000000140060d10     libucrt:get_qualified_locale.obj
 0002:00004d38       ??_C@_1BK@CDEIHOOP@?$AAs?$AAp?$AAa?$AAn?$AAi?$AAs?$AAh?$AA?9?$AAp?$AAe?$AAr?$AAu@ 0000000140060d38     libucrt:get_qualified_locale.obj
 0002:00004d58       ??_C@_1CI@GAHAKKGP@?$AAs?$AAp?$AAa?$AAn?$AAi?$AAs?$AAh?$AA?9?$AAp?$AAu?$AAe?$AAr?$AAt?$AAo?$AA?5@ 0000000140060d58     libucrt:get_qualified_locale.obj
 0002:00004d80       ??_C@_1CA@NKJBCAGP@?$AAs?$AAp?$AAa?$AAn?$AAi?$AAs?$AAh?$AA?9?$AAu?$AAr?$AAu?$AAg?$AAu?$AAa?$AAy@ 0000000140060d80     libucrt:get_qualified_locale.obj
 0002:00004da0       ??_C@_1CE@ODILCONM@?$AAs?$AAp?$AAa?$AAn?$AAi?$AAs?$AAh?$AA?9?$AAv?$AAe?$AAn?$AAe?$AAz?$AAu?$AAe@ 0000000140060da0     libucrt:get_qualified_locale.obj
 0002:00004dc8       ??_C@_1CA@OBNMCGFO@?$AAs?$AAw?$AAe?$AAd?$AAi?$AAs?$AAh?$AA?9?$AAf?$AAi?$AAn?$AAl?$AAa?$AAn?$AAd@ 0000000140060dc8     libucrt:get_qualified_locale.obj
 0002:00004de8       ??_C@_1M@PIPDDPPI@?$AAs?$AAw?$AAi?$AAs?$AAs@ 0000000140060de8     libucrt:get_qualified_locale.obj
 0002:00004df4       ??_C@_15PJPFLCCM@?$AAu?$AAk@ 0000000140060df4     libucrt:get_qualified_locale.obj
 0002:00004dfc       ??_C@_15GMFIMNFM@?$AAu?$AAs@ 0000000140060dfc     libucrt:get_qualified_locale.obj
 0002:00004e08       ??_C@_17HAEBFAGL@?$AAu?$AAs?$AAa@ 0000000140060e08     libucrt:get_qualified_locale.obj
 0002:00004e10       ??_C@_1BA@DPFJEPHB@?$AAa?$AAm?$AAe?$AAr?$AAi?$AAc?$AAa@ 0000000140060e10     libucrt:get_qualified_locale.obj
 0002:00004e20       ??_C@_1BA@ELOGGFK@?$AAb?$AAr?$AAi?$AAt?$AAa?$AAi?$AAn@ 0000000140060e20     libucrt:get_qualified_locale.obj
 0002:00004e30       ??_C@_1M@GHBGIGDA@?$AAc?$AAh?$AAi?$AAn?$AAa@ 0000000140060e30     libucrt:get_qualified_locale.obj
 0002:00004e40       ??_C@_1M@NCHEJOPO@?$AAc?$AAz?$AAe?$AAc?$AAh@ 0000000140060e40     libucrt:get_qualified_locale.obj
 0002:00004e50       ??_C@_1BA@BKPAPBLA@?$AAe?$AAn?$AAg?$AAl?$AAa?$AAn?$AAd@ 0000000140060e50     libucrt:get_qualified_locale.obj
 0002:00004e60       ??_C@_1BM@HKBCKIPC@?$AAg?$AAr?$AAe?$AAa?$AAt?$AA?5?$AAb?$AAr?$AAi?$AAt?$AAa?$AAi?$AAn@ 0000000140060e60     libucrt:get_qualified_locale.obj
 0002:00004e80       ??_C@_1BA@PPCHPGJB@?$AAh?$AAo?$AAl?$AAl?$AAa?$AAn?$AAd@ 0000000140060e80     libucrt:get_qualified_locale.obj
 0002:00004e90       ??_C@_1BE@JBMPEGDG@?$AAh?$AAo?$AAn?$AAg?$AA?9?$AAk?$AAo?$AAn?$AAg@ 0000000140060e90     libucrt:get_qualified_locale.obj
 0002:00004ea8       ??_C@_1BI@KOELBBPJ@?$AAn?$AAe?$AAw?$AA?9?$AAz?$AAe?$AAa?$AAl?$AAa?$AAn?$AAd@ 0000000140060ea8     libucrt:get_qualified_locale.obj
 0002:00004ec0       ??_C@_15HIEBHAIO@?$AAn?$AAz@ 0000000140060ec0     libucrt:get_qualified_locale.obj
 0002:00004ec8       ??_C@_1BC@CHBCPFPI@?$AAp?$AAr?$AA?5?$AAc?$AAh?$AAi?$AAn?$AAa@ 0000000140060ec8     libucrt:get_qualified_locale.obj
 0002:00004ee0       ??_C@_1BC@JAOIIFKD@?$AAp?$AAr?$AA?9?$AAc?$AAh?$AAi?$AAn?$AAa@ 0000000140060ee0     libucrt:get_qualified_locale.obj
 0002:00004ef8       ??_C@_1BI@BEHPPHKC@?$AAp?$AAu?$AAe?$AAr?$AAt?$AAo?$AA?9?$AAr?$AAi?$AAc?$AAo@ 0000000140060ef8     libucrt:get_qualified_locale.obj
 0002:00004f10       ??_C@_1O@PAEOFKDI@?$AAs?$AAl?$AAo?$AAv?$AAa?$AAk@ 0000000140060f10     libucrt:get_qualified_locale.obj
 0002:00004f20       ??_C@_1BK@FIHMCKAM@?$AAs?$AAo?$AAu?$AAt?$AAh?$AA?5?$AAa?$AAf?$AAr?$AAi?$AAc?$AAa@ 0000000140060f20     libucrt:get_qualified_locale.obj
 0002:00004f40       ??_C@_1BI@NAEOODKB@?$AAs?$AAo?$AAu?$AAt?$AAh?$AA?5?$AAk?$AAo?$AAr?$AAe?$AAa@ 0000000140060f40     libucrt:get_qualified_locale.obj
 0002:00004f58       ??_C@_1BK@FBDGGIFF@?$AAs?$AAo?$AAu?$AAt?$AAh?$AA?9?$AAa?$AAf?$AAr?$AAi?$AAc?$AAa@ 0000000140060f58     libucrt:get_qualified_locale.obj
 0002:00004f78       ??_C@_1BI@GHLEJDPK@?$AAs?$AAo?$AAu?$AAt?$AAh?$AA?9?$AAk?$AAo?$AAr?$AAe?$AAa@ 0000000140060f78     libucrt:get_qualified_locale.obj
 0002:00004f90       ??_C@_1CE@PLHLOMJF@?$AAt?$AAr?$AAi?$AAn?$AAi?$AAd?$AAa?$AAd?$AA?5?$AA?$CG?$AA?5?$AAt?$AAo?$AAb?$AAa@ 0000000140060f90     libucrt:get_qualified_locale.obj
 0002:00004fb8       ??_C@_1BO@MODIMHHI@?$AAu?$AAn?$AAi?$AAt?$AAe?$AAd?$AA?9?$AAk?$AAi?$AAn?$AAg?$AAd?$AAo?$AAm@ 0000000140060fb8     libucrt:get_qualified_locale.obj
 0002:00004fd8       ??_C@_1BM@FFHJONBJ@?$AAu?$AAn?$AAi?$AAt?$AAe?$AAd?$AA?9?$AAs?$AAt?$AAa?$AAt?$AAe?$AAs@ 0000000140060fd8     libucrt:get_qualified_locale.obj
 0002:00004ff8       ??_C@_19MPDNHKDG@?$AAu?$AAt?$AAf?$AA8@ 0000000140060ff8     libucrt:get_qualified_locale.obj
 0002:00005008       ??_C@_17DNCLJFIF@?$AAA?$AAC?$AAP@ 0000000140061008     libucrt:get_qualified_locale.obj
 0002:00005010       ??_C@_1M@FPEIIFAM@?$AAu?$AAt?$AAf?$AA?9?$AA8@ 0000000140061010     libucrt:get_qualified_locale.obj
 0002:00005020       ??_C@_17CIKBIHLH@?$AAO?$AAC?$AAP@ 0000000140061020     libucrt:get_qualified_locale.obj
 0002:00005028       __rglangidNotDefault       0000000140061028     libucrt:getqloc_downlevel.obj
 0002:00005e80       ??_C@_15EMKDOKLE@?$AAa?$AAr@ 0000000140061e80     libucrt:lcidtoname_downlevel.obj
 0002:00005e88       ??_C@_15KNPADPLH@?$AAb?$AAg@ 0000000140061e88     libucrt:lcidtoname_downlevel.obj
 0002:00005e90       ??_C@_15EDMHLDMO@?$AAc?$AAa@ 0000000140061e90     libucrt:lcidtoname_downlevel.obj
 0002:00005e98       ??_C@_1O@BPEAJADD@?$AAz?$AAh?$AA?9?$AAC?$AAH?$AAS@ 0000000140061e98     libucrt:lcidtoname_downlevel.obj
 0002:00005ea8       ??_C@_15LJNHCMNK@?$AAc?$AAs@ 0000000140061ea8     libucrt:lcidtoname_downlevel.obj
 0002:00005eb0       ??_C@_15FOMCIDHG@?$AAd?$AAa@ 0000000140061eb0     libucrt:lcidtoname_downlevel.obj
 0002:00005eb8       ??_C@_15NBKABECB@?$AAd?$AAe@ 0000000140061eb8     libucrt:lcidtoname_downlevel.obj
 0002:00005ec0       ??_C@_15GHPEIIAO@?$AAe?$AAl@ 0000000140061ec0     libucrt:lcidtoname_downlevel.obj
 0002:00005ec8       ??_C@_15MNPNEAIF@?$AAe?$AAn@ 0000000140061ec8     libucrt:lcidtoname_downlevel.obj
 0002:00005ed0       ??_C@_15GPIOMPMH@?$AAe?$AAs@ 0000000140061ed0     libucrt:lcidtoname_downlevel.obj
 0002:00005ed8       ??_C@_15NGLOAKJC@?$AAf?$AAi@ 0000000140061ed8     libucrt:lcidtoname_downlevel.obj
 0002:00005ee0       ??_C@_15FBKGNKAM@?$AAf?$AAr@ 0000000140061ee0     libucrt:lcidtoname_downlevel.obj
 0002:00005ee8       ??_C@_15KGGCNEFK@?$AAh?$AAe@ 0000000140061ee8     libucrt:lcidtoname_downlevel.obj
 0002:00005ef0       ??_C@_15PGHLIDMF@?$AAh?$AAu@ 0000000140061ef0     libucrt:lcidtoname_downlevel.obj
 0002:00005ef8       ??_C@_15BIEMAPLM@?$AAi?$AAs@ 0000000140061ef8     libucrt:lcidtoname_downlevel.obj
 0002:00005f00       ??_C@_15IFJLDHAF@?$AAi?$AAt@ 0000000140061f00     libucrt:lcidtoname_downlevel.obj
 0002:00005f08       ??_C@_15GEMIOCAG@?$AAj?$AAa@ 0000000140061f08     libucrt:lcidtoname_downlevel.obj
 0002:00005f10       ??_C@_15EPELEGJA@?$AAk?$AAo@ 0000000140061f10     libucrt:lcidtoname_downlevel.obj
 0002:00005f18       ??_C@_15NDDHIMN@?$AAn?$AAl@ 0000000140061f18     libucrt:lcidtoname_downlevel.obj
 0002:00005f20       ??_C@_15BPIGNHCD@?$AAn?$AAo@ 0000000140061f20     libucrt:lcidtoname_downlevel.obj
 0002:00005f28       ??_C@_15DEOPBLCG@?$AAp?$AAl@ 0000000140061f28     libucrt:lcidtoname_downlevel.obj
 0002:00005f30       ??_C@_15KBECGEFG@?$AAp?$AAt@ 0000000140061f30     libucrt:lcidtoname_downlevel.obj
 0002:00005f38       ??_C@_15GLJCBFMD@?$AAr?$AAo@ 0000000140061f38     libucrt:lcidtoname_downlevel.obj
 0002:00005f40       ??_C@_15FEDGKCDI@?$AAr?$AAu@ 0000000140061f40     libucrt:lcidtoname_downlevel.obj
 0002:00005f48       ??_C@_15GLKMLLHM@?$AAh?$AAr@ 0000000140061f48     libucrt:lcidtoname_downlevel.obj
 0002:00005f50       ??_C@_15CPKMFBDB@?$AAs?$AAk@ 0000000140061f50     libucrt:lcidtoname_downlevel.obj
 0002:00005f58       ??_C@_15BAAIOGMK@?$AAs?$AAq@ 0000000140061f58     libucrt:lcidtoname_downlevel.obj
 0002:00005f60       ??_C@_15INNPNOHD@?$AAs?$AAv@ 0000000140061f60     libucrt:lcidtoname_downlevel.obj
 0002:00005f68       ??_C@_15CABMMOGH@?$AAt?$AAh@ 0000000140061f68     libucrt:lcidtoname_downlevel.obj
 0002:00005f70       ??_C@_15BPLIHJJM@?$AAt?$AAr@ 0000000140061f70     libucrt:lcidtoname_downlevel.obj
 0002:00005f78       ??_C@_15NEOEKKDJ@?$AAu?$AAr@ 0000000140061f78     libucrt:lcidtoname_downlevel.obj
 0002:00005f80       ??_C@_15NFICGAJK@?$AAi?$AAd@ 0000000140061f80     libucrt:lcidtoname_downlevel.obj
 0002:00005f88       ??_C@_15HPJPHDM@?$AAb?$AAe@ 0000000140061f88     libucrt:lcidtoname_downlevel.obj
 0002:00005f90       ??_C@_15LCHLGJII@?$AAs?$AAl@ 0000000140061f90     libucrt:lcidtoname_downlevel.obj
 0002:00005f98       ??_C@_15PCFJPHHO@?$AAe?$AAt@ 0000000140061f98     libucrt:lcidtoname_downlevel.obj
 0002:00005fa0       ??_C@_15HPFPGODN@?$AAl?$AAv@ 0000000140061fa0     libucrt:lcidtoname_downlevel.obj
 0002:00005fa8       ??_C@_15NFFGKGLG@?$AAl?$AAt@ 0000000140061fa8     libucrt:lcidtoname_downlevel.obj
 0002:00005fb0       ??_C@_15BDAKCCHN@?$AAf?$AAa@ 0000000140061fb0     libucrt:lcidtoname_downlevel.obj
 0002:00005fb8       ??_C@_15NFGIAIAJ@?$AAv?$AAi@ 0000000140061fb8     libucrt:lcidtoname_downlevel.obj
 0002:00005fc0       ??_C@_15LMKNDMHN@?$AAh?$AAy@ 0000000140061fc0     libucrt:lcidtoname_downlevel.obj
 0002:00005fc8       ??_C@_15IJBHMCFL@?$AAa?$AAz@ 0000000140061fc8     libucrt:lcidtoname_downlevel.obj
 0002:00005fd0       ??_C@_15EKOFJABL@?$AAe?$AAu@ 0000000140061fd0     libucrt:lcidtoname_downlevel.obj
 0002:00005fd8       ??_C@_15BGHADCNK@?$AAm?$AAk@ 0000000140061fd8     libucrt:lcidtoname_downlevel.obj
 0002:00005fe0       ??_C@_15JDNICKHM@?$AAa?$AAf@ 0000000140061fe0     libucrt:lcidtoname_downlevel.obj
 0002:00005fe8       ??_C@_15KPJEDBKD@?$AAk?$AAa@ 0000000140061fe8     libucrt:lcidtoname_downlevel.obj
 0002:00005ff0       ??_C@_15PDNFFFEO@?$AAf?$AAo@ 0000000140061ff0     libucrt:lcidtoname_downlevel.obj
 0002:00005ff8       ??_C@_15OMLEGLOC@?$AAh?$AAi@ 0000000140061ff8     libucrt:lcidtoname_downlevel.obj
 0002:00006000       ??_C@_15IDNNENKK@?$AAm?$AAs@ 0000000140062000     libucrt:lcidtoname_downlevel.obj
 0002:00006008       ??_C@_15MACJNBMH@?$AAk?$AAk@ 0000000140062008     libucrt:lcidtoname_downlevel.obj
 0002:00006010       ??_C@_15DKDJEOND@?$AAk?$AAy@ 0000000140062010     libucrt:lcidtoname_downlevel.obj
 0002:00006018       ??_C@_15DFGDLJBG@?$AAs?$AAw@ 0000000140062018     libucrt:lcidtoname_downlevel.obj
 0002:00006020       ??_C@_15BBFAICNG@?$AAu?$AAz@ 0000000140062020     libucrt:lcidtoname_downlevel.obj
 0002:00006028       ??_C@_15DKNDCGEA@?$AAt?$AAt@ 0000000140062028     libucrt:lcidtoname_downlevel.obj
 0002:00006030       ??_C@_15MGIFMDPL@?$AAp?$AAa@ 0000000140062030     libucrt:lcidtoname_downlevel.obj
 0002:00006038       ??_C@_15HCNDBBA@?$AAg?$AAu@ 0000000140062038     libucrt:lcidtoname_downlevel.obj
 0002:00006040       ??_C@_15FNBEIBON@?$AAt?$AAa@ 0000000140062040     libucrt:lcidtoname_downlevel.obj
 0002:00006048       ??_C@_15NCHGBGLK@?$AAt?$AAe@ 0000000140062048     libucrt:lcidtoname_downlevel.obj
 0002:00006050       ??_C@_15PHPHCBPF@?$AAk?$AAn@ 0000000140062050     libucrt:lcidtoname_downlevel.obj
 0002:00006058       ??_C@_15DLGBCKMP@?$AAm?$AAr@ 0000000140062058     libucrt:lcidtoname_downlevel.obj
 0002:00006060       ??_C@_15EABBLBFF@?$AAs?$AAa@ 0000000140062060     libucrt:lcidtoname_downlevel.obj
 0002:00006068       ??_C@_15CBKOMCOI@?$AAm?$AAn@ 0000000140062068     libucrt:lcidtoname_downlevel.obj
 0002:00006070       ??_C@_15CKDMCJAF@?$AAg?$AAl@ 0000000140062070     libucrt:lcidtoname_downlevel.obj
 0002:00006078       ??_C@_17CNJFBPG@?$AAk?$AAo?$AAk@ 0000000140062078     libucrt:lcidtoname_downlevel.obj
 0002:00006080       ??_C@_17FFBJICPL@?$AAs?$AAy?$AAr@ 0000000140062080     libucrt:lcidtoname_downlevel.obj
 0002:00006088       ??_C@_17KPNDCPAF@?$AAd?$AAi?$AAv@ 0000000140062088     libucrt:lcidtoname_downlevel.obj
 0002:00006090       ??_C@_11LOCGONAA@@         0000000140062090     libucrt:lcidtoname_downlevel.obj
 0002:00006098       ??_C@_1M@OKAHONE@?$AAa?$AAr?$AA?9?$AAS?$AAA@ 0000000140062098     libucrt:lcidtoname_downlevel.obj
 0002:000060a8       ??_C@_1M@FFFIGIGK@?$AAb?$AAg?$AA?9?$AAB?$AAG@ 00000001400620a8     libucrt:lcidtoname_downlevel.obj
 0002:000060b8       ??_C@_1M@BJNKEDC@?$AAc?$AAa?$AA?9?$AAE?$AAS@ 00000001400620b8     libucrt:lcidtoname_downlevel.obj
 0002:000060c8       ??_C@_1M@IJJHFJHA@?$AAc?$AAs?$AA?9?$AAC?$AAZ@ 00000001400620c8     libucrt:lcidtoname_downlevel.obj
 0002:000060d8       ??_C@_1M@CLPEOBGI@?$AAd?$AAa?$AA?9?$AAD?$AAK@ 00000001400620d8     libucrt:lcidtoname_downlevel.obj
 0002:000060e8       ??_C@_1M@MCMADGCB@?$AAd?$AAe?$AA?9?$AAD?$AAE@ 00000001400620e8     libucrt:lcidtoname_downlevel.obj
 0002:000060f8       ??_C@_1M@OOCKEMAM@?$AAe?$AAl?$AA?9?$AAG?$AAR@ 00000001400620f8     libucrt:lcidtoname_downlevel.obj
 0002:00006108       ??_C@_1M@DDNJFGID@?$AAf?$AAi?$AA?9?$AAF?$AAI@ 0000000140062108     libucrt:lcidtoname_downlevel.obj
 0002:00006118       ??_C@_1M@GLIPPMAC@?$AAf?$AAr?$AA?9?$AAF?$AAR@ 0000000140062118     libucrt:lcidtoname_downlevel.obj
 0002:00006128       ??_C@_1M@GFMCHPE@?$AAh?$AAe?$AA?9?$AAI?$AAL@ 0000000140062128     libucrt:lcidtoname_downlevel.obj
 0002:00006138       ??_C@_1M@MHLPGNKM@?$AAh?$AAu?$AA?9?$AAH?$AAU@ 0000000140062138     libucrt:lcidtoname_downlevel.obj
 0002:00006148       ??_C@_1M@LPDDNNPN@?$AAi?$AAs?$AA?9?$AAI?$AAS@ 0000000140062148     libucrt:lcidtoname_downlevel.obj
 0002:00006158       ??_C@_1M@MADIPODN@?$AAi?$AAt?$AA?9?$AAI?$AAT@ 0000000140062158     libucrt:lcidtoname_downlevel.obj
 0002:00006168       ??_C@_1M@IHBJJGG@?$AAn?$AAl?$AA?9?$AAN?$AAL@ 0000000140062168     libucrt:lcidtoname_downlevel.obj
 0002:00006178       ??_C@_1M@EANAGDL@?$AAn?$AAb?$AA?9?$AAN?$AAO@ 0000000140062178     libucrt:lcidtoname_downlevel.obj
 0002:00006188       ??_C@_1M@NEIEMEGP@?$AAp?$AAl?$AA?9?$AAP?$AAL@ 0000000140062188     libucrt:lcidtoname_downlevel.obj
 0002:00006198       ??_C@_1M@BOCFIGEP@?$AAp?$AAt?$AA?9?$AAB?$AAR@ 0000000140062198     libucrt:lcidtoname_downlevel.obj
 0002:000061a8       ??_C@_1M@IMPFOPBG@?$AAr?$AAo?$AA?9?$AAR?$AAO@ 00000001400621a8     libucrt:lcidtoname_downlevel.obj
 0002:000061b8       ??_C@_1M@IDNNEJMM@?$AAr?$AAu?$AA?9?$AAR?$AAU@ 00000001400621b8     libucrt:lcidtoname_downlevel.obj
 0002:000061c8       ??_C@_1M@LILEEOGM@?$AAh?$AAr?$AA?9?$AAH?$AAR@ 00000001400621c8     libucrt:lcidtoname_downlevel.obj
 0002:000061d8       ??_C@_1M@FKIFEHPB@?$AAs?$AAk?$AA?9?$AAS?$AAK@ 00000001400621d8     libucrt:lcidtoname_downlevel.obj
