 test-win-seh-rebuild-1

 Timestamp is 64895260 (Wed Jun 14 13:38:40 2023)

 Preferred load address is 0000000140000000

 Start         Length     Name                   Class
 0001:00000000 0005a290H .text$mn                CODE
 0001:0005a290 00000040H .text$mn$00             CODE
 0001:0005a2d0 00000a40H .text$x                 CODE
 0002:00000000 000002d0H .idata$5                DATA
 0002:000002d0 00000038H .00cfg                  DATA
 0002:00000308 00000008H .CRT$XCA                DATA
 0002:00000310 00000008H .CRT$XCAA               DATA
 0002:00000318 00000008H .CRT$XCZ                DATA
 0002:00000320 00000008H .CRT$XIA                DATA
 0002:00000328 00000008H .CRT$XIAA               DATA
 0002:00000330 00000008H .CRT$XIAC               DATA
 0002:00000338 00000020H .CRT$XIC                DATA
 0002:00000358 00000008H .CRT$XIZ                DATA
 0002:00000360 00000008H .CRT$XPA                DATA
 0002:00000368 00000010H .CRT$XPX                DATA
 0002:00000378 00000008H .CRT$XPXA               DATA
 0002:00000380 00000008H .CRT$XPZ                DATA
 0002:00000388 00000008H .CRT$XTA                DATA
 0002:00000390 00000010H .CRT$XTZ                DATA
 0002:00000398 00000000H .gehcont$y              DATA
 0002:00000398 00000000H .gfids$y                DATA
 0002:000003a0 0000a7e0H .rdata                  DATA
 0002:0000ab80 00000080H .rdata$CastGuardVftablesA DATA
 0002:0000ac00 00000080H .rdata$CastGuardVftablesC DATA
 0002:0000ac80 00000464H .rdata$r                DATA
 0002:0000b0e4 00000674H .rdata$voltmd           DATA
 0002:0000b758 000003d8H .rdata$zzzdbg           DATA
 0002:0000bb30 00000008H .rtc$IAA                DATA
 0002:0000bb38 00000008H .rtc$IZZ                DATA
 0002:0000bb40 00000008H .rtc$TAA                DATA
 0002:0000bb48 00000008H .rtc$TZZ                DATA
 0002:0000bb50 00005bc0H .xdata                  DATA
 0002:00011710 00000084H .xdata$x                DATA
 0002:00011794 00000000H .edata                  DATA
 0002:00011794 00000014H .idata$2                DATA
 0002:000117a8 00000018H .idata$3                DATA
 0002:000117c0 000002d0H .idata$4                DATA
 0002:00011a90 00000682H .idata$6                DATA
 0003:00000000 00000a70H .data                   DATA
 0003:00000a70 00000078H .data$r                 DATA
 0003:00000ae8 000000f8H .data$rs                DATA
 0003:00000be0 00001a68H .bss                    DATA
 0004:00000000 00004728H .pdata                  DATA
 0005:00000000 0000015cH _RDATA                  DATA
 0006:00000000 00000060H .rsrc$01                DATA
 0006:00000060 00000180H .rsrc$02                DATA

  Address         Publics by Value              Rva+Base               Lib:Object

 0000:00000000       __AbsoluteZero             0000000000000000     <absolute>
 0000:00000000       ___safe_se_handler_count   0000000000000000     <absolute>
 0000:00000000       ___safe_se_handler_table   0000000000000000     <absolute>
 0000:00000000       __arm64x_extra_rfe_table   0000000000000000     <absolute>
 0000:00000000       __arm64x_extra_rfe_table_size 0000000000000000     <absolute>
 0000:00000000       __arm64x_native_entrypoint 0000000000000000     <absolute>
 0000:00000000       __arm64x_redirection_metadata 0000000000000000     <absolute>
 0000:00000000       __arm64x_redirection_metadata_count 0000000000000000     <absolute>
 0000:00000000       __dynamic_value_reloc_table 0000000000000000     <absolute>
 0000:00000000       __enclave_config           0000000000000000     <absolute>
 0000:00000000       __guard_check_icall_a64n_fptr 0000000000000000     <absolute>
 0000:00000000       __guard_eh_cont_count      0000000000000000     <absolute>
 0000:00000000       __guard_eh_cont_table      0000000000000000     <absolute>
 0000:00000000       __guard_fids_count         0000000000000000     <absolute>
 0000:00000000       __guard_fids_table         0000000000000000     <absolute>
 0000:00000000       __guard_iat_count          0000000000000000     <absolute>
 0000:00000000       __guard_iat_table          0000000000000000     <absolute>
 0000:00000000       __guard_longjmp_count      0000000000000000     <absolute>
 0000:00000000       __guard_longjmp_table      0000000000000000     <absolute>
 0000:00000000       __hybrid_auxiliary_delayload_iat 0000000000000000     <absolute>
 0000:00000000       __hybrid_auxiliary_delayload_iat_copy 0000000000000000     <absolute>
 0000:00000000       __hybrid_auxiliary_iat     0000000000000000     <absolute>
 0000:00000000       __hybrid_auxiliary_iat_copy 0000000000000000     <absolute>
 0000:00000000       __hybrid_code_map          0000000000000000     <absolute>
 0000:00000000       __hybrid_code_map_count    0000000000000000     <absolute>
 0000:00000000       __x64_code_ranges_to_entry_points 0000000000000000     <absolute>
 0000:00000000       __x64_code_ranges_to_entry_points_count 0000000000000000     <absolute>
 0000:00000100       __guard_flags              0000000000000100     <absolute>
 0000:00000000       __ImageBase                0000000140000000     <linker-defined>
 0001:00000000       __local_stdio_printf_options 0000000140001000 f i main.obj
 0001:00000010       main                       0000000140001010 f   main.obj
 0001:00000020       msvc_SEH_1                 0000000140001020 f   main.obj
 0001:00000060       printf                     0000000140001060 f i main.obj
 0001:00000328       ?configure_argv@__scrt_narrow_argv_policy@@SAHXZ 0000000140001328 f i LIBCMT:exe_main.obj
 0001:0000033c       ?initialize_environment@__scrt_narrow_environment_policy@@SAHXZ 000000014000133c f i LIBCMT:exe_main.obj
 0001:0000037c       ?set_app_type@__scrt_main_policy@@SAXXZ 000000014000137c f i LIBCMT:exe_main.obj
 0001:00000388       ?set_commode@__scrt_file_policy@@SAXXZ 0000000140001388 f i LIBCMT:exe_main.obj
 0001:000003a4       ?set_fmode@__scrt_file_policy@@SAXXZ 00000001400013a4 f i LIBCMT:exe_main.obj
 0001:000003b8       mainCRTStartup             00000001400013b8 f   LIBCMT:exe_main.obj
 0001:00000448       NtCurrentTeb               0000000140001448 f i LIBCMT:utility.obj
 0001:00000454       __scrt_acquire_startup_lock 0000000140001454 f   LIBCMT:utility.obj
 0001:00000490       __scrt_dllmain_after_initialize_c 0000000140001490 f   LIBCMT:utility.obj
 0001:000004c4       __scrt_dllmain_before_initialize_c 00000001400014c4 f   LIBCMT:utility.obj
 0001:000004dc       __scrt_dllmain_crt_thread_attach 00000001400014dc f   LIBCMT:utility.obj
 0001:00000504       __scrt_dllmain_crt_thread_detach 0000000140001504 f   LIBCMT:utility.obj
 0001:0000051c       __scrt_dllmain_exception_filter 000000014000151c f   LIBCMT:utility.obj
 0001:0000057c       __scrt_dllmain_uninitialize_c 000000014000157c f   LIBCMT:utility.obj
 0001:000005ac       __scrt_dllmain_uninitialize_critical 00000001400015ac f   LIBCMT:utility.obj
 0001:000005c0       __scrt_initialize_crt      00000001400015c0 f   LIBCMT:utility.obj
 0001:0000060c       __scrt_initialize_onexit_tables 000000014000160c f   LIBCMT:utility.obj
 0001:00000698       __scrt_is_nonwritable_in_current_image 0000000140001698 f   LIBCMT:utility.obj
 0001:00000730       __scrt_release_startup_lock 0000000140001730 f   LIBCMT:utility.obj
 0001:00000754       __scrt_uninitialize_crt    0000000140001754 f   LIBCMT:utility.obj
 0001:00000780       _onexit                    0000000140001780 f   LIBCMT:utility.obj
 0001:000007bc       at_quick_exit              00000001400017bc f   LIBCMT:utility.obj
 0001:000007dc       atexit                     00000001400017dc f   LIBCMT:utility.obj
 0001:00000860       __security_init_cookie     0000000140001860 f   LIBCMT:gs_support.obj
 0001:0000090c       _matherr                   000000014000190c f   LIBCMT:matherr.obj
 0001:00000910       _get_startup_argv_mode     0000000140001910 f   LIBCMT:argv_mode.obj
 0001:00000918       _get_startup_commit_mode   0000000140001918 f   LIBCMT:commit_mode.obj
 0001:0000091c       _get_startup_file_mode     000000014000191c f   LIBCMT:file_mode.obj
 0001:00000924       _get_startup_new_mode      0000000140001924 f   LIBCMT:new_mode.obj
 0001:00000928       _get_startup_thread_locale_mode 0000000140001928 f   LIBCMT:thread_locale.obj
 0001:0000092c       ?__scrt_initialize_type_info@@YAXXZ 000000014000192c f   LIBCMT:tncleanup.obj
 0001:0000093c       ?__scrt_uninitialize_type_info@@YAXXZ 000000014000193c f   LIBCMT:tncleanup.obj
 0001:00000948       _should_initialize_environment 0000000140001948 f   LIBCMT:env_mode.obj
 0001:0000094c       _initialize_invalid_parameter_handler 000000014000194c f   LIBCMT:invalid_parameter_handler.obj
 0001:00000950       _initialize_denormal_control 0000000140001950 f   LIBCMT:denormal_control.obj
 0001:00000954       __local_stdio_scanf_options 0000000140001954 f i LIBCMT:default_local_stdio_options.obj
 0001:0000095c       __scrt_initialize_default_local_stdio_options 000000014000195c f   LIBCMT:default_local_stdio_options.obj
 0001:00000978       __scrt_is_user_matherr_present 0000000140001978 f   LIBCMT:matherr_detection.obj
 0001:00000984       __scrt_get_dyn_tls_init_callback 0000000140001984 f   LIBCMT:dyn_tls_init.obj
 0001:0000098c       __scrt_get_dyn_tls_dtor_callback 000000014000198c f   LIBCMT:dyn_tls_dtor.obj
 0001:00000994       __crt_debugger_hook        0000000140001994 f   LIBCMT:utility_desktop.obj
 0001:0000099c       __scrt_fastfail            000000014000199c f   LIBCMT:utility_desktop.obj
 0001:00000ae8       __scrt_get_show_window_mode 0000000140001ae8 f   LIBCMT:utility_desktop.obj
 0001:00000b24       __scrt_initialize_mta      0000000140001b24 f   LIBCMT:utility_desktop.obj
 0001:00000b2c       __scrt_initialize_winrt    0000000140001b2c f   LIBCMT:utility_desktop.obj
 0001:00000b30       __scrt_is_managed_app      0000000140001b30 f   LIBCMT:utility_desktop.obj
 0001:00000b84       __scrt_set_unhandled_exception_filter 0000000140001b84 f   LIBCMT:utility_desktop.obj
 0001:00000b94       __scrt_exe_initialize_mta  0000000140001b94 f   LIBCMT:utility_desktop.obj
 0001:00000b94       __scrt_stub_for_initialize_mta 0000000140001b94 f   LIBCMT:utility_desktop.obj
 0001:00000b98       __scrt_unhandled_exception_filter 0000000140001b98 f   LIBCMT:utility_desktop.obj
 0001:00000bf4       _RTC_Initialize            0000000140001bf4 f   LIBCMT:initsect.obj
 0001:00000c30       _RTC_Terminate             0000000140001c30 f   LIBCMT:initsect.obj
 0001:00000c6c       _guard_check_icall_nop     0000000140001c6c f i LIBCMT:guard_support.obj
 0001:00000c70       ReadNoFence64              0000000140001c70 f i LIBCMT:guard_support.obj
 0001:00000c74       ReadPointerNoFence         0000000140001c74 f i LIBCMT:guard_support.obj
 0001:00000c78       __castguard_check_failure_debugbreak 0000000140001c78 f i LIBCMT:guard_support.obj
 0001:00000c94       __castguard_check_failure_fastfail 0000000140001c94 f i LIBCMT:guard_support.obj
 0001:00000cb8       __castguard_check_failure_nop 0000000140001cb8 f i LIBCMT:guard_support.obj
 0001:00000cbc       __castguard_check_failure_os_handled 0000000140001cbc f i LIBCMT:guard_support.obj
 0001:00000d18       __castguard_check_failure_user_handled 0000000140001d18 f i LIBCMT:guard_support.obj
 0001:00000d8c       __castguard_set_user_handler 0000000140001d8c f i LIBCMT:guard_support.obj
 0001:00000d98       __castguard_slow_path_check_debugbreak 0000000140001d98 f i LIBCMT:guard_support.obj
 0001:00000dcc       __castguard_slow_path_check_fastfail 0000000140001dcc f i LIBCMT:guard_support.obj
 0001:00000e08       __castguard_slow_path_check_nop 0000000140001e08 f i LIBCMT:guard_support.obj
 0001:00000e0c       __castguard_slow_path_check_os_handled 0000000140001e0c f i LIBCMT:guard_support.obj
 0001:00000e60       __castguard_slow_path_check_user_handled 0000000140001e60 f i LIBCMT:guard_support.obj
 0001:00000ecc       _guard_icall_checks_enforced 0000000140001ecc f i LIBCMT:guard_support.obj
 0001:00000ee4       _guard_rf_checks_enforced  0000000140001ee4 f i LIBCMT:guard_support.obj
 0001:00000ee8       __isa_available_init       0000000140001ee8 f   LIBCMT:cpu_disp.obj
 0001:00001094       __scrt_is_ucrt_dll_in_use  0000000140002094 f   LIBCMT:ucrt_detection.obj
 0001:000010a0       __C_specific_handler       00000001400020a0 f   libvcruntime:riscchandler.obj
 0001:00001298       __vcrt_initialize          0000000140002298 f   libvcruntime:initialization.obj
 0001:000012c0       __vcrt_thread_attach       00000001400022c0 f   libvcruntime:initialization.obj
 0001:000012d4       __vcrt_thread_detach       00000001400022d4 f   libvcruntime:initialization.obj
 0001:000012e8       __vcrt_uninitialize        00000001400022e8 f   libvcruntime:initialization.obj
 0001:00001304       __vcrt_uninitialize_critical 0000000140002304 f   libvcruntime:initialization.obj
 0001:00001328       ??$?RD@__crt_internal_free_policy@@QEBAXQEBD@Z 0000000140002328 f i libvcruntime:std_type_info.obj
 0001:00001330       ??$?RX@__crt_internal_free_policy@@QEBAXQEBX@Z 0000000140002330 f i libvcruntime:std_type_info.obj
 0001:00001338       ??$__crt_interlocked_compare_exchange_pointer@$$CBDPEAD$$T@@YAPEBDPEDSEBDQEAD$$T@Z 0000000140002338 f i libvcruntime:std_type_info.obj
 0001:00001344       ??$__crt_interlocked_read_pointer@$$CBD@@YAPEBDPEDSEBD@Z 0000000140002344 f i libvcruntime:std_type_info.obj
 0001:0000134c       ??0?$__crt_unique_heap_ptr@DU__crt_internal_free_policy@@@@QEAA@QEAD@Z 000000014000234c f i libvcruntime:std_type_info.obj
 0001:00001354       ??0?$__crt_unique_heap_ptr@XU__crt_internal_free_policy@@@@QEAA@QEAX@Z 0000000140002354 f i libvcruntime:std_type_info.obj
 0001:0000135c       ??1?$__crt_unique_heap_ptr@DU__crt_internal_free_policy@@@@QEAA@XZ 000000014000235c f i libvcruntime:std_type_info.obj
 0001:00001378       ??1?$__crt_unique_heap_ptr@XU__crt_internal_free_policy@@@@QEAA@XZ 0000000140002378 f i libvcruntime:std_type_info.obj
 0001:00001394       ??B?$__crt_unique_heap_ptr@DU__crt_internal_free_policy@@@@QEBA_NXZ 0000000140002394 f i libvcruntime:std_type_info.obj
 0001:0000139c       ??B?$__crt_unique_heap_ptr@XU__crt_internal_free_policy@@@@QEBA_NXZ 000000014000239c f i libvcruntime:std_type_info.obj
 0001:000013b4       ?__crt_interlocked_read_64@@YA_JPED_J@Z 00000001400023b4 f i libvcruntime:std_type_info.obj
 0001:000013bc       ?detach@?$__crt_unique_heap_ptr@XU__crt_internal_free_policy@@@@QEAAPEAXXZ 00000001400023bc f i libvcruntime:std_type_info.obj
 0001:000013c4       ?get@?$__crt_unique_heap_ptr@DU__crt_internal_free_policy@@@@QEBAPEADXZ 00000001400023c4 f i libvcruntime:std_type_info.obj
 0001:000013c8       ?get@?$__crt_unique_heap_ptr@XU__crt_internal_free_policy@@@@QEBAPEAXXZ 00000001400023c8 f i libvcruntime:std_type_info.obj
 0001:000013cc       ?is_valid@?$__crt_unique_heap_ptr@DU__crt_internal_free_policy@@@@QEBA_NXZ 00000001400023cc f i libvcruntime:std_type_info.obj
 0001:000013d4       ?is_valid@?$__crt_unique_heap_ptr@XU__crt_internal_free_policy@@@@QEBA_NXZ 00000001400023d4 f i libvcruntime:std_type_info.obj
 0001:000013dc       ?release@?$__crt_unique_heap_ptr@DU__crt_internal_free_policy@@@@QEAAXXZ 00000001400023dc f i libvcruntime:std_type_info.obj
 0001:000013f8       ?release@?$__crt_unique_heap_ptr@XU__crt_internal_free_policy@@@@QEAAXXZ 00000001400023f8 f i libvcruntime:std_type_info.obj
 0001:00001414       __std_type_info_compare    0000000140002414 f   libvcruntime:std_type_info.obj
 0001:0000143c       __std_type_info_destroy_list 000000014000243c f   libvcruntime:std_type_info.obj
 0001:00001468       __std_type_info_hash       0000000140002468 f   libvcruntime:std_type_info.obj
 0001:000014a0       __std_type_info_name       00000001400024a0 f   libvcruntime:std_type_info.obj
 0001:000015b8       __DestructExceptionObject  00000001400025b8 f   libvcruntime:ehhelpers.obj
 0001:00001628       ?_CallMemberFunction0@@YAXQEAX0@Z 0000000140002628 f i libvcruntime:ehhelpers.obj
 0001:00001684       ?raw_name@type_info@@QEBAPEBDXZ 0000000140002684 f i libvcruntime:ehhelpers.obj
 0001:0000168c       _IsExceptionObjectToBeDestroyed 000000014000268c f   libvcruntime:ehhelpers.obj
 0001:000016bc       _SetWinRTOutOfMemoryExceptionCallback 00000001400026bc f   libvcruntime:ehhelpers.obj
 0001:000016c4       __AdjustPointer            00000001400026c4 f   libvcruntime:ehhelpers.obj
 0001:000016e8       __FrameUnwindFilter        00000001400026e8 f   libvcruntime:ehhelpers.obj
 0001:00001750       __GetPlatformExceptionInfo 0000000140002750 f   libvcruntime:ehhelpers.obj
 0001:000017ac       __current_exception        00000001400027ac f   libvcruntime:ehhelpers.obj
 0001:000017c0       __current_exception_context 00000001400027c0 f   libvcruntime:ehhelpers.obj
 0001:000017d4       __processing_throw         00000001400027d4 f   libvcruntime:ehhelpers.obj
 0001:000017e8       __std_terminate            00000001400027e8 f   libvcruntime:ehhelpers.obj
 0001:000017f4       _is_exception_typeof       00000001400027f4 f   libvcruntime:ehhelpers.obj
 0001:000018b0       memset_repstos             00000001400028b0 f   libvcruntime:memset.obj
 0001:000018d0       memset                     00000001400028d0 f   libvcruntime:memset.obj
 0001:00001c70       _NLG_Notify                0000000140002c70 f   libvcruntime:notify.obj
 0001:00001c90       __NLG_Dispatch2            0000000140002c90 f   libvcruntime:notify.obj
 0001:00001ca0       __NLG_Return2              0000000140002ca0 f   libvcruntime:notify.obj
 0001:00001cac       __except_validate_context_record 0000000140002cac f   libvcruntime:jbcxrval.obj
 0001:00001ce4       __except_validate_jump_buffer 0000000140002ce4 f   libvcruntime:jbcxrval.obj
 0001:00001d24       __except_validate_jump_buffer_common 0000000140002d24 f i libvcruntime:jbcxrval.obj
 0001:00001d80       ??$?RU__vcrt_ptd@@@__crt_internal_free_policy@@QEBAXQEBU__vcrt_ptd@@@Z 0000000140002d80 f i libvcruntime:per_thread_data.obj
 0001:00001d88       ??0?$__crt_unique_heap_ptr@U__vcrt_ptd@@U__crt_internal_free_policy@@@@QEAA@QEAU__vcrt_ptd@@@Z 0000000140002d88 f i libvcruntime:per_thread_data.obj
 0001:00001dac       ??1?$__crt_unique_heap_ptr@U__vcrt_ptd@@U__crt_internal_free_policy@@@@QEAA@XZ 0000000140002dac f i libvcruntime:per_thread_data.obj
 0001:00001dd4       ??B?$__crt_unique_heap_ptr@U__vcrt_ptd@@U__crt_internal_free_policy@@@@QEBA_NXZ 0000000140002dd4 f i libvcruntime:per_thread_data.obj
 0001:00001ddc       ?detach@?$__crt_unique_heap_ptr@U__vcrt_ptd@@U__crt_internal_free_policy@@@@QEAAPEAU__vcrt_ptd@@XZ 0000000140002ddc f i libvcruntime:per_thread_data.obj
 0001:00001de4       ?get@?$__crt_unique_heap_ptr@U__vcrt_ptd@@U__crt_internal_free_policy@@@@QEBAPEAU__vcrt_ptd@@XZ 0000000140002de4 f i libvcruntime:per_thread_data.obj
 0001:00001de8       ?is_valid@?$__crt_unique_heap_ptr@U__vcrt_ptd@@U__crt_internal_free_policy@@@@QEBA_NXZ 0000000140002de8 f i libvcruntime:per_thread_data.obj
 0001:00001df0       ?release@?$__crt_unique_heap_ptr@U__vcrt_ptd@@U__crt_internal_free_policy@@@@QEAAXXZ 0000000140002df0 f i libvcruntime:per_thread_data.obj
 0001:00001e38       __vcrt_freefls             0000000140002e38 f   libvcruntime:per_thread_data.obj
 0001:00001e58       __vcrt_freeptd             0000000140002e58 f   libvcruntime:per_thread_data.obj
 0001:00001ea8       __vcrt_getptd              0000000140002ea8 f   libvcruntime:per_thread_data.obj
 0001:00001ec4       __vcrt_getptd_noexit       0000000140002ec4 f   libvcruntime:per_thread_data.obj
 0001:00001f84       __vcrt_getptd_noinit       0000000140002f84 f   libvcruntime:per_thread_data.obj
 0001:00001fd4       __vcrt_initialize_ptd      0000000140002fd4 f   libvcruntime:per_thread_data.obj
 0001:0000201c       __vcrt_uninitialize_ptd    000000014000301c f   libvcruntime:per_thread_data.obj
 0001:00002040       __vcrt_initialize_locks    0000000140003040 f   libvcruntime:locks.obj
 0001:00002088       __vcrt_lock                0000000140003088 f   libvcruntime:locks.obj
 0001:000020a4       __vcrt_uninitialize_locks  00000001400030a4 f   libvcruntime:locks.obj
 0001:000020dc       __vcrt_unlock              00000001400030dc f   libvcruntime:locks.obj
 0001:000020f8       ??$?0$00@DName@@QEAA@PEBDU?$StringLifeSelector@$00@@@Z 00000001400030f8 f i libvcruntime:undname.obj
 0001:00002138       ??$?0$00@pcharNode@@QEAA@PEBDHU?$StringLifeSelector@$00@@@Z 0000000140003138 f i libvcruntime:undname.obj
 0001:00002150       ??$?0$01@DName@@QEAA@PEBDU?$StringLifeSelector@$01@@@Z 0000000140003150 f i libvcruntime:undname.obj
 0001:00002190       ??$?0$01@pcharNode@@QEAA@PEBDHU?$StringLifeSelector@$01@@@Z 0000000140003190 f i libvcruntime:undname.obj
 0001:00002204       ??$?0$0A@@DName@@QEAA@PEBDU?$StringLifeSelector@$0A@@@@Z 0000000140003204 f i libvcruntime:undname.obj
 0001:00002244       ??$?0$0A@@pcharNode@@QEAA@PEBDHU?$StringLifeSelector@$0A@@@@Z 0000000140003244 f i libvcruntime:undname.obj
 0001:000022b8       ??$?0_K$0A@@?$optional@_K@std@@QEAA@$$QEA_K@Z 00000001400032b8 f i libvcruntime:undname.obj
 0001:000022c8       ??$?0_K@?$_Optional_construct_base@_K@std@@QEAA@Uin_place_t@1@$$QEA_K@Z 00000001400032c8 f i libvcruntime:undname.obj
 0001:000022d8       ??$?0_K@?$_Optional_destruct_base@_K$00@std@@QEAA@Uin_place_t@1@$$QEA_K@Z 00000001400032d8 f i libvcruntime:undname.obj
 0001:000022e8       ??$append@VDNameNode@@@DName@@AEAAXPEBVDNameNode@@@Z 00000001400032e8 f i libvcruntime:undname.obj
 0001:0000234c       ??$append@VDNameStatusNode@@@DName@@AEAAXPEBVDNameStatusNode@@@Z 000000014000334c f i libvcruntime:undname.obj
 0001:000023b0       ??$append@VcharNode@@@DName@@AEAAXPEBVcharNode@@@Z 00000001400033b0 f i libvcruntime:undname.obj
 0001:00002414       ??$append@VpDNameNode@@@DName@@AEAAXPEBVpDNameNode@@@Z 0000000140003414 f i libvcruntime:undname.obj
 0001:00002478       ??$append@VpcharNode@@@DName@@AEAAXPEBVpcharNode@@@Z 0000000140003478 f i libvcruntime:undname.obj
 0001:000024dc       ??$doPchar@$00@DName@@AEAAXPEBDH@Z 00000001400034dc f i libvcruntime:undname.obj
 0001:00002580       ??$doPchar@$01@DName@@AEAAXPEBDH@Z 0000000140003580 f i libvcruntime:undname.obj
 0001:00002618       ??$doPchar@$0A@@DName@@AEAAXPEBDH@Z 0000000140003618 f i libvcruntime:undname.obj
 0001:000026b0       ??$forward@_K@std@@YA$$QEA_KAEA_K@Z 00000001400036b0 f i libvcruntime:undname.obj
 0001:000027d0       ??$size@D$04@std@@YA_KAEAY04$$CBD@Z 00000001400037d0 f i libvcruntime:undname.obj
 0001:000027d8       ??0?$_Optional_construct_base@_K@std@@QEAA@XZ 00000001400037d8 f i libvcruntime:undname.obj
 0001:000027e0       ??0?$_Optional_destruct_base@_K$00@std@@QEAA@XZ 00000001400037e0 f i libvcruntime:undname.obj
 0001:000027e8       ??0?$optional@_K@std@@QEAA@XZ 00000001400037e8 f i libvcruntime:undname.obj
 0001:000027f0       ??0Block@_HeapManager@@QEAA@XZ 00000001400037f0 f i libvcruntime:undname.obj
 0001:000027f8       ??0DName@@QEAA@AEAPEBDD@Z  00000001400037f8 f   libvcruntime:undname.obj
 0001:000028a8       ??0DName@@QEAA@AEBUStringLiteral@@@Z 00000001400038a8 f   libvcruntime:undname.obj
 0001:000028d4       ??0DName@@QEAA@AEBV0@@Z    00000001400038d4 f i libvcruntime:undname.obj
 0001:000028e4       ??0DName@@QEAA@D@Z         00000001400038e4 f   libvcruntime:undname.obj
 0001:00002904       ??0DName@@QEAA@PEAV0@@Z    0000000140003904 f   libvcruntime:undname.obj
 0001:00002988       ??0DName@@QEAA@W4DNameStatus@@@Z 0000000140003988 f   libvcruntime:undname.obj
 0001:000029b8       ??0DName@@QEAA@XZ          00000001400039b8 f i libvcruntime:undname.obj
 0001:000029c4       ??0DName@@QEAA@_J@Z        00000001400039c4 f   libvcruntime:undname.obj
 0001:00002a6c       ??0DName@@QEAA@_K@Z        0000000140003a6c f   libvcruntime:undname.obj
 0001:00002af4       ??0DNameNode@@IEAA@XZ      0000000140003af4 f i libvcruntime:undname.obj
 0001:00002b04       ??0Replicator@@QEAA@XZ     0000000140003b04 f i libvcruntime:undname.obj
 0001:00002b18       ??0UnDecorator@@QEAA@PEBDP6APEADJ@ZK@Z 0000000140003b18 f i libvcruntime:undname.obj
 0001:00002b68       ??0_Nontrivial_dummy_type@std@@QEAA@XZ 0000000140003b68 f i libvcruntime:undname.obj
 0001:00002b6c       ??0charNode@@QEAA@D@Z      0000000140003b6c f i libvcruntime:undname.obj
 0001:00002b80       ??0pDNameNode@@QEAA@PEAVDName@@@Z 0000000140003b80 f   libvcruntime:undname.obj
 0001:00002ba8       ??0pairNode@@QEAA@PEBVDNameNode@@0@Z 0000000140003ba8 f i libvcruntime:undname.obj
 0001:00002bcc       ??2@YAPEAX_KAEAV_HeapManager@@H@Z 0000000140003bcc f   libvcruntime:undname.obj
 0001:00002bf8       ??4DName@@QEAAAEAV0@AEBUStringLiteral@@@Z 0000000140003bf8 f   libvcruntime:undname.obj
 0001:00002c20       ??4DName@@QEAAAEAV0@AEBV0@@Z 0000000140003c20 f   libvcruntime:undname.obj
 0001:00002c30       ??4DName@@QEAAAEAV0@D@Z    0000000140003c30 f i libvcruntime:undname.obj
 0001:00002c50       ??4DName@@QEAAAEAV0@PEAV0@@Z 0000000140003c50 f   libvcruntime:undname.obj
 0001:00002cc8       ??4DName@@QEAAAEAV0@W4DNameStatus@@@Z 0000000140003cc8 f   libvcruntime:undname.obj
 0001:00002cf8       ??AReplicator@@QEBA?AVDName@@H@Z 0000000140003cf8 f   libvcruntime:undname.obj
 0001:00002d38       ??B?$optional@_K@std@@QEBA_NXZ 0000000140003d38 f i libvcruntime:undname.obj
 0001:00002d3c       ??D?$_Optional_construct_base@_K@std@@QEGAAAEA_KXZ 0000000140003d3c f i libvcruntime:undname.obj
 0001:00002d40       ??H@YA?AVDName@@AEBUStringLiteral@@AEBV0@@Z 0000000140003d40 f i libvcruntime:undname.obj
 0001:00002d78       ??H@YA?AVDName@@DAEBV0@@Z  0000000140003d78 f i libvcruntime:undname.obj
 0001:00002dbc       ??H@YA?AVDName@@W4DNameStatus@@AEBV0@@Z 0000000140003dbc f i libvcruntime:undname.obj
 0001:00002e08       ??HDName@@QEBA?AV0@AEBUStringLiteral@@@Z 0000000140003e08 f   libvcruntime:undname.obj
 0001:00002e34       ??HDName@@QEBA?AV0@AEBV0@@Z 0000000140003e34 f   libvcruntime:undname.obj
 0001:00002e60       ??HDName@@QEBA?AV0@D@Z     0000000140003e60 f   libvcruntime:undname.obj
 0001:00002e8c       ??HDName@@QEBA?AV0@PEAV0@@Z 0000000140003e8c f   libvcruntime:undname.obj
 0001:00002eb8       ??HDName@@QEBA?AV0@W4DNameStatus@@@Z 0000000140003eb8 f   libvcruntime:undname.obj
 0001:00002ee4       ??HStringLiteral@@QEBA?AU0@H@Z 0000000140003ee4 f i libvcruntime:undname.obj
 0001:00002efc       ??YDName@@QEAAAEAV0@AEBUStringLiteral@@@Z 0000000140003efc f   libvcruntime:undname.obj
 0001:00002f7c       ??YDName@@QEAAAEAV0@AEBV0@@Z 0000000140003f7c f   libvcruntime:undname.obj
 0001:00002fd4       ??YDName@@QEAAAEAV0@D@Z    0000000140003fd4 f   libvcruntime:undname.obj
 0001:00003040       ??YDName@@QEAAAEAV0@PEAV0@@Z 0000000140004040 f   libvcruntime:undname.obj
 0001:000030d4       ??YDName@@QEAAAEAV0@W4DNameStatus@@@Z 00000001400040d4 f   libvcruntime:undname.obj
 0001:0000312c       ??YReplicator@@QEAAAEAV0@AEBVDName@@@Z 000000014000412c f   libvcruntime:undname.obj
 0001:00003184       ??_5DName@@QEAAAEAV0@AEBV0@@Z 0000000140004184 f   libvcruntime:undname.obj
 0001:0000319c       ??__K_l@@YA?AUStringLiteral@@PEBD_K@Z 000000014000419c f i libvcruntime:undname.obj
 0001:000031a8       ?Constructor@_HeapManager@@QEAAXP6APEAX_K@ZP6AXPEAX@Z@Z 00000001400041a8 f i libvcruntime:undname.obj
 0001:000031c0       ?Destructor@_HeapManager@@QEAAXXZ 00000001400041c0 f i libvcruntime:undname.obj
 0001:0000320c       ?UScore@UnDecorator@@SA?AUStringLiteral@@W4Tokens@@@Z 000000014000420c f   libvcruntime:undname.obj
 0001:00003258       ?composeDeclaration@UnDecorator@@CA?AVDName@@AEBV2@@Z 0000000140004258 f i libvcruntime:undname.obj
 0001:0000414c       ?doAccessSpecifiers@UnDecorator@@SAHXZ 000000014000514c f i libvcruntime:undname.obj
 0001:0000415c       ?doAllocationLanguage@UnDecorator@@SAHXZ 000000014000515c f i libvcruntime:undname.obj
 0001:0000416c       ?doAllocationModel@UnDecorator@@SAHXZ 000000014000516c f i libvcruntime:undname.obj
 0001:0000417c       ?doEcsu@UnDecorator@@SAHXZ 000000014000517c f i libvcruntime:undname.obj
 0001:0000418c       ?doEllipsis@UnDecorator@@SAHXZ 000000014000518c f i libvcruntime:undname.obj
 0001:0000419c       ?doFunctionReturns@UnDecorator@@SAHXZ 000000014000519c f i libvcruntime:undname.obj
 0001:000041ac       ?doMSKeywords@UnDecorator@@SAHXZ 00000001400051ac f i libvcruntime:undname.obj
 0001:000041bc       ?doMemberTypes@UnDecorator@@SAHXZ 00000001400051bc f i libvcruntime:undname.obj
 0001:000041cc       ?doNameOnly@UnDecorator@@SAHXZ 00000001400051cc f i libvcruntime:undname.obj
 0001:000041d8       ?doNoIdentCharCheck@UnDecorator@@SAHXZ 00000001400051d8 f i libvcruntime:undname.obj
 0001:000041e4       ?doPchar@DName@@AEAAXD@Z   00000001400051e4 f   libvcruntime:undname.obj
 0001:00004234       ?doPtr64@UnDecorator@@SAHXZ 0000000140005234 f i libvcruntime:undname.obj
 0001:00004244       ?doRestrictionSpec@UnDecorator@@SAHXZ 0000000140005244 f i libvcruntime:undname.obj
 0001:00004254       ?doThisTypes@UnDecorator@@SAHXZ 0000000140005254 f i libvcruntime:undname.obj
 0001:00004268       ?doThrowTypes@UnDecorator@@SAHXZ 0000000140005268 f i libvcruntime:undname.obj
 0001:00004278       ?doTypeOnly@UnDecorator@@SAHXZ 0000000140005278 f i libvcruntime:undname.obj
 0001:00004284       ?doUnderScore@UnDecorator@@SAHXZ 0000000140005284 f i libvcruntime:undname.obj
 0001:00004290       ?getAddressOf@UnDecorator@@CA?AVDName@@XZ 0000000140005290 f   libvcruntime:undname.obj
 0001:00004320       ?getArgumentList@UnDecorator@@CA?AVDName@@XZ 0000000140005320 f   libvcruntime:undname.obj
 0001:000044d4       ?getArgumentTypes@UnDecorator@@CA?AVDName@@XZ 00000001400054d4 f   libvcruntime:undname.obj
 0001:00004620       ?getArrayAccess@UnDecorator@@CA?AVDName@@XZ 0000000140005620 f   libvcruntime:undname.obj
 0001:000046bc       ?getArrayObject@UnDecorator@@CA?AVDName@@XZ 00000001400056bc f   libvcruntime:undname.obj
 0001:00004778       ?getArrayType@UnDecorator@@CA?AVDName@@AEBV2@@Z 0000000140005778 f i libvcruntime:undname.obj
 0001:000049e4       ?getBasedType@UnDecorator@@CA?AVDName@@XZ 00000001400059e4 f   libvcruntime:undname.obj
 0001:00004adc       ?getBasicDataType@UnDecorator@@CA?AVDName@@AEBV2@@Z 0000000140005adc f   libvcruntime:undname.obj
 0001:000050e0       ?getCHPEName@UnDecorator@@QEAAPEADPEADH@Z 00000001400060e0 f i libvcruntime:undname.obj
 0001:00005200       ?getCallIndex@UnDecorator@@CA?AVDName@@XZ 0000000140006200 f i libvcruntime:undname.obj
 0001:0000521c       ?getCallingConvention@UnDecorator@@CA?AVDName@@XZ 000000014000621c f   libvcruntime:undname.obj
 0001:00005354       ?getDataIndirectType@UnDecorator@@CA?AVDName@@AEBV2@W4IndirectionKind@@0H@Z 0000000140006354 f   libvcruntime:undname.obj
 0001:00005c78       ?getDataIndirectType@UnDecorator@@CA?AVDName@@XZ 0000000140006c78 f i libvcruntime:undname.obj
 0001:00005cb4       ?getDataType@UnDecorator@@CA?AVDName@@PEAV2@@Z 0000000140006cb4 f   libvcruntime:undname.obj
 0001:00005dc8       ?getDecoratedName@UnDecorator@@CA?AVDName@@XZ 0000000140006dc8 f   libvcruntime:undname.obj
 0001:000060b0       ?getDimension@UnDecorator@@CA?AVDName@@_N@Z 00000001400070b0 f   libvcruntime:undname.obj
 0001:000061f8       ?getDispatchTarget@UnDecorator@@CA?AVDName@@XZ 00000001400071f8 f   libvcruntime:undname.obj
 0001:00006258       ?getDisplacement@UnDecorator@@CA?AVDName@@XZ 0000000140007258 f i libvcruntime:undname.obj
 0001:00006274       ?getECSUDataType@UnDecorator@@CA?AVDName@@XZ 0000000140007274 f   libvcruntime:undname.obj
 0001:00006470       ?getECSUName@UnDecorator@@CA?AVDName@@XZ 0000000140007470 f i libvcruntime:undname.obj
 0001:00006488       ?getEnumType@UnDecorator@@CA?AVDName@@XZ 0000000140007488 f i libvcruntime:undname.obj
 0001:000065b8       ?getExtendedDataIndirectType@UnDecorator@@CA?AVDName@@AEAW4IndirectionKind@@AEA_NH@Z 00000001400075b8 f   libvcruntime:undname.obj
 0001:000067bc       ?getExternalDataType@UnDecorator@@CA?AVDName@@AEBV2@@Z 00000001400077bc f i libvcruntime:undname.obj
 0001:0000687c       ?getFloatingPoint@UnDecorator@@CA?AVDName@@H@Z 000000014000787c f   libvcruntime:undname.obj
 0001:000069e4       ?getFunctionIndirectType@UnDecorator@@CA?AVDName@@AEBV2@@Z 00000001400079e4 f   libvcruntime:undname.obj
 0001:00006f18       ?getGuardNumber@UnDecorator@@CA?AVDName@@XZ 0000000140007f18 f i libvcruntime:undname.obj
 0001:00006f34       ?getLastChar@DName@@QEBADXZ 0000000140007f34 f i libvcruntime:undname.obj
 0001:00006f50       ?getLastChar@DNameStatusNode@@UEBADXZ 0000000140007f50 f i libvcruntime:undname.obj
 0001:00006f5c       ?getLastChar@charNode@@UEBADXZ 0000000140007f5c f i libvcruntime:undname.obj
 0001:00006f60       ?getLastChar@pDNameNode@@UEBADXZ 0000000140007f60 f i libvcruntime:undname.obj
 0001:00006f8c       ?getLastChar@pairNode@@UEBADXZ 0000000140007f8c f i libvcruntime:undname.obj
 0001:00006fc4       ?getLastChar@pcharNode@@UEBADXZ 0000000140007fc4 f i libvcruntime:undname.obj
 0001:00006fd8       ?getLexicalFrame@UnDecorator@@CA?AVDName@@XZ 0000000140007fd8 f i libvcruntime:undname.obj
 0001:0000703c       ?getMemberAccess@UnDecorator@@CA?AVDName@@XZ 000000014000803c f   libvcruntime:undname.obj
 0001:000070d0       ?getMemoryWithBuffer@_HeapManager@@QEAAPEAX_K@Z 00000001400080d0 f   libvcruntime:undname.obj
 0001:00007160       ?getMemoryWithoutBuffer@_HeapManager@@QEAAPEAX_K@Z 0000000140008160 f   libvcruntime:undname.obj
 0001:00007174       ?getNoexcept@UnDecorator@@CA?AVDName@@XZ 0000000140008174 f   libvcruntime:undname.obj
 0001:000071d8       ?getNumberOfDimensions@UnDecorator@@CAHXZ 00000001400081d8 f   libvcruntime:undname.obj
 0001:00007240       ?getOperatorName@UnDecorator@@CA?AVDName@@_NPEA_N@Z 0000000140008240 f i libvcruntime:undname.obj
 0001:00007bf0       ?getPointerToMember@UnDecorator@@CA?AVDName@@XZ 0000000140008bf0 f   libvcruntime:undname.obj
 0001:00007ce8       ?getPointerType@UnDecorator@@CA?AVDName@@AEBV2@0@Z 0000000140008ce8 f i libvcruntime:undname.obj
 0001:00007d08       ?getPointerTypeArray@UnDecorator@@CA?AVDName@@AEBV2@0@Z 0000000140008d08 f i libvcruntime:undname.obj
 0001:00007d24       ?getPrimaryDataType@UnDecorator@@CA?AVDName@@AEBV2@@Z 0000000140008d24 f   libvcruntime:undname.obj
 0001:00007fdc       ?getPtrRefDataType@UnDecorator@@CA?AVDName@@AEBV2@H@Z 0000000140008fdc f   libvcruntime:undname.obj
 0001:000081a8       ?getPtrRefType@UnDecorator@@CA?AVDName@@AEBV2@0W4IndirectionKind@@@Z 00000001400091a8 f   libvcruntime:undname.obj
 0001:00008380       ?getReferenceType@UnDecorator@@CA?AVDName@@AEBV2@0W4IndirectionKind@@@Z 0000000140009380 f i libvcruntime:undname.obj
 0001:00008398       ?getRestrictionSpec@UnDecorator@@CA?AVDName@@XZ 0000000140009398 f   libvcruntime:undname.obj
 0001:00008574       ?getReturnType@UnDecorator@@CA?AVDName@@PEAV2@@Z 0000000140009574 f   libvcruntime:undname.obj
 0001:000085a8       ?getScope@UnDecorator@@CA?AVDName@@XZ 00000001400095a8 f   libvcruntime:undname.obj
 0001:00008a60       ?getScopedName@UnDecorator@@CA?AVDName@@XZ 0000000140009a60 f   libvcruntime:undname.obj
 0001:00008ba0       ?getSignedDimension@UnDecorator@@CA?AVDName@@XZ 0000000140009ba0 f   libvcruntime:undname.obj
 0001:00008c28       ?getStorageConvention@UnDecorator@@CA?AVDName@@XZ 0000000140009c28 f i libvcruntime:undname.obj
 0001:00008c64       ?getString@DName@@QEBAPEADPEAD0@Z 0000000140009c64 f i libvcruntime:undname.obj
 0001:00008c80       ?getString@DName@@QEBAPEADPEADH@Z 0000000140009c80 f i libvcruntime:undname.obj
 0001:00008d14       ?getString@DNameStatusNode@@UEBAPEADPEAD0@Z 0000000140009d14 f i libvcruntime:undname.obj
 0001:00008d5c       ?getString@charNode@@UEBAPEADPEAD0@Z 0000000140009d5c f i libvcruntime:undname.obj
 0001:00008d70       ?getString@pDNameNode@@UEBAPEADPEAD0@Z 0000000140009d70 f i libvcruntime:undname.obj
 0001:00008da0       ?getString@pairNode@@UEBAPEADPEAD0@Z 0000000140009da0 f i libvcruntime:undname.obj
 0001:00008dec       ?getString@pcharNode@@UEBAPEADPEAD0@Z 0000000140009dec f i libvcruntime:undname.obj
 0001:00008e24       ?getStringEncoding@UnDecorator@@CA?AVDName@@W4PrefixKind@@H@Z 0000000140009e24 f   libvcruntime:undname.obj
 0001:00008f34       ?getStringHelper@@YAPEADPEADPEBD1H@Z 0000000140009f34 f i libvcruntime:undname.obj
 0001:00008f64       ?getStringObject@UnDecorator@@CA?AVDName@@XZ 0000000140009f64 f   libvcruntime:undname.obj
 0001:00008fcc       ?getSymbolName@UnDecorator@@CA?AVDName@@XZ 0000000140009fcc f i libvcruntime:undname.obj
 0001:00009018       ?getTemplateArgumentList@UnDecorator@@CA?AVDName@@XZ 000000014000a018 f   libvcruntime:undname.obj
 0001:00009234       ?getTemplateName@UnDecorator@@CA?AVDName@@_N@Z 000000014000a234 f   libvcruntime:undname.obj
 0001:000094c8       ?getTemplateNonTypeArgument@UnDecorator@@CA?AVDName@@XZ 000000014000a4c8 f   libvcruntime:undname.obj
 0001:00009a18       ?getTemplateTypeArgument@UnDecorator@@CA?AVDName@@XZ 000000014000aa18 f   libvcruntime:undname.obj
 0001:00009b80       ?getThisType@UnDecorator@@CA?AVDName@@XZ 000000014000ab80 f i libvcruntime:undname.obj
 0001:00009bc0       ?getThrowTypes@UnDecorator@@CA?AVDName@@XZ 000000014000abc0 f   libvcruntime:undname.obj
 0001:00009be4       ?getTypeEncoding@UnDecorator@@CAHXZ 000000014000abe4 f i libvcruntime:undname.obj
 0001:00009fa0       ?getUndecoratedName@UnDecorator@@QEAAPEADPEADH@Z 000000014000afa0 f i libvcruntime:undname.obj
 0001:0000a0f4       ?getUnionObject@UnDecorator@@CA?AVDName@@XZ 000000014000b0f4 f   libvcruntime:undname.obj
 0001:0000a1cc       ?getVCallThunkType@UnDecorator@@CA?AVDName@@XZ 000000014000b1cc f i libvcruntime:undname.obj
 0001:0000a244       ?getValue@UnDecorator@@CA?AV?$optional@_K@std@@XZ 000000014000b244 f   libvcruntime:undname.obj
 0001:0000a294       ?getValueObject@UnDecorator@@CA?AVDName@@XZ 000000014000b294 f   libvcruntime:undname.obj
 0001:0000a3d4       ?getVbTableType@UnDecorator@@CA?AVDName@@AEBV2@@Z 000000014000b3d4 f i libvcruntime:undname.obj
 0001:0000a3ec       ?getVdispMapType@UnDecorator@@CA?AVDName@@AEBV2@@Z 000000014000b3ec f i libvcruntime:undname.obj
 0001:0000a468       ?getVfTableType@UnDecorator@@CA?AVDName@@AEBV2@@Z 000000014000b468 f i libvcruntime:undname.obj
 0001:0000a674       ?getZName@UnDecorator@@CA?AVDName@@_N0@Z 000000014000b674 f   libvcruntime:undname.obj
 0001:0000a948       ?get_current_character_and_increment_buffer@UnDecorator@@CADXZ 000000014000b948 f i libvcruntime:undname.obj
 0001:0000a960       ?haveTemplateParameters@UnDecorator@@SAHXZ 000000014000b960 f i libvcruntime:undname.obj
 0001:0000a96c       ?increment_buffer@UnDecorator@@CA_N_K@Z 000000014000b96c f i libvcruntime:undname.obj
 0001:0000a998       ?increment_buffer_no_check@UnDecorator@@CAXXZ 000000014000b998 f i libvcruntime:undname.obj
 0001:0000a9a0       ?increment_buffer_no_check@UnDecorator@@CAX_K@Z 000000014000b9a0 f i libvcruntime:undname.obj
 0001:0000a9a8       ?isArray@DName@@QEBAHXZ    000000014000b9a8 f i libvcruntime:undname.obj
 0001:0000a9b4       ?isComArray@DName@@QEBAHXZ 000000014000b9b4 f i libvcruntime:undname.obj
 0001:0000a9c0       ?isEmpty@DName@@QEBAHXZ    000000014000b9c0 f i libvcruntime:undname.obj
 0001:0000a9cc       ?isFull@Replicator@@QEBAHXZ 000000014000b9cc f i libvcruntime:undname.obj
 0001:0000a9d8       ?isNoTE@DName@@QEBAHXZ     000000014000b9d8 f i libvcruntime:undname.obj
 0001:0000a9e4       ?isPinPtr@DName@@QEBAHXZ   000000014000b9e4 f i libvcruntime:undname.obj
 0001:0000a9f0       ?isPtrRef@DName@@QEBAHXZ   000000014000b9f0 f i libvcruntime:undname.obj
 0001:0000a9fc       ?isUDC@DName@@QEBAHXZ      000000014000b9fc f i libvcruntime:undname.obj
 0001:0000aa14       ?isUDTThunk@DName@@QEBAHXZ 000000014000ba14 f i libvcruntime:undname.obj
 0001:0000aa2c       ?isVCallThunk@DName@@QEBAHXZ 000000014000ba2c f i libvcruntime:undname.obj
 0001:0000aa38       ?isValid@DName@@QEBAHXZ    000000014000ba38 f i libvcruntime:undname.obj
 0001:0000aa44       ?length@DName@@QEBAHXZ     000000014000ba44 f i libvcruntime:undname.obj
 0001:0000aa5c       ?length@DNameStatusNode@@UEBAHXZ 000000014000ba5c f i libvcruntime:undname.obj
 0001:0000aa60       ?length@charNode@@UEBAHXZ  000000014000ba60 f i libvcruntime:undname.obj
 0001:0000aa68       ?length@pDNameNode@@UEBAHXZ 000000014000ba68 f i libvcruntime:undname.obj
 0001:0000aa90       ?length@pairNode@@UEBAHXZ  000000014000ba90 f i libvcruntime:undname.obj
 0001:0000aad8       ?length@pcharNode@@UEBAHXZ 000000014000bad8 f i libvcruntime:undname.obj
 0001:0000aadc       ?make@DNameStatusNode@@SAPEBV1@W4DNameStatus@@@Z 000000014000badc f i libvcruntime:undname.obj
 0001:0000aafc       ?parseDecoratedName@UnDecorator@@CA?AVDName@@XZ 000000014000bafc f   libvcruntime:undname.obj
 0001:0000ac14       ?raw_length@DNameStatusNode@@UEBAHXZ 000000014000bc14 f i libvcruntime:undname.obj
 0001:0000ac18       ?raw_length@charNode@@UEBAHXZ 000000014000bc18 f i libvcruntime:undname.obj
 0001:0000ac20       ?raw_length@pDNameNode@@UEBAHXZ 000000014000bc20 f i libvcruntime:undname.obj
 0001:0000ac24       ?raw_length@pairNode@@UEBAHXZ 000000014000bc24 f i libvcruntime:undname.obj
 0001:0000ac28       ?raw_length@pcharNode@@UEBAHXZ 000000014000bc28 f i libvcruntime:undname.obj
 0001:0000ac2c       ?setIsArray@DName@@QEAAXXZ 000000014000bc2c f i libvcruntime:undname.obj
 0001:0000ac34       ?setIsComArray@DName@@QEAAXXZ 000000014000bc34 f i libvcruntime:undname.obj
 0001:0000ac3c       ?setIsNoTE@DName@@QEAAXXZ  000000014000bc3c f i libvcruntime:undname.obj
 0001:0000ac44       ?setIsPinPtr@DName@@QEAAXXZ 000000014000bc44 f i libvcruntime:undname.obj
 0001:0000ac4c       ?setIsUDC@DName@@QEAAXXZ   000000014000bc4c f i libvcruntime:undname.obj
 0001:0000ac58       ?setIsVCallThunk@DName@@QEAAXXZ 000000014000bc58 f i libvcruntime:undname.obj
 0001:0000ac60       ?setPtrRef@DName@@QEAAAEAV1@XZ 000000014000bc60 f i libvcruntime:undname.obj
 0001:0000ac6c       ?status@DName@@QEBA?AW4DNameStatus@@XZ 000000014000bc6c f i libvcruntime:undname.obj
 0001:0000acd0       __unDName                  000000014000bcd0 f   libvcruntime:undname.obj
 0001:0000acf8       __unDNameEx                000000014000bcf8 f   libvcruntime:undname.obj
 0001:0000ae2c       _vsprintf_s_l              000000014000be2c f i libvcruntime:undname.obj
 0001:0000ae90       snprintf                   000000014000be90 f i libvcruntime:undname.obj
 0001:0000aee8       sprintf_s                  000000014000bee8 f i libvcruntime:undname.obj
 0001:0000af3c       unDNameGenerateCHPE        000000014000bf3c f   libvcruntime:undname.obj
 0001:0000b044       vsnprintf                  000000014000c044 f i libvcruntime:undname.obj
 0001:0000b0a8       ??$__crt_interlocked_exchange_pointer@UHINSTANCE__@@PEAU1@@@YAPEAUHINSTANCE__@@PEDSEAU0@QEAU0@@Z 000000014000c0a8 f i libvcruntime:winapi_downlevel.obj
 0001:0000b0b0       ??$__crt_interlocked_exchange_pointer@UHINSTANCE__@@PEAX@@YAPEAUHINSTANCE__@@PEDSEAU0@QEAX@Z 000000014000c0b0 f i libvcruntime:winapi_downlevel.obj
 0001:0000b0b8       ??$__crt_interlocked_exchange_pointer@XPEAX@@YAPEAXPEDSEAXQEAX@Z 000000014000c0b8 f i libvcruntime:winapi_downlevel.obj
 0001:0000b0c0       ??$__crt_interlocked_read_pointer@UHINSTANCE__@@@@YAPEAUHINSTANCE__@@PEDSEAU0@@Z 000000014000c0c0 f i libvcruntime:winapi_downlevel.obj
 0001:0000b0c8       ??$__crt_interlocked_read_pointer@X@@YAPEAXPEDSEAX@Z 000000014000c0c8 f i libvcruntime:winapi_downlevel.obj
 0001:0000b608       __vcrt_FlsAlloc            000000014000c608 f   libvcruntime:winapi_downlevel.obj
 0001:0000b650       __vcrt_FlsFree             000000014000c650 f   libvcruntime:winapi_downlevel.obj
 0001:0000b698       __vcrt_FlsGetValue         000000014000c698 f   libvcruntime:winapi_downlevel.obj
 0001:0000b6e0       __vcrt_FlsSetValue         000000014000c6e0 f   libvcruntime:winapi_downlevel.obj
 0001:0000b734       __vcrt_InitializeCriticalSectionEx 000000014000c734 f   libvcruntime:winapi_downlevel.obj
 0001:0000b798       ??$__crt_interlocked_exchange_pointer@$$A6AXXZP6AXXZ@@YAP6AXXZPEDS6AXXZQ6AXXZ@Z 000000014000c798 f i libvcruntime:purevirt.obj
 0001:0000b7a0       ??$__crt_interlocked_read_pointer@$$A6AXXZ@@YAP6AXXZPEDS6AXXZ@Z 000000014000c7a0 f i libvcruntime:purevirt.obj
 0001:0000b7a8       _get_purecall_handler      000000014000c7a8 f   libvcruntime:purevirt.obj
 0001:0000b7b4       _purecall                  000000014000c7b4 f   libvcruntime:purevirt.obj
 0001:0000b7d0       _set_purecall_handler      000000014000c7d0 f   libvcruntime:purevirt.obj
 0001:0000b7dc       ??$?0AEAViterator@TryBlockMap4@FH4@@AEAV012@$0A@@?$pair@Viterator@TryBlockMap4@FH4@@V123@@std@@QEAA@AEAViterator@TryBlockMap4@FH4@@0@Z 000000014000c7dc f i libvcruntime:risctrnsctrl.obj
 0001:0000b7f0       ??$?0AEAViterator@TryBlockMap@__FrameHandler3@@AEAV012@$0A@@?$pair@Viterator@TryBlockMap@__FrameHandler3@@V123@@std@@QEAA@AEAViterator@TryBlockMap@__FrameHandler3@@0@Z 000000014000c7f0 f i libvcruntime:risctrnsctrl.obj
 0001:0000b974       ??$_CallSETranslator@V__FrameHandler3@@@@YAHPEAUEHExceptionRecord@@PEA_KPEAU_CONTEXT@@PEAU_xDISPATCHER_CONTEXT@@PEBU_s_FuncInfo@@K1H@Z 000000014000c974 f i libvcruntime:risctrnsctrl.obj
 0001:0000b9c8       ??$_CallSETranslator@V__FrameHandler4@@@@YAHPEAUEHExceptionRecord@@PEA_KPEAU_CONTEXT@@PEAU_xDISPATCHER_CONTEXT@@PEAUFuncInfo4@FH4@@K1H@Z 000000014000c9c8 f i libvcruntime:risctrnsctrl.obj
 0001:0000ba1c       ??$forward@AEAViterator@TryBlockMap4@FH4@@@std@@YAAEAViterator@TryBlockMap4@FH4@@AEAV123@@Z 000000014000ca1c f i libvcruntime:risctrnsctrl.obj
 0001:0000ba20       ??$forward@AEAViterator@TryBlockMap@__FrameHandler3@@@std@@YAAEAViterator@TryBlockMap@__FrameHandler3@@AEAV123@@Z 000000014000ca20 f i libvcruntime:risctrnsctrl.obj
 0001:0000ba24       ??0FuncInfo4@FH4@@QEAA@XZ  000000014000ca24 f i libvcruntime:risctrnsctrl.obj
 0001:0000ba38       ??0FuncInfoHeader@FH4@@QEAA@XZ 000000014000ca38 f i libvcruntime:risctrnsctrl.obj
 0001:0000ba40       ??0iterator@TryBlockMap4@FH4@@QEAA@AEAV12@I@Z 000000014000ca40 f i libvcruntime:risctrnsctrl.obj
 0001:0000ba4c       ??0iterator@TryBlockMap@__FrameHandler3@@QEAA@AEAV12@I@Z 000000014000ca4c f i libvcruntime:risctrnsctrl.obj
 0001:0000ba58       ??4iterator@TryBlockMap4@FH4@@QEAAAEAV012@AEBV012@@Z 000000014000ca58 f i libvcruntime:risctrnsctrl.obj
 0001:0000ba64       ??9iterator@TryBlockMap4@FH4@@QEBA_NAEBV012@@Z 000000014000ca64 f i libvcruntime:risctrnsctrl.obj
 0001:0000ba70       ??Diterator@TryBlockMap4@FH4@@QEAA?AUTryBlockMapEntry4@2@XZ 000000014000ca70 f i libvcruntime:risctrnsctrl.obj
 0001:0000ba80       ??Eiterator@TryBlockMap4@FH4@@QEAAAEAV012@XZ 000000014000ca80 f i libvcruntime:risctrnsctrl.obj
 0001:0000bb1c       ?CatchTryBlock@__FrameHandler3@@SAPEBU_s_TryBlockMapEntry@@PEBU_s_FuncInfo@@H@Z 000000014000cb1c f   libvcruntime:risctrnsctrl.obj
 0001:0000bb80       ?DecompFuncInfo@FH4@@YA_JPEAEAEAUFuncInfo4@1@_KH@Z 000000014000cb80 f i libvcruntime:risctrnsctrl.obj
 0001:0000bb94       ?DecompFuncInfo@FH4@@YA_JPEAEAEAUFuncInfo4@1@_KH_N@Z 000000014000cb94 f i libvcruntime:risctrnsctrl.obj
 0001:0000bcc8       ?DecompTryBlock@TryBlockMap4@FH4@@AEAAXXZ 000000014000ccc8 f i libvcruntime:risctrnsctrl.obj
 0001:0000bd5c       ?ExecutionInCatch@__FrameHandler3@@SA_NPEAU_xDISPATCHER_CONTEXT@@PEBU_s_FuncInfo@@@Z 000000014000cd5c f   libvcruntime:risctrnsctrl.obj
 0001:0000bd88       ?ExecutionInCatch@__FrameHandler4@@SA_NPEAU_xDISPATCHER_CONTEXT@@PEAUFuncInfo4@FH4@@@Z 000000014000cd88 f   libvcruntime:risctrnsctrl.obj
 0001:0000bd90       ?FrameUnwindToEmptyState@__FrameHandler3@@SAXPEA_KPEAU_xDISPATCHER_CONTEXT@@PEBU_s_FuncInfo@@@Z 000000014000cd90 f   libvcruntime:risctrnsctrl.obj
 0001:0000bdf4       ?FrameUnwindToEmptyState@__FrameHandler4@@SAXPEA_KPEAU_xDISPATCHER_CONTEXT@@PEAUFuncInfo4@FH4@@@Z 000000014000cdf4 f   libvcruntime:risctrnsctrl.obj
 0001:0000be28       ?GetEstablisherFrame@__FrameHandler3@@SAPEA_KPEA_KPEAU_xDISPATCHER_CONTEXT@@PEBU_s_FuncInfo@@0@Z 000000014000ce28 f   libvcruntime:risctrnsctrl.obj
 0001:0000bef4       ?GetEstablisherFrame@__FrameHandler4@@SAPEA_KPEA_KPEAU_xDISPATCHER_CONTEXT@@PEAUFuncInfo4@FH4@@0@Z 000000014000cef4 f   libvcruntime:risctrnsctrl.obj
 0001:0000bf18       ?GetRangeOfTrysToCheck@__FrameHandler3@@SA?AU?$pair@Viterator@TryBlockMap@__FrameHandler3@@V123@@std@@AEAVTryBlockMap@1@HPEAU_xDISPATCHER_CONTEXT@@PEBU_s_FuncInfo@@H@Z 000000014000cf18 f   libvcruntime:risctrnsctrl.obj
 0001:0000c058       ?GetRangeOfTrysToCheck@__FrameHandler4@@SA?AU?$pair@Viterator@TryBlockMap4@FH4@@V123@@std@@AEAVTryBlockMap4@FH4@@HPEAU_xDISPATCHER_CONTEXT@@PEAUFuncInfo4@5@H@Z 000000014000d058 f   libvcruntime:risctrnsctrl.obj
 0001:0000c1c4       ?ReadInt@FH4@@YAHPEAPEAE@Z 000000014000d1c4 f i libvcruntime:risctrnsctrl.obj
 0001:0000c1d4       ?ReadUnsigned@FH4@@YAIPEAPEAE@Z 000000014000d1d4 f i libvcruntime:risctrnsctrl.obj
 0001:0000c204       ?UnwindNestedFrames@__FrameHandler3@@SAXPEA_KPEAUEHExceptionRecord@@PEAU_CONTEXT@@0PEAXPEBU_s_FuncInfo@@HHPEBU_s_HandlerType@@PEAU_xDISPATCHER_CONTEXT@@E@Z 000000014000d204 f   libvcruntime:risctrnsctrl.obj
 0001:0000c308       ?UnwindNestedFrames@__FrameHandler4@@SAXPEA_KPEAUEHExceptionRecord@@PEAU_CONTEXT@@0PEAXPEAUFuncInfo4@FH4@@HHPEAUHandlerType4@5@PEAU_xDISPATCHER_CONTEXT@@E@Z 000000014000d308 f   libvcruntime:risctrnsctrl.obj
 0001:0000c428       ?begin@TryBlockMap4@FH4@@QEAA?AViterator@12@XZ 000000014000d428 f i libvcruntime:risctrnsctrl.obj
 0001:0000c434       ?end@TryBlockMap4@FH4@@QEAA?AViterator@12@XZ 000000014000d434 f i libvcruntime:risctrnsctrl.obj
 0001:0000c440       ?imageRelToByteBuffer@FH4@@YAPEAE_KH@Z 000000014000d440 f i libvcruntime:risctrnsctrl.obj
 0001:0000c448       ?incrementToSentinel@iterator@TryBlockMap4@FH4@@QEAAXXZ 000000014000d448 f i libvcruntime:risctrnsctrl.obj
 0001:0000c44c       ?setBuffer@TryBlockMap4@FH4@@QEAAXViterator@12@@Z 000000014000d44c f i libvcruntime:risctrnsctrl.obj
 0001:0000c610       _CreateFrameInfo           000000014000d610 f   libvcruntime:risctrnsctrl.obj
 0001:0000c64c       _FindAndUnlinkFrame        000000014000d64c f   libvcruntime:risctrnsctrl.obj
 0001:0000c6a0       _GetImageBase              000000014000d6a0 f   libvcruntime:risctrnsctrl.obj
 0001:0000c6b4       _GetThrowImageBase         000000014000d6b4 f   libvcruntime:risctrnsctrl.obj
 0001:0000c6c8       _SetImageBase              000000014000d6c8 f   libvcruntime:risctrnsctrl.obj
 0001:0000c6e0       _SetThrowImageBase         000000014000d6e0 f   libvcruntime:risctrnsctrl.obj
 0001:0000c6f8       __CxxFrameHandler          000000014000d6f8 f   libvcruntime:risctrnsctrl.obj
 0001:0000c700       __CxxFrameHandler2         000000014000d700 f   libvcruntime:risctrnsctrl.obj
 0001:0000c708       __CxxFrameHandler3         000000014000d708 f   libvcruntime:risctrnsctrl.obj
 0001:0000c790       __CxxFrameHandler4         000000014000d790 f   libvcruntime:risctrnsctrl.obj
 0001:0000c860       memcpy_repmovs             000000014000d860 f   libvcruntime:memcpy.obj
 0001:0000c880       memcpy                     000000014000d880 f   libvcruntime:memcpy.obj
 0001:0000c880       memmove                    000000014000d880 f   libvcruntime:memcpy.obj
 0001:0000cef8       ?GetCurrentState@__FrameHandler3@@SAHPEA_KPEAU_xDISPATCHER_CONTEXT@@PEBU_s_FuncInfo@@@Z 000000014000def8 f   libvcruntime:ehstate.obj
 0001:0000cf20       ?GetUnwindTryBlock@__FrameHandler3@@SAHPEA_KPEAU_xDISPATCHER_CONTEXT@@PEBU_s_FuncInfo@@@Z 000000014000df20 f   libvcruntime:ehstate.obj
 0001:0000cf4c       ?SetState@__FrameHandler3@@SAXPEA_KPEBU_s_FuncInfo@@H@Z 000000014000df4c f   libvcruntime:ehstate.obj
 0001:0000cf58       ?SetUnwindTryBlock@__FrameHandler3@@SAXPEA_KPEAU_xDISPATCHER_CONTEXT@@PEBU_s_FuncInfo@@H@Z 000000014000df58 f   libvcruntime:ehstate.obj
 0001:0000cf94       ?StateFromControlPc@__FrameHandler3@@SAHPEBU_s_FuncInfo@@PEAU_xDISPATCHER_CONTEXT@@@Z 000000014000df94 f   libvcruntime:ehstate.obj
 0001:0000cf9c       ?StateFromControlPc@__FrameHandler4@@SAHPEAUFuncInfo4@FH4@@PEAU_xDISPATCHER_CONTEXT@@@Z 000000014000df9c f   libvcruntime:ehstate.obj
 0001:0000cfa4       ?StateFromIp@__FrameHandler3@@SAHPEBU_s_FuncInfo@@PEAU_xDISPATCHER_CONTEXT@@_K@Z 000000014000dfa4 f   libvcruntime:ehstate.obj
 0001:0000d00c       ?StateFromIp@__FrameHandler4@@SAHPEAUFuncInfo4@FH4@@PEAU_xDISPATCHER_CONTEXT@@_K@Z 000000014000e00c f   libvcruntime:ehstate.obj
 0001:0000d0fc       ?__FuncRelToRealOffset@@YA_KPEAU_xDISPATCHER_CONTEXT@@I@Z 000000014000e0fc f i libvcruntime:ehstate.obj
 0001:0000d10c       ?__RVAtoRealOffset@@YA_KPEAU_xDISPATCHER_CONTEXT@@H@Z 000000014000e10c f i libvcruntime:ehstate.obj
 0001:0000e728       ??$TypeMatchHelper@V__FrameHandler3@@@@YAHPEBU_s_HandlerType@@PEBU_s_CatchableType@@PEBU_s_ThrowInfo@@@Z 000000014000f728 f i libvcruntime:frame.obj
 0001:0000e868       ??$TypeMatchHelper@V__FrameHandler4@@@@YAHPEAUHandlerType4@FH4@@PEBU_s_CatchableType@@PEBU_s_ThrowInfo@@@Z 000000014000f868 f i libvcruntime:frame.obj
 0001:0000e9ac       ??$__InternalCxxFrameHandler@V__FrameHandler3@@@@YA?AW4_EXCEPTION_DISPOSITION@@PEAUEHExceptionRecord@@PEA_KPEAU_CONTEXT@@PEAU_xDISPATCHER_CONTEXT@@PEBU_s_FuncInfo@@H1E@Z 000000014000f9ac f i libvcruntime:frame.obj
 0001:0000ebe4       ??$__InternalCxxFrameHandler@V__FrameHandler4@@@@YA?AW4_EXCEPTION_DISPOSITION@@PEAUEHExceptionRecord@@PEA_KPEAU_CONTEXT@@PEAU_xDISPATCHER_CONTEXT@@PEAUFuncInfo4@FH4@@H1E@Z 000000014000fbe4 f i libvcruntime:frame.obj
 0001:0000ee78       ??$__InternalCxxFrameHandlerWrapper@V__FrameHandler3@@@@YA?AW4_EXCEPTION_DISPOSITION@@PEAUEHExceptionRecord@@PEA_KPEAU_CONTEXT@@PEAU_xDISPATCHER_CONTEXT@@PEBU_s_FuncInfo@@H1E@Z 000000014000fe78 f i libvcruntime:frame.obj
 0001:0000ee80       ??$__InternalCxxFrameHandlerWrapper@V__FrameHandler4@@@@YA?AW4_EXCEPTION_DISPOSITION@@PEAUEHExceptionRecord@@PEA_KPEAU_CONTEXT@@PEAU_xDISPATCHER_CONTEXT@@PEAUFuncInfo4@FH4@@H1E@Z 000000014000fe80 f i libvcruntime:frame.obj
 0001:0000eedc       ??0HandlerMap4@FH4@@QEAA@PEBUTryBlockMapEntry4@1@_KH@Z 000000014000fedc f i libvcruntime:frame.obj
 0001:0000ef58       ??0HandlerMap@__FrameHandler3@@QEAA@PEBU_s_TryBlockMapEntry@@_KI@Z 000000014000ff58 f i libvcruntime:frame.obj
 0001:0000ef6c       ??0HandlerType4@FH4@@QEAA@XZ 000000014000ff6c f i libvcruntime:frame.obj
 0001:0000ef84       ??0TryBlockMap4@FH4@@QEAA@PEBUFuncInfo4@1@_K@Z 000000014000ff84 f i libvcruntime:frame.obj
 0001:0000f05c       ??0TryBlockMap@__FrameHandler3@@QEAA@PEBU_s_FuncInfo@@_K@Z 000000014001005c f i libvcruntime:frame.obj
 0001:0000f068       ??0UWMap4@FH4@@QEAA@PEBUFuncInfo4@1@_K@Z 0000000140010068 f i libvcruntime:frame.obj
 0001:0000f0ac       ??0bad_exception@std@@QEAA@AEBV01@@Z 00000001400100ac f i libvcruntime:frame.obj
 0001:0000f0e8       ??0bad_exception@std@@QEAA@XZ 00000001400100e8 f i libvcruntime:frame.obj
 0001:0000f108       ??0exception@std@@QEAA@AEBV01@@Z 0000000140010108 f i libvcruntime:frame.obj
 0001:0000f13c       ??0exception@std@@QEAA@QEBDH@Z 000000014001013c f i libvcruntime:frame.obj
 0001:0000f154       ??0iterator@HandlerMap4@FH4@@QEAA@AEAV12@I@Z 0000000140010154 f i libvcruntime:frame.obj
 0001:0000f160       ??0iterator@HandlerMap@__FrameHandler3@@QEAA@AEAV12@I@Z 0000000140010160 f i libvcruntime:frame.obj
 0001:0000f16c       ??0iterator@UWMap4@FH4@@QEAA@AEAV12@PEAE@Z 000000014001016c f i libvcruntime:frame.obj
 0001:0000f178       ??1bad_exception@std@@UEAA@XZ 0000000140010178 f i libvcruntime:frame.obj
 0001:0000f18c       ??1exception@std@@UEAA@XZ  000000014001018c f i libvcruntime:frame.obj
 0001:0000f1a0       ??4iterator@UWMap4@FH4@@QEAAAEAV012@AEBV012@@Z 00000001400101a0 f i libvcruntime:frame.obj
 0001:0000f1c0       ??8iterator@HandlerMap4@FH4@@QEBA_NAEBV012@@Z 00000001400101c0 f i libvcruntime:frame.obj
 0001:0000f1cc       ??8iterator@HandlerMap@__FrameHandler3@@QEBA_NAEBV012@@Z 00000001400101cc f i libvcruntime:frame.obj
 0001:0000f1d8       ??8type_info@@QEBA_NAEBV0@@Z 00000001400101d8 f i libvcruntime:frame.obj
 0001:0000f1f4       ??9iterator@HandlerMap4@FH4@@QEBA_NAEBV012@@Z 00000001400101f4 f i libvcruntime:frame.obj
 0001:0000f200       ??9iterator@HandlerMap@__FrameHandler3@@QEBA_NAEBV012@@Z 0000000140010200 f i libvcruntime:frame.obj
 0001:0000f20c       ??Diterator@HandlerMap4@FH4@@QEAA?AUHandlerType4@2@XZ 000000014001020c f i libvcruntime:frame.obj
 0001:0000f22c       ??Diterator@HandlerMap@__FrameHandler3@@QEAA?BU_s_HandlerType@@XZ 000000014001022c f i libvcruntime:frame.obj
 0001:0000f250       ??Diterator@TryBlockMap@__FrameHandler3@@QEAA?BU_s_TryBlockMapEntry@@XZ 0000000140010250 f i libvcruntime:frame.obj
 0001:0000f280       ??Diterator@UWMap4@FH4@@QEAA?AUUnwindMapEntry4@2@XZ 0000000140010280 f i libvcruntime:frame.obj
 0001:0000f2d4       ??Eiterator@HandlerMap4@FH4@@QEAAAEAV012@XZ 00000001400102d4 f i libvcruntime:frame.obj
 0001:0000f2f4       ??Eiterator@HandlerMap@__FrameHandler3@@QEAAAEAV012@XZ 00000001400102f4 f i libvcruntime:frame.obj
 0001:0000f2fc       ??Eiterator@TryBlockMap@__FrameHandler3@@QEAAAEAV012@XZ 00000001400102fc f i libvcruntime:frame.obj
 0001:0000f304       ??Eiterator@UWMap4@FH4@@QEAAAEAV012@XZ 0000000140010304 f i libvcruntime:frame.obj
 0001:0000f324       ??Giterator@UWMap4@FH4@@QEBA_JAEBV012@@Z 0000000140010324 f i libvcruntime:frame.obj
 0001:0000f330       ??Miterator@TryBlockMap4@FH4@@QEBA_NAEBV012@@Z 0000000140010330 f i libvcruntime:frame.obj
 0001:0000f33c       ??Miterator@TryBlockMap@__FrameHandler3@@QEBA_NAEBV012@@Z 000000014001033c f i libvcruntime:frame.obj
 0001:0000f348       ??Oiterator@UWMap4@FH4@@QEBA_NAEBV012@@Z 0000000140010348 f i libvcruntime:frame.obj
 0001:0000f354       ??Piterator@UWMap4@FH4@@QEBA_NAEBV012@@Z 0000000140010354 f i libvcruntime:frame.obj
 0001:0000f360       ??_Ebad_exception@std@@UEAAPEAXI@Z 0000000140010360 f i libvcruntime:frame.obj
 0001:0000f360       ??_Gbad_exception@std@@UEAAPEAXI@Z 0000000140010360 f i libvcruntime:frame.obj
 0001:0000f3a4       ??_Eexception@std@@UEAAPEAXI@Z 00000001400103a4 f i libvcruntime:frame.obj
 0001:0000f3a4       ??_Gexception@std@@UEAAPEAXI@Z 00000001400103a4 f i libvcruntime:frame.obj
 0001:0000f3e8       ?BuildCatchObject@__FrameHandler3@@SAXPEAUEHExceptionRecord@@PEAXPEBU_s_HandlerType@@PEBU_s_CatchableType@@@Z 00000001400103e8 f   libvcruntime:frame.obj
 0001:0000f3f0       ?BuildCatchObject@__FrameHandler4@@SAXPEAUEHExceptionRecord@@PEAXPEAUHandlerType4@FH4@@PEBU_s_CatchableType@@@Z 00000001400103f0 f   libvcruntime:frame.obj
 0001:0000f3f8       ?BuildCatchObjectHelper@__FrameHandler3@@SAHPEAUEHExceptionRecord@@PEAXPEBU_s_HandlerType@@PEBU_s_CatchableType@@@Z 00000001400103f8 f   libvcruntime:frame.obj
 0001:0000f400       ?BuildCatchObjectHelper@__FrameHandler4@@SAHPEAUEHExceptionRecord@@PEAXPEAUHandlerType4@FH4@@PEBU_s_CatchableType@@@Z 0000000140010400 f   libvcruntime:frame.obj
 0001:0000f408       ?CxxCallCatchBlock@__FrameHandler3@@SAPEAXPEAU_EXCEPTION_RECORD@@@Z 0000000140010408 f   libvcruntime:frame.obj
 0001:0000f5f4       ?CxxCallCatchBlock@__FrameHandler4@@SAPEAXPEAU_EXCEPTION_RECORD@@@Z 00000001400105f4 f   libvcruntime:frame.obj
 0001:0000f844       ?DecompHandler@HandlerMap4@FH4@@AEAAXXZ 0000000140010844 f i libvcruntime:frame.obj
 0001:0000fa90       ?FrameUnwindToState@__FrameHandler3@@SAXPEA_KPEAU_xDISPATCHER_CONTEXT@@PEBU_s_FuncInfo@@H@Z 0000000140010a90 f   libvcruntime:frame.obj
 0001:0000fc1c       ?FrameUnwindToState@__FrameHandler4@@SAXPEA_KPEAU_xDISPATCHER_CONTEXT@@PEAUFuncInfo4@FH4@@H@Z 0000000140010c1c f   libvcruntime:frame.obj
 0001:0000ff18       ?GetHandlerSearchState@__FrameHandler3@@SAHPEA_KPEAU_xDISPATCHER_CONTEXT@@PEBU_s_FuncInfo@@@Z 0000000140010f18 f i libvcruntime:frame.obj
 0001:0000ffb0       ?GetHandlerSearchState@__FrameHandler4@@SAHPEA_KPEAU_xDISPATCHER_CONTEXT@@PEAUFuncInfo4@FH4@@@Z 0000000140010fb0 f i libvcruntime:frame.obj
 0001:00010014       ?GetMaxState@__FrameHandler3@@SAHPEAU_xDISPATCHER_CONTEXT@@PEBU_s_FuncInfo@@@Z 0000000140011014 f i libvcruntime:frame.obj
 0001:00010018       ?GetMaxState@__FrameHandler4@@SAHPEAU_xDISPATCHER_CONTEXT@@PEAUFuncInfo4@FH4@@@Z 0000000140011018 f i libvcruntime:frame.obj
 0001:000101c8       ?ReadEntry@UWMap4@FH4@@AEAAXPEAPEAE@Z 00000001400111c8 f i libvcruntime:frame.obj
 0001:00010264       ?TypeMatch@__FrameHandler3@@SAHPEBU_s_HandlerType@@PEBU_s_CatchableType@@PEBU_s_ThrowInfo@@@Z 0000000140011264 f   libvcruntime:frame.obj
 0001:0001026c       ?TypeMatch@__FrameHandler4@@SAHPEAUHandlerType4@FH4@@PEBU_s_CatchableType@@PEBU_s_ThrowInfo@@@Z 000000014001126c f   libvcruntime:frame.obj
 0001:00010274       ?WalkBack@UWMap4@FH4@@AEAAXPEAPEAE@Z 0000000140011274 f i libvcruntime:frame.obj
 0001:000102ac       ?WalkBack@iterator@UWMap4@FH4@@QEAAXXZ 00000001400112ac f i libvcruntime:frame.obj
 0001:000102ec       ?WalkForward@UWMap4@FH4@@AEAAXPEAPEAE@Z 00000001400112ec f i libvcruntime:frame.obj
 0001:000102f4       ?_CallMemberFunction1@@YAXQEAX00@Z 00000001400112f4 f i libvcruntime:frame.obj
 0001:00010300       ?_CallMemberFunction2@@YAXQEAX00H@Z 0000000140011300 f i libvcruntime:frame.obj
 0001:00010324       ?begin@HandlerMap4@FH4@@QEAA?AViterator@12@XZ 0000000140011324 f i libvcruntime:frame.obj
 0001:00010330       ?begin@HandlerMap@__FrameHandler3@@QEAA?AViterator@12@XZ 0000000140011330 f i libvcruntime:frame.obj
 0001:0001033c       ?begin@UWMap4@FH4@@QEAA?AViterator@12@XZ 000000014001133c f i libvcruntime:frame.obj
 0001:0001034c       ?end@HandlerMap4@FH4@@QEAA?AViterator@12@XZ 000000014001134c f i libvcruntime:frame.obj
 0001:00010358       ?end@HandlerMap@__FrameHandler3@@QEAA?AViterator@12@XZ 0000000140011358 f i libvcruntime:frame.obj
 0001:00010364       ?getESTypes@__FrameHandler3@@SAPEBU_s_ESTypeList@@PEBU_s_FuncInfo@@@Z 0000000140011364 f i libvcruntime:frame.obj
 0001:0001038c       ?getESTypes@__FrameHandler4@@SAPEBU_s_ESTypeList@@PEAUFuncInfo4@FH4@@@Z 000000014001138c f i libvcruntime:frame.obj
 0001:00010390       ?getLastEntry@HandlerMap4@FH4@@QEAAPEAUHandlerType4@2@XZ 0000000140011390 f i libvcruntime:frame.obj
 0001:000103e0       ?getLastEntry@HandlerMap@__FrameHandler3@@QEAAPEBU_s_HandlerType@@XZ 00000001400113e0 f i libvcruntime:frame.obj
 0001:000103f4       ?getMagicNum@__FrameHandler3@@SAIPEBU_s_FuncInfo@@@Z 00000001400113f4 f i libvcruntime:frame.obj
 0001:000103fc       ?getMagicNum@__FrameHandler4@@SAIPEAUFuncInfo4@FH4@@@Z 00000001400113fc f i libvcruntime:frame.obj
 0001:00010404       ?getNumTryBlocks@TryBlockMap4@FH4@@QEAAIXZ 0000000140011404 f i libvcruntime:frame.obj
 0001:00010408       ?getNumTryBlocks@TryBlockMap@__FrameHandler3@@QEAAIXZ 0000000140011408 f i libvcruntime:frame.obj
 0001:00010410       ?getStartStop@UWMap4@FH4@@QEAAXHHAEAViterator@12@0@Z 0000000140011410 f i libvcruntime:frame.obj
 0001:000104e0       ?getStateFromIterators@UWMap4@FH4@@SAHAEBViterator@12@H0H0@Z 00000001400114e0 f i libvcruntime:frame.obj
 0001:00010590       ?isEHs@__FrameHandler3@@SA_NPEBU_s_FuncInfo@@@Z 0000000140011590 f i libvcruntime:frame.obj
 0001:00010598       ?isEHs@__FrameHandler4@@SA_NPEAUFuncInfo4@FH4@@@Z 0000000140011598 f i libvcruntime:frame.obj
 0001:000105a0       ?isNoExcept@__FrameHandler3@@SA_NPEBU_s_FuncInfo@@@Z 00000001400115a0 f i libvcruntime:frame.obj
 0001:000105ac       ?isNoExcept@__FrameHandler4@@SA_NPEAUFuncInfo4@FH4@@@Z 00000001400115ac f i libvcruntime:frame.obj
 0001:000105b4       ?reset@HandlerType4@FH4@@QEAAXXZ 00000001400115b4 f i libvcruntime:frame.obj
 0001:000105c8       ?resetBuffer@HandlerMap4@FH4@@QEAAXXZ 00000001400115c8 f i libvcruntime:frame.obj
 0001:000105d8       ?setBuffer@HandlerMap4@FH4@@QEAAXI@Z 00000001400115d8 f i libvcruntime:frame.obj
 0001:00010614       ?what@exception@std@@UEBAPEBDXZ 0000000140011614 f i libvcruntime:frame.obj
 0001:00010628       __BuildCatchObject         0000000140011628 f   libvcruntime:frame.obj
 0001:00010630       __BuildCatchObjectHelper   0000000140011630 f   libvcruntime:frame.obj
 0001:00010638       __TypeMatch                0000000140011638 f   libvcruntime:frame.obj
 0001:00010640       __vcrt_EncodePointer       0000000140011640 f i libvcruntime:frame.obj
 0001:00010660       _CallSettingFrame          0000000140011660 f   libvcruntime:handlers.obj
 0001:000106b0       _CallSettingFrame_LookupContinuationIndex 00000001400116b0 f   libvcruntime:handlers.obj
 0001:000106e0       _CallSettingFrame_NotifyContinuationAddr 00000001400116e0 f   libvcruntime:handlers.obj
 0001:00010710       _CallSettingFrameEncoded   0000000140011710 f   libvcruntime:handlers.obj
 0001:00010758       ??$?RD@__crt_public_free_policy@@QEBAXQEBD@Z 0000000140011758 f i libvcruntime:std_exception.obj
 0001:00010760       ??0?$__crt_unique_heap_ptr@DU__crt_public_free_policy@@@@QEAA@QEAD@Z 0000000140011760 f i libvcruntime:std_exception.obj
 0001:00010768       ??1?$__crt_unique_heap_ptr@DU__crt_public_free_policy@@@@QEAA@XZ 0000000140011768 f i libvcruntime:std_exception.obj
 0001:00010784       ??B?$__crt_unique_heap_ptr@DU__crt_public_free_policy@@@@QEBA_NXZ 0000000140011784 f i libvcruntime:std_exception.obj
 0001:0001078c       ?detach@?$__crt_unique_heap_ptr@DU__crt_public_free_policy@@@@QEAAPEADXZ 000000014001178c f i libvcruntime:std_exception.obj
 0001:00010794       ?get@?$__crt_unique_heap_ptr@DU__crt_public_free_policy@@@@QEBAPEADXZ 0000000140011794 f i libvcruntime:std_exception.obj
 0001:00010798       ?is_valid@?$__crt_unique_heap_ptr@DU__crt_public_free_policy@@@@QEBA_NXZ 0000000140011798 f i libvcruntime:std_exception.obj
 0001:000107a0       ?release@?$__crt_unique_heap_ptr@DU__crt_public_free_policy@@@@QEAAXXZ 00000001400117a0 f i libvcruntime:std_exception.obj
 0001:000107bc       __std_exception_copy       00000001400117bc f   libvcruntime:std_exception.obj
 0001:0001084c       __std_exception_destroy    000000014001184c f   libvcruntime:std_exception.obj
 0001:00010874       _CxxThrowException         0000000140011874 f   libvcruntime:throw.obj
 0001:00010914       _local_unwind              0000000140011914 f   libvcruntime:jmpuwind.obj
 0001:00010940       ??$?RPEAU__crt_stdio_stream_data@@@__crt_internal_free_policy@@QEBAXQEBQEAU__crt_stdio_stream_data@@@Z 0000000140011940 f i libucrt:_file.obj
 0001:00010948       ??0?$__crt_unique_heap_ptr@PEAU__crt_stdio_stream_data@@U__crt_internal_free_policy@@@@QEAA@QEAPEAU__crt_stdio_stream_data@@@Z 0000000140011948 f i libucrt:_file.obj
 0001:00010950       ??0__crt_stdio_stream@@QEAA@QEAU_iobuf@@@Z 0000000140011950 f i libucrt:_file.obj
 0001:00010958       ??1?$__crt_unique_heap_ptr@PEAU__crt_stdio_stream_data@@U__crt_internal_free_policy@@@@QEAA@XZ 0000000140011958 f i libucrt:_file.obj
 0001:00010974       ??C__crt_stdio_stream@@QEBAPEAU__crt_stdio_stream_data@@XZ 0000000140011974 f i libucrt:_file.obj
 0001:00010978       ?detach@?$__crt_unique_heap_ptr@PEAU__crt_stdio_stream_data@@U__crt_internal_free_policy@@@@QEAAPEAPEAU__crt_stdio_stream_data@@XZ 0000000140011978 f i libucrt:_file.obj
 0001:00010980       ?release@?$__crt_unique_heap_ptr@PEAU__crt_stdio_stream_data@@U__crt_internal_free_policy@@@@QEAAXXZ 0000000140011980 f i libucrt:_file.obj
 0001:0001099c       __acrt_initialize_stdio    000000014001199c f   libucrt:_file.obj
 0001:00010abc       __acrt_iob_func            0000000140011abc f   libucrt:_file.obj
 0001:00010ad0       __acrt_uninitialize_stdio  0000000140011ad0 f   libucrt:_file.obj
 0001:00010b2c       _get_stream_buffer_pointers 0000000140011b2c f   libucrt:_file.obj
 0001:00010b74       _lock_file                 0000000140011b74 f   libucrt:_file.obj
 0001:00010b80       _unlock_file               0000000140011b80 f   libucrt:_file.obj
 0001:00010b8c       ??$?0AEBV?$stream_output_adapter@D@__crt_stdio_output@@AEB_KAEBQEBDAEAV__crt_cached_ptd_host@@AEBQEAD@?$format_validation_base@DV?$stream_output_adapter@D@__crt_stdio_output@@@__crt_stdio_output@@IEAA@AEBV?$stream_output_adapter@D@1@AEB_KAEBQEBDAEAV__crt_cached_ptd_host@@AEBQEAD@Z 0000000140011b8c f i libucrt:output.obj
 0001:00010bfc       ??$?0AEBV?$stream_output_adapter@D@__crt_stdio_output@@AEB_KAEBQEBDAEAV__crt_cached_ptd_host@@AEBQEAD@?$positional_parameter_base@DV?$stream_output_adapter@D@__crt_stdio_output@@@__crt_stdio_output@@IEAA@AEBV?$stream_output_adapter@D@1@AEB_KAEBQEBDAEAV__crt_cached_ptd_host@@AEBQEAD@Z 0000000140011bfc f i libucrt:output.obj
 0001:00010c8c       ??$?0AEBV?$stream_output_adapter@D@__crt_stdio_output@@AEB_KAEBQEBDAEAV__crt_cached_ptd_host@@AEBQEAD@?$standard_base@DV?$stream_output_adapter@D@__crt_stdio_output@@@__crt_stdio_output@@IEAA@AEBV?$stream_output_adapter@D@1@AEB_KAEBQEBDAEAV__crt_cached_ptd_host@@AEBQEAD@Z 0000000140011c8c f i libucrt:output.obj
 0001:00010cfc       ??$?0AEBV?$stream_output_adapter@_W@__crt_stdio_output@@AEB_KAEBQEB_WAEAV__crt_cached_ptd_host@@AEBQEAD@?$format_validation_base@_WV?$stream_output_adapter@_W@__crt_stdio_output@@@__crt_stdio_output@@IEAA@AEBV?$stream_output_adapter@_W@1@AEB_KAEBQEB_WAEAV__crt_cached_ptd_host@@AEBQEAD@Z 0000000140011cfc f i libucrt:output.obj
 0001:00010d70       ??$?0AEBV?$stream_output_adapter@_W@__crt_stdio_output@@AEB_KAEBQEB_WAEAV__crt_cached_ptd_host@@AEBQEAD@?$positional_parameter_base@_WV?$stream_output_adapter@_W@__crt_stdio_output@@@__crt_stdio_output@@IEAA@AEBV?$stream_output_adapter@_W@1@AEB_KAEBQEB_WAEAV__crt_cached_ptd_host@@AEBQEAD@Z 0000000140011d70 f i libucrt:output.obj
 0001:00010e04       ??$?0AEBV?$stream_output_adapter@_W@__crt_stdio_output@@AEB_KAEBQEB_WAEAV__crt_cached_ptd_host@@AEBQEAD@?$standard_base@_WV?$stream_output_adapter@_W@__crt_stdio_output@@@__crt_stdio_output@@IEAA@AEBV?$stream_output_adapter@_W@1@AEB_KAEBQEB_WAEAV__crt_cached_ptd_host@@AEBQEAD@Z 0000000140011e04 f i libucrt:output.obj
 0001:00010e78       ??$?0AEBV?$string_output_adapter@D@__crt_stdio_output@@AEB_KAEBQEBDAEAV__crt_cached_ptd_host@@AEBQEAD@?$format_validation_base@DV?$string_output_adapter@D@__crt_stdio_output@@@__crt_stdio_output@@IEAA@AEBV?$string_output_adapter@D@1@AEB_KAEBQEBDAEAV__crt_cached_ptd_host@@AEBQEAD@Z 0000000140011e78 f i libucrt:output.obj
 0001:00010ee8       ??$?0AEBV?$string_output_adapter@D@__crt_stdio_output@@AEB_KAEBQEBDAEAV__crt_cached_ptd_host@@AEBQEAD@?$positional_parameter_base@DV?$string_output_adapter@D@__crt_stdio_output@@@__crt_stdio_output@@IEAA@AEBV?$string_output_adapter@D@1@AEB_KAEBQEBDAEAV__crt_cached_ptd_host@@AEBQEAD@Z 0000000140011ee8 f i libucrt:output.obj
 0001:00010f78       ??$?0AEBV?$string_output_adapter@D@__crt_stdio_output@@AEB_KAEBQEBDAEAV__crt_cached_ptd_host@@AEBQEAD@?$standard_base@DV?$string_output_adapter@D@__crt_stdio_output@@@__crt_stdio_output@@IEAA@AEBV?$string_output_adapter@D@1@AEB_KAEBQEBDAEAV__crt_cached_ptd_host@@AEBQEAD@Z 0000000140011f78 f i libucrt:output.obj
 0001:00010fe8       ??$?0AEBV?$string_output_adapter@_W@__crt_stdio_output@@AEB_KAEBQEB_WAEAV__crt_cached_ptd_host@@AEBQEAD@?$format_validation_base@_WV?$string_output_adapter@_W@__crt_stdio_output@@@__crt_stdio_output@@IEAA@AEBV?$string_output_adapter@_W@1@AEB_KAEBQEB_WAEAV__crt_cached_ptd_host@@AEBQEAD@Z 0000000140011fe8 f i libucrt:output.obj
 0001:0001105c       ??$?0AEBV?$string_output_adapter@_W@__crt_stdio_output@@AEB_KAEBQEB_WAEAV__crt_cached_ptd_host@@AEBQEAD@?$positional_parameter_base@_WV?$string_output_adapter@_W@__crt_stdio_output@@@__crt_stdio_output@@IEAA@AEBV?$string_output_adapter@_W@1@AEB_KAEBQEB_WAEAV__crt_cached_ptd_host@@AEBQEAD@Z 000000014001205c f i libucrt:output.obj
 0001:000110f0       ??$?0AEBV?$string_output_adapter@_W@__crt_stdio_output@@AEB_KAEBQEB_WAEAV__crt_cached_ptd_host@@AEBQEAD@?$standard_base@_WV?$string_output_adapter@_W@__crt_stdio_output@@@__crt_stdio_output@@IEAA@AEBV?$string_output_adapter@_W@1@AEB_KAEBQEB_WAEAV__crt_cached_ptd_host@@AEBQEAD@Z 00000001400120f0 f i libucrt:output.obj
 0001:000113d4       ??$__crt_interlocked_read@J@@YAJPEDJ@Z 00000001400123d4 f i libucrt:output.obj
 0001:000113d8       ??$_tcstol_internal@DPEAPEAD$0A@@@YAJAEAV__crt_cached_ptd_host@@QEBDQEAPEADH@Z 00000001400123d8 f i libucrt:output.obj
 0001:00011408       ??$_tcstol_internal@_WPEAPEA_W$0A@@@YAJAEAV__crt_cached_ptd_host@@QEB_WQEAPEA_WH@Z 0000000140012408 f i libucrt:output.obj
 0001:00012548       ??$count@D@formatting_buffer@__crt_stdio_output@@QEBA_KXZ 0000000140013548 f i libucrt:output.obj
 0001:00012564       ??$count@_W@formatting_buffer@__crt_stdio_output@@QEBA_KXZ 0000000140013564 f i libucrt:output.obj
 0001:00012580       ??$data@D@formatting_buffer@__crt_stdio_output@@QEAAPEADXZ 0000000140013580 f i libucrt:output.obj
 0001:00012590       ??$data@_W@formatting_buffer@__crt_stdio_output@@QEAAPEA_WXZ 0000000140013590 f i libucrt:output.obj
 0001:000125a0       ??$ensure_buffer_is_big_enough@D@formatting_buffer@__crt_stdio_output@@QEAA_N_KAEAV__crt_cached_ptd_host@@@Z 00000001400135a0 f i libucrt:output.obj
 0001:00012648       ??$ensure_buffer_is_big_enough@_W@formatting_buffer@__crt_stdio_output@@QEAA_N_KAEAV__crt_cached_ptd_host@@@Z 0000000140013648 f i libucrt:output.obj
 0001:000126f4       ??$extract_argument_from_va_list@C_J@?$positional_parameter_base@DV?$stream_output_adapter@D@__crt_stdio_output@@@__crt_stdio_output@@IEAA_NAEA_J@Z 00000001400136f4 f i libucrt:output.obj
 0001:00012800       ??$extract_argument_from_va_list@C_J@?$positional_parameter_base@DV?$string_output_adapter@D@__crt_stdio_output@@@__crt_stdio_output@@IEAA_NAEA_J@Z 0000000140013800 f i libucrt:output.obj
 0001:0001290c       ??$extract_argument_from_va_list@C_J@?$positional_parameter_base@_WV?$stream_output_adapter@_W@__crt_stdio_output@@@__crt_stdio_output@@IEAA_NAEA_J@Z 000000014001390c f i libucrt:output.obj
 0001:00012a18       ??$extract_argument_from_va_list@C_J@?$positional_parameter_base@_WV?$string_output_adapter@_W@__crt_stdio_output@@@__crt_stdio_output@@IEAA_NAEA_J@Z 0000000140013a18 f i libucrt:output.obj
 0001:00012b24       ??$extract_argument_from_va_list@C_J@?$standard_base@DV?$stream_output_adapter@D@__crt_stdio_output@@@__crt_stdio_output@@IEAA_NAEA_J@Z 0000000140013b24 f i libucrt:output.obj
 0001:00012b3c       ??$extract_argument_from_va_list@C_J@?$standard_base@DV?$string_output_adapter@D@__crt_stdio_output@@@__crt_stdio_output@@IEAA_NAEA_J@Z 0000000140013b3c f i libucrt:output.obj
 0001:00012b54       ??$extract_argument_from_va_list@C_J@?$standard_base@_WV?$stream_output_adapter@_W@__crt_stdio_output@@@__crt_stdio_output@@IEAA_NAEA_J@Z 0000000140013b54 f i libucrt:output.obj
 0001:00012b6c       ??$extract_argument_from_va_list@C_J@?$standard_base@_WV?$string_output_adapter@_W@__crt_stdio_output@@@__crt_stdio_output@@IEAA_NAEA_J@Z 0000000140013b6c f i libucrt:output.obj
 0001:00012b84       ??$extract_argument_from_va_list@E_J@?$positional_parameter_base@DV?$stream_output_adapter@D@__crt_stdio_output@@@__crt_stdio_output@@IEAA_NAEA_J@Z 0000000140013b84 f i libucrt:output.obj
 0001:00012c8c       ??$extract_argument_from_va_list@E_J@?$positional_parameter_base@DV?$string_output_adapter@D@__crt_stdio_output@@@__crt_stdio_output@@IEAA_NAEA_J@Z 0000000140013c8c f i libucrt:output.obj
 0001:00012d94       ??$extract_argument_from_va_list@E_J@?$positional_parameter_base@_WV?$stream_output_adapter@_W@__crt_stdio_output@@@__crt_stdio_output@@IEAA_NAEA_J@Z 0000000140013d94 f i libucrt:output.obj
 0001:00012ea0       ??$extract_argument_from_va_list@E_J@?$positional_parameter_base@_WV?$string_output_adapter@_W@__crt_stdio_output@@@__crt_stdio_output@@IEAA_NAEA_J@Z 0000000140013ea0 f i libucrt:output.obj
 0001:00012fac       ??$extract_argument_from_va_list@E_J@?$standard_base@DV?$stream_output_adapter@D@__crt_stdio_output@@@__crt_stdio_output@@IEAA_NAEA_J@Z 0000000140013fac f i libucrt:output.obj
 0001:00012fc4       ??$extract_argument_from_va_list@E_J@?$standard_base@DV?$string_output_adapter@D@__crt_stdio_output@@@__crt_stdio_output@@IEAA_NAEA_J@Z 0000000140013fc4 f i libucrt:output.obj
 0001:00012fdc       ??$extract_argument_from_va_list@E_J@?$standard_base@_WV?$stream_output_adapter@_W@__crt_stdio_output@@@__crt_stdio_output@@IEAA_NAEA_J@Z 0000000140013fdc f i libucrt:output.obj
 0001:00012ff4       ??$extract_argument_from_va_list@E_J@?$standard_base@_WV?$string_output_adapter@_W@__crt_stdio_output@@@__crt_stdio_output@@IEAA_NAEA_J@Z 0000000140013ff4 f i libucrt:output.obj
 0001:0001300c       ??$extract_argument_from_va_list@F_J@?$positional_parameter_base@DV?$stream_output_adapter@D@__crt_stdio_output@@@__crt_stdio_output@@IEAA_NAEA_J@Z 000000014001400c f i libucrt:output.obj
 0001:00013118       ??$extract_argument_from_va_list@F_J@?$positional_parameter_base@DV?$string_output_adapter@D@__crt_stdio_output@@@__crt_stdio_output@@IEAA_NAEA_J@Z 0000000140014118 f i libucrt:output.obj
 0001:00013224       ??$extract_argument_from_va_list@F_J@?$positional_parameter_base@_WV?$stream_output_adapter@_W@__crt_stdio_output@@@__crt_stdio_output@@IEAA_NAEA_J@Z 0000000140014224 f i libucrt:output.obj
 0001:00013330       ??$extract_argument_from_va_list@F_J@?$positional_parameter_base@_WV?$string_output_adapter@_W@__crt_stdio_output@@@__crt_stdio_output@@IEAA_NAEA_J@Z 0000000140014330 f i libucrt:output.obj
 0001:0001343c       ??$extract_argument_from_va_list@F_J@?$standard_base@DV?$stream_output_adapter@D@__crt_stdio_output@@@__crt_stdio_output@@IEAA_NAEA_J@Z 000000014001443c f i libucrt:output.obj
 0001:00013454       ??$extract_argument_from_va_list@F_J@?$standard_base@DV?$string_output_adapter@D@__crt_stdio_output@@@__crt_stdio_output@@IEAA_NAEA_J@Z 0000000140014454 f i libucrt:output.obj
 0001:0001346c       ??$extract_argument_from_va_list@F_J@?$standard_base@_WV?$stream_output_adapter@_W@__crt_stdio_output@@@__crt_stdio_output@@IEAA_NAEA_J@Z 000000014001446c f i libucrt:output.obj
 0001:00013484       ??$extract_argument_from_va_list@F_J@?$standard_base@_WV?$string_output_adapter@_W@__crt_stdio_output@@@__crt_stdio_output@@IEAA_NAEA_J@Z 0000000140014484 f i libucrt:output.obj
 0001:0001349c       ??$extract_argument_from_va_list@GD@?$positional_parameter_base@DV?$stream_output_adapter@D@__crt_stdio_output@@@__crt_stdio_output@@IEAA_NAEAD@Z 000000014001449c f i libucrt:output.obj
 0001:000135a0       ??$extract_argument_from_va_list@GD@?$positional_parameter_base@DV?$string_output_adapter@D@__crt_stdio_output@@@__crt_stdio_output@@IEAA_NAEAD@Z 00000001400145a0 f i libucrt:output.obj
 0001:000136a4       ??$extract_argument_from_va_list@GD@?$standard_base@DV?$stream_output_adapter@D@__crt_stdio_output@@@__crt_stdio_output@@IEAA_NAEAD@Z 00000001400146a4 f i libucrt:output.obj
 0001:000136b8       ??$extract_argument_from_va_list@GD@?$standard_base@DV?$string_output_adapter@D@__crt_stdio_output@@@__crt_stdio_output@@IEAA_NAEAD@Z 00000001400146b8 f i libucrt:output.obj
 0001:000136cc       ??$extract_argument_from_va_list@G_J@?$positional_parameter_base@DV?$stream_output_adapter@D@__crt_stdio_output@@@__crt_stdio_output@@IEAA_NAEA_J@Z 00000001400146cc f i libucrt:output.obj
 0001:000137d4       ??$extract_argument_from_va_list@G_J@?$positional_parameter_base@DV?$string_output_adapter@D@__crt_stdio_output@@@__crt_stdio_output@@IEAA_NAEA_J@Z 00000001400147d4 f i libucrt:output.obj
 0001:000138dc       ??$extract_argument_from_va_list@G_J@?$positional_parameter_base@_WV?$stream_output_adapter@_W@__crt_stdio_output@@@__crt_stdio_output@@IEAA_NAEA_J@Z 00000001400148dc f i libucrt:output.obj
 0001:000139e8       ??$extract_argument_from_va_list@G_J@?$positional_parameter_base@_WV?$string_output_adapter@_W@__crt_stdio_output@@@__crt_stdio_output@@IEAA_NAEA_J@Z 00000001400149e8 f i libucrt:output.obj
 0001:00013af4       ??$extract_argument_from_va_list@G_J@?$standard_base@DV?$stream_output_adapter@D@__crt_stdio_output@@@__crt_stdio_output@@IEAA_NAEA_J@Z 0000000140014af4 f i libucrt:output.obj
 0001:00013b0c       ??$extract_argument_from_va_list@G_J@?$standard_base@DV?$string_output_adapter@D@__crt_stdio_output@@@__crt_stdio_output@@IEAA_NAEA_J@Z 0000000140014b0c f i libucrt:output.obj
 0001:00013b24       ??$extract_argument_from_va_list@G_J@?$standard_base@_WV?$stream_output_adapter@_W@__crt_stdio_output@@@__crt_stdio_output@@IEAA_NAEA_J@Z 0000000140014b24 f i libucrt:output.obj
 0001:00013b3c       ??$extract_argument_from_va_list@G_J@?$standard_base@_WV?$string_output_adapter@_W@__crt_stdio_output@@@__crt_stdio_output@@IEAA_NAEA_J@Z 0000000140014b3c f i libucrt:output.obj
 0001:00013b54       ??$extract_argument_from_va_list@H_J@?$positional_parameter_base@DV?$stream_output_adapter@D@__crt_stdio_output@@@__crt_stdio_output@@IEAA_NAEA_J@Z 0000000140014b54 f i libucrt:output.obj
 0001:00013c5c       ??$extract_argument_from_va_list@H_J@?$positional_parameter_base@DV?$string_output_adapter@D@__crt_stdio_output@@@__crt_stdio_output@@IEAA_NAEA_J@Z 0000000140014c5c f i libucrt:output.obj
 0001:00013d64       ??$extract_argument_from_va_list@H_J@?$positional_parameter_base@_WV?$stream_output_adapter@_W@__crt_stdio_output@@@__crt_stdio_output@@IEAA_NAEA_J@Z 0000000140014d64 f i libucrt:output.obj
 0001:00013e70       ??$extract_argument_from_va_list@H_J@?$positional_parameter_base@_WV?$string_output_adapter@_W@__crt_stdio_output@@@__crt_stdio_output@@IEAA_NAEA_J@Z 0000000140014e70 f i libucrt:output.obj
 0001:00013f7c       ??$extract_argument_from_va_list@H_J@?$standard_base@DV?$stream_output_adapter@D@__crt_stdio_output@@@__crt_stdio_output@@IEAA_NAEA_J@Z 0000000140014f7c f i libucrt:output.obj
 0001:00013f94       ??$extract_argument_from_va_list@H_J@?$standard_base@DV?$string_output_adapter@D@__crt_stdio_output@@@__crt_stdio_output@@IEAA_NAEA_J@Z 0000000140014f94 f i libucrt:output.obj
 0001:00013fac       ??$extract_argument_from_va_list@H_J@?$standard_base@_WV?$stream_output_adapter@_W@__crt_stdio_output@@@__crt_stdio_output@@IEAA_NAEA_J@Z 0000000140014fac f i libucrt:output.obj
 0001:00013fc4       ??$extract_argument_from_va_list@H_J@?$standard_base@_WV?$string_output_adapter@_W@__crt_stdio_output@@@__crt_stdio_output@@IEAA_NAEA_J@Z 0000000140014fc4 f i libucrt:output.obj
 0001:00013fdc       ??$extract_argument_from_va_list@I_J@?$positional_parameter_base@DV?$stream_output_adapter@D@__crt_stdio_output@@@__crt_stdio_output@@IEAA_NAEA_J@Z 0000000140014fdc f i libucrt:output.obj
 0001:000140e4       ??$extract_argument_from_va_list@I_J@?$positional_parameter_base@DV?$string_output_adapter@D@__crt_stdio_output@@@__crt_stdio_output@@IEAA_NAEA_J@Z 00000001400150e4 f i libucrt:output.obj
 0001:000141ec       ??$extract_argument_from_va_list@I_J@?$positional_parameter_base@_WV?$stream_output_adapter@_W@__crt_stdio_output@@@__crt_stdio_output@@IEAA_NAEA_J@Z 00000001400151ec f i libucrt:output.obj
 0001:000142f4       ??$extract_argument_from_va_list@I_J@?$positional_parameter_base@_WV?$string_output_adapter@_W@__crt_stdio_output@@@__crt_stdio_output@@IEAA_NAEA_J@Z 00000001400152f4 f i libucrt:output.obj
 0001:000143fc       ??$extract_argument_from_va_list@I_J@?$standard_base@DV?$stream_output_adapter@D@__crt_stdio_output@@@__crt_stdio_output@@IEAA_NAEA_J@Z 00000001400153fc f i libucrt:output.obj
 0001:00014414       ??$extract_argument_from_va_list@I_J@?$standard_base@DV?$string_output_adapter@D@__crt_stdio_output@@@__crt_stdio_output@@IEAA_NAEA_J@Z 0000000140015414 f i libucrt:output.obj
 0001:0001442c       ??$extract_argument_from_va_list@I_J@?$standard_base@_WV?$stream_output_adapter@_W@__crt_stdio_output@@@__crt_stdio_output@@IEAA_NAEA_J@Z 000000014001542c f i libucrt:output.obj
 0001:00014444       ??$extract_argument_from_va_list@I_J@?$standard_base@_WV?$string_output_adapter@_W@__crt_stdio_output@@@__crt_stdio_output@@IEAA_NAEA_J@Z 0000000140015444 f i libucrt:output.obj
 0001:0001445c       ??$extract_argument_from_va_list@PEADPEAD@?$positional_parameter_base@DV?$stream_output_adapter@D@__crt_stdio_output@@@__crt_stdio_output@@IEAA_NAEAPEAD@Z 000000014001545c f i libucrt:output.obj
 0001:00014564       ??$extract_argument_from_va_list@PEADPEAD@?$positional_parameter_base@DV?$string_output_adapter@D@__crt_stdio_output@@@__crt_stdio_output@@IEAA_NAEAPEAD@Z 0000000140015564 f i libucrt:output.obj
 0001:0001466c       ??$extract_argument_from_va_list@PEADPEAD@?$positional_parameter_base@_WV?$stream_output_adapter@_W@__crt_stdio_output@@@__crt_stdio_output@@IEAA_NAEAPEAD@Z 000000014001566c f i libucrt:output.obj
 0001:00014778       ??$extract_argument_from_va_list@PEADPEAD@?$positional_parameter_base@_WV?$string_output_adapter@_W@__crt_stdio_output@@@__crt_stdio_output@@IEAA_NAEAPEAD@Z 0000000140015778 f i libucrt:output.obj
 0001:00014884       ??$extract_argument_from_va_list@PEADPEAD@?$standard_base@DV?$stream_output_adapter@D@__crt_stdio_output@@@__crt_stdio_output@@IEAA_NAEAPEAD@Z 0000000140015884 f i libucrt:output.obj
 0001:0001489c       ??$extract_argument_from_va_list@PEADPEAD@?$standard_base@DV?$string_output_adapter@D@__crt_stdio_output@@@__crt_stdio_output@@IEAA_NAEAPEAD@Z 000000014001589c f i libucrt:output.obj
 0001:000148b4       ??$extract_argument_from_va_list@PEADPEAD@?$standard_base@_WV?$stream_output_adapter@_W@__crt_stdio_output@@@__crt_stdio_output@@IEAA_NAEAPEAD@Z 00000001400158b4 f i libucrt:output.obj
 0001:000148cc       ??$extract_argument_from_va_list@PEADPEAD@?$standard_base@_WV?$string_output_adapter@_W@__crt_stdio_output@@@__crt_stdio_output@@IEAA_NAEAPEAD@Z 00000001400158cc f i libucrt:output.obj
 0001:000148e4       ??$extract_argument_from_va_list@PEAUansi_string@?1??type_case_Z@?$output_processor@DV?$stream_output_adapter@D@__crt_stdio_output@@V?$format_validation_base@DV?$stream_output_adapter@D@__crt_stdio_output@@@2@@__crt_stdio_output@@AEAA_NXZ@PEAU1?1??234@AEAA_NXZ@@?$standard_base@DV?$stream_output_adapter@D@__crt_stdio_output@@@__crt_stdio_output@@IEAA_NAEAPEAUansi_string@?1??type_case_Z@?$output_processor@DV?$stream_output_adapter@D@__crt_stdio_output@@V?$format_validation_base@DV?$stream_output_adapter@D@__crt_stdio_output@@@2@@1@AEAA_NXZ@@Z 00000001400158e4 f i libucrt:output.obj
 0001:000148fc       ??$extract_argument_from_va_list@PEAUansi_string@?1??type_case_Z@?$output_processor@DV?$stream_output_adapter@D@__crt_stdio_output@@V?$positional_parameter_base@DV?$stream_output_adapter@D@__crt_stdio_output@@@2@@__crt_stdio_output@@AEAA_NXZ@PEAU1?1??234@AEAA_NXZ@@?$positional_parameter_base@DV?$stream_output_adapter@D@__crt_stdio_output@@@__crt_stdio_output@@IEAA_NAEAPEAUansi_string@?1??type_case_Z@?$output_processor@DV?$stream_output_adapter@D@__crt_stdio_output@@V?$positional_parameter_base@DV?$stream_output_adapter@D@__crt_stdio_output@@@2@@1@AEAA_NXZ@@Z 00000001400158fc f i libucrt:output.obj
 0001:00014a04       ??$extract_argument_from_va_list@PEAUansi_string@?1??type_case_Z@?$output_processor@DV?$stream_output_adapter@D@__crt_stdio_output@@V?$positional_parameter_base@DV?$stream_output_adapter@D@__crt_stdio_output@@@2@@__crt_stdio_output@@AEAA_NXZ@PEAU1?1??234@AEAA_NXZ@@?$standard_base@DV?$stream_output_adapter@D@__crt_stdio_output@@@__crt_stdio_output@@IEAA_NAEAPEAUansi_string@?1??type_case_Z@?$output_processor@DV?$stream_output_adapter@D@__crt_stdio_output@@V?$positional_parameter_base@DV?$stream_output_adapter@D@__crt_stdio_output@@@2@@1@AEAA_NXZ@@Z 0000000140015a04 f i libucrt:output.obj
 0001:00014a1c       ??$extract_argument_from_va_list@PEAUansi_string@?1??type_case_Z@?$output_processor@DV?$stream_output_adapter@D@__crt_stdio_output@@V?$standard_base@DV?$stream_output_adapter@D@__crt_stdio_output@@@2@@__crt_stdio_output@@AEAA_NXZ@PEAU1?1??234@AEAA_NXZ@@?$standard_base@DV?$stream_output_adapter@D@__crt_stdio_output@@@__crt_stdio_output@@IEAA_NAEAPEAUansi_string@?1??type_case_Z@?$output_processor@DV?$stream_output_adapter@D@__crt_stdio_output@@V?$standard_base@DV?$stream_output_adapter@D@__crt_stdio_output@@@2@@1@AEAA_NXZ@@Z 0000000140015a1c f i libucrt:output.obj
 0001:00014a34       ??$extract_argument_from_va_list@PEAUansi_string@?1??type_case_Z@?$output_processor@DV?$string_output_adapter@D@__crt_stdio_output@@V?$format_validation_base@DV?$string_output_adapter@D@__crt_stdio_output@@@2@@__crt_stdio_output@@AEAA_NXZ@PEAU1?1??234@AEAA_NXZ@@?$standard_base@DV?$string_output_adapter@D@__crt_stdio_output@@@__crt_stdio_output@@IEAA_NAEAPEAUansi_string@?1??type_case_Z@?$output_processor@DV?$string_output_adapter@D@__crt_stdio_output@@V?$format_validation_base@DV?$string_output_adapter@D@__crt_stdio_output@@@2@@1@AEAA_NXZ@@Z 0000000140015a34 f i libucrt:output.obj
 0001:00014a4c       ??$extract_argument_from_va_list@PEAUansi_string@?1??type_case_Z@?$output_processor@DV?$string_output_adapter@D@__crt_stdio_output@@V?$positional_parameter_base@DV?$string_output_adapter@D@__crt_stdio_output@@@2@@__crt_stdio_output@@AEAA_NXZ@PEAU1?1??234@AEAA_NXZ@@?$positional_parameter_base@DV?$string_output_adapter@D@__crt_stdio_output@@@__crt_stdio_output@@IEAA_NAEAPEAUansi_string@?1??type_case_Z@?$output_processor@DV?$string_output_adapter@D@__crt_stdio_output@@V?$positional_parameter_base@DV?$string_output_adapter@D@__crt_stdio_output@@@2@@1@AEAA_NXZ@@Z 0000000140015a4c f i libucrt:output.obj
 0001:00014b54       ??$extract_argument_from_va_list@PEAUansi_string@?1??type_case_Z@?$output_processor@DV?$string_output_adapter@D@__crt_stdio_output@@V?$positional_parameter_base@DV?$string_output_adapter@D@__crt_stdio_output@@@2@@__crt_stdio_output@@AEAA_NXZ@PEAU1?1??234@AEAA_NXZ@@?$standard_base@DV?$string_output_adapter@D@__crt_stdio_output@@@__crt_stdio_output@@IEAA_NAEAPEAUansi_string@?1??type_case_Z@?$output_processor@DV?$string_output_adapter@D@__crt_stdio_output@@V?$positional_parameter_base@DV?$string_output_adapter@D@__crt_stdio_output@@@2@@1@AEAA_NXZ@@Z 0000000140015b54 f i libucrt:output.obj
 0001:00014b6c       ??$extract_argument_from_va_list@PEAUansi_string@?1??type_case_Z@?$output_processor@DV?$string_output_adapter@D@__crt_stdio_output@@V?$standard_base@DV?$string_output_adapter@D@__crt_stdio_output@@@2@@__crt_stdio_output@@AEAA_NXZ@PEAU1?1??234@AEAA_NXZ@@?$standard_base@DV?$string_output_adapter@D@__crt_stdio_output@@@__crt_stdio_output@@IEAA_NAEAPEAUansi_string@?1??type_case_Z@?$output_processor@DV?$string_output_adapter@D@__crt_stdio_output@@V?$standard_base@DV?$string_output_adapter@D@__crt_stdio_output@@@2@@1@AEAA_NXZ@@Z 0000000140015b6c f i libucrt:output.obj
 0001:00014b84       ??$extract_argument_from_va_list@PEAUansi_string@?1??type_case_Z@?$output_processor@_WV?$stream_output_adapter@_W@__crt_stdio_output@@V?$format_validation_base@_WV?$stream_output_adapter@_W@__crt_stdio_output@@@2@@__crt_stdio_output@@AEAA_NXZ@PEAU1?1??234@AEAA_NXZ@@?$standard_base@_WV?$stream_output_adapter@_W@__crt_stdio_output@@@__crt_stdio_output@@IEAA_NAEAPEAUansi_string@?1??type_case_Z@?$output_processor@_WV?$stream_output_adapter@_W@__crt_stdio_output@@V?$format_validation_base@_WV?$stream_output_adapter@_W@__crt_stdio_output@@@2@@1@AEAA_NXZ@@Z 0000000140015b84 f i libucrt:output.obj
 0001:00014b9c       ??$extract_argument_from_va_list@PEAUansi_string@?1??type_case_Z@?$output_processor@_WV?$stream_output_adapter@_W@__crt_stdio_output@@V?$positional_parameter_base@_WV?$stream_output_adapter@_W@__crt_stdio_output@@@2@@__crt_stdio_output@@AEAA_NXZ@PEAU1?1??234@AEAA_NXZ@@?$positional_parameter_base@_WV?$stream_output_adapter@_W@__crt_stdio_output@@@__crt_stdio_output@@IEAA_NAEAPEAUansi_string@?1??type_case_Z@?$output_processor@_WV?$stream_output_adapter@_W@__crt_stdio_output@@V?$positional_parameter_base@_WV?$stream_output_adapter@_W@__crt_stdio_output@@@2@@1@AEAA_NXZ@@Z 0000000140015b9c f i libucrt:output.obj
 0001:00014ca8       ??$extract_argument_from_va_list@PEAUansi_string@?1??type_case_Z@?$output_processor@_WV?$stream_output_adapter@_W@__crt_stdio_output@@V?$positional_parameter_base@_WV?$stream_output_adapter@_W@__crt_stdio_output@@@2@@__crt_stdio_output@@AEAA_NXZ@PEAU1?1??234@AEAA_NXZ@@?$standard_base@_WV?$stream_output_adapter@_W@__crt_stdio_output@@@__crt_stdio_output@@IEAA_NAEAPEAUansi_string@?1??type_case_Z@?$output_processor@_WV?$stream_output_adapter@_W@__crt_stdio_output@@V?$positional_parameter_base@_WV?$stream_output_adapter@_W@__crt_stdio_output@@@2@@1@AEAA_NXZ@@Z 0000000140015ca8 f i libucrt:output.obj
 0001:00014cc0       ??$extract_argument_from_va_list@PEAUansi_string@?1??type_case_Z@?$output_processor@_WV?$stream_output_adapter@_W@__crt_stdio_output@@V?$standard_base@_WV?$stream_output_adapter@_W@__crt_stdio_output@@@2@@__crt_stdio_output@@AEAA_NXZ@PEAU1?1??234@AEAA_NXZ@@?$standard_base@_WV?$stream_output_adapter@_W@__crt_stdio_output@@@__crt_stdio_output@@IEAA_NAEAPEAUansi_string@?1??type_case_Z@?$output_processor@_WV?$stream_output_adapter@_W@__crt_stdio_output@@V?$standard_base@_WV?$stream_output_adapter@_W@__crt_stdio_output@@@2@@1@AEAA_NXZ@@Z 0000000140015cc0 f i libucrt:output.obj
 0001:00014cd8       ??$extract_argument_from_va_list@PEAUansi_string@?1??type_case_Z@?$output_processor@_WV?$string_output_adapter@_W@__crt_stdio_output@@V?$format_validation_base@_WV?$string_output_adapter@_W@__crt_stdio_output@@@2@@__crt_stdio_output@@AEAA_NXZ@PEAU1?1??234@AEAA_NXZ@@?$standard_base@_WV?$string_output_adapter@_W@__crt_stdio_output@@@__crt_stdio_output@@IEAA_NAEAPEAUansi_string@?1??type_case_Z@?$output_processor@_WV?$string_output_adapter@_W@__crt_stdio_output@@V?$format_validation_base@_WV?$string_output_adapter@_W@__crt_stdio_output@@@2@@1@AEAA_NXZ@@Z 0000000140015cd8 f i libucrt:output.obj
 0001:00014cf0       ??$extract_argument_from_va_list@PEAUansi_string@?1??type_case_Z@?$output_processor@_WV?$string_output_adapter@_W@__crt_stdio_output@@V?$positional_parameter_base@_WV?$string_output_adapter@_W@__crt_stdio_output@@@2@@__crt_stdio_output@@AEAA_NXZ@PEAU1?1??234@AEAA_NXZ@@?$positional_parameter_base@_WV?$string_output_adapter@_W@__crt_stdio_output@@@__crt_stdio_output@@IEAA_NAEAPEAUansi_string@?1??type_case_Z@?$output_processor@_WV?$string_output_adapter@_W@__crt_stdio_output@@V?$positional_parameter_base@_WV?$string_output_adapter@_W@__crt_stdio_output@@@2@@1@AEAA_NXZ@@Z 0000000140015cf0 f i libucrt:output.obj
 0001:00014dfc       ??$extract_argument_from_va_list@PEAUansi_string@?1??type_case_Z@?$output_processor@_WV?$string_output_adapter@_W@__crt_stdio_output@@V?$positional_parameter_base@_WV?$string_output_adapter@_W@__crt_stdio_output@@@2@@__crt_stdio_output@@AEAA_NXZ@PEAU1?1??234@AEAA_NXZ@@?$standard_base@_WV?$string_output_adapter@_W@__crt_stdio_output@@@__crt_stdio_output@@IEAA_NAEAPEAUansi_string@?1??type_case_Z@?$output_processor@_WV?$string_output_adapter@_W@__crt_stdio_output@@V?$positional_parameter_base@_WV?$string_output_adapter@_W@__crt_stdio_output@@@2@@1@AEAA_NXZ@@Z 0000000140015dfc f i libucrt:output.obj
 0001:00014e14       ??$extract_argument_from_va_list@PEAUansi_string@?1??type_case_Z@?$output_processor@_WV?$string_output_adapter@_W@__crt_stdio_output@@V?$standard_base@_WV?$string_output_adapter@_W@__crt_stdio_output@@@2@@__crt_stdio_output@@AEAA_NXZ@PEAU1?1??234@AEAA_NXZ@@?$standard_base@_WV?$string_output_adapter@_W@__crt_stdio_output@@@__crt_stdio_output@@IEAA_NAEAPEAUansi_string@?1??type_case_Z@?$output_processor@_WV?$string_output_adapter@_W@__crt_stdio_output@@V?$standard_base@_WV?$string_output_adapter@_W@__crt_stdio_output@@@2@@1@AEAA_NXZ@@Z 0000000140015e14 f i libucrt:output.obj
 0001:00014e2c       ??$extract_argument_from_va_list@PEAXPEAX@?$positional_parameter_base@DV?$stream_output_adapter@D@__crt_stdio_output@@@__crt_stdio_output@@IEAA_NAEAPEAX@Z 0000000140015e2c f i libucrt:output.obj
 0001:00014f34       ??$extract_argument_from_va_list@PEAXPEAX@?$positional_parameter_base@DV?$string_output_adapter@D@__crt_stdio_output@@@__crt_stdio_output@@IEAA_NAEAPEAX@Z 0000000140015f34 f i libucrt:output.obj
 0001:0001503c       ??$extract_argument_from_va_list@PEAXPEAX@?$positional_parameter_base@_WV?$stream_output_adapter@_W@__crt_stdio_output@@@__crt_stdio_output@@IEAA_NAEAPEAX@Z 000000014001603c f i libucrt:output.obj
 0001:00015148       ??$extract_argument_from_va_list@PEAXPEAX@?$positional_parameter_base@_WV?$string_output_adapter@_W@__crt_stdio_output@@@__crt_stdio_output@@IEAA_NAEAPEAX@Z 0000000140016148 f i libucrt:output.obj
 0001:00015254       ??$extract_argument_from_va_list@PEAXPEAX@?$standard_base@DV?$stream_output_adapter@D@__crt_stdio_output@@@__crt_stdio_output@@IEAA_NAEAPEAX@Z 0000000140016254 f i libucrt:output.obj
 0001:0001526c       ??$extract_argument_from_va_list@PEAXPEAX@?$standard_base@DV?$string_output_adapter@D@__crt_stdio_output@@@__crt_stdio_output@@IEAA_NAEAPEAX@Z 000000014001626c f i libucrt:output.obj
 0001:00015284       ??$extract_argument_from_va_list@PEAXPEAX@?$standard_base@_WV?$stream_output_adapter@_W@__crt_stdio_output@@@__crt_stdio_output@@IEAA_NAEAPEAX@Z 0000000140016284 f i libucrt:output.obj
 0001:0001529c       ??$extract_argument_from_va_list@PEAXPEAX@?$standard_base@_WV?$string_output_adapter@_W@__crt_stdio_output@@@__crt_stdio_output@@IEAA_NAEAPEAX@Z 000000014001629c f i libucrt:output.obj
 0001:000152b4       ??$extract_argument_from_va_list@U_CRT_DOUBLE@@U1@@?$positional_parameter_base@DV?$stream_output_adapter@D@__crt_stdio_output@@@__crt_stdio_output@@IEAA_NAEAU_CRT_DOUBLE@@@Z 00000001400162b4 f i libucrt:output.obj
 0001:000153bc       ??$extract_argument_from_va_list@U_CRT_DOUBLE@@U1@@?$positional_parameter_base@DV?$string_output_adapter@D@__crt_stdio_output@@@__crt_stdio_output@@IEAA_NAEAU_CRT_DOUBLE@@@Z 00000001400163bc f i libucrt:output.obj
 0001:000154c4       ??$extract_argument_from_va_list@U_CRT_DOUBLE@@U1@@?$positional_parameter_base@_WV?$stream_output_adapter@_W@__crt_stdio_output@@@__crt_stdio_output@@IEAA_NAEAU_CRT_DOUBLE@@@Z 00000001400164c4 f i libucrt:output.obj
 0001:000155d0       ??$extract_argument_from_va_list@U_CRT_DOUBLE@@U1@@?$positional_parameter_base@_WV?$string_output_adapter@_W@__crt_stdio_output@@@__crt_stdio_output@@IEAA_NAEAU_CRT_DOUBLE@@@Z 00000001400165d0 f i libucrt:output.obj
 0001:000156dc       ??$extract_argument_from_va_list@U_CRT_DOUBLE@@U1@@?$standard_base@DV?$stream_output_adapter@D@__crt_stdio_output@@@__crt_stdio_output@@IEAA_NAEAU_CRT_DOUBLE@@@Z 00000001400166dc f i libucrt:output.obj
 0001:000156f4       ??$extract_argument_from_va_list@U_CRT_DOUBLE@@U1@@?$standard_base@DV?$string_output_adapter@D@__crt_stdio_output@@@__crt_stdio_output@@IEAA_NAEAU_CRT_DOUBLE@@@Z 00000001400166f4 f i libucrt:output.obj
 0001:0001570c       ??$extract_argument_from_va_list@U_CRT_DOUBLE@@U1@@?$standard_base@_WV?$stream_output_adapter@_W@__crt_stdio_output@@@__crt_stdio_output@@IEAA_NAEAU_CRT_DOUBLE@@@Z 000000014001670c f i libucrt:output.obj
 0001:00015724       ??$extract_argument_from_va_list@U_CRT_DOUBLE@@U1@@?$standard_base@_WV?$string_output_adapter@_W@__crt_stdio_output@@@__crt_stdio_output@@IEAA_NAEAU_CRT_DOUBLE@@@Z 0000000140016724 f i libucrt:output.obj
 0001:0001573c       ??$extract_argument_from_va_list@_J_J@?$positional_parameter_base@DV?$stream_output_adapter@D@__crt_stdio_output@@@__crt_stdio_output@@IEAA_NAEA_J@Z 000000014001673c f i libucrt:output.obj
 0001:00015844       ??$extract_argument_from_va_list@_J_J@?$positional_parameter_base@DV?$string_output_adapter@D@__crt_stdio_output@@@__crt_stdio_output@@IEAA_NAEA_J@Z 0000000140016844 f i libucrt:output.obj
 0001:0001594c       ??$extract_argument_from_va_list@_J_J@?$positional_parameter_base@_WV?$stream_output_adapter@_W@__crt_stdio_output@@@__crt_stdio_output@@IEAA_NAEA_J@Z 000000014001694c f i libucrt:output.obj
 0001:00015a58       ??$extract_argument_from_va_list@_J_J@?$positional_parameter_base@_WV?$string_output_adapter@_W@__crt_stdio_output@@@__crt_stdio_output@@IEAA_NAEA_J@Z 0000000140016a58 f i libucrt:output.obj
 0001:00015b64       ??$extract_argument_from_va_list@_J_J@?$standard_base@DV?$stream_output_adapter@D@__crt_stdio_output@@@__crt_stdio_output@@IEAA_NAEA_J@Z 0000000140016b64 f i libucrt:output.obj
 0001:00015b7c       ??$extract_argument_from_va_list@_J_J@?$standard_base@DV?$string_output_adapter@D@__crt_stdio_output@@@__crt_stdio_output@@IEAA_NAEA_J@Z 0000000140016b7c f i libucrt:output.obj
 0001:00015b94       ??$extract_argument_from_va_list@_J_J@?$standard_base@_WV?$stream_output_adapter@_W@__crt_stdio_output@@@__crt_stdio_output@@IEAA_NAEA_J@Z 0000000140016b94 f i libucrt:output.obj
 0001:00015bac       ??$extract_argument_from_va_list@_J_J@?$standard_base@_WV?$string_output_adapter@_W@__crt_stdio_output@@@__crt_stdio_output@@IEAA_NAEA_J@Z 0000000140016bac f i libucrt:output.obj
 0001:00015bc4       ??$extract_argument_from_va_list@_K_J@?$positional_parameter_base@DV?$stream_output_adapter@D@__crt_stdio_output@@@__crt_stdio_output@@IEAA_NAEA_J@Z 0000000140016bc4 f i libucrt:output.obj
 0001:00015ccc       ??$extract_argument_from_va_list@_K_J@?$positional_parameter_base@DV?$string_output_adapter@D@__crt_stdio_output@@@__crt_stdio_output@@IEAA_NAEA_J@Z 0000000140016ccc f i libucrt:output.obj
 0001:00015dd4       ??$extract_argument_from_va_list@_K_J@?$positional_parameter_base@_WV?$stream_output_adapter@_W@__crt_stdio_output@@@__crt_stdio_output@@IEAA_NAEA_J@Z 0000000140016dd4 f i libucrt:output.obj
 0001:00015ee0       ??$extract_argument_from_va_list@_K_J@?$positional_parameter_base@_WV?$string_output_adapter@_W@__crt_stdio_output@@@__crt_stdio_output@@IEAA_NAEA_J@Z 0000000140016ee0 f i libucrt:output.obj
 0001:00015fec       ??$extract_argument_from_va_list@_K_J@?$standard_base@DV?$stream_output_adapter@D@__crt_stdio_output@@@__crt_stdio_output@@IEAA_NAEA_J@Z 0000000140016fec f i libucrt:output.obj
 0001:00016004       ??$extract_argument_from_va_list@_K_J@?$standard_base@DV?$string_output_adapter@D@__crt_stdio_output@@@__crt_stdio_output@@IEAA_NAEA_J@Z 0000000140017004 f i libucrt:output.obj
 0001:0001601c       ??$extract_argument_from_va_list@_K_J@?$standard_base@_WV?$stream_output_adapter@_W@__crt_stdio_output@@@__crt_stdio_output@@IEAA_NAEA_J@Z 000000014001701c f i libucrt:output.obj
 0001:00016034       ??$extract_argument_from_va_list@_K_J@?$standard_base@_WV?$string_output_adapter@_W@__crt_stdio_output@@@__crt_stdio_output@@IEAA_NAEA_J@Z 0000000140017034 f i libucrt:output.obj
 0001:0001604c       ??$extract_argument_from_va_list@_W_W@?$positional_parameter_base@DV?$stream_output_adapter@D@__crt_stdio_output@@@__crt_stdio_output@@IEAA_NAEA_W@Z 000000014001704c f i libucrt:output.obj
 0001:00016154       ??$extract_argument_from_va_list@_W_W@?$positional_parameter_base@DV?$string_output_adapter@D@__crt_stdio_output@@@__crt_stdio_output@@IEAA_NAEA_W@Z 0000000140017154 f i libucrt:output.obj
 0001:0001625c       ??$extract_argument_from_va_list@_W_W@?$positional_parameter_base@_WV?$stream_output_adapter@_W@__crt_stdio_output@@@__crt_stdio_output@@IEAA_NAEA_W@Z 000000014001725c f i libucrt:output.obj
 0001:00016368       ??$extract_argument_from_va_list@_W_W@?$positional_parameter_base@_WV?$string_output_adapter@_W@__crt_stdio_output@@@__crt_stdio_output@@IEAA_NAEA_W@Z 0000000140017368 f i libucrt:output.obj
 0001:00016474       ??$extract_argument_from_va_list@_W_W@?$standard_base@DV?$stream_output_adapter@D@__crt_stdio_output@@@__crt_stdio_output@@IEAA_NAEA_W@Z 0000000140017474 f i libucrt:output.obj
 0001:0001648c       ??$extract_argument_from_va_list@_W_W@?$standard_base@DV?$string_output_adapter@D@__crt_stdio_output@@@__crt_stdio_output@@IEAA_NAEA_W@Z 000000014001748c f i libucrt:output.obj
 0001:000164a4       ??$extract_argument_from_va_list@_W_W@?$standard_base@_WV?$stream_output_adapter@_W@__crt_stdio_output@@@__crt_stdio_output@@IEAA_NAEA_W@Z 00000001400174a4 f i libucrt:output.obj
 0001:000164bc       ??$extract_argument_from_va_list@_W_W@?$standard_base@_WV?$string_output_adapter@_W@__crt_stdio_output@@@__crt_stdio_output@@IEAA_NAEA_W@Z 00000001400174bc f i libucrt:output.obj
 0001:000164d4       ??$get_parameter_type@D@?$positional_parameter_base@DV?$stream_output_adapter@D@__crt_stdio_output@@@__crt_stdio_output@@CA?AW4parameter_type@01@PEAD@Z 00000001400174d4 f i libucrt:output.obj
 0001:000164dc       ??$get_parameter_type@D@?$positional_parameter_base@DV?$string_output_adapter@D@__crt_stdio_output@@@__crt_stdio_output@@CA?AW4parameter_type@01@PEAD@Z 00000001400174dc f i libucrt:output.obj
 0001:000164e4       ??$get_parameter_type@D@?$positional_parameter_base@_WV?$stream_output_adapter@_W@__crt_stdio_output@@@__crt_stdio_output@@CA?AW4parameter_type@01@PEAD@Z 00000001400174e4 f i libucrt:output.obj
 0001:000164ec       ??$get_parameter_type@D@?$positional_parameter_base@_WV?$string_output_adapter@_W@__crt_stdio_output@@@__crt_stdio_output@@CA?AW4parameter_type@01@PEAD@Z 00000001400174ec f i libucrt:output.obj
 0001:000164f4       ??$get_parameter_type@Uansi_string@?1??type_case_Z@?$output_processor@DV?$stream_output_adapter@D@__crt_stdio_output@@V?$positional_parameter_base@DV?$stream_output_adapter@D@__crt_stdio_output@@@2@@__crt_stdio_output@@AEAA_NXZ@@?$positional_parameter_base@DV?$stream_output_adapter@D@__crt_stdio_output@@@__crt_stdio_output@@CA?AW4parameter_type@01@PEAUansi_string@?1??type_case_Z@?$output_processor@DV?$stream_output_adapter@D@__crt_stdio_output@@V?$positional_parameter_base@DV?$stream_output_adapter@D@__crt_stdio_output@@@2@@1@AEAA_NXZ@@Z 00000001400174f4 f i libucrt:output.obj
 0001:000164fc       ??$get_parameter_type@Uansi_string@?1??type_case_Z@?$output_processor@DV?$string_output_adapter@D@__crt_stdio_output@@V?$positional_parameter_base@DV?$string_output_adapter@D@__crt_stdio_output@@@2@@__crt_stdio_output@@AEAA_NXZ@@?$positional_parameter_base@DV?$string_output_adapter@D@__crt_stdio_output@@@__crt_stdio_output@@CA?AW4parameter_type@01@PEAUansi_string@?1??type_case_Z@?$output_processor@DV?$string_output_adapter@D@__crt_stdio_output@@V?$positional_parameter_base@DV?$string_output_adapter@D@__crt_stdio_output@@@2@@1@AEAA_NXZ@@Z 00000001400174fc f i libucrt:output.obj
 0001:00016504       ??$get_parameter_type@Uansi_string@?1??type_case_Z@?$output_processor@_WV?$stream_output_adapter@_W@__crt_stdio_output@@V?$positional_parameter_base@_WV?$stream_output_adapter@_W@__crt_stdio_output@@@2@@__crt_stdio_output@@AEAA_NXZ@@?$positional_parameter_base@_WV?$stream_output_adapter@_W@__crt_stdio_output@@@__crt_stdio_output@@CA?AW4parameter_type@01@PEAUansi_string@?1??type_case_Z@?$output_processor@_WV?$stream_output_adapter@_W@__crt_stdio_output@@V?$positional_parameter_base@_WV?$stream_output_adapter@_W@__crt_stdio_output@@@2@@1@AEAA_NXZ@@Z 0000000140017504 f i libucrt:output.obj
 0001:0001650c       ??$get_parameter_type@Uansi_string@?1??type_case_Z@?$output_processor@_WV?$string_output_adapter@_W@__crt_stdio_output@@V?$positional_parameter_base@_WV?$string_output_adapter@_W@__crt_stdio_output@@@2@@__crt_stdio_output@@AEAA_NXZ@@?$positional_parameter_base@_WV?$string_output_adapter@_W@__crt_stdio_output@@@__crt_stdio_output@@CA?AW4parameter_type@01@PEAUansi_string@?1??type_case_Z@?$output_processor@_WV?$string_output_adapter@_W@__crt_stdio_output@@V?$positional_parameter_base@_WV?$string_output_adapter@_W@__crt_stdio_output@@@2@@1@AEAA_NXZ@@Z 000000014001750c f i libucrt:output.obj
 0001:00016514       ??$get_parameter_type@X@?$positional_parameter_base@DV?$stream_output_adapter@D@__crt_stdio_output@@@__crt_stdio_output@@CA?AW4parameter_type@01@PEAX@Z 0000000140017514 f i libucrt:output.obj
 0001:0001651c       ??$get_parameter_type@X@?$positional_parameter_base@DV?$string_output_adapter@D@__crt_stdio_output@@@__crt_stdio_output@@CA?AW4parameter_type@01@PEAX@Z 000000014001751c f i libucrt:output.obj
 0001:00016524       ??$get_parameter_type@X@?$positional_parameter_base@_WV?$stream_output_adapter@_W@__crt_stdio_output@@@__crt_stdio_output@@CA?AW4parameter_type@01@PEAX@Z 0000000140017524 f i libucrt:output.obj
 0001:0001652c       ??$get_parameter_type@X@?$positional_parameter_base@_WV?$string_output_adapter@_W@__crt_stdio_output@@@__crt_stdio_output@@CA?AW4parameter_type@01@PEAX@Z 000000014001752c f i libucrt:output.obj
 0001:00016534       ??$is_character_specifier@D@?$positional_parameter_base@DV?$stream_output_adapter@D@__crt_stdio_output@@@__crt_stdio_output@@CA_ND@Z 0000000140017534 f i libucrt:output.obj
 0001:00016540       ??$is_character_specifier@D@?$positional_parameter_base@DV?$string_output_adapter@D@__crt_stdio_output@@@__crt_stdio_output@@CA_ND@Z 0000000140017540 f i libucrt:output.obj
 0001:0001654c       ??$is_character_specifier@_W@?$positional_parameter_base@_WV?$stream_output_adapter@_W@__crt_stdio_output@@@__crt_stdio_output@@CA_N_W@Z 000000014001754c f i libucrt:output.obj
 0001:0001655c       ??$is_character_specifier@_W@?$positional_parameter_base@_WV?$string_output_adapter@_W@__crt_stdio_output@@@__crt_stdio_output@@CA_N_W@Z 000000014001755c f i libucrt:output.obj
 0001:0001656c       ??$is_integral_specifier@D@?$positional_parameter_base@DV?$stream_output_adapter@D@__crt_stdio_output@@@__crt_stdio_output@@CA_ND@Z 000000014001756c f i libucrt:output.obj
 0001:00016590       ??$is_integral_specifier@D@?$positional_parameter_base@DV?$string_output_adapter@D@__crt_stdio_output@@@__crt_stdio_output@@CA_ND@Z 0000000140017590 f i libucrt:output.obj
 0001:000165b4       ??$is_integral_specifier@_W@?$positional_parameter_base@_WV?$stream_output_adapter@_W@__crt_stdio_output@@@__crt_stdio_output@@CA_N_W@Z 00000001400175b4 f i libucrt:output.obj
 0001:000165dc       ??$is_integral_specifier@_W@?$positional_parameter_base@_WV?$string_output_adapter@_W@__crt_stdio_output@@@__crt_stdio_output@@CA_N_W@Z 00000001400175dc f i libucrt:output.obj
 0001:00016604       ??$is_overflow_condition@K@__crt_strtox@@YA_NIK@Z 0000000140017604 f i libucrt:output.obj
 0001:0001662c       ??$is_pointer_specifier@D@?$positional_parameter_base@DV?$stream_output_adapter@D@__crt_stdio_output@@@__crt_stdio_output@@CA_ND@Z 000000014001762c f i libucrt:output.obj
 0001:00016634       ??$is_pointer_specifier@D@?$positional_parameter_base@DV?$string_output_adapter@D@__crt_stdio_output@@@__crt_stdio_output@@CA_ND@Z 0000000140017634 f i libucrt:output.obj
 0001:0001663c       ??$is_pointer_specifier@_W@?$positional_parameter_base@_WV?$stream_output_adapter@_W@__crt_stdio_output@@@__crt_stdio_output@@CA_N_W@Z 000000014001763c f i libucrt:output.obj
 0001:00016644       ??$is_pointer_specifier@_W@?$positional_parameter_base@_WV?$string_output_adapter@_W@__crt_stdio_output@@@__crt_stdio_output@@CA_N_W@Z 0000000140017644 f i libucrt:output.obj
 0001:0001664c       ??$is_string_specifier@D@?$positional_parameter_base@DV?$stream_output_adapter@D@__crt_stdio_output@@@__crt_stdio_output@@CA_ND@Z 000000014001764c f i libucrt:output.obj
 0001:00016658       ??$is_string_specifier@D@?$positional_parameter_base@DV?$string_output_adapter@D@__crt_stdio_output@@@__crt_stdio_output@@CA_ND@Z 0000000140017658 f i libucrt:output.obj
 0001:00016664       ??$is_string_specifier@_W@?$positional_parameter_base@_WV?$stream_output_adapter@_W@__crt_stdio_output@@@__crt_stdio_output@@CA_N_W@Z 0000000140017664 f i libucrt:output.obj
 0001:00016674       ??$is_string_specifier@_W@?$positional_parameter_base@_WV?$string_output_adapter@_W@__crt_stdio_output@@@__crt_stdio_output@@CA_N_W@Z 0000000140017674 f i libucrt:output.obj
 0001:00016684       ??$is_wide_character_specifier@D@__crt_stdio_output@@YA_N_KDW4length_modifier@0@@Z 0000000140017684 f i libucrt:output.obj
 0001:000166ac       ??$is_wide_character_specifier@_W@__crt_stdio_output@@YA_N_K_WW4length_modifier@0@@Z 00000001400176ac f i libucrt:output.obj
 0001:000166ec       ??$make_c_string_character_source@DPEAPEAD@__crt_strtox@@YA?AV?$c_string_character_source@D@0@QEBDQEAPEAD@Z 00000001400176ec f i libucrt:output.obj
 0001:00016700       ??$make_c_string_character_source@_WPEAPEA_W@__crt_strtox@@YA?AV?$c_string_character_source@_W@0@QEB_WQEAPEA_W@Z 0000000140017700 f i libucrt:output.obj
 0001:00016714       ??$parse_integer@KV?$c_string_character_source@D@__crt_strtox@@$0A@@__crt_strtox@@YAKAEAV__crt_cached_ptd_host@@V?$c_string_character_source@D@0@H_N@Z 0000000140017714 f i libucrt:output.obj
 0001:000169c8       ??$parse_integer@KV?$c_string_character_source@_W@__crt_strtox@@$0A@@__crt_strtox@@YAKAEAV__crt_cached_ptd_host@@V?$c_string_character_source@_W@0@H_N@Z 00000001400179c8 f i libucrt:output.obj
 0001:00017140       ??$peek_va_arg@C@__crt_stdio_output@@YACPEAD@Z 0000000140018140 f i libucrt:output.obj
 0001:00017144       ??$peek_va_arg@E@__crt_stdio_output@@YAEPEAD@Z 0000000140018144 f i libucrt:output.obj
 0001:00017148       ??$peek_va_arg@F@__crt_stdio_output@@YAFPEAD@Z 0000000140018148 f i libucrt:output.obj
 0001:0001714c       ??$peek_va_arg@G@__crt_stdio_output@@YAGPEAD@Z 000000014001814c f i libucrt:output.obj
 0001:00017150       ??$peek_va_arg@H@__crt_stdio_output@@YAHPEAD@Z 0000000140018150 f i libucrt:output.obj
 0001:00017154       ??$peek_va_arg@I@__crt_stdio_output@@YAIPEAD@Z 0000000140018154 f i libucrt:output.obj
 0001:00017158       ??$peek_va_arg@PEAD@__crt_stdio_output@@YAPEADPEAD@Z 0000000140018158 f i libucrt:output.obj
 0001:0001715c       ??$peek_va_arg@PEAUansi_string@?1??type_case_Z@?$output_processor@DV?$stream_output_adapter@D@__crt_stdio_output@@V?$positional_parameter_base@DV?$stream_output_adapter@D@__crt_stdio_output@@@2@@__crt_stdio_output@@AEAA_NXZ@@__crt_stdio_output@@YAPEAUansi_string@?1??type_case_Z@?$output_processor@DV?$stream_output_adapter@D@__crt_stdio_output@@V?$positional_parameter_base@DV?$stream_output_adapter@D@__crt_stdio_output@@@2@@0@AEAA_NXZ@PEAD@Z 000000014001815c f i libucrt:output.obj
 0001:00017160       ??$peek_va_arg@PEAUansi_string@?1??type_case_Z@?$output_processor@DV?$string_output_adapter@D@__crt_stdio_output@@V?$positional_parameter_base@DV?$string_output_adapter@D@__crt_stdio_output@@@2@@__crt_stdio_output@@AEAA_NXZ@@__crt_stdio_output@@YAPEAUansi_string@?1??type_case_Z@?$output_processor@DV?$string_output_adapter@D@__crt_stdio_output@@V?$positional_parameter_base@DV?$string_output_adapter@D@__crt_stdio_output@@@2@@0@AEAA_NXZ@PEAD@Z 0000000140018160 f i libucrt:output.obj
 0001:00017164       ??$peek_va_arg@PEAUansi_string@?1??type_case_Z@?$output_processor@_WV?$stream_output_adapter@_W@__crt_stdio_output@@V?$positional_parameter_base@_WV?$stream_output_adapter@_W@__crt_stdio_output@@@2@@__crt_stdio_output@@AEAA_NXZ@@__crt_stdio_output@@YAPEAUansi_string@?1??type_case_Z@?$output_processor@_WV?$stream_output_adapter@_W@__crt_stdio_output@@V?$positional_parameter_base@_WV?$stream_output_adapter@_W@__crt_stdio_output@@@2@@0@AEAA_NXZ@PEAD@Z 0000000140018164 f i libucrt:output.obj
 0001:00017168       ??$peek_va_arg@PEAUansi_string@?1??type_case_Z@?$output_processor@_WV?$string_output_adapter@_W@__crt_stdio_output@@V?$positional_parameter_base@_WV?$string_output_adapter@_W@__crt_stdio_output@@@2@@__crt_stdio_output@@AEAA_NXZ@@__crt_stdio_output@@YAPEAUansi_string@?1??type_case_Z@?$output_processor@_WV?$string_output_adapter@_W@__crt_stdio_output@@V?$positional_parameter_base@_WV?$string_output_adapter@_W@__crt_stdio_output@@@2@@0@AEAA_NXZ@PEAD@Z 0000000140018168 f i libucrt:output.obj
 0001:0001716c       ??$peek_va_arg@PEAX@__crt_stdio_output@@YAPEAXPEAD@Z 000000014001816c f i libucrt:output.obj
 0001:00017170       ??$peek_va_arg@U_CRT_DOUBLE@@@__crt_stdio_output@@YA?AU_CRT_DOUBLE@@PEAD@Z 0000000140018170 f i libucrt:output.obj
 0001:00017174       ??$peek_va_arg@_J@__crt_stdio_output@@YA_JPEAD@Z 0000000140018174 f i libucrt:output.obj
 0001:00017178       ??$peek_va_arg@_K@__crt_stdio_output@@YA_KPEAD@Z 0000000140018178 f i libucrt:output.obj
 0001:0001717c       ??$peek_va_arg@_W@__crt_stdio_output@@YA_WPEAD@Z 000000014001817c f i libucrt:output.obj
 0001:00017180       ??$puttc_nolock_internal@AEBDPEAU_iobuf@@AEAV__crt_cached_ptd_host@@@?$__crt_char_traits@D@@SAHAEBD$$QEAPEAU_iobuf@@AEAV__crt_cached_ptd_host@@@Z 0000000140018180 f i libucrt:output.obj
 0001:0001718c       ??$puttc_nolock_internal@AEB_WPEAU_iobuf@@AEAV__crt_cached_ptd_host@@@?$__crt_char_traits@_W@@SAGAEB_W$$QEAPEAU_iobuf@@AEAV__crt_cached_ptd_host@@@Z 000000014001818c f i libucrt:output.obj
 0001:00017198       ??$read_va_arg@C@__crt_stdio_output@@YACAEAPEAD@Z 0000000140018198 f i libucrt:output.obj
 0001:000171a8       ??$read_va_arg@E@__crt_stdio_output@@YAEAEAPEAD@Z 00000001400181a8 f i libucrt:output.obj
 0001:000171b8       ??$read_va_arg@F@__crt_stdio_output@@YAFAEAPEAD@Z 00000001400181b8 f i libucrt:output.obj
 0001:000171c8       ??$read_va_arg@G@__crt_stdio_output@@YAGAEAPEAD@Z 00000001400181c8 f i libucrt:output.obj
 0001:000171d8       ??$read_va_arg@H@__crt_stdio_output@@YAHAEAPEAD@Z 00000001400181d8 f i libucrt:output.obj
 0001:000171e8       ??$read_va_arg@I@__crt_stdio_output@@YAIAEAPEAD@Z 00000001400181e8 f i libucrt:output.obj
 0001:000171f8       ??$read_va_arg@PEAD@__crt_stdio_output@@YAPEADAEAPEAD@Z 00000001400181f8 f i libucrt:output.obj
 0001:00017208       ??$read_va_arg@PEAUansi_string@?1??type_case_Z@?$output_processor@DV?$stream_output_adapter@D@__crt_stdio_output@@V?$format_validation_base@DV?$stream_output_adapter@D@__crt_stdio_output@@@2@@__crt_stdio_output@@AEAA_NXZ@@__crt_stdio_output@@YAPEAUansi_string@?1??type_case_Z@?$output_processor@DV?$stream_output_adapter@D@__crt_stdio_output@@V?$format_validation_base@DV?$stream_output_adapter@D@__crt_stdio_output@@@2@@0@AEAA_NXZ@AEAPEAD@Z 0000000140018208 f i libucrt:output.obj
 0001:00017218       ??$read_va_arg@PEAUansi_string@?1??type_case_Z@?$output_processor@DV?$stream_output_adapter@D@__crt_stdio_output@@V?$positional_parameter_base@DV?$stream_output_adapter@D@__crt_stdio_output@@@2@@__crt_stdio_output@@AEAA_NXZ@@__crt_stdio_output@@YAPEAUansi_string@?1??type_case_Z@?$output_processor@DV?$stream_output_adapter@D@__crt_stdio_output@@V?$positional_parameter_base@DV?$stream_output_adapter@D@__crt_stdio_output@@@2@@0@AEAA_NXZ@AEAPEAD@Z 0000000140018218 f i libucrt:output.obj
 0001:00017228       ??$read_va_arg@PEAUansi_string@?1??type_case_Z@?$output_processor@DV?$stream_output_adapter@D@__crt_stdio_output@@V?$standard_base@DV?$stream_output_adapter@D@__crt_stdio_output@@@2@@__crt_stdio_output@@AEAA_NXZ@@__crt_stdio_output@@YAPEAUansi_string@?1??type_case_Z@?$output_processor@DV?$stream_output_adapter@D@__crt_stdio_output@@V?$standard_base@DV?$stream_output_adapter@D@__crt_stdio_output@@@2@@0@AEAA_NXZ@AEAPEAD@Z 0000000140018228 f i libucrt:output.obj
 0001:00017238       ??$read_va_arg@PEAUansi_string@?1??type_case_Z@?$output_processor@DV?$string_output_adapter@D@__crt_stdio_output@@V?$format_validation_base@DV?$string_output_adapter@D@__crt_stdio_output@@@2@@__crt_stdio_output@@AEAA_NXZ@@__crt_stdio_output@@YAPEAUansi_string@?1??type_case_Z@?$output_processor@DV?$string_output_adapter@D@__crt_stdio_output@@V?$format_validation_base@DV?$string_output_adapter@D@__crt_stdio_output@@@2@@0@AEAA_NXZ@AEAPEAD@Z 0000000140018238 f i libucrt:output.obj
 0001:00017248       ??$read_va_arg@PEAUansi_string@?1??type_case_Z@?$output_processor@DV?$string_output_adapter@D@__crt_stdio_output@@V?$positional_parameter_base@DV?$string_output_adapter@D@__crt_stdio_output@@@2@@__crt_stdio_output@@AEAA_NXZ@@__crt_stdio_output@@YAPEAUansi_string@?1??type_case_Z@?$output_processor@DV?$string_output_adapter@D@__crt_stdio_output@@V?$positional_parameter_base@DV?$string_output_adapter@D@__crt_stdio_output@@@2@@0@AEAA_NXZ@AEAPEAD@Z 0000000140018248 f i libucrt:output.obj
 0001:00017258       ??$read_va_arg@PEAUansi_string@?1??type_case_Z@?$output_processor@DV?$string_output_adapter@D@__crt_stdio_output@@V?$standard_base@DV?$string_output_adapter@D@__crt_stdio_output@@@2@@__crt_stdio_output@@AEAA_NXZ@@__crt_stdio_output@@YAPEAUansi_string@?1??type_case_Z@?$output_processor@DV?$string_output_adapter@D@__crt_stdio_output@@V?$standard_base@DV?$string_output_adapter@D@__crt_stdio_output@@@2@@0@AEAA_NXZ@AEAPEAD@Z 0000000140018258 f i libucrt:output.obj
 0001:00017268       ??$read_va_arg@PEAUansi_string@?1??type_case_Z@?$output_processor@_WV?$stream_output_adapter@_W@__crt_stdio_output@@V?$format_validation_base@_WV?$stream_output_adapter@_W@__crt_stdio_output@@@2@@__crt_stdio_output@@AEAA_NXZ@@__crt_stdio_output@@YAPEAUansi_string@?1??type_case_Z@?$output_processor@_WV?$stream_output_adapter@_W@__crt_stdio_output@@V?$format_validation_base@_WV?$stream_output_adapter@_W@__crt_stdio_output@@@2@@0@AEAA_NXZ@AEAPEAD@Z 0000000140018268 f i libucrt:output.obj
 0001:00017278       ??$read_va_arg@PEAUansi_string@?1??type_case_Z@?$output_processor@_WV?$stream_output_adapter@_W@__crt_stdio_output@@V?$positional_parameter_base@_WV?$stream_output_adapter@_W@__crt_stdio_output@@@2@@__crt_stdio_output@@AEAA_NXZ@@__crt_stdio_output@@YAPEAUansi_string@?1??type_case_Z@?$output_processor@_WV?$stream_output_adapter@_W@__crt_stdio_output@@V?$positional_parameter_base@_WV?$stream_output_adapter@_W@__crt_stdio_output@@@2@@0@AEAA_NXZ@AEAPEAD@Z 0000000140018278 f i libucrt:output.obj
 0001:00017288       ??$read_va_arg@PEAUansi_string@?1??type_case_Z@?$output_processor@_WV?$stream_output_adapter@_W@__crt_stdio_output@@V?$standard_base@_WV?$stream_output_adapter@_W@__crt_stdio_output@@@2@@__crt_stdio_output@@AEAA_NXZ@@__crt_stdio_output@@YAPEAUansi_string@?1??type_case_Z@?$output_processor@_WV?$stream_output_adapter@_W@__crt_stdio_output@@V?$standard_base@_WV?$stream_output_adapter@_W@__crt_stdio_output@@@2@@0@AEAA_NXZ@AEAPEAD@Z 0000000140018288 f i libucrt:output.obj
 0001:00017298       ??$read_va_arg@PEAUansi_string@?1??type_case_Z@?$output_processor@_WV?$string_output_adapter@_W@__crt_stdio_output@@V?$format_validation_base@_WV?$string_output_adapter@_W@__crt_stdio_output@@@2@@__crt_stdio_output@@AEAA_NXZ@@__crt_stdio_output@@YAPEAUansi_string@?1??type_case_Z@?$output_processor@_WV?$string_output_adapter@_W@__crt_stdio_output@@V?$format_validation_base@_WV?$string_output_adapter@_W@__crt_stdio_output@@@2@@0@AEAA_NXZ@AEAPEAD@Z 0000000140018298 f i libucrt:output.obj
 0001:000172a8       ??$read_va_arg@PEAUansi_string@?1??type_case_Z@?$output_processor@_WV?$string_output_adapter@_W@__crt_stdio_output@@V?$positional_parameter_base@_WV?$string_output_adapter@_W@__crt_stdio_output@@@2@@__crt_stdio_output@@AEAA_NXZ@@__crt_stdio_output@@YAPEAUansi_string@?1??type_case_Z@?$output_processor@_WV?$string_output_adapter@_W@__crt_stdio_output@@V?$positional_parameter_base@_WV?$string_output_adapter@_W@__crt_stdio_output@@@2@@0@AEAA_NXZ@AEAPEAD@Z 00000001400182a8 f i libucrt:output.obj
 0001:000172b8       ??$read_va_arg@PEAUansi_string@?1??type_case_Z@?$output_processor@_WV?$string_output_adapter@_W@__crt_stdio_output@@V?$standard_base@_WV?$string_output_adapter@_W@__crt_stdio_output@@@2@@__crt_stdio_output@@AEAA_NXZ@@__crt_stdio_output@@YAPEAUansi_string@?1??type_case_Z@?$output_processor@_WV?$string_output_adapter@_W@__crt_stdio_output@@V?$standard_base@_WV?$string_output_adapter@_W@__crt_stdio_output@@@2@@0@AEAA_NXZ@AEAPEAD@Z 00000001400182b8 f i libucrt:output.obj
 0001:000172c8       ??$read_va_arg@PEAX@__crt_stdio_output@@YAPEAXAEAPEAD@Z 00000001400182c8 f i libucrt:output.obj
 0001:000172d8       ??$read_va_arg@U_CRT_DOUBLE@@@__crt_stdio_output@@YA?AU_CRT_DOUBLE@@AEAPEAD@Z 00000001400182d8 f i libucrt:output.obj
 0001:000172e8       ??$read_va_arg@_J@__crt_stdio_output@@YA_JAEAPEAD@Z 00000001400182e8 f i libucrt:output.obj
 0001:000172f8       ??$read_va_arg@_K@__crt_stdio_output@@YA_KAEAPEAD@Z 00000001400182f8 f i libucrt:output.obj
 0001:00017308       ??$read_va_arg@_W@__crt_stdio_output@@YA_WAEAPEAD@Z 0000000140018308 f i libucrt:output.obj
 0001:00017318       ??$scratch_count@D@formatting_buffer@__crt_stdio_output@@QEBA_KXZ 0000000140018318 f i libucrt:output.obj
 0001:00017334       ??$scratch_data@D@formatting_buffer@__crt_stdio_output@@QEAAPEADXZ 0000000140018334 f i libucrt:output.obj
 0001:00017358       ??$type_case_integer@$07@?$output_processor@DV?$stream_output_adapter@D@__crt_stdio_output@@V?$format_validation_base@DV?$stream_output_adapter@D@__crt_stdio_output@@@2@@__crt_stdio_output@@AEAA_N_N@Z 0000000140018358 f i libucrt:output.obj
 0001:0001755c       ??$type_case_integer@$07@?$output_processor@DV?$stream_output_adapter@D@__crt_stdio_output@@V?$positional_parameter_base@DV?$stream_output_adapter@D@__crt_stdio_output@@@2@@__crt_stdio_output@@AEAA_N_N@Z 000000014001855c f i libucrt:output.obj
 0001:00017788       ??$type_case_integer@$07@?$output_processor@DV?$stream_output_adapter@D@__crt_stdio_output@@V?$standard_base@DV?$stream_output_adapter@D@__crt_stdio_output@@@2@@__crt_stdio_output@@AEAA_N_N@Z 0000000140018788 f i libucrt:output.obj
 0001:0001798c       ??$type_case_integer@$07@?$output_processor@DV?$string_output_adapter@D@__crt_stdio_output@@V?$format_validation_base@DV?$string_output_adapter@D@__crt_stdio_output@@@2@@__crt_stdio_output@@AEAA_N_N@Z 000000014001898c f i libucrt:output.obj
 0001:00017b90       ??$type_case_integer@$07@?$output_processor@DV?$string_output_adapter@D@__crt_stdio_output@@V?$positional_parameter_base@DV?$string_output_adapter@D@__crt_stdio_output@@@2@@__crt_stdio_output@@AEAA_N_N@Z 0000000140018b90 f i libucrt:output.obj
 0001:00017dbc       ??$type_case_integer@$07@?$output_processor@DV?$string_output_adapter@D@__crt_stdio_output@@V?$standard_base@DV?$string_output_adapter@D@__crt_stdio_output@@@2@@__crt_stdio_output@@AEAA_N_N@Z 0000000140018dbc f i libucrt:output.obj
 0001:00017fc0       ??$type_case_integer@$07@?$output_processor@_WV?$stream_output_adapter@_W@__crt_stdio_output@@V?$format_validation_base@_WV?$stream_output_adapter@_W@__crt_stdio_output@@@2@@__crt_stdio_output@@AEAA_N_N@Z 0000000140018fc0 f i libucrt:output.obj
 0001:000181cc       ??$type_case_integer@$07@?$output_processor@_WV?$stream_output_adapter@_W@__crt_stdio_output@@V?$positional_parameter_base@_WV?$stream_output_adapter@_W@__crt_stdio_output@@@2@@__crt_stdio_output@@AEAA_N_N@Z 00000001400191cc f i libucrt:output.obj
 0001:00018400       ??$type_case_integer@$07@?$output_processor@_WV?$stream_output_adapter@_W@__crt_stdio_output@@V?$standard_base@_WV?$stream_output_adapter@_W@__crt_stdio_output@@@2@@__crt_stdio_output@@AEAA_N_N@Z 0000000140019400 f i libucrt:output.obj
 0001:0001860c       ??$type_case_integer@$07@?$output_processor@_WV?$string_output_adapter@_W@__crt_stdio_output@@V?$format_validation_base@_WV?$string_output_adapter@_W@__crt_stdio_output@@@2@@__crt_stdio_output@@AEAA_N_N@Z 000000014001960c f i libucrt:output.obj
 0001:00018818       ??$type_case_integer@$07@?$output_processor@_WV?$string_output_adapter@_W@__crt_stdio_output@@V?$positional_parameter_base@_WV?$string_output_adapter@_W@__crt_stdio_output@@@2@@__crt_stdio_output@@AEAA_N_N@Z 0000000140019818 f i libucrt:output.obj
 0001:00018a4c       ??$type_case_integer@$07@?$output_processor@_WV?$string_output_adapter@_W@__crt_stdio_output@@V?$standard_base@_WV?$string_output_adapter@_W@__crt_stdio_output@@@2@@__crt_stdio_output@@AEAA_N_N@Z 0000000140019a4c f i libucrt:output.obj
 0001:00018c58       ??$type_case_integer@$09@?$output_processor@DV?$stream_output_adapter@D@__crt_stdio_output@@V?$format_validation_base@DV?$stream_output_adapter@D@__crt_stdio_output@@@2@@__crt_stdio_output@@AEAA_N_N@Z 0000000140019c58 f i libucrt:output.obj
 0001:00018e5c       ??$type_case_integer@$09@?$output_processor@DV?$stream_output_adapter@D@__crt_stdio_output@@V?$positional_parameter_base@DV?$stream_output_adapter@D@__crt_stdio_output@@@2@@__crt_stdio_output@@AEAA_N_N@Z 0000000140019e5c f i libucrt:output.obj
 0001:00019088       ??$type_case_integer@$09@?$output_processor@DV?$stream_output_adapter@D@__crt_stdio_output@@V?$standard_base@DV?$stream_output_adapter@D@__crt_stdio_output@@@2@@__crt_stdio_output@@AEAA_N_N@Z 000000014001a088 f i libucrt:output.obj
 0001:0001928c       ??$type_case_integer@$09@?$output_processor@DV?$string_output_adapter@D@__crt_stdio_output@@V?$format_validation_base@DV?$string_output_adapter@D@__crt_stdio_output@@@2@@__crt_stdio_output@@AEAA_N_N@Z 000000014001a28c f i libucrt:output.obj
 0001:00019490       ??$type_case_integer@$09@?$output_processor@DV?$string_output_adapter@D@__crt_stdio_output@@V?$positional_parameter_base@DV?$string_output_adapter@D@__crt_stdio_output@@@2@@__crt_stdio_output@@AEAA_N_N@Z 000000014001a490 f i libucrt:output.obj
 0001:000196bc       ??$type_case_integer@$09@?$output_processor@DV?$string_output_adapter@D@__crt_stdio_output@@V?$standard_base@DV?$string_output_adapter@D@__crt_stdio_output@@@2@@__crt_stdio_output@@AEAA_N_N@Z 000000014001a6bc f i libucrt:output.obj
 0001:000198c0       ??$type_case_integer@$09@?$output_processor@_WV?$stream_output_adapter@_W@__crt_stdio_output@@V?$format_validation_base@_WV?$stream_output_adapter@_W@__crt_stdio_output@@@2@@__crt_stdio_output@@AEAA_N_N@Z 000000014001a8c0 f i libucrt:output.obj
 0001:00019acc       ??$type_case_integer@$09@?$output_processor@_WV?$stream_output_adapter@_W@__crt_stdio_output@@V?$positional_parameter_base@_WV?$stream_output_adapter@_W@__crt_stdio_output@@@2@@__crt_stdio_output@@AEAA_N_N@Z 000000014001aacc f i libucrt:output.obj
 0001:00019d00       ??$type_case_integer@$09@?$output_processor@_WV?$stream_output_adapter@_W@__crt_stdio_output@@V?$standard_base@_WV?$stream_output_adapter@_W@__crt_stdio_output@@@2@@__crt_stdio_output@@AEAA_N_N@Z 000000014001ad00 f i libucrt:output.obj
 0001:00019f0c       ??$type_case_integer@$09@?$output_processor@_WV?$string_output_adapter@_W@__crt_stdio_output@@V?$format_validation_base@_WV?$string_output_adapter@_W@__crt_stdio_output@@@2@@__crt_stdio_output@@AEAA_N_N@Z 000000014001af0c f i libucrt:output.obj
 0001:0001a118       ??$type_case_integer@$09@?$output_processor@_WV?$string_output_adapter@_W@__crt_stdio_output@@V?$positional_parameter_base@_WV?$string_output_adapter@_W@__crt_stdio_output@@@2@@__crt_stdio_output@@AEAA_N_N@Z 000000014001b118 f i libucrt:output.obj
 0001:0001a34c       ??$type_case_integer@$09@?$output_processor@_WV?$string_output_adapter@_W@__crt_stdio_output@@V?$standard_base@_WV?$string_output_adapter@_W@__crt_stdio_output@@@2@@__crt_stdio_output@@AEAA_N_N@Z 000000014001b34c f i libucrt:output.obj
 0001:0001a558       ??$type_case_integer@$0BA@@?$output_processor@DV?$stream_output_adapter@D@__crt_stdio_output@@V?$format_validation_base@DV?$stream_output_adapter@D@__crt_stdio_output@@@2@@__crt_stdio_output@@AEAA_N_N@Z 000000014001b558 f i libucrt:output.obj
 0001:0001a75c       ??$type_case_integer@$0BA@@?$output_processor@DV?$stream_output_adapter@D@__crt_stdio_output@@V?$positional_parameter_base@DV?$stream_output_adapter@D@__crt_stdio_output@@@2@@__crt_stdio_output@@AEAA_N_N@Z 000000014001b75c f i libucrt:output.obj
 0001:0001a988       ??$type_case_integer@$0BA@@?$output_processor@DV?$stream_output_adapter@D@__crt_stdio_output@@V?$standard_base@DV?$stream_output_adapter@D@__crt_stdio_output@@@2@@__crt_stdio_output@@AEAA_N_N@Z 000000014001b988 f i libucrt:output.obj
 0001:0001ab8c       ??$type_case_integer@$0BA@@?$output_processor@DV?$string_output_adapter@D@__crt_stdio_output@@V?$format_validation_base@DV?$string_output_adapter@D@__crt_stdio_output@@@2@@__crt_stdio_output@@AEAA_N_N@Z 000000014001bb8c f i libucrt:output.obj
 0001:0001ad90       ??$type_case_integer@$0BA@@?$output_processor@DV?$string_output_adapter@D@__crt_stdio_output@@V?$positional_parameter_base@DV?$string_output_adapter@D@__crt_stdio_output@@@2@@__crt_stdio_output@@AEAA_N_N@Z 000000014001bd90 f i libucrt:output.obj
 0001:0001afbc       ??$type_case_integer@$0BA@@?$output_processor@DV?$string_output_adapter@D@__crt_stdio_output@@V?$standard_base@DV?$string_output_adapter@D@__crt_stdio_output@@@2@@__crt_stdio_output@@AEAA_N_N@Z 000000014001bfbc f i libucrt:output.obj
 0001:0001b1c0       ??$type_case_integer@$0BA@@?$output_processor@_WV?$stream_output_adapter@_W@__crt_stdio_output@@V?$format_validation_base@_WV?$stream_output_adapter@_W@__crt_stdio_output@@@2@@__crt_stdio_output@@AEAA_N_N@Z 000000014001c1c0 f i libucrt:output.obj
 0001:0001b3cc       ??$type_case_integer@$0BA@@?$output_processor@_WV?$stream_output_adapter@_W@__crt_stdio_output@@V?$positional_parameter_base@_WV?$stream_output_adapter@_W@__crt_stdio_output@@@2@@__crt_stdio_output@@AEAA_N_N@Z 000000014001c3cc f i libucrt:output.obj
 0001:0001b600       ??$type_case_integer@$0BA@@?$output_processor@_WV?$stream_output_adapter@_W@__crt_stdio_output@@V?$standard_base@_WV?$stream_output_adapter@_W@__crt_stdio_output@@@2@@__crt_stdio_output@@AEAA_N_N@Z 000000014001c600 f i libucrt:output.obj
 0001:0001b80c       ??$type_case_integer@$0BA@@?$output_processor@_WV?$string_output_adapter@_W@__crt_stdio_output@@V?$format_validation_base@_WV?$string_output_adapter@_W@__crt_stdio_output@@@2@@__crt_stdio_output@@AEAA_N_N@Z 000000014001c80c f i libucrt:output.obj
 0001:0001ba18       ??$type_case_integer@$0BA@@?$output_processor@_WV?$string_output_adapter@_W@__crt_stdio_output@@V?$positional_parameter_base@_WV?$string_output_adapter@_W@__crt_stdio_output@@@2@@__crt_stdio_output@@AEAA_N_N@Z 000000014001ca18 f i libucrt:output.obj
 0001:0001bc4c       ??$type_case_integer@$0BA@@?$output_processor@_WV?$string_output_adapter@_W@__crt_stdio_output@@V?$standard_base@_WV?$string_output_adapter@_W@__crt_stdio_output@@@2@@__crt_stdio_output@@AEAA_N_N@Z 000000014001cc4c f i libucrt:output.obj
 0001:0001be58       ??$type_case_integer_parse_into_buffer@I$07@?$output_processor@DV?$stream_output_adapter@D@__crt_stdio_output@@V?$format_validation_base@DV?$stream_output_adapter@D@__crt_stdio_output@@@2@@__crt_stdio_output@@AEAAXI_N@Z 000000014001ce58 f i libucrt:output.obj
 0001:0001bec8       ??$type_case_integer_parse_into_buffer@I$07@?$output_processor@DV?$stream_output_adapter@D@__crt_stdio_output@@V?$positional_parameter_base@DV?$stream_output_adapter@D@__crt_stdio_output@@@2@@__crt_stdio_output@@AEAAXI_N@Z 000000014001cec8 f i libucrt:output.obj
 0001:0001bf38       ??$type_case_integer_parse_into_buffer@I$07@?$output_processor@DV?$stream_output_adapter@D@__crt_stdio_output@@V?$standard_base@DV?$stream_output_adapter@D@__crt_stdio_output@@@2@@__crt_stdio_output@@AEAAXI_N@Z 000000014001cf38 f i libucrt:output.obj
 0001:0001bfa8       ??$type_case_integer_parse_into_buffer@I$07@?$output_processor@DV?$string_output_adapter@D@__crt_stdio_output@@V?$format_validation_base@DV?$string_output_adapter@D@__crt_stdio_output@@@2@@__crt_stdio_output@@AEAAXI_N@Z 000000014001cfa8 f i libucrt:output.obj
 0001:0001c018       ??$type_case_integer_parse_into_buffer@I$07@?$output_processor@DV?$string_output_adapter@D@__crt_stdio_output@@V?$positional_parameter_base@DV?$string_output_adapter@D@__crt_stdio_output@@@2@@__crt_stdio_output@@AEAAXI_N@Z 000000014001d018 f i libucrt:output.obj
 0001:0001c088       ??$type_case_integer_parse_into_buffer@I$07@?$output_processor@DV?$string_output_adapter@D@__crt_stdio_output@@V?$standard_base@DV?$string_output_adapter@D@__crt_stdio_output@@@2@@__crt_stdio_output@@AEAAXI_N@Z 000000014001d088 f i libucrt:output.obj
 0001:0001c0f8       ??$type_case_integer_parse_into_buffer@I$07@?$output_processor@_WV?$stream_output_adapter@_W@__crt_stdio_output@@V?$format_validation_base@_WV?$stream_output_adapter@_W@__crt_stdio_output@@@2@@__crt_stdio_output@@AEAAXI_N@Z 000000014001d0f8 f i libucrt:output.obj
 0001:0001c17c       ??$type_case_integer_parse_into_buffer@I$07@?$output_processor@_WV?$stream_output_adapter@_W@__crt_stdio_output@@V?$positional_parameter_base@_WV?$stream_output_adapter@_W@__crt_stdio_output@@@2@@__crt_stdio_output@@AEAAXI_N@Z 000000014001d17c f i libucrt:output.obj
 0001:0001c200       ??$type_case_integer_parse_into_buffer@I$07@?$output_processor@_WV?$stream_output_adapter@_W@__crt_stdio_output@@V?$standard_base@_WV?$stream_output_adapter@_W@__crt_stdio_output@@@2@@__crt_stdio_output@@AEAAXI_N@Z 000000014001d200 f i libucrt:output.obj
 0001:0001c284       ??$type_case_integer_parse_into_buffer@I$07@?$output_processor@_WV?$string_output_adapter@_W@__crt_stdio_output@@V?$format_validation_base@_WV?$string_output_adapter@_W@__crt_stdio_output@@@2@@__crt_stdio_output@@AEAAXI_N@Z 000000014001d284 f i libucrt:output.obj
 0001:0001c308       ??$type_case_integer_parse_into_buffer@I$07@?$output_processor@_WV?$string_output_adapter@_W@__crt_stdio_output@@V?$positional_parameter_base@_WV?$string_output_adapter@_W@__crt_stdio_output@@@2@@__crt_stdio_output@@AEAAXI_N@Z 000000014001d308 f i libucrt:output.obj
 0001:0001c38c       ??$type_case_integer_parse_into_buffer@I$07@?$output_processor@_WV?$string_output_adapter@_W@__crt_stdio_output@@V?$standard_base@_WV?$string_output_adapter@_W@__crt_stdio_output@@@2@@__crt_stdio_output@@AEAAXI_N@Z 000000014001d38c f i libucrt:output.obj
 0001:0001c410       ??$type_case_integer_parse_into_buffer@I$09@?$output_processor@DV?$stream_output_adapter@D@__crt_stdio_output@@V?$format_validation_base@DV?$stream_output_adapter@D@__crt_stdio_output@@@2@@__crt_stdio_output@@AEAAXI_N@Z 000000014001d410 f i libucrt:output.obj
 0001:0001c4bc       ??$type_case_integer_parse_into_buffer@I$09@?$output_processor@DV?$stream_output_adapter@D@__crt_stdio_output@@V?$positional_parameter_base@DV?$stream_output_adapter@D@__crt_stdio_output@@@2@@__crt_stdio_output@@AEAAXI_N@Z 000000014001d4bc f i libucrt:output.obj
 0001:0001c568       ??$type_case_integer_parse_into_buffer@I$09@?$output_processor@DV?$stream_output_adapter@D@__crt_stdio_output@@V?$standard_base@DV?$stream_output_adapter@D@__crt_stdio_output@@@2@@__crt_stdio_output@@AEAAXI_N@Z 000000014001d568 f i libucrt:output.obj
 0001:0001c614       ??$type_case_integer_parse_into_buffer@I$09@?$output_processor@DV?$string_output_adapter@D@__crt_stdio_output@@V?$format_validation_base@DV?$string_output_adapter@D@__crt_stdio_output@@@2@@__crt_stdio_output@@AEAAXI_N@Z 000000014001d614 f i libucrt:output.obj
 0001:0001c6c0       ??$type_case_integer_parse_into_buffer@I$09@?$output_processor@DV?$string_output_adapter@D@__crt_stdio_output@@V?$positional_parameter_base@DV?$string_output_adapter@D@__crt_stdio_output@@@2@@__crt_stdio_output@@AEAAXI_N@Z 000000014001d6c0 f i libucrt:output.obj
 0001:0001c76c       ??$type_case_integer_parse_into_buffer@I$09@?$output_processor@DV?$string_output_adapter@D@__crt_stdio_output@@V?$standard_base@DV?$string_output_adapter@D@__crt_stdio_output@@@2@@__crt_stdio_output@@AEAAXI_N@Z 000000014001d76c f i libucrt:output.obj
 0001:0001c818       ??$type_case_integer_parse_into_buffer@I$09@?$output_processor@_WV?$stream_output_adapter@_W@__crt_stdio_output@@V?$format_validation_base@_WV?$stream_output_adapter@_W@__crt_stdio_output@@@2@@__crt_stdio_output@@AEAAXI_N@Z 000000014001d818 f i libucrt:output.obj
 0001:0001c8d8       ??$type_case_integer_parse_into_buffer@I$09@?$output_processor@_WV?$stream_output_adapter@_W@__crt_stdio_output@@V?$positional_parameter_base@_WV?$stream_output_adapter@_W@__crt_stdio_output@@@2@@__crt_stdio_output@@AEAAXI_N@Z 000000014001d8d8 f i libucrt:output.obj
 0001:0001c998       ??$type_case_integer_parse_into_buffer@I$09@?$output_processor@_WV?$stream_output_adapter@_W@__crt_stdio_output@@V?$standard_base@_WV?$stream_output_adapter@_W@__crt_stdio_output@@@2@@__crt_stdio_output@@AEAAXI_N@Z 000000014001d998 f i libucrt:output.obj
 0001:0001ca58       ??$type_case_integer_parse_into_buffer@I$09@?$output_processor@_WV?$string_output_adapter@_W@__crt_stdio_output@@V?$format_validation_base@_WV?$string_output_adapter@_W@__crt_stdio_output@@@2@@__crt_stdio_output@@AEAAXI_N@Z 000000014001da58 f i libucrt:output.obj
 0001:0001cb18       ??$type_case_integer_parse_into_buffer@I$09@?$output_processor@_WV?$string_output_adapter@_W@__crt_stdio_output@@V?$positional_parameter_base@_WV?$string_output_adapter@_W@__crt_stdio_output@@@2@@__crt_stdio_output@@AEAAXI_N@Z 000000014001db18 f i libucrt:output.obj
 0001:0001cbd8       ??$type_case_integer_parse_into_buffer@I$09@?$output_processor@_WV?$string_output_adapter@_W@__crt_stdio_output@@V?$standard_base@_WV?$string_output_adapter@_W@__crt_stdio_output@@@2@@__crt_stdio_output@@AEAAXI_N@Z 000000014001dbd8 f i libucrt:output.obj
 0001:0001cc98       ??$type_case_integer_parse_into_buffer@I$0BA@@?$output_processor@DV?$stream_output_adapter@D@__crt_stdio_output@@V?$format_validation_base@DV?$stream_output_adapter@D@__crt_stdio_output@@@2@@__crt_stdio_output@@AEAAXI_N@Z 000000014001dc98 f i libucrt:output.obj
 0001:0001cd1c       ??$type_case_integer_parse_into_buffer@I$0BA@@?$output_processor@DV?$stream_output_adapter@D@__crt_stdio_output@@V?$positional_parameter_base@DV?$stream_output_adapter@D@__crt_stdio_output@@@2@@__crt_stdio_output@@AEAAXI_N@Z 000000014001dd1c f i libucrt:output.obj
 0001:0001cda0       ??$type_case_integer_parse_into_buffer@I$0BA@@?$output_processor@DV?$stream_output_adapter@D@__crt_stdio_output@@V?$standard_base@DV?$stream_output_adapter@D@__crt_stdio_output@@@2@@__crt_stdio_output@@AEAAXI_N@Z 000000014001dda0 f i libucrt:output.obj
 0001:0001ce24       ??$type_case_integer_parse_into_buffer@I$0BA@@?$output_processor@DV?$string_output_adapter@D@__crt_stdio_output@@V?$format_validation_base@DV?$string_output_adapter@D@__crt_stdio_output@@@2@@__crt_stdio_output@@AEAAXI_N@Z 000000014001de24 f i libucrt:output.obj
 0001:0001cea8       ??$type_case_integer_parse_into_buffer@I$0BA@@?$output_processor@DV?$string_output_adapter@D@__crt_stdio_output@@V?$positional_parameter_base@DV?$string_output_adapter@D@__crt_stdio_output@@@2@@__crt_stdio_output@@AEAAXI_N@Z 000000014001dea8 f i libucrt:output.obj
 0001:0001cf2c       ??$type_case_integer_parse_into_buffer@I$0BA@@?$output_processor@DV?$string_output_adapter@D@__crt_stdio_output@@V?$standard_base@DV?$string_output_adapter@D@__crt_stdio_output@@@2@@__crt_stdio_output@@AEAAXI_N@Z 000000014001df2c f i libucrt:output.obj
 0001:0001cfb0       ??$type_case_integer_parse_into_buffer@I$0BA@@?$output_processor@_WV?$stream_output_adapter@_W@__crt_stdio_output@@V?$format_validation_base@_WV?$stream_output_adapter@_W@__crt_stdio_output@@@2@@__crt_stdio_output@@AEAAXI_N@Z 000000014001dfb0 f i libucrt:output.obj
 0001:0001d050       ??$type_case_integer_parse_into_buffer@I$0BA@@?$output_processor@_WV?$stream_output_adapter@_W@__crt_stdio_output@@V?$positional_parameter_base@_WV?$stream_output_adapter@_W@__crt_stdio_output@@@2@@__crt_stdio_output@@AEAAXI_N@Z 000000014001e050 f i libucrt:output.obj
 0001:0001d0f0       ??$type_case_integer_parse_into_buffer@I$0BA@@?$output_processor@_WV?$stream_output_adapter@_W@__crt_stdio_output@@V?$standard_base@_WV?$stream_output_adapter@_W@__crt_stdio_output@@@2@@__crt_stdio_output@@AEAAXI_N@Z 000000014001e0f0 f i libucrt:output.obj
 0001:0001d190       ??$type_case_integer_parse_into_buffer@I$0BA@@?$output_processor@_WV?$string_output_adapter@_W@__crt_stdio_output@@V?$format_validation_base@_WV?$string_output_adapter@_W@__crt_stdio_output@@@2@@__crt_stdio_output@@AEAAXI_N@Z 000000014001e190 f i libucrt:output.obj
 0001:0001d230       ??$type_case_integer_parse_into_buffer@I$0BA@@?$output_processor@_WV?$string_output_adapter@_W@__crt_stdio_output@@V?$positional_parameter_base@_WV?$string_output_adapter@_W@__crt_stdio_output@@@2@@__crt_stdio_output@@AEAAXI_N@Z 000000014001e230 f i libucrt:output.obj
 0001:0001d2d0       ??$type_case_integer_parse_into_buffer@I$0BA@@?$output_processor@_WV?$string_output_adapter@_W@__crt_stdio_output@@V?$standard_base@_WV?$string_output_adapter@_W@__crt_stdio_output@@@2@@__crt_stdio_output@@AEAAXI_N@Z 000000014001e2d0 f i libucrt:output.obj
 0001:0001d370       ??$type_case_integer_parse_into_buffer@_K$07@?$output_processor@DV?$stream_output_adapter@D@__crt_stdio_output@@V?$format_validation_base@DV?$stream_output_adapter@D@__crt_stdio_output@@@2@@__crt_stdio_output@@AEAAX_K_N@Z 000000014001e370 f i libucrt:output.obj
 0001:0001d3e0       ??$type_case_integer_parse_into_buffer@_K$07@?$output_processor@DV?$stream_output_adapter@D@__crt_stdio_output@@V?$positional_parameter_base@DV?$stream_output_adapter@D@__crt_stdio_output@@@2@@__crt_stdio_output@@AEAAX_K_N@Z 000000014001e3e0 f i libucrt:output.obj
 0001:0001d450       ??$type_case_integer_parse_into_buffer@_K$07@?$output_processor@DV?$stream_output_adapter@D@__crt_stdio_output@@V?$standard_base@DV?$stream_output_adapter@D@__crt_stdio_output@@@2@@__crt_stdio_output@@AEAAX_K_N@Z 000000014001e450 f i libucrt:output.obj
 0001:0001d4c0       ??$type_case_integer_parse_into_buffer@_K$07@?$output_processor@DV?$string_output_adapter@D@__crt_stdio_output@@V?$format_validation_base@DV?$string_output_adapter@D@__crt_stdio_output@@@2@@__crt_stdio_output@@AEAAX_K_N@Z 000000014001e4c0 f i libucrt:output.obj
 0001:0001d530       ??$type_case_integer_parse_into_buffer@_K$07@?$output_processor@DV?$string_output_adapter@D@__crt_stdio_output@@V?$positional_parameter_base@DV?$string_output_adapter@D@__crt_stdio_output@@@2@@__crt_stdio_output@@AEAAX_K_N@Z 000000014001e530 f i libucrt:output.obj
 0001:0001d5a0       ??$type_case_integer_parse_into_buffer@_K$07@?$output_processor@DV?$string_output_adapter@D@__crt_stdio_output@@V?$standard_base@DV?$string_output_adapter@D@__crt_stdio_output@@@2@@__crt_stdio_output@@AEAAX_K_N@Z 000000014001e5a0 f i libucrt:output.obj
 0001:0001d610       ??$type_case_integer_parse_into_buffer@_K$07@?$output_processor@_WV?$stream_output_adapter@_W@__crt_stdio_output@@V?$format_validation_base@_WV?$stream_output_adapter@_W@__crt_stdio_output@@@2@@__crt_stdio_output@@AEAAX_K_N@Z 000000014001e610 f i libucrt:output.obj
 0001:0001d698       ??$type_case_integer_parse_into_buffer@_K$07@?$output_processor@_WV?$stream_output_adapter@_W@__crt_stdio_output@@V?$positional_parameter_base@_WV?$stream_output_adapter@_W@__crt_stdio_output@@@2@@__crt_stdio_output@@AEAAX_K_N@Z 000000014001e698 f i libucrt:output.obj
 0001:0001d720       ??$type_case_integer_parse_into_buffer@_K$07@?$output_processor@_WV?$stream_output_adapter@_W@__crt_stdio_output@@V?$standard_base@_WV?$stream_output_adapter@_W@__crt_stdio_output@@@2@@__crt_stdio_output@@AEAAX_K_N@Z 000000014001e720 f i libucrt:output.obj
 0001:0001d7a8       ??$type_case_integer_parse_into_buffer@_K$07@?$output_processor@_WV?$string_output_adapter@_W@__crt_stdio_output@@V?$format_validation_base@_WV?$string_output_adapter@_W@__crt_stdio_output@@@2@@__crt_stdio_output@@AEAAX_K_N@Z 000000014001e7a8 f i libucrt:output.obj
 0001:0001d830       ??$type_case_integer_parse_into_buffer@_K$07@?$output_processor@_WV?$string_output_adapter@_W@__crt_stdio_output@@V?$positional_parameter_base@_WV?$string_output_adapter@_W@__crt_stdio_output@@@2@@__crt_stdio_output@@AEAAX_K_N@Z 000000014001e830 f i libucrt:output.obj
 0001:0001d8b8       ??$type_case_integer_parse_into_buffer@_K$07@?$output_processor@_WV?$string_output_adapter@_W@__crt_stdio_output@@V?$standard_base@_WV?$string_output_adapter@_W@__crt_stdio_output@@@2@@__crt_stdio_output@@AEAAX_K_N@Z 000000014001e8b8 f i libucrt:output.obj
 0001:0001d940       ??$type_case_integer_parse_into_buffer@_K$09@?$output_processor@DV?$stream_output_adapter@D@__crt_stdio_output@@V?$format_validation_base@DV?$stream_output_adapter@D@__crt_stdio_output@@@2@@__crt_stdio_output@@AEAAX_K_N@Z 000000014001e940 f i libucrt:output.obj
 0001:0001d9f0       ??$type_case_integer_parse_into_buffer@_K$09@?$output_processor@DV?$stream_output_adapter@D@__crt_stdio_output@@V?$positional_parameter_base@DV?$stream_output_adapter@D@__crt_stdio_output@@@2@@__crt_stdio_output@@AEAAX_K_N@Z 000000014001e9f0 f i libucrt:output.obj
 0001:0001daa0       ??$type_case_integer_parse_into_buffer@_K$09@?$output_processor@DV?$stream_output_adapter@D@__crt_stdio_output@@V?$standard_base@DV?$stream_output_adapter@D@__crt_stdio_output@@@2@@__crt_stdio_output@@AEAAX_K_N@Z 000000014001eaa0 f i libucrt:output.obj
 0001:0001db50       ??$type_case_integer_parse_into_buffer@_K$09@?$output_processor@DV?$string_output_adapter@D@__crt_stdio_output@@V?$format_validation_base@DV?$string_output_adapter@D@__crt_stdio_output@@@2@@__crt_stdio_output@@AEAAX_K_N@Z 000000014001eb50 f i libucrt:output.obj
 0001:0001dc00       ??$type_case_integer_parse_into_buffer@_K$09@?$output_processor@DV?$string_output_adapter@D@__crt_stdio_output@@V?$positional_parameter_base@DV?$string_output_adapter@D@__crt_stdio_output@@@2@@__crt_stdio_output@@AEAAX_K_N@Z 000000014001ec00 f i libucrt:output.obj
 0001:0001dcb0       ??$type_case_integer_parse_into_buffer@_K$09@?$output_processor@DV?$string_output_adapter@D@__crt_stdio_output@@V?$standard_base@DV?$string_output_adapter@D@__crt_stdio_output@@@2@@__crt_stdio_output@@AEAAX_K_N@Z 000000014001ecb0 f i libucrt:output.obj
 0001:0001dd60       ??$type_case_integer_parse_into_buffer@_K$09@?$output_processor@_WV?$stream_output_adapter@_W@__crt_stdio_output@@V?$format_validation_base@_WV?$stream_output_adapter@_W@__crt_stdio_output@@@2@@__crt_stdio_output@@AEAAX_K_N@Z 000000014001ed60 f i libucrt:output.obj
 0001:0001de24       ??$type_case_integer_parse_into_buffer@_K$09@?$output_processor@_WV?$stream_output_adapter@_W@__crt_stdio_output@@V?$positional_parameter_base@_WV?$stream_output_adapter@_W@__crt_stdio_output@@@2@@__crt_stdio_output@@AEAAX_K_N@Z 000000014001ee24 f i libucrt:output.obj
 0001:0001dee8       ??$type_case_integer_parse_into_buffer@_K$09@?$output_processor@_WV?$stream_output_adapter@_W@__crt_stdio_output@@V?$standard_base@_WV?$stream_output_adapter@_W@__crt_stdio_output@@@2@@__crt_stdio_output@@AEAAX_K_N@Z 000000014001eee8 f i libucrt:output.obj
 0001:0001dfac       ??$type_case_integer_parse_into_buffer@_K$09@?$output_processor@_WV?$string_output_adapter@_W@__crt_stdio_output@@V?$format_validation_base@_WV?$string_output_adapter@_W@__crt_stdio_output@@@2@@__crt_stdio_output@@AEAAX_K_N@Z 000000014001efac f i libucrt:output.obj
 0001:0001e070       ??$type_case_integer_parse_into_buffer@_K$09@?$output_processor@_WV?$string_output_adapter@_W@__crt_stdio_output@@V?$positional_parameter_base@_WV?$string_output_adapter@_W@__crt_stdio_output@@@2@@__crt_stdio_output@@AEAAX_K_N@Z 000000014001f070 f i libucrt:output.obj
 0001:0001e134       ??$type_case_integer_parse_into_buffer@_K$09@?$output_processor@_WV?$string_output_adapter@_W@__crt_stdio_output@@V?$standard_base@_WV?$string_output_adapter@_W@__crt_stdio_output@@@2@@__crt_stdio_output@@AEAAX_K_N@Z 000000014001f134 f i libucrt:output.obj
 0001:0001e1f8       ??$type_case_integer_parse_into_buffer@_K$0BA@@?$output_processor@DV?$stream_output_adapter@D@__crt_stdio_output@@V?$format_validation_base@DV?$stream_output_adapter@D@__crt_stdio_output@@@2@@__crt_stdio_output@@AEAAX_K_N@Z 000000014001f1f8 f i libucrt:output.obj
 0001:0001e27c       ??$type_case_integer_parse_into_buffer@_K$0BA@@?$output_processor@DV?$stream_output_adapter@D@__crt_stdio_output@@V?$positional_parameter_base@DV?$stream_output_adapter@D@__crt_stdio_output@@@2@@__crt_stdio_output@@AEAAX_K_N@Z 000000014001f27c f i libucrt:output.obj
 0001:0001e300       ??$type_case_integer_parse_into_buffer@_K$0BA@@?$output_processor@DV?$stream_output_adapter@D@__crt_stdio_output@@V?$standard_base@DV?$stream_output_adapter@D@__crt_stdio_output@@@2@@__crt_stdio_output@@AEAAX_K_N@Z 000000014001f300 f i libucrt:output.obj
 0001:0001e384       ??$type_case_integer_parse_into_buffer@_K$0BA@@?$output_processor@DV?$string_output_adapter@D@__crt_stdio_output@@V?$format_validation_base@DV?$string_output_adapter@D@__crt_stdio_output@@@2@@__crt_stdio_output@@AEAAX_K_N@Z 000000014001f384 f i libucrt:output.obj
 0001:0001e408       ??$type_case_integer_parse_into_buffer@_K$0BA@@?$output_processor@DV?$string_output_adapter@D@__crt_stdio_output@@V?$positional_parameter_base@DV?$string_output_adapter@D@__crt_stdio_output@@@2@@__crt_stdio_output@@AEAAX_K_N@Z 000000014001f408 f i libucrt:output.obj
 0001:0001e48c       ??$type_case_integer_parse_into_buffer@_K$0BA@@?$output_processor@DV?$string_output_adapter@D@__crt_stdio_output@@V?$standard_base@DV?$string_output_adapter@D@__crt_stdio_output@@@2@@__crt_stdio_output@@AEAAX_K_N@Z 000000014001f48c f i libucrt:output.obj
 0001:0001e510       ??$type_case_integer_parse_into_buffer@_K$0BA@@?$output_processor@_WV?$stream_output_adapter@_W@__crt_stdio_output@@V?$format_validation_base@_WV?$stream_output_adapter@_W@__crt_stdio_output@@@2@@__crt_stdio_output@@AEAAX_K_N@Z 000000014001f510 f i libucrt:output.obj
 0001:0001e5b0       ??$type_case_integer_parse_into_buffer@_K$0BA@@?$output_processor@_WV?$stream_output_adapter@_W@__crt_stdio_output@@V?$positional_parameter_base@_WV?$stream_output_adapter@_W@__crt_stdio_output@@@2@@__crt_stdio_output@@AEAAX_K_N@Z 000000014001f5b0 f i libucrt:output.obj
 0001:0001e650       ??$type_case_integer_parse_into_buffer@_K$0BA@@?$output_processor@_WV?$stream_output_adapter@_W@__crt_stdio_output@@V?$standard_base@_WV?$stream_output_adapter@_W@__crt_stdio_output@@@2@@__crt_stdio_output@@AEAAX_K_N@Z 000000014001f650 f i libucrt:output.obj
 0001:0001e6f0       ??$type_case_integer_parse_into_buffer@_K$0BA@@?$output_processor@_WV?$string_output_adapter@_W@__crt_stdio_output@@V?$format_validation_base@_WV?$string_output_adapter@_W@__crt_stdio_output@@@2@@__crt_stdio_output@@AEAAX_K_N@Z 000000014001f6f0 f i libucrt:output.obj
 0001:0001e790       ??$type_case_integer_parse_into_buffer@_K$0BA@@?$output_processor@_WV?$string_output_adapter@_W@__crt_stdio_output@@V?$positional_parameter_base@_WV?$string_output_adapter@_W@__crt_stdio_output@@@2@@__crt_stdio_output@@AEAAX_K_N@Z 000000014001f790 f i libucrt:output.obj
 0001:0001e830       ??$type_case_integer_parse_into_buffer@_K$0BA@@?$output_processor@_WV?$string_output_adapter@_W@__crt_stdio_output@@V?$standard_base@_WV?$string_output_adapter@_W@__crt_stdio_output@@@2@@__crt_stdio_output@@AEAAX_K_N@Z 000000014001f830 f i libucrt:output.obj
 0001:0001e8d0       ??$write_multiple_characters@V?$stream_output_adapter@D@__crt_stdio_output@@D@__crt_stdio_output@@YAXAEBV?$stream_output_adapter@D@0@DHQEAHAEAV__crt_cached_ptd_host@@@Z 000000014001f8d0 f i libucrt:output.obj
 0001:0001e964       ??$write_multiple_characters@V?$stream_output_adapter@_W@__crt_stdio_output@@D@__crt_stdio_output@@YAXAEBV?$stream_output_adapter@_W@0@DHQEAHAEAV__crt_cached_ptd_host@@@Z 000000014001f964 f i libucrt:output.obj
 0001:0001e9fc       ??$write_multiple_characters@V?$string_output_adapter@D@__crt_stdio_output@@D@__crt_stdio_output@@YAXAEBV?$string_output_adapter@D@0@DHQEAHAEAV__crt_cached_ptd_host@@@Z 000000014001f9fc f i libucrt:output.obj
 0001:0001ea74       ??$write_multiple_characters@V?$string_output_adapter@_W@__crt_stdio_output@@D@__crt_stdio_output@@YAXAEBV?$string_output_adapter@_W@0@DHQEAHAEAV__crt_cached_ptd_host@@@Z 000000014001fa74 f i libucrt:output.obj
 0001:0001ec54       ??0?$c_string_character_source@D@__crt_strtox@@QEAA@QEBDQEAPEBD@Z 000000014001fc54 f i libucrt:output.obj
 0001:0001ec68       ??0?$c_string_character_source@_W@__crt_strtox@@QEAA@QEB_WQEAPEB_W@Z 000000014001fc68 f i libucrt:output.obj
 0001:0001ec7c       ??0?$cached@H@__crt_cached_ptd_host@@QEAA@XZ 000000014001fc7c f i libucrt:output.obj
 0001:0001ec84       ??0?$cached@K@__crt_cached_ptd_host@@QEAA@XZ 000000014001fc84 f i libucrt:output.obj
 0001:0001ec8c       ??0?$common_data@D@__crt_stdio_output@@IEAA@AEAV__crt_cached_ptd_host@@@Z 000000014001fc8c f i libucrt:output.obj
 0001:0001ecc8       ??0?$common_data@_W@__crt_stdio_output@@IEAA@AEAV__crt_cached_ptd_host@@@Z 000000014001fcc8 f i libucrt:output.obj
 0001:0001ed08       ??0?$output_adapter_data@DV?$stream_output_adapter@D@__crt_stdio_output@@@__crt_stdio_output@@IEAA@AEBV?$stream_output_adapter@D@1@_KQEBDAEAV__crt_cached_ptd_host@@QEAD@Z 000000014001fd08 f i libucrt:output.obj
 0001:0001ed68       ??0?$output_adapter_data@DV?$string_output_adapter@D@__crt_stdio_output@@@__crt_stdio_output@@IEAA@AEBV?$string_output_adapter@D@1@_KQEBDAEAV__crt_cached_ptd_host@@QEAD@Z 000000014001fd68 f i libucrt:output.obj
 0001:0001edc8       ??0?$output_adapter_data@_WV?$stream_output_adapter@_W@__crt_stdio_output@@@__crt_stdio_output@@IEAA@AEBV?$stream_output_adapter@_W@1@_KQEB_WAEAV__crt_cached_ptd_host@@QEAD@Z 000000014001fdc8 f i libucrt:output.obj
 0001:0001ee2c       ??0?$output_adapter_data@_WV?$string_output_adapter@_W@__crt_stdio_output@@@__crt_stdio_output@@IEAA@AEBV?$string_output_adapter@_W@1@_KQEB_WAEAV__crt_cached_ptd_host@@QEAD@Z 000000014001fe2c f i libucrt:output.obj
 0001:0001ee90       ??0?$output_processor@DV?$stream_output_adapter@D@__crt_stdio_output@@V?$format_validation_base@DV?$stream_output_adapter@D@__crt_stdio_output@@@2@@__crt_stdio_output@@QEAA@AEBV?$stream_output_adapter@D@1@_KQEBDAEAV__crt_cached_ptd_host@@QEAD@Z 000000014001fe90 f i libucrt:output.obj
 0001:0001eef8       ??0?$output_processor@DV?$stream_output_adapter@D@__crt_stdio_output@@V?$positional_parameter_base@DV?$stream_output_adapter@D@__crt_stdio_output@@@2@@__crt_stdio_output@@QEAA@AEBV?$stream_output_adapter@D@1@_KQEBDAEAV__crt_cached_ptd_host@@QEAD@Z 000000014001fef8 f i libucrt:output.obj
 0001:0001ef7c       ??0?$output_processor@DV?$stream_output_adapter@D@__crt_stdio_output@@V?$standard_base@DV?$stream_output_adapter@D@__crt_stdio_output@@@2@@__crt_stdio_output@@QEAA@AEBV?$stream_output_adapter@D@1@_KQEBDAEAV__crt_cached_ptd_host@@QEAD@Z 000000014001ff7c f i libucrt:output.obj
 0001:0001efe4       ??0?$output_processor@DV?$string_output_adapter@D@__crt_stdio_output@@V?$format_validation_base@DV?$string_output_adapter@D@__crt_stdio_output@@@2@@__crt_stdio_output@@QEAA@AEBV?$string_output_adapter@D@1@_KQEBDAEAV__crt_cached_ptd_host@@QEAD@Z 000000014001ffe4 f i libucrt:output.obj
 0001:0001f04c       ??0?$output_processor@DV?$string_output_adapter@D@__crt_stdio_output@@V?$positional_parameter_base@DV?$string_output_adapter@D@__crt_stdio_output@@@2@@__crt_stdio_output@@QEAA@AEBV?$string_output_adapter@D@1@_KQEBDAEAV__crt_cached_ptd_host@@QEAD@Z 000000014002004c f i libucrt:output.obj
 0001:0001f0d0       ??0?$output_processor@DV?$string_output_adapter@D@__crt_stdio_output@@V?$standard_base@DV?$string_output_adapter@D@__crt_stdio_output@@@2@@__crt_stdio_output@@QEAA@AEBV?$string_output_adapter@D@1@_KQEBDAEAV__crt_cached_ptd_host@@QEAD@Z 00000001400200d0 f i libucrt:output.obj
 0001:0001f138       ??0?$output_processor@_WV?$stream_output_adapter@_W@__crt_stdio_output@@V?$format_validation_base@_WV?$stream_output_adapter@_W@__crt_stdio_output@@@2@@__crt_stdio_output@@QEAA@AEBV?$stream_output_adapter@_W@1@_KQEB_WAEAV__crt_cached_ptd_host@@QEAD@Z 0000000140020138 f i libucrt:output.obj
 0001:0001f1a4       ??0?$output_processor@_WV?$stream_output_adapter@_W@__crt_stdio_output@@V?$positional_parameter_base@_WV?$stream_output_adapter@_W@__crt_stdio_output@@@2@@__crt_stdio_output@@QEAA@AEBV?$stream_output_adapter@_W@1@_KQEB_WAEAV__crt_cached_ptd_host@@QEAD@Z 00000001400201a4 f i libucrt:output.obj
 0001:0001f22c       ??0?$output_processor@_WV?$stream_output_adapter@_W@__crt_stdio_output@@V?$standard_base@_WV?$stream_output_adapter@_W@__crt_stdio_output@@@2@@__crt_stdio_output@@QEAA@AEBV?$stream_output_adapter@_W@1@_KQEB_WAEAV__crt_cached_ptd_host@@QEAD@Z 000000014002022c f i libucrt:output.obj
 0001:0001f298       ??0?$output_processor@_WV?$string_output_adapter@_W@__crt_stdio_output@@V?$format_validation_base@_WV?$string_output_adapter@_W@__crt_stdio_output@@@2@@__crt_stdio_output@@QEAA@AEBV?$string_output_adapter@_W@1@_KQEB_WAEAV__crt_cached_ptd_host@@QEAD@Z 0000000140020298 f i libucrt:output.obj
 0001:0001f304       ??0?$output_processor@_WV?$string_output_adapter@_W@__crt_stdio_output@@V?$positional_parameter_base@_WV?$string_output_adapter@_W@__crt_stdio_output@@@2@@__crt_stdio_output@@QEAA@AEBV?$string_output_adapter@_W@1@_KQEB_WAEAV__crt_cached_ptd_host@@QEAD@Z 0000000140020304 f i libucrt:output.obj
 0001:0001f38c       ??0?$output_processor@_WV?$string_output_adapter@_W@__crt_stdio_output@@V?$standard_base@_WV?$string_output_adapter@_W@__crt_stdio_output@@@2@@__crt_stdio_output@@QEAA@AEBV?$string_output_adapter@_W@1@_KQEB_WAEAV__crt_cached_ptd_host@@QEAD@Z 000000014002038c f i libucrt:output.obj
 0001:0001f3f8       ??0?$stream_output_adapter@D@__crt_stdio_output@@QEAA@QEAU_iobuf@@@Z 00000001400203f8 f i libucrt:output.obj
 0001:0001f400       ??0?$stream_output_adapter@_W@__crt_stdio_output@@QEAA@QEAU_iobuf@@@Z 0000000140020400 f i libucrt:output.obj
 0001:0001f408       ??0?$string_output_adapter@D@__crt_stdio_output@@QEAA@QEAU?$string_output_adapter_context@D@1@@Z 0000000140020408 f i libucrt:output.obj
 0001:0001f410       ??0?$string_output_adapter@_W@__crt_stdio_output@@QEAA@QEAU?$string_output_adapter_context@_W@1@@Z 0000000140020410 f i libucrt:output.obj
 0001:0001f418       ??0__acrt_stdio_temporary_buffering_guard@@QEAA@QEAU_iobuf@@AEAV__crt_cached_ptd_host@@@Z 0000000140020418 f i libucrt:output.obj
 0001:0001f440       ??0__crt_cached_ptd_host@@QEAA@QEAU__crt_locale_pointers@@@Z 0000000140020440 f i libucrt:output.obj
 0001:0001f488       ??0__crt_scoped_get_last_error_reset@@QEAA@XZ 0000000140020488 f i libucrt:output.obj
 0001:0001f4a4       ??0formatting_buffer@__crt_stdio_output@@QEAA@XZ 00000001400204a4 f i libucrt:output.obj
 0001:0001f4b8       ??0guard@?$cached@H@__crt_cached_ptd_host@@QEAA@AEAU12@@Z 00000001400204b8 f i libucrt:output.obj
 0001:0001f4cc       ??1?$c_string_character_source@D@__crt_strtox@@QEAA@XZ 00000001400204cc f i libucrt:output.obj
 0001:0001f4dc       ??1?$c_string_character_source@_W@__crt_strtox@@QEAA@XZ 00000001400204dc f i libucrt:output.obj
 0001:0001f4ec       ??1?$common_data@D@__crt_stdio_output@@QEAA@XZ 00000001400204ec f i libucrt:output.obj
 0001:0001f510       ??1?$common_data@_W@__crt_stdio_output@@QEAA@XZ 0000000140020510 f i libucrt:output.obj
 0001:0001f534       ??1?$format_validation_base@DV?$stream_output_adapter@D@__crt_stdio_output@@@__crt_stdio_output@@QEAA@XZ 0000000140020534 f i libucrt:output.obj
 0001:0001f558       ??1?$format_validation_base@DV?$string_output_adapter@D@__crt_stdio_output@@@__crt_stdio_output@@QEAA@XZ 0000000140020558 f i libucrt:output.obj
 0001:0001f57c       ??1?$format_validation_base@_WV?$stream_output_adapter@_W@__crt_stdio_output@@@__crt_stdio_output@@QEAA@XZ 000000014002057c f i libucrt:output.obj
 0001:0001f5a0       ??1?$format_validation_base@_WV?$string_output_adapter@_W@__crt_stdio_output@@@__crt_stdio_output@@QEAA@XZ 00000001400205a0 f i libucrt:output.obj
 0001:0001f5c4       ??1?$output_adapter_data@DV?$stream_output_adapter@D@__crt_stdio_output@@@__crt_stdio_output@@QEAA@XZ 00000001400205c4 f i libucrt:output.obj
 0001:0001f5e8       ??1?$output_adapter_data@DV?$string_output_adapter@D@__crt_stdio_output@@@__crt_stdio_output@@QEAA@XZ 00000001400205e8 f i libucrt:output.obj
 0001:0001f60c       ??1?$output_adapter_data@_WV?$stream_output_adapter@_W@__crt_stdio_output@@@__crt_stdio_output@@QEAA@XZ 000000014002060c f i libucrt:output.obj
 0001:0001f630       ??1?$output_adapter_data@_WV?$string_output_adapter@_W@__crt_stdio_output@@@__crt_stdio_output@@QEAA@XZ 0000000140020630 f i libucrt:output.obj
 0001:0001f654       ??1?$output_processor@DV?$stream_output_adapter@D@__crt_stdio_output@@V?$format_validation_base@DV?$stream_output_adapter@D@__crt_stdio_output@@@2@@__crt_stdio_output@@QEAA@XZ 0000000140020654 f i libucrt:output.obj
 0001:0001f678       ??1?$output_processor@DV?$stream_output_adapter@D@__crt_stdio_output@@V?$positional_parameter_base@DV?$stream_output_adapter@D@__crt_stdio_output@@@2@@__crt_stdio_output@@QEAA@XZ 0000000140020678 f i libucrt:output.obj
 0001:0001f69c       ??1?$output_processor@DV?$stream_output_adapter@D@__crt_stdio_output@@V?$standard_base@DV?$stream_output_adapter@D@__crt_stdio_output@@@2@@__crt_stdio_output@@QEAA@XZ 000000014002069c f i libucrt:output.obj
 0001:0001f6c0       ??1?$output_processor@DV?$string_output_adapter@D@__crt_stdio_output@@V?$format_validation_base@DV?$string_output_adapter@D@__crt_stdio_output@@@2@@__crt_stdio_output@@QEAA@XZ 00000001400206c0 f i libucrt:output.obj
 0001:0001f6e4       ??1?$output_processor@DV?$string_output_adapter@D@__crt_stdio_output@@V?$positional_parameter_base@DV?$string_output_adapter@D@__crt_stdio_output@@@2@@__crt_stdio_output@@QEAA@XZ 00000001400206e4 f i libucrt:output.obj
 0001:0001f708       ??1?$output_processor@DV?$string_output_adapter@D@__crt_stdio_output@@V?$standard_base@DV?$string_output_adapter@D@__crt_stdio_output@@@2@@__crt_stdio_output@@QEAA@XZ 0000000140020708 f i libucrt:output.obj
 0001:0001f72c       ??1?$output_processor@_WV?$stream_output_adapter@_W@__crt_stdio_output@@V?$format_validation_base@_WV?$stream_output_adapter@_W@__crt_stdio_output@@@2@@__crt_stdio_output@@QEAA@XZ 000000014002072c f i libucrt:output.obj
 0001:0001f750       ??1?$output_processor@_WV?$stream_output_adapter@_W@__crt_stdio_output@@V?$positional_parameter_base@_WV?$stream_output_adapter@_W@__crt_stdio_output@@@2@@__crt_stdio_output@@QEAA@XZ 0000000140020750 f i libucrt:output.obj
 0001:0001f774       ??1?$output_processor@_WV?$stream_output_adapter@_W@__crt_stdio_output@@V?$standard_base@_WV?$stream_output_adapter@_W@__crt_stdio_output@@@2@@__crt_stdio_output@@QEAA@XZ 0000000140020774 f i libucrt:output.obj
 0001:0001f798       ??1?$output_processor@_WV?$string_output_adapter@_W@__crt_stdio_output@@V?$format_validation_base@_WV?$string_output_adapter@_W@__crt_stdio_output@@@2@@__crt_stdio_output@@QEAA@XZ 0000000140020798 f i libucrt:output.obj
 0001:0001f7bc       ??1?$output_processor@_WV?$string_output_adapter@_W@__crt_stdio_output@@V?$positional_parameter_base@_WV?$string_output_adapter@_W@__crt_stdio_output@@@2@@__crt_stdio_output@@QEAA@XZ 00000001400207bc f i libucrt:output.obj
 0001:0001f7e0       ??1?$output_processor@_WV?$string_output_adapter@_W@__crt_stdio_output@@V?$standard_base@_WV?$string_output_adapter@_W@__crt_stdio_output@@@2@@__crt_stdio_output@@QEAA@XZ 00000001400207e0 f i libucrt:output.obj
 0001:0001f804       ??1?$positional_parameter_base@DV?$stream_output_adapter@D@__crt_stdio_output@@@__crt_stdio_output@@QEAA@XZ 0000000140020804 f i libucrt:output.obj
 0001:0001f828       ??1?$positional_parameter_base@DV?$string_output_adapter@D@__crt_stdio_output@@@__crt_stdio_output@@QEAA@XZ 0000000140020828 f i libucrt:output.obj
 0001:0001f84c       ??1?$positional_parameter_base@_WV?$stream_output_adapter@_W@__crt_stdio_output@@@__crt_stdio_output@@QEAA@XZ 000000014002084c f i libucrt:output.obj
 0001:0001f870       ??1?$positional_parameter_base@_WV?$string_output_adapter@_W@__crt_stdio_output@@@__crt_stdio_output@@QEAA@XZ 0000000140020870 f i libucrt:output.obj
 0001:0001f894       ??1?$standard_base@DV?$stream_output_adapter@D@__crt_stdio_output@@@__crt_stdio_output@@QEAA@XZ 0000000140020894 f i libucrt:output.obj
 0001:0001f8b8       ??1?$standard_base@DV?$string_output_adapter@D@__crt_stdio_output@@@__crt_stdio_output@@QEAA@XZ 00000001400208b8 f i libucrt:output.obj
 0001:0001f8dc       ??1?$standard_base@_WV?$stream_output_adapter@_W@__crt_stdio_output@@@__crt_stdio_output@@QEAA@XZ 00000001400208dc f i libucrt:output.obj
 0001:0001f900       ??1?$standard_base@_WV?$string_output_adapter@_W@__crt_stdio_output@@@__crt_stdio_output@@QEAA@XZ 0000000140020900 f i libucrt:output.obj
 0001:0001f924       ??1__acrt_stdio_temporary_buffering_guard@@QEAA@XZ 0000000140020924 f i libucrt:output.obj
 0001:0001f940       ??1__crt_cached_ptd_host@@QEAA@XZ 0000000140020940 f i libucrt:output.obj
 0001:0001f990       ??1__crt_scoped_get_last_error_reset@@QEAA@XZ 0000000140020990 f i libucrt:output.obj
 0001:0001f99c       ??1formatting_buffer@__crt_stdio_output@@QEAA@XZ 000000014002099c f i libucrt:output.obj
 0001:0001f9c0       ??1guard@?$cached@H@__crt_cached_ptd_host@@QEAA@XZ 00000001400209c0 f i libucrt:output.obj
 0001:0001f9d4       ??4?$__crt_unique_heap_ptr@DU__crt_internal_free_policy@@@@QEAAAEAV0@$$QEAV0@@Z 00000001400209d4 f i libucrt:output.obj
 0001:0001fa08       ??A?$spectre_mitigated_lookup_table@Ustate_transition_pair@__crt_stdio_output@@$0IA@@__crt_stdio_output@@QEBAAEBUstate_transition_pair@1@_K@Z 0000000140020a08 f i libucrt:output.obj
 0001:00020154       ?__crt_interlocked_read_32@@YAHPEDH@Z 0000000140021154 f i libucrt:output.obj
 0001:00020158       ?adjust_hexit@?$output_processor@DV?$stream_output_adapter@D@__crt_stdio_output@@V?$format_validation_base@DV?$stream_output_adapter@D@__crt_stdio_output@@@2@@__crt_stdio_output@@CADH_N@Z 0000000140021158 f i libucrt:output.obj
 0001:00020164       ?adjust_hexit@?$output_processor@DV?$stream_output_adapter@D@__crt_stdio_output@@V?$positional_parameter_base@DV?$stream_output_adapter@D@__crt_stdio_output@@@2@@__crt_stdio_output@@CADH_N@Z 0000000140021164 f i libucrt:output.obj
 0001:00020170       ?adjust_hexit@?$output_processor@DV?$stream_output_adapter@D@__crt_stdio_output@@V?$standard_base@DV?$stream_output_adapter@D@__crt_stdio_output@@@2@@__crt_stdio_output@@CADH_N@Z 0000000140021170 f i libucrt:output.obj
 0001:0002017c       ?adjust_hexit@?$output_processor@DV?$string_output_adapter@D@__crt_stdio_output@@V?$format_validation_base@DV?$string_output_adapter@D@__crt_stdio_output@@@2@@__crt_stdio_output@@CADH_N@Z 000000014002117c f i libucrt:output.obj
 0001:00020188       ?adjust_hexit@?$output_processor@DV?$string_output_adapter@D@__crt_stdio_output@@V?$positional_parameter_base@DV?$string_output_adapter@D@__crt_stdio_output@@@2@@__crt_stdio_output@@CADH_N@Z 0000000140021188 f i libucrt:output.obj
 0001:00020194       ?adjust_hexit@?$output_processor@DV?$string_output_adapter@D@__crt_stdio_output@@V?$standard_base@DV?$string_output_adapter@D@__crt_stdio_output@@@2@@__crt_stdio_output@@CADH_N@Z 0000000140021194 f i libucrt:output.obj
 0001:000201a0       ?adjust_hexit@?$output_processor@_WV?$stream_output_adapter@_W@__crt_stdio_output@@V?$format_validation_base@_WV?$stream_output_adapter@_W@__crt_stdio_output@@@2@@__crt_stdio_output@@CADH_N@Z 00000001400211a0 f i libucrt:output.obj
 0001:000201ac       ?adjust_hexit@?$output_processor@_WV?$stream_output_adapter@_W@__crt_stdio_output@@V?$positional_parameter_base@_WV?$stream_output_adapter@_W@__crt_stdio_output@@@2@@__crt_stdio_output@@CADH_N@Z 00000001400211ac f i libucrt:output.obj
 0001:000201b8       ?adjust_hexit@?$output_processor@_WV?$stream_output_adapter@_W@__crt_stdio_output@@V?$standard_base@_WV?$stream_output_adapter@_W@__crt_stdio_output@@@2@@__crt_stdio_output@@CADH_N@Z 00000001400211b8 f i libucrt:output.obj
 0001:000201c4       ?adjust_hexit@?$output_processor@_WV?$string_output_adapter@_W@__crt_stdio_output@@V?$format_validation_base@_WV?$string_output_adapter@_W@__crt_stdio_output@@@2@@__crt_stdio_output@@CADH_N@Z 00000001400211c4 f i libucrt:output.obj
 0001:000201d0       ?adjust_hexit@?$output_processor@_WV?$string_output_adapter@_W@__crt_stdio_output@@V?$positional_parameter_base@_WV?$string_output_adapter@_W@__crt_stdio_output@@@2@@__crt_stdio_output@@CADH_N@Z 00000001400211d0 f i libucrt:output.obj
 0001:000201dc       ?adjust_hexit@?$output_processor@_WV?$string_output_adapter@_W@__crt_stdio_output@@V?$standard_base@_WV?$string_output_adapter@_W@__crt_stdio_output@@@2@@__crt_stdio_output@@CADH_N@Z 00000001400211dc f i libucrt:output.obj
 0001:000201e8       ?advance_to_next_pass@?$positional_parameter_base@DV?$stream_output_adapter@D@__crt_stdio_output@@@__crt_stdio_output@@IEAA_NXZ 00000001400211e8 f i libucrt:output.obj
 0001:0002023c       ?advance_to_next_pass@?$positional_parameter_base@DV?$string_output_adapter@D@__crt_stdio_output@@@__crt_stdio_output@@IEAA_NXZ 000000014002123c f i libucrt:output.obj
 0001:00020290       ?advance_to_next_pass@?$positional_parameter_base@_WV?$stream_output_adapter@_W@__crt_stdio_output@@@__crt_stdio_output@@IEAA_NXZ 0000000140021290 f i libucrt:output.obj
 0001:000202e4       ?advance_to_next_pass@?$positional_parameter_base@_WV?$string_output_adapter@_W@__crt_stdio_output@@@__crt_stdio_output@@IEAA_NXZ 00000001400212e4 f i libucrt:output.obj
 0001:00020338       ?advance_to_next_pass@?$standard_base@DV?$stream_output_adapter@D@__crt_stdio_output@@@__crt_stdio_output@@IEAA_NXZ 0000000140021338 f i libucrt:output.obj
 0001:0002034c       ?advance_to_next_pass@?$standard_base@DV?$string_output_adapter@D@__crt_stdio_output@@@__crt_stdio_output@@IEAA_NXZ 000000014002134c f i libucrt:output.obj
 0001:00020360       ?advance_to_next_pass@?$standard_base@_WV?$stream_output_adapter@_W@__crt_stdio_output@@@__crt_stdio_output@@IEAA_NXZ 0000000140021360 f i libucrt:output.obj
 0001:00020374       ?advance_to_next_pass@?$standard_base@_WV?$string_output_adapter@_W@__crt_stdio_output@@@__crt_stdio_output@@IEAA_NXZ 0000000140021374 f i libucrt:output.obj
 0001:00020388       ?check@?$cached@H@__crt_cached_ptd_host@@QEBA_NH@Z 0000000140021388 f i libucrt:output.obj
 0001:000203a0       ?check_synchronize_global_state_index@__crt_cached_ptd_host@@AEAA_KAEBV__crt_scoped_get_last_error_reset@@@Z 00000001400213a0 f i libucrt:output.obj
 0001:000203c0       ?check_synchronize_per_thread_data@__crt_cached_ptd_host@@AEAAPEAU__acrt_ptd@@XZ 00000001400213c0 f i libucrt:output.obj
 0001:00020428       ?create_guard@?$cached@H@__crt_cached_ptd_host@@QEAA?AVguard@12@XZ 0000000140021428 f i libucrt:output.obj
 0001:0002043c       ?crop_zeroes@__crt_stdio_output@@YAXPEADQEAU__crt_locale_pointers@@@Z 000000014002143c f i libucrt:output.obj
 0001:000204a8       ?disable@guard@?$cached@H@__crt_cached_ptd_host@@QEAAXXZ 00000001400214a8 f i libucrt:output.obj
 0001:000204b0       ?enable@guard@?$cached@H@__crt_cached_ptd_host@@QEAAXXZ 00000001400214b0 f i libucrt:output.obj
 0001:000204b8       ?find_next_state@?$output_processor@DV?$stream_output_adapter@D@__crt_stdio_output@@V?$format_validation_base@DV?$stream_output_adapter@D@__crt_stdio_output@@@2@@__crt_stdio_output@@AEBA?AW4state@2@DW432@@Z 00000001400214b8 f i libucrt:output.obj
 0001:000204f0       ?find_next_state@?$output_processor@DV?$stream_output_adapter@D@__crt_stdio_output@@V?$positional_parameter_base@DV?$stream_output_adapter@D@__crt_stdio_output@@@2@@__crt_stdio_output@@AEBA?AW4state@2@DW432@@Z 00000001400214f0 f i libucrt:output.obj
 0001:00020528       ?find_next_state@?$output_processor@DV?$stream_output_adapter@D@__crt_stdio_output@@V?$standard_base@DV?$stream_output_adapter@D@__crt_stdio_output@@@2@@__crt_stdio_output@@AEBA?AW4state@2@DW432@@Z 0000000140021528 f i libucrt:output.obj
 0001:0002055c       ?find_next_state@?$output_processor@DV?$string_output_adapter@D@__crt_stdio_output@@V?$format_validation_base@DV?$string_output_adapter@D@__crt_stdio_output@@@2@@__crt_stdio_output@@AEBA?AW4state@2@DW432@@Z 000000014002155c f i libucrt:output.obj
 0001:00020594       ?find_next_state@?$output_processor@DV?$string_output_adapter@D@__crt_stdio_output@@V?$positional_parameter_base@DV?$string_output_adapter@D@__crt_stdio_output@@@2@@__crt_stdio_output@@AEBA?AW4state@2@DW432@@Z 0000000140021594 f i libucrt:output.obj
 0001:000205cc       ?find_next_state@?$output_processor@DV?$string_output_adapter@D@__crt_stdio_output@@V?$standard_base@DV?$string_output_adapter@D@__crt_stdio_output@@@2@@__crt_stdio_output@@AEBA?AW4state@2@DW432@@Z 00000001400215cc f i libucrt:output.obj
 0001:00020600       ?find_next_state@?$output_processor@_WV?$stream_output_adapter@_W@__crt_stdio_output@@V?$format_validation_base@_WV?$stream_output_adapter@_W@__crt_stdio_output@@@2@@__crt_stdio_output@@AEBA?AW4state@2@_WW432@@Z 0000000140021600 f i libucrt:output.obj
 0001:00020640       ?find_next_state@?$output_processor@_WV?$stream_output_adapter@_W@__crt_stdio_output@@V?$positional_parameter_base@_WV?$stream_output_adapter@_W@__crt_stdio_output@@@2@@__crt_stdio_output@@AEBA?AW4state@2@_WW432@@Z 0000000140021640 f i libucrt:output.obj
 0001:00020680       ?find_next_state@?$output_processor@_WV?$stream_output_adapter@_W@__crt_stdio_output@@V?$standard_base@_WV?$stream_output_adapter@_W@__crt_stdio_output@@@2@@__crt_stdio_output@@AEBA?AW4state@2@_WW432@@Z 0000000140021680 f i libucrt:output.obj
 0001:000206bc       ?find_next_state@?$output_processor@_WV?$string_output_adapter@_W@__crt_stdio_output@@V?$format_validation_base@_WV?$string_output_adapter@_W@__crt_stdio_output@@@2@@__crt_stdio_output@@AEBA?AW4state@2@_WW432@@Z 00000001400216bc f i libucrt:output.obj
 0001:000206fc       ?find_next_state@?$output_processor@_WV?$string_output_adapter@_W@__crt_stdio_output@@V?$positional_parameter_base@_WV?$string_output_adapter@_W@__crt_stdio_output@@@2@@__crt_stdio_output@@AEBA?AW4state@2@_WW432@@Z 00000001400216fc f i libucrt:output.obj
 0001:0002073c       ?find_next_state@?$output_processor@_WV?$string_output_adapter@_W@__crt_stdio_output@@V?$standard_base@_WV?$string_output_adapter@_W@__crt_stdio_output@@@2@@__crt_stdio_output@@AEBA?AW4state@2@_WW432@@Z 000000014002173c f i libucrt:output.obj
 0001:00020778       ?force_decimal_point@__crt_stdio_output@@YAXPEADQEAU__crt_locale_pointers@@@Z 0000000140021778 f i libucrt:output.obj
 0001:000207e0       ?force_synchronize_global_state_index@__crt_cached_ptd_host@@AEAA_KAEBV__crt_scoped_get_last_error_reset@@@Z 00000001400217e0 f i libucrt:output.obj
 0001:000207f0       ?force_synchronize_per_thread_data@__crt_cached_ptd_host@@AEAAPEAU__acrt_ptd@@XZ 00000001400217f0 f i libucrt:output.obj
 0001:00020848       ?get@?$c_string_character_source@D@__crt_strtox@@QEAADXZ 0000000140021848 f i libucrt:output.obj
 0001:00020854       ?get@?$c_string_character_source@_W@__crt_strtox@@QEAA_WXZ 0000000140021854 f i libucrt:output.obj
 0001:00020864       ?get_current_state_index@__crt_state_management@@YA_KAEBV__crt_scoped_get_last_error_reset@@@Z 0000000140021864 f i libucrt:output.obj
 0001:00020870       ?get_errno@__crt_cached_ptd_host@@QEAA@XZ 0000000140021870 f i libucrt:output.obj
 0001:00020878       ?get_flags@__crt_stdio_stream@@QEBAJXZ 0000000140021878 f i libucrt:output.obj
 0001:00020880       ?get_locale@__crt_cached_ptd_host@@QEAAPEAU__crt_locale_pointers@@XZ 0000000140021880 f i libucrt:output.obj
 0001:000208a8       ?get_parameter_type@?$positional_parameter_base@DV?$stream_output_adapter@D@__crt_stdio_output@@@__crt_stdio_output@@CA?AW4parameter_type@12@F@Z 00000001400218a8 f i libucrt:output.obj
 0001:000208b0       ?get_parameter_type@?$positional_parameter_base@DV?$stream_output_adapter@D@__crt_stdio_output@@@__crt_stdio_output@@CA?AW4parameter_type@12@G@Z 00000001400218b0 f i libucrt:output.obj
 0001:000208b8       ?get_parameter_type@?$positional_parameter_base@DV?$stream_output_adapter@D@__crt_stdio_output@@@__crt_stdio_output@@CA?AW4parameter_type@12@H@Z 00000001400218b8 f i libucrt:output.obj
 0001:000208c0       ?get_parameter_type@?$positional_parameter_base@DV?$stream_output_adapter@D@__crt_stdio_output@@@__crt_stdio_output@@CA?AW4parameter_type@12@I@Z 00000001400218c0 f i libucrt:output.obj
 0001:000208c8       ?get_parameter_type@?$positional_parameter_base@DV?$stream_output_adapter@D@__crt_stdio_output@@@__crt_stdio_output@@CA?AW4parameter_type@12@U_CRT_DOUBLE@@@Z 00000001400218c8 f i libucrt:output.obj
 0001:000208d0       ?get_parameter_type@?$positional_parameter_base@DV?$stream_output_adapter@D@__crt_stdio_output@@@__crt_stdio_output@@CA?AW4parameter_type@12@_J@Z 00000001400218d0 f i libucrt:output.obj
 0001:000208d8       ?get_parameter_type@?$positional_parameter_base@DV?$stream_output_adapter@D@__crt_stdio_output@@@__crt_stdio_output@@CA?AW4parameter_type@12@_K@Z 00000001400218d8 f i libucrt:output.obj
 0001:000208e0       ?get_parameter_type@?$positional_parameter_base@DV?$stream_output_adapter@D@__crt_stdio_output@@@__crt_stdio_output@@CA?AW4parameter_type@12@_W@Z 00000001400218e0 f i libucrt:output.obj
 0001:000208e8       ?get_parameter_type@?$positional_parameter_base@DV?$string_output_adapter@D@__crt_stdio_output@@@__crt_stdio_output@@CA?AW4parameter_type@12@F@Z 00000001400218e8 f i libucrt:output.obj
 0001:000208f0       ?get_parameter_type@?$positional_parameter_base@DV?$string_output_adapter@D@__crt_stdio_output@@@__crt_stdio_output@@CA?AW4parameter_type@12@G@Z 00000001400218f0 f i libucrt:output.obj
 0001:000208f8       ?get_parameter_type@?$positional_parameter_base@DV?$string_output_adapter@D@__crt_stdio_output@@@__crt_stdio_output@@CA?AW4parameter_type@12@H@Z 00000001400218f8 f i libucrt:output.obj
 0001:00020900       ?get_parameter_type@?$positional_parameter_base@DV?$string_output_adapter@D@__crt_stdio_output@@@__crt_stdio_output@@CA?AW4parameter_type@12@I@Z 0000000140021900 f i libucrt:output.obj
 0001:00020908       ?get_parameter_type@?$positional_parameter_base@DV?$string_output_adapter@D@__crt_stdio_output@@@__crt_stdio_output@@CA?AW4parameter_type@12@U_CRT_DOUBLE@@@Z 0000000140021908 f i libucrt:output.obj
 0001:00020910       ?get_parameter_type@?$positional_parameter_base@DV?$string_output_adapter@D@__crt_stdio_output@@@__crt_stdio_output@@CA?AW4parameter_type@12@_J@Z 0000000140021910 f i libucrt:output.obj
 0001:00020918       ?get_parameter_type@?$positional_parameter_base@DV?$string_output_adapter@D@__crt_stdio_output@@@__crt_stdio_output@@CA?AW4parameter_type@12@_K@Z 0000000140021918 f i libucrt:output.obj
 0001:00020920       ?get_parameter_type@?$positional_parameter_base@DV?$string_output_adapter@D@__crt_stdio_output@@@__crt_stdio_output@@CA?AW4parameter_type@12@_W@Z 0000000140021920 f i libucrt:output.obj
 0001:00020928       ?get_parameter_type@?$positional_parameter_base@_WV?$stream_output_adapter@_W@__crt_stdio_output@@@__crt_stdio_output@@CA?AW4parameter_type@12@F@Z 0000000140021928 f i libucrt:output.obj
 0001:00020930       ?get_parameter_type@?$positional_parameter_base@_WV?$stream_output_adapter@_W@__crt_stdio_output@@@__crt_stdio_output@@CA?AW4parameter_type@12@G@Z 0000000140021930 f i libucrt:output.obj
 0001:00020938       ?get_parameter_type@?$positional_parameter_base@_WV?$stream_output_adapter@_W@__crt_stdio_output@@@__crt_stdio_output@@CA?AW4parameter_type@12@H@Z 0000000140021938 f i libucrt:output.obj
 0001:00020940       ?get_parameter_type@?$positional_parameter_base@_WV?$stream_output_adapter@_W@__crt_stdio_output@@@__crt_stdio_output@@CA?AW4parameter_type@12@I@Z 0000000140021940 f i libucrt:output.obj
 0001:00020948       ?get_parameter_type@?$positional_parameter_base@_WV?$stream_output_adapter@_W@__crt_stdio_output@@@__crt_stdio_output@@CA?AW4parameter_type@12@U_CRT_DOUBLE@@@Z 0000000140021948 f i libucrt:output.obj
 0001:00020950       ?get_parameter_type@?$positional_parameter_base@_WV?$stream_output_adapter@_W@__crt_stdio_output@@@__crt_stdio_output@@CA?AW4parameter_type@12@_J@Z 0000000140021950 f i libucrt:output.obj
 0001:00020958       ?get_parameter_type@?$positional_parameter_base@_WV?$stream_output_adapter@_W@__crt_stdio_output@@@__crt_stdio_output@@CA?AW4parameter_type@12@_K@Z 0000000140021958 f i libucrt:output.obj
 0001:00020960       ?get_parameter_type@?$positional_parameter_base@_WV?$stream_output_adapter@_W@__crt_stdio_output@@@__crt_stdio_output@@CA?AW4parameter_type@12@_W@Z 0000000140021960 f i libucrt:output.obj
 0001:00020968       ?get_parameter_type@?$positional_parameter_base@_WV?$string_output_adapter@_W@__crt_stdio_output@@@__crt_stdio_output@@CA?AW4parameter_type@12@F@Z 0000000140021968 f i libucrt:output.obj
 0001:00020970       ?get_parameter_type@?$positional_parameter_base@_WV?$string_output_adapter@_W@__crt_stdio_output@@@__crt_stdio_output@@CA?AW4parameter_type@12@G@Z 0000000140021970 f i libucrt:output.obj
 0001:00020978       ?get_parameter_type@?$positional_parameter_base@_WV?$string_output_adapter@_W@__crt_stdio_output@@@__crt_stdio_output@@CA?AW4parameter_type@12@H@Z 0000000140021978 f i libucrt:output.obj
 0001:00020980       ?get_parameter_type@?$positional_parameter_base@_WV?$string_output_adapter@_W@__crt_stdio_output@@@__crt_stdio_output@@CA?AW4parameter_type@12@I@Z 0000000140021980 f i libucrt:output.obj
 0001:00020988       ?get_parameter_type@?$positional_parameter_base@_WV?$string_output_adapter@_W@__crt_stdio_output@@@__crt_stdio_output@@CA?AW4parameter_type@12@U_CRT_DOUBLE@@@Z 0000000140021988 f i libucrt:output.obj
 0001:00020990       ?get_parameter_type@?$positional_parameter_base@_WV?$string_output_adapter@_W@__crt_stdio_output@@@__crt_stdio_output@@CA?AW4parameter_type@12@_J@Z 0000000140021990 f i libucrt:output.obj
 0001:00020998       ?get_parameter_type@?$positional_parameter_base@_WV?$string_output_adapter@_W@__crt_stdio_output@@@__crt_stdio_output@@CA?AW4parameter_type@12@_K@Z 0000000140021998 f i libucrt:output.obj
 0001:000209a0       ?get_parameter_type@?$positional_parameter_base@_WV?$string_output_adapter@_W@__crt_stdio_output@@@__crt_stdio_output@@CA?AW4parameter_type@12@_W@Z 00000001400219a0 f i libucrt:output.obj
 0001:000209b0       ?get_raw_ptd@__crt_cached_ptd_host@@QEAAPEAU__acrt_ptd@@XZ 00000001400219b0 f i libucrt:output.obj
 0001:00020a18       ?has_flag@?$output_processor@DV?$stream_output_adapter@D@__crt_stdio_output@@V?$format_validation_base@DV?$stream_output_adapter@D@__crt_stdio_output@@@2@@__crt_stdio_output@@AEBA_NI@Z 0000000140021a18 f i libucrt:output.obj
 0001:00020a20       ?has_flag@?$output_processor@DV?$stream_output_adapter@D@__crt_stdio_output@@V?$positional_parameter_base@DV?$stream_output_adapter@D@__crt_stdio_output@@@2@@__crt_stdio_output@@AEBA_NI@Z 0000000140021a20 f i libucrt:output.obj
 0001:00020a28       ?has_flag@?$output_processor@DV?$stream_output_adapter@D@__crt_stdio_output@@V?$standard_base@DV?$stream_output_adapter@D@__crt_stdio_output@@@2@@__crt_stdio_output@@AEBA_NI@Z 0000000140021a28 f i libucrt:output.obj
 0001:00020a30       ?has_flag@?$output_processor@DV?$string_output_adapter@D@__crt_stdio_output@@V?$format_validation_base@DV?$string_output_adapter@D@__crt_stdio_output@@@2@@__crt_stdio_output@@AEBA_NI@Z 0000000140021a30 f i libucrt:output.obj
 0001:00020a38       ?has_flag@?$output_processor@DV?$string_output_adapter@D@__crt_stdio_output@@V?$positional_parameter_base@DV?$string_output_adapter@D@__crt_stdio_output@@@2@@__crt_stdio_output@@AEBA_NI@Z 0000000140021a38 f i libucrt:output.obj
 0001:00020a40       ?has_flag@?$output_processor@DV?$string_output_adapter@D@__crt_stdio_output@@V?$standard_base@DV?$string_output_adapter@D@__crt_stdio_output@@@2@@__crt_stdio_output@@AEBA_NI@Z 0000000140021a40 f i libucrt:output.obj
 0001:00020a48       ?has_flag@?$output_processor@_WV?$stream_output_adapter@_W@__crt_stdio_output@@V?$format_validation_base@_WV?$stream_output_adapter@_W@__crt_stdio_output@@@2@@__crt_stdio_output@@AEBA_NI@Z 0000000140021a48 f i libucrt:output.obj
 0001:00020a50       ?has_flag@?$output_processor@_WV?$stream_output_adapter@_W@__crt_stdio_output@@V?$positional_parameter_base@_WV?$stream_output_adapter@_W@__crt_stdio_output@@@2@@__crt_stdio_output@@AEBA_NI@Z 0000000140021a50 f i libucrt:output.obj
 0001:00020a58       ?has_flag@?$output_processor@_WV?$stream_output_adapter@_W@__crt_stdio_output@@V?$standard_base@_WV?$stream_output_adapter@_W@__crt_stdio_output@@@2@@__crt_stdio_output@@AEBA_NI@Z 0000000140021a58 f i libucrt:output.obj
 0001:00020a60       ?has_flag@?$output_processor@_WV?$string_output_adapter@_W@__crt_stdio_output@@V?$format_validation_base@_WV?$string_output_adapter@_W@__crt_stdio_output@@@2@@__crt_stdio_output@@AEBA_NI@Z 0000000140021a60 f i libucrt:output.obj
 0001:00020a68       ?has_flag@?$output_processor@_WV?$string_output_adapter@_W@__crt_stdio_output@@V?$positional_parameter_base@_WV?$string_output_adapter@_W@__crt_stdio_output@@@2@@__crt_stdio_output@@AEBA_NI@Z 0000000140021a68 f i libucrt:output.obj
 0001:00020a70       ?has_flag@?$output_processor@_WV?$string_output_adapter@_W@__crt_stdio_output@@V?$standard_base@_WV?$string_output_adapter@_W@__crt_stdio_output@@@2@@__crt_stdio_output@@AEBA_NI@Z 0000000140021a70 f i libucrt:output.obj
 0001:00020a78       ?is_positional_parameter_reappearance_consistent@?$positional_parameter_base@DV?$stream_output_adapter@D@__crt_stdio_output@@@__crt_stdio_output@@AEAA_NAEBUparameter_data@12@W4parameter_type@12@DW4length_modifier@2@@Z 0000000140021a78 f i libucrt:output.obj
 0001:00020cac       ?is_positional_parameter_reappearance_consistent@?$positional_parameter_base@DV?$string_output_adapter@D@__crt_stdio_output@@@__crt_stdio_output@@AEAA_NAEBUparameter_data@12@W4parameter_type@12@DW4length_modifier@2@@Z 0000000140021cac f i libucrt:output.obj
 0001:00020ee0       ?is_positional_parameter_reappearance_consistent@?$positional_parameter_base@_WV?$stream_output_adapter@_W@__crt_stdio_output@@@__crt_stdio_output@@AEAA_NAEBUparameter_data@12@W4parameter_type@12@_WW4length_modifier@2@@Z 0000000140021ee0 f i libucrt:output.obj
 0001:000210e4       ?is_positional_parameter_reappearance_consistent@?$positional_parameter_base@_WV?$string_output_adapter@_W@__crt_stdio_output@@@__crt_stdio_output@@AEAA_NAEBUparameter_data@12@W4parameter_type@12@_WW4length_modifier@2@@Z 00000001400220e4 f i libucrt:output.obj
 0001:000212e8       ?is_string_backed@__crt_stdio_stream@@QEBA_NXZ 00000001400222e8 f i libucrt:output.obj
 0001:000212f8       ?maximum_signed_value@__crt_strtox@@YAJK@Z 00000001400222f8 f i libucrt:output.obj
 0001:00021300       ?minimum_signed_value@__crt_strtox@@YAJK@Z 0000000140022300 f i libucrt:output.obj
 0001:00021308       ?narrow_null_string@?$output_processor@DV?$stream_output_adapter@D@__crt_stdio_output@@V?$format_validation_base@DV?$stream_output_adapter@D@__crt_stdio_output@@@2@@__crt_stdio_output@@CAPEADXZ 0000000140022308 f i libucrt:output.obj
 0001:00021310       ?narrow_null_string@?$output_processor@DV?$stream_output_adapter@D@__crt_stdio_output@@V?$positional_parameter_base@DV?$stream_output_adapter@D@__crt_stdio_output@@@2@@__crt_stdio_output@@CAPEADXZ 0000000140022310 f i libucrt:output.obj
 0001:00021318       ?narrow_null_string@?$output_processor@DV?$stream_output_adapter@D@__crt_stdio_output@@V?$standard_base@DV?$stream_output_adapter@D@__crt_stdio_output@@@2@@__crt_stdio_output@@CAPEADXZ 0000000140022318 f i libucrt:output.obj
 0001:00021320       ?narrow_null_string@?$output_processor@DV?$string_output_adapter@D@__crt_stdio_output@@V?$format_validation_base@DV?$string_output_adapter@D@__crt_stdio_output@@@2@@__crt_stdio_output@@CAPEADXZ 0000000140022320 f i libucrt:output.obj
 0001:00021328       ?narrow_null_string@?$output_processor@DV?$string_output_adapter@D@__crt_stdio_output@@V?$positional_parameter_base@DV?$string_output_adapter@D@__crt_stdio_output@@@2@@__crt_stdio_output@@CAPEADXZ 0000000140022328 f i libucrt:output.obj
 0001:00021330       ?narrow_null_string@?$output_processor@DV?$string_output_adapter@D@__crt_stdio_output@@V?$standard_base@DV?$string_output_adapter@D@__crt_stdio_output@@@2@@__crt_stdio_output@@CAPEADXZ 0000000140022330 f i libucrt:output.obj
 0001:00021338       ?narrow_null_string@?$output_processor@_WV?$stream_output_adapter@_W@__crt_stdio_output@@V?$format_validation_base@_WV?$stream_output_adapter@_W@__crt_stdio_output@@@2@@__crt_stdio_output@@CAPEADXZ 0000000140022338 f i libucrt:output.obj
 0001:00021340       ?narrow_null_string@?$output_processor@_WV?$stream_output_adapter@_W@__crt_stdio_output@@V?$positional_parameter_base@_WV?$stream_output_adapter@_W@__crt_stdio_output@@@2@@__crt_stdio_output@@CAPEADXZ 0000000140022340 f i libucrt:output.obj
 0001:00021348       ?narrow_null_string@?$output_processor@_WV?$stream_output_adapter@_W@__crt_stdio_output@@V?$standard_base@_WV?$stream_output_adapter@_W@__crt_stdio_output@@@2@@__crt_stdio_output@@CAPEADXZ 0000000140022348 f i libucrt:output.obj
 0001:00021350       ?narrow_null_string@?$output_processor@_WV?$string_output_adapter@_W@__crt_stdio_output@@V?$format_validation_base@_WV?$string_output_adapter@_W@__crt_stdio_output@@@2@@__crt_stdio_output@@CAPEADXZ 0000000140022350 f i libucrt:output.obj
 0001:00021358       ?narrow_null_string@?$output_processor@_WV?$string_output_adapter@_W@__crt_stdio_output@@V?$positional_parameter_base@_WV?$string_output_adapter@_W@__crt_stdio_output@@@2@@__crt_stdio_output@@CAPEADXZ 0000000140022358 f i libucrt:output.obj
 0001:00021360       ?narrow_null_string@?$output_processor@_WV?$string_output_adapter@_W@__crt_stdio_output@@V?$standard_base@_WV?$string_output_adapter@_W@__crt_stdio_output@@@2@@__crt_stdio_output@@CAPEADXZ 0000000140022360 f i libucrt:output.obj
 0001:00021368       ?parse_digit@__crt_strtox@@YAID@Z 0000000140022368 f i libucrt:output.obj
 0001:00021398       ?parse_digit@__crt_strtox@@YAI_W@Z 0000000140022398 f i libucrt:output.obj
 0001:00021554       ?parse_int_from_format_string@?$output_processor@DV?$stream_output_adapter@D@__crt_stdio_output@@V?$format_validation_base@DV?$stream_output_adapter@D@__crt_stdio_output@@@2@@__crt_stdio_output@@AEAA_NQEAH@Z 0000000140022554 f i libucrt:output.obj
 0001:000215e4       ?parse_int_from_format_string@?$output_processor@DV?$stream_output_adapter@D@__crt_stdio_output@@V?$positional_parameter_base@DV?$stream_output_adapter@D@__crt_stdio_output@@@2@@__crt_stdio_output@@AEAA_NQEAH@Z 00000001400225e4 f i libucrt:output.obj
 0001:00021674       ?parse_int_from_format_string@?$output_processor@DV?$stream_output_adapter@D@__crt_stdio_output@@V?$standard_base@DV?$stream_output_adapter@D@__crt_stdio_output@@@2@@__crt_stdio_output@@AEAA_NQEAH@Z 0000000140022674 f i libucrt:output.obj
 0001:00021704       ?parse_int_from_format_string@?$output_processor@DV?$string_output_adapter@D@__crt_stdio_output@@V?$format_validation_base@DV?$string_output_adapter@D@__crt_stdio_output@@@2@@__crt_stdio_output@@AEAA_NQEAH@Z 0000000140022704 f i libucrt:output.obj
 0001:00021794       ?parse_int_from_format_string@?$output_processor@DV?$string_output_adapter@D@__crt_stdio_output@@V?$positional_parameter_base@DV?$string_output_adapter@D@__crt_stdio_output@@@2@@__crt_stdio_output@@AEAA_NQEAH@Z 0000000140022794 f i libucrt:output.obj
 0001:00021824       ?parse_int_from_format_string@?$output_processor@DV?$string_output_adapter@D@__crt_stdio_output@@V?$standard_base@DV?$string_output_adapter@D@__crt_stdio_output@@@2@@__crt_stdio_output@@AEAA_NQEAH@Z 0000000140022824 f i libucrt:output.obj
 0001:000218b4       ?parse_int_from_format_string@?$output_processor@_WV?$stream_output_adapter@_W@__crt_stdio_output@@V?$format_validation_base@_WV?$stream_output_adapter@_W@__crt_stdio_output@@@2@@__crt_stdio_output@@AEAA_NQEAH@Z 00000001400228b4 f i libucrt:output.obj
 0001:00021944       ?parse_int_from_format_string@?$output_processor@_WV?$stream_output_adapter@_W@__crt_stdio_output@@V?$positional_parameter_base@_WV?$stream_output_adapter@_W@__crt_stdio_output@@@2@@__crt_stdio_output@@AEAA_NQEAH@Z 0000000140022944 f i libucrt:output.obj
 0001:000219d4       ?parse_int_from_format_string@?$output_processor@_WV?$stream_output_adapter@_W@__crt_stdio_output@@V?$standard_base@_WV?$stream_output_adapter@_W@__crt_stdio_output@@@2@@__crt_stdio_output@@AEAA_NQEAH@Z 00000001400229d4 f i libucrt:output.obj
 0001:00021a64       ?parse_int_from_format_string@?$output_processor@_WV?$string_output_adapter@_W@__crt_stdio_output@@V?$format_validation_base@_WV?$string_output_adapter@_W@__crt_stdio_output@@@2@@__crt_stdio_output@@AEAA_NQEAH@Z 0000000140022a64 f i libucrt:output.obj
 0001:00021af4       ?parse_int_from_format_string@?$output_processor@_WV?$string_output_adapter@_W@__crt_stdio_output@@V?$positional_parameter_base@_WV?$string_output_adapter@_W@__crt_stdio_output@@@2@@__crt_stdio_output@@AEAA_NQEAH@Z 0000000140022af4 f i libucrt:output.obj
 0001:00021b84       ?parse_int_from_format_string@?$output_processor@_WV?$string_output_adapter@_W@__crt_stdio_output@@V?$standard_base@_WV?$string_output_adapter@_W@__crt_stdio_output@@@2@@__crt_stdio_output@@AEAA_NQEAH@Z 0000000140022b84 f i libucrt:output.obj
 0001:00021c14       ?process@?$output_processor@DV?$stream_output_adapter@D@__crt_stdio_output@@V?$format_validation_base@DV?$stream_output_adapter@D@__crt_stdio_output@@@2@@__crt_stdio_output@@QEAAHXZ 0000000140022c14 f i libucrt:output.obj
 0001:00021fb0       ?process@?$output_processor@DV?$stream_output_adapter@D@__crt_stdio_output@@V?$positional_parameter_base@DV?$stream_output_adapter@D@__crt_stdio_output@@@2@@__crt_stdio_output@@QEAAHXZ 0000000140022fb0 f i libucrt:output.obj
 0001:000223e4       ?process@?$output_processor@DV?$stream_output_adapter@D@__crt_stdio_output@@V?$standard_base@DV?$stream_output_adapter@D@__crt_stdio_output@@@2@@__crt_stdio_output@@QEAAHXZ 00000001400233e4 f i libucrt:output.obj
 0001:0002277c       ?process@?$output_processor@DV?$string_output_adapter@D@__crt_stdio_output@@V?$format_validation_base@DV?$string_output_adapter@D@__crt_stdio_output@@@2@@__crt_stdio_output@@QEAAHXZ 000000014002377c f i libucrt:output.obj
 0001:00022b00       ?process@?$output_processor@DV?$string_output_adapter@D@__crt_stdio_output@@V?$positional_parameter_base@DV?$string_output_adapter@D@__crt_stdio_output@@@2@@__crt_stdio_output@@QEAAHXZ 0000000140023b00 f i libucrt:output.obj
 0001:00022f18       ?process@?$output_processor@DV?$string_output_adapter@D@__crt_stdio_output@@V?$standard_base@DV?$string_output_adapter@D@__crt_stdio_output@@@2@@__crt_stdio_output@@QEAAHXZ 0000000140023f18 f i libucrt:output.obj
 0001:00023298       ?process@?$output_processor@_WV?$stream_output_adapter@_W@__crt_stdio_output@@V?$format_validation_base@_WV?$stream_output_adapter@_W@__crt_stdio_output@@@2@@__crt_stdio_output@@QEAAHXZ 0000000140024298 f i libucrt:output.obj
 0001:00023578       ?process@?$output_processor@_WV?$stream_output_adapter@_W@__crt_stdio_output@@V?$positional_parameter_base@_WV?$stream_output_adapter@_W@__crt_stdio_output@@@2@@__crt_stdio_output@@QEAAHXZ 0000000140024578 f i libucrt:output.obj
 0001:000238e8       ?process@?$output_processor@_WV?$stream_output_adapter@_W@__crt_stdio_output@@V?$standard_base@_WV?$stream_output_adapter@_W@__crt_stdio_output@@@2@@__crt_stdio_output@@QEAAHXZ 00000001400248e8 f i libucrt:output.obj
 0001:00023bb8       ?process@?$output_processor@_WV?$string_output_adapter@_W@__crt_stdio_output@@V?$format_validation_base@_WV?$string_output_adapter@_W@__crt_stdio_output@@@2@@__crt_stdio_output@@QEAAHXZ 0000000140024bb8 f i libucrt:output.obj
 0001:00023e90       ?process@?$output_processor@_WV?$string_output_adapter@_W@__crt_stdio_output@@V?$positional_parameter_base@_WV?$string_output_adapter@_W@__crt_stdio_output@@@2@@__crt_stdio_output@@QEAAHXZ 0000000140024e90 f i libucrt:output.obj
 0001:000241fc       ?process@?$output_processor@_WV?$string_output_adapter@_W@__crt_stdio_output@@V?$standard_base@_WV?$string_output_adapter@_W@__crt_stdio_output@@@2@@__crt_stdio_output@@QEAAHXZ 00000001400251fc f i libucrt:output.obj
 0001:000244d4       ?public_stream@__crt_stdio_stream@@QEBAPEAU_iobuf@@XZ 00000001400254d4 f i libucrt:output.obj
 0001:000244d8       ?restore_state@?$c_string_character_source@D@__crt_strtox@@QEAA_NQEBD@Z 00000001400254d8 f i libucrt:output.obj
 0001:000244e0       ?restore_state@?$c_string_character_source@_W@__crt_strtox@@QEAA_NQEB_W@Z 00000001400254e0 f i libucrt:output.obj
 0001:000244e8       ?save_state@?$c_string_character_source@D@__crt_strtox@@QEBAPEBDXZ 00000001400254e8 f i libucrt:output.obj
 0001:000244ec       ?save_state@?$c_string_character_source@_W@__crt_strtox@@QEBAPEB_WXZ 00000001400254ec f i libucrt:output.obj
 0001:000244f0       ?set@?$cached@H@__crt_cached_ptd_host@@QEAAHH@Z 00000001400254f0 f i libucrt:output.obj
 0001:000244fc       ?set_flag@?$output_processor@DV?$stream_output_adapter@D@__crt_stdio_output@@V?$format_validation_base@DV?$stream_output_adapter@D@__crt_stdio_output@@@2@@__crt_stdio_output@@AEAAXI@Z 00000001400254fc f i libucrt:output.obj
 0001:00024500       ?set_flag@?$output_processor@DV?$stream_output_adapter@D@__crt_stdio_output@@V?$positional_parameter_base@DV?$stream_output_adapter@D@__crt_stdio_output@@@2@@__crt_stdio_output@@AEAAXI@Z 0000000140025500 f i libucrt:output.obj
 0001:00024504       ?set_flag@?$output_processor@DV?$stream_output_adapter@D@__crt_stdio_output@@V?$standard_base@DV?$stream_output_adapter@D@__crt_stdio_output@@@2@@__crt_stdio_output@@AEAAXI@Z 0000000140025504 f i libucrt:output.obj
 0001:00024508       ?set_flag@?$output_processor@DV?$string_output_adapter@D@__crt_stdio_output@@V?$format_validation_base@DV?$string_output_adapter@D@__crt_stdio_output@@@2@@__crt_stdio_output@@AEAAXI@Z 0000000140025508 f i libucrt:output.obj
 0001:0002450c       ?set_flag@?$output_processor@DV?$string_output_adapter@D@__crt_stdio_output@@V?$positional_parameter_base@DV?$string_output_adapter@D@__crt_stdio_output@@@2@@__crt_stdio_output@@AEAAXI@Z 000000014002550c f i libucrt:output.obj
 0001:00024510       ?set_flag@?$output_processor@DV?$string_output_adapter@D@__crt_stdio_output@@V?$standard_base@DV?$string_output_adapter@D@__crt_stdio_output@@@2@@__crt_stdio_output@@AEAAXI@Z 0000000140025510 f i libucrt:output.obj
 0001:00024514       ?set_flag@?$output_processor@_WV?$stream_output_adapter@_W@__crt_stdio_output@@V?$format_validation_base@_WV?$stream_output_adapter@_W@__crt_stdio_output@@@2@@__crt_stdio_output@@AEAAXI@Z 0000000140025514 f i libucrt:output.obj
 0001:00024518       ?set_flag@?$output_processor@_WV?$stream_output_adapter@_W@__crt_stdio_output@@V?$positional_parameter_base@_WV?$stream_output_adapter@_W@__crt_stdio_output@@@2@@__crt_stdio_output@@AEAAXI@Z 0000000140025518 f i libucrt:output.obj
 0001:0002451c       ?set_flag@?$output_processor@_WV?$stream_output_adapter@_W@__crt_stdio_output@@V?$standard_base@_WV?$stream_output_adapter@_W@__crt_stdio_output@@@2@@__crt_stdio_output@@AEAAXI@Z 000000014002551c f i libucrt:output.obj
 0001:00024520       ?set_flag@?$output_processor@_WV?$string_output_adapter@_W@__crt_stdio_output@@V?$format_validation_base@_WV?$string_output_adapter@_W@__crt_stdio_output@@@2@@__crt_stdio_output@@AEAAXI@Z 0000000140025520 f i libucrt:output.obj
 0001:00024524       ?set_flag@?$output_processor@_WV?$string_output_adapter@_W@__crt_stdio_output@@V?$positional_parameter_base@_WV?$string_output_adapter@_W@__crt_stdio_output@@@2@@__crt_stdio_output@@AEAAXI@Z 0000000140025524 f i libucrt:output.obj
 0001:00024528       ?set_flag@?$output_processor@_WV?$string_output_adapter@_W@__crt_stdio_output@@V?$standard_base@_WV?$string_output_adapter@_W@__crt_stdio_output@@@2@@__crt_stdio_output@@AEAAXI@Z 0000000140025528 f i libucrt:output.obj
 0001:0002452c       ?should_format@?$positional_parameter_base@DV?$stream_output_adapter@D@__crt_stdio_output@@@__crt_stdio_output@@IEAA_NXZ 000000014002552c f i libucrt:output.obj
 0001:00024544       ?should_format@?$positional_parameter_base@DV?$string_output_adapter@D@__crt_stdio_output@@@__crt_stdio_output@@IEAA_NXZ 0000000140025544 f i libucrt:output.obj
 0001:0002455c       ?should_format@?$positional_parameter_base@_WV?$stream_output_adapter@_W@__crt_stdio_output@@@__crt_stdio_output@@IEAA_NXZ 000000014002555c f i libucrt:output.obj
 0001:00024574       ?should_format@?$positional_parameter_base@_WV?$string_output_adapter@_W@__crt_stdio_output@@@__crt_stdio_output@@IEAA_NXZ 0000000140025574 f i libucrt:output.obj
 0001:0002458c       ?should_format@?$standard_base@DV?$stream_output_adapter@D@__crt_stdio_output@@@__crt_stdio_output@@IEAA_NXZ 000000014002558c f i libucrt:output.obj
 0001:00024590       ?should_format@?$standard_base@DV?$string_output_adapter@D@__crt_stdio_output@@@__crt_stdio_output@@IEAA_NXZ 0000000140025590 f i libucrt:output.obj
 0001:00024594       ?should_format@?$standard_base@_WV?$stream_output_adapter@_W@__crt_stdio_output@@@__crt_stdio_output@@IEAA_NXZ 0000000140025594 f i libucrt:output.obj
 0001:00024598       ?should_format@?$standard_base@_WV?$string_output_adapter@_W@__crt_stdio_output@@@__crt_stdio_output@@IEAA_NXZ 0000000140025598 f i libucrt:output.obj
 0001:0002459c       ?should_skip_normal_state_processing@?$positional_parameter_base@DV?$stream_output_adapter@D@__crt_stdio_output@@@__crt_stdio_output@@IEAA_NXZ 000000014002559c f i libucrt:output.obj
 0001:000245c8       ?should_skip_normal_state_processing@?$positional_parameter_base@DV?$string_output_adapter@D@__crt_stdio_output@@@__crt_stdio_output@@IEAA_NXZ 00000001400255c8 f i libucrt:output.obj
 0001:000245f4       ?should_skip_normal_state_processing@?$positional_parameter_base@_WV?$stream_output_adapter@_W@__crt_stdio_output@@@__crt_stdio_output@@IEAA_NXZ 00000001400255f4 f i libucrt:output.obj
 0001:00024620       ?should_skip_normal_state_processing@?$positional_parameter_base@_WV?$string_output_adapter@_W@__crt_stdio_output@@@__crt_stdio_output@@IEAA_NXZ 0000000140025620 f i libucrt:output.obj
 0001:0002464c       ?should_skip_normal_state_processing@?$standard_base@DV?$stream_output_adapter@D@__crt_stdio_output@@@__crt_stdio_output@@IEAA_NXZ 000000014002564c f i libucrt:output.obj
 0001:00024650       ?should_skip_normal_state_processing@?$standard_base@DV?$string_output_adapter@D@__crt_stdio_output@@@__crt_stdio_output@@IEAA_NXZ 0000000140025650 f i libucrt:output.obj
 0001:00024654       ?should_skip_normal_state_processing@?$standard_base@_WV?$stream_output_adapter@_W@__crt_stdio_output@@@__crt_stdio_output@@IEAA_NXZ 0000000140025654 f i libucrt:output.obj
 0001:00024658       ?should_skip_normal_state_processing@?$standard_base@_WV?$string_output_adapter@_W@__crt_stdio_output@@@__crt_stdio_output@@IEAA_NXZ 0000000140025658 f i libucrt:output.obj
 0001:0002465c       ?should_skip_type_state_output@?$positional_parameter_base@DV?$stream_output_adapter@D@__crt_stdio_output@@@__crt_stdio_output@@IEBA_NXZ 000000014002565c f i libucrt:output.obj
 0001:00024678       ?should_skip_type_state_output@?$positional_parameter_base@DV?$string_output_adapter@D@__crt_stdio_output@@@__crt_stdio_output@@IEBA_NXZ 0000000140025678 f i libucrt:output.obj
 0001:00024694       ?should_skip_type_state_output@?$positional_parameter_base@_WV?$stream_output_adapter@_W@__crt_stdio_output@@@__crt_stdio_output@@IEBA_NXZ 0000000140025694 f i libucrt:output.obj
 0001:000246b0       ?should_skip_type_state_output@?$positional_parameter_base@_WV?$string_output_adapter@_W@__crt_stdio_output@@@__crt_stdio_output@@IEBA_NXZ 00000001400256b0 f i libucrt:output.obj
 0001:000246cc       ?should_skip_type_state_output@?$standard_base@DV?$stream_output_adapter@D@__crt_stdio_output@@@__crt_stdio_output@@IEBA_NXZ 00000001400256cc f i libucrt:output.obj
 0001:000246d0       ?should_skip_type_state_output@?$standard_base@DV?$string_output_adapter@D@__crt_stdio_output@@@__crt_stdio_output@@IEBA_NXZ 00000001400256d0 f i libucrt:output.obj
 0001:000246d4       ?should_skip_type_state_output@?$standard_base@_WV?$stream_output_adapter@_W@__crt_stdio_output@@@__crt_stdio_output@@IEBA_NXZ 00000001400256d4 f i libucrt:output.obj
 0001:000246d8       ?should_skip_type_state_output@?$standard_base@_WV?$string_output_adapter@_W@__crt_stdio_output@@@__crt_stdio_output@@IEBA_NXZ 00000001400256d8 f i libucrt:output.obj
 0001:000246dc       ?state_case_dot@?$output_processor@DV?$stream_output_adapter@D@__crt_stdio_output@@V?$format_validation_base@DV?$stream_output_adapter@D@__crt_stdio_output@@@2@@__crt_stdio_output@@AEAA_NXZ 00000001400256dc f i libucrt:output.obj
 0001:000246e4       ?state_case_dot@?$output_processor@DV?$stream_output_adapter@D@__crt_stdio_output@@V?$positional_parameter_base@DV?$stream_output_adapter@D@__crt_stdio_output@@@2@@__crt_stdio_output@@AEAA_NXZ 00000001400256e4 f i libucrt:output.obj
 0001:000246ec       ?state_case_dot@?$output_processor@DV?$stream_output_adapter@D@__crt_stdio_output@@V?$standard_base@DV?$stream_output_adapter@D@__crt_stdio_output@@@2@@__crt_stdio_output@@AEAA_NXZ 00000001400256ec f i libucrt:output.obj
 0001:000246f4       ?state_case_dot@?$output_processor@DV?$string_output_adapter@D@__crt_stdio_output@@V?$format_validation_base@DV?$string_output_adapter@D@__crt_stdio_output@@@2@@__crt_stdio_output@@AEAA_NXZ 00000001400256f4 f i libucrt:output.obj
 0001:000246fc       ?state_case_dot@?$output_processor@DV?$string_output_adapter@D@__crt_stdio_output@@V?$positional_parameter_base@DV?$string_output_adapter@D@__crt_stdio_output@@@2@@__crt_stdio_output@@AEAA_NXZ 00000001400256fc f i libucrt:output.obj
 0001:00024704       ?state_case_dot@?$output_processor@DV?$string_output_adapter@D@__crt_stdio_output@@V?$standard_base@DV?$string_output_adapter@D@__crt_stdio_output@@@2@@__crt_stdio_output@@AEAA_NXZ 0000000140025704 f i libucrt:output.obj
 0001:0002470c       ?state_case_dot@?$output_processor@_WV?$stream_output_adapter@_W@__crt_stdio_output@@V?$format_validation_base@_WV?$stream_output_adapter@_W@__crt_stdio_output@@@2@@__crt_stdio_output@@AEAA_NXZ 000000014002570c f i libucrt:output.obj
 0001:00024714       ?state_case_dot@?$output_processor@_WV?$stream_output_adapter@_W@__crt_stdio_output@@V?$positional_parameter_base@_WV?$stream_output_adapter@_W@__crt_stdio_output@@@2@@__crt_stdio_output@@AEAA_NXZ 0000000140025714 f i libucrt:output.obj
 0001:0002471c       ?state_case_dot@?$output_processor@_WV?$stream_output_adapter@_W@__crt_stdio_output@@V?$standard_base@_WV?$stream_output_adapter@_W@__crt_stdio_output@@@2@@__crt_stdio_output@@AEAA_NXZ 000000014002571c f i libucrt:output.obj
 0001:00024724       ?state_case_dot@?$output_processor@_WV?$string_output_adapter@_W@__crt_stdio_output@@V?$format_validation_base@_WV?$string_output_adapter@_W@__crt_stdio_output@@@2@@__crt_stdio_output@@AEAA_NXZ 0000000140025724 f i libucrt:output.obj
 0001:0002472c       ?state_case_dot@?$output_processor@_WV?$string_output_adapter@_W@__crt_stdio_output@@V?$positional_parameter_base@_WV?$string_output_adapter@_W@__crt_stdio_output@@@2@@__crt_stdio_output@@AEAA_NXZ 000000014002572c f i libucrt:output.obj
 0001:00024734       ?state_case_dot@?$output_processor@_WV?$string_output_adapter@_W@__crt_stdio_output@@V?$standard_base@_WV?$string_output_adapter@_W@__crt_stdio_output@@@2@@__crt_stdio_output@@AEAA_NXZ 0000000140025734 f i libucrt:output.obj
 0001:0002473c       ?state_case_flag@?$output_processor@DV?$stream_output_adapter@D@__crt_stdio_output@@V?$format_validation_base@DV?$stream_output_adapter@D@__crt_stdio_output@@@2@@__crt_stdio_output@@AEAA_NXZ 000000014002573c f i libucrt:output.obj
 0001:00024774       ?state_case_flag@?$output_processor@DV?$stream_output_adapter@D@__crt_stdio_output@@V?$positional_parameter_base@DV?$stream_output_adapter@D@__crt_stdio_output@@@2@@__crt_stdio_output@@AEAA_NXZ 0000000140025774 f i libucrt:output.obj
 0001:000247ac       ?state_case_flag@?$output_processor@DV?$stream_output_adapter@D@__crt_stdio_output@@V?$standard_base@DV?$stream_output_adapter@D@__crt_stdio_output@@@2@@__crt_stdio_output@@AEAA_NXZ 00000001400257ac f i libucrt:output.obj
 0001:000247e4       ?state_case_flag@?$output_processor@DV?$string_output_adapter@D@__crt_stdio_output@@V?$format_validation_base@DV?$string_output_adapter@D@__crt_stdio_output@@@2@@__crt_stdio_output@@AEAA_NXZ 00000001400257e4 f i libucrt:output.obj
 0001:0002481c       ?state_case_flag@?$output_processor@DV?$string_output_adapter@D@__crt_stdio_output@@V?$positional_parameter_base@DV?$string_output_adapter@D@__crt_stdio_output@@@2@@__crt_stdio_output@@AEAA_NXZ 000000014002581c f i libucrt:output.obj
 0001:00024854       ?state_case_flag@?$output_processor@DV?$string_output_adapter@D@__crt_stdio_output@@V?$standard_base@DV?$string_output_adapter@D@__crt_stdio_output@@@2@@__crt_stdio_output@@AEAA_NXZ 0000000140025854 f i libucrt:output.obj
 0001:0002488c       ?state_case_flag@?$output_processor@_WV?$stream_output_adapter@_W@__crt_stdio_output@@V?$format_validation_base@_WV?$stream_output_adapter@_W@__crt_stdio_output@@@2@@__crt_stdio_output@@AEAA_NXZ 000000014002588c f i libucrt:output.obj
 0001:000248d0       ?state_case_flag@?$output_processor@_WV?$stream_output_adapter@_W@__crt_stdio_output@@V?$positional_parameter_base@_WV?$stream_output_adapter@_W@__crt_stdio_output@@@2@@__crt_stdio_output@@AEAA_NXZ 00000001400258d0 f i libucrt:output.obj
 0001:00024914       ?state_case_flag@?$output_processor@_WV?$stream_output_adapter@_W@__crt_stdio_output@@V?$standard_base@_WV?$stream_output_adapter@_W@__crt_stdio_output@@@2@@__crt_stdio_output@@AEAA_NXZ 0000000140025914 f i libucrt:output.obj
 0001:00024958       ?state_case_flag@?$output_processor@_WV?$string_output_adapter@_W@__crt_stdio_output@@V?$format_validation_base@_WV?$string_output_adapter@_W@__crt_stdio_output@@@2@@__crt_stdio_output@@AEAA_NXZ 0000000140025958 f i libucrt:output.obj
 0001:0002499c       ?state_case_flag@?$output_processor@_WV?$string_output_adapter@_W@__crt_stdio_output@@V?$positional_parameter_base@_WV?$string_output_adapter@_W@__crt_stdio_output@@@2@@__crt_stdio_output@@AEAA_NXZ 000000014002599c f i libucrt:output.obj
 0001:000249e0       ?state_case_flag@?$output_processor@_WV?$string_output_adapter@_W@__crt_stdio_output@@V?$standard_base@_WV?$string_output_adapter@_W@__crt_stdio_output@@@2@@__crt_stdio_output@@AEAA_NXZ 00000001400259e0 f i libucrt:output.obj
 0001:00024a24       ?state_case_normal@?$output_processor@DV?$stream_output_adapter@D@__crt_stdio_output@@V?$format_validation_base@DV?$stream_output_adapter@D@__crt_stdio_output@@@2@@__crt_stdio_output@@AEAA_NXZ 0000000140025a24 f i libucrt:output.obj
 0001:00024b78       ?state_case_normal@?$output_processor@DV?$stream_output_adapter@D@__crt_stdio_output@@V?$positional_parameter_base@DV?$stream_output_adapter@D@__crt_stdio_output@@@2@@__crt_stdio_output@@AEAA_NXZ 0000000140025b78 f i libucrt:output.obj
 0001:00024cf8       ?state_case_normal@?$output_processor@DV?$stream_output_adapter@D@__crt_stdio_output@@V?$standard_base@DV?$stream_output_adapter@D@__crt_stdio_output@@@2@@__crt_stdio_output@@AEAA_NXZ 0000000140025cf8 f i libucrt:output.obj
 0001:00024e4c       ?state_case_normal@?$output_processor@DV?$string_output_adapter@D@__crt_stdio_output@@V?$format_validation_base@DV?$string_output_adapter@D@__crt_stdio_output@@@2@@__crt_stdio_output@@AEAA_NXZ 0000000140025e4c f i libucrt:output.obj
 0001:00024f98       ?state_case_normal@?$output_processor@DV?$string_output_adapter@D@__crt_stdio_output@@V?$positional_parameter_base@DV?$string_output_adapter@D@__crt_stdio_output@@@2@@__crt_stdio_output@@AEAA_NXZ 0000000140025f98 f i libucrt:output.obj
 0001:00025110       ?state_case_normal@?$output_processor@DV?$string_output_adapter@D@__crt_stdio_output@@V?$standard_base@DV?$string_output_adapter@D@__crt_stdio_output@@@2@@__crt_stdio_output@@AEAA_NXZ 0000000140026110 f i libucrt:output.obj
 0001:0002525c       ?state_case_normal@?$output_processor@_WV?$stream_output_adapter@_W@__crt_stdio_output@@V?$format_validation_base@_WV?$stream_output_adapter@_W@__crt_stdio_output@@@2@@__crt_stdio_output@@AEAA_NXZ 000000014002625c f i libucrt:output.obj
 0001:000252bc       ?state_case_normal@?$output_processor@_WV?$stream_output_adapter@_W@__crt_stdio_output@@V?$positional_parameter_base@_WV?$stream_output_adapter@_W@__crt_stdio_output@@@2@@__crt_stdio_output@@AEAA_NXZ 00000001400262bc f i libucrt:output.obj
 0001:00025340       ?state_case_normal@?$output_processor@_WV?$stream_output_adapter@_W@__crt_stdio_output@@V?$standard_base@_WV?$stream_output_adapter@_W@__crt_stdio_output@@@2@@__crt_stdio_output@@AEAA_NXZ 0000000140026340 f i libucrt:output.obj
 0001:000253a0       ?state_case_normal@?$output_processor@_WV?$string_output_adapter@_W@__crt_stdio_output@@V?$format_validation_base@_WV?$string_output_adapter@_W@__crt_stdio_output@@@2@@__crt_stdio_output@@AEAA_NXZ 00000001400263a0 f i libucrt:output.obj
 0001:000253f4       ?state_case_normal@?$output_processor@_WV?$string_output_adapter@_W@__crt_stdio_output@@V?$positional_parameter_base@_WV?$string_output_adapter@_W@__crt_stdio_output@@@2@@__crt_stdio_output@@AEAA_NXZ 00000001400263f4 f i libucrt:output.obj
 0001:0002546c       ?state_case_normal@?$output_processor@_WV?$string_output_adapter@_W@__crt_stdio_output@@V?$standard_base@_WV?$string_output_adapter@_W@__crt_stdio_output@@@2@@__crt_stdio_output@@AEAA_NXZ 000000014002646c f i libucrt:output.obj
 0001:000254c0       ?state_case_normal_common@?$output_processor@DV?$stream_output_adapter@D@__crt_stdio_output@@V?$format_validation_base@DV?$stream_output_adapter@D@__crt_stdio_output@@@2@@__crt_stdio_output@@AEAA_NXZ 00000001400264c0 f i libucrt:output.obj
 0001:000255ec       ?state_case_normal_common@?$output_processor@DV?$stream_output_adapter@D@__crt_stdio_output@@V?$positional_parameter_base@DV?$stream_output_adapter@D@__crt_stdio_output@@@2@@__crt_stdio_output@@AEAA_NXZ 00000001400265ec f i libucrt:output.obj
 0001:00025718       ?state_case_normal_common@?$output_processor@DV?$stream_output_adapter@D@__crt_stdio_output@@V?$standard_base@DV?$stream_output_adapter@D@__crt_stdio_output@@@2@@__crt_stdio_output@@AEAA_NXZ 0000000140026718 f i libucrt:output.obj
 0001:00025844       ?state_case_normal_common@?$output_processor@DV?$string_output_adapter@D@__crt_stdio_output@@V?$format_validation_base@DV?$string_output_adapter@D@__crt_stdio_output@@@2@@__crt_stdio_output@@AEAA_NXZ 0000000140026844 f i libucrt:output.obj
 0001:00025968       ?state_case_normal_common@?$output_processor@DV?$string_output_adapter@D@__crt_stdio_output@@V?$positional_parameter_base@DV?$string_output_adapter@D@__crt_stdio_output@@@2@@__crt_stdio_output@@AEAA_NXZ 0000000140026968 f i libucrt:output.obj
 0001:00025a8c       ?state_case_normal_common@?$output_processor@DV?$string_output_adapter@D@__crt_stdio_output@@V?$standard_base@DV?$string_output_adapter@D@__crt_stdio_output@@@2@@__crt_stdio_output@@AEAA_NXZ 0000000140026a8c f i libucrt:output.obj
 0001:00025bb0       ?state_case_normal_common@?$output_processor@_WV?$stream_output_adapter@_W@__crt_stdio_output@@V?$format_validation_base@_WV?$stream_output_adapter@_W@__crt_stdio_output@@@2@@__crt_stdio_output@@AEAA_NXZ 0000000140026bb0 f i libucrt:output.obj
 0001:00025c10       ?state_case_normal_common@?$output_processor@_WV?$stream_output_adapter@_W@__crt_stdio_output@@V?$positional_parameter_base@_WV?$stream_output_adapter@_W@__crt_stdio_output@@@2@@__crt_stdio_output@@AEAA_NXZ 0000000140026c10 f i libucrt:output.obj
 0001:00025c70       ?state_case_normal_common@?$output_processor@_WV?$stream_output_adapter@_W@__crt_stdio_output@@V?$standard_base@_WV?$stream_output_adapter@_W@__crt_stdio_output@@@2@@__crt_stdio_output@@AEAA_NXZ 0000000140026c70 f i libucrt:output.obj
 0001:00025cd0       ?state_case_normal_common@?$output_processor@_WV?$string_output_adapter@_W@__crt_stdio_output@@V?$format_validation_base@_WV?$string_output_adapter@_W@__crt_stdio_output@@@2@@__crt_stdio_output@@AEAA_NXZ 0000000140026cd0 f i libucrt:output.obj
 0001:00025d24       ?state_case_normal_common@?$output_processor@_WV?$string_output_adapter@_W@__crt_stdio_output@@V?$positional_parameter_base@_WV?$string_output_adapter@_W@__crt_stdio_output@@@2@@__crt_stdio_output@@AEAA_NXZ 0000000140026d24 f i libucrt:output.obj
 0001:00025d78       ?state_case_normal_common@?$output_processor@_WV?$string_output_adapter@_W@__crt_stdio_output@@V?$standard_base@_WV?$string_output_adapter@_W@__crt_stdio_output@@@2@@__crt_stdio_output@@AEAA_NXZ 0000000140026d78 f i libucrt:output.obj
 0001:00025dcc       ?state_case_normal_tchar@?$output_processor@DV?$stream_output_adapter@D@__crt_stdio_output@@V?$format_validation_base@DV?$stream_output_adapter@D@__crt_stdio_output@@@2@@__crt_stdio_output@@AEAA_ND@Z 0000000140026dcc f i libucrt:output.obj
 0001:00025eac       ?state_case_normal_tchar@?$output_processor@DV?$stream_output_adapter@D@__crt_stdio_output@@V?$positional_parameter_base@DV?$stream_output_adapter@D@__crt_stdio_output@@@2@@__crt_stdio_output@@AEAA_ND@Z 0000000140026eac f i libucrt:output.obj
 0001:00025f8c       ?state_case_normal_tchar@?$output_processor@DV?$stream_output_adapter@D@__crt_stdio_output@@V?$standard_base@DV?$stream_output_adapter@D@__crt_stdio_output@@@2@@__crt_stdio_output@@AEAA_ND@Z 0000000140026f8c f i libucrt:output.obj
 0001:0002606c       ?state_case_normal_tchar@?$output_processor@DV?$string_output_adapter@D@__crt_stdio_output@@V?$format_validation_base@DV?$string_output_adapter@D@__crt_stdio_output@@@2@@__crt_stdio_output@@AEAA_ND@Z 000000014002706c f i libucrt:output.obj
 0001:00026148       ?state_case_normal_tchar@?$output_processor@DV?$string_output_adapter@D@__crt_stdio_output@@V?$positional_parameter_base@DV?$string_output_adapter@D@__crt_stdio_output@@@2@@__crt_stdio_output@@AEAA_ND@Z 0000000140027148 f i libucrt:output.obj
 0001:00026224       ?state_case_normal_tchar@?$output_processor@DV?$string_output_adapter@D@__crt_stdio_output@@V?$standard_base@DV?$string_output_adapter@D@__crt_stdio_output@@@2@@__crt_stdio_output@@AEAA_ND@Z 0000000140027224 f i libucrt:output.obj
 0001:00026300       ?state_case_normal_tchar@?$output_processor@_WV?$stream_output_adapter@_W@__crt_stdio_output@@V?$format_validation_base@_WV?$stream_output_adapter@_W@__crt_stdio_output@@@2@@__crt_stdio_output@@AEAA_N_W@Z 0000000140027300 f i libucrt:output.obj
 0001:00026308       ?state_case_normal_tchar@?$output_processor@_WV?$stream_output_adapter@_W@__crt_stdio_output@@V?$positional_parameter_base@_WV?$stream_output_adapter@_W@__crt_stdio_output@@@2@@__crt_stdio_output@@AEAA_N_W@Z 0000000140027308 f i libucrt:output.obj
 0001:00026310       ?state_case_normal_tchar@?$output_processor@_WV?$stream_output_adapter@_W@__crt_stdio_output@@V?$standard_base@_WV?$stream_output_adapter@_W@__crt_stdio_output@@@2@@__crt_stdio_output@@AEAA_N_W@Z 0000000140027310 f i libucrt:output.obj
 0001:00026318       ?state_case_normal_tchar@?$output_processor@_WV?$string_output_adapter@_W@__crt_stdio_output@@V?$format_validation_base@_WV?$string_output_adapter@_W@__crt_stdio_output@@@2@@__crt_stdio_output@@AEAA_N_W@Z 0000000140027318 f i libucrt:output.obj
 0001:00026320       ?state_case_normal_tchar@?$output_processor@_WV?$string_output_adapter@_W@__crt_stdio_output@@V?$positional_parameter_base@_WV?$string_output_adapter@_W@__crt_stdio_output@@@2@@__crt_stdio_output@@AEAA_N_W@Z 0000000140027320 f i libucrt:output.obj
 0001:00026328       ?state_case_normal_tchar@?$output_processor@_WV?$string_output_adapter@_W@__crt_stdio_output@@V?$standard_base@_WV?$string_output_adapter@_W@__crt_stdio_output@@@2@@__crt_stdio_output@@AEAA_N_W@Z 0000000140027328 f i libucrt:output.obj
 0001:00026330       ?state_case_percent@?$output_processor@DV?$stream_output_adapter@D@__crt_stdio_output@@V?$format_validation_base@DV?$stream_output_adapter@D@__crt_stdio_output@@@2@@__crt_stdio_output@@AEAA_NXZ 0000000140027330 f i libucrt:output.obj
 0001:00026348       ?state_case_percent@?$output_processor@DV?$stream_output_adapter@D@__crt_stdio_output@@V?$positional_parameter_base@DV?$stream_output_adapter@D@__crt_stdio_output@@@2@@__crt_stdio_output@@AEAA_NXZ 0000000140027348 f i libucrt:output.obj
 0001:00026360       ?state_case_percent@?$output_processor@DV?$stream_output_adapter@D@__crt_stdio_output@@V?$standard_base@DV?$stream_output_adapter@D@__crt_stdio_output@@@2@@__crt_stdio_output@@AEAA_NXZ 0000000140027360 f i libucrt:output.obj
 0001:00026378       ?state_case_percent@?$output_processor@DV?$string_output_adapter@D@__crt_stdio_output@@V?$format_validation_base@DV?$string_output_adapter@D@__crt_stdio_output@@@2@@__crt_stdio_output@@AEAA_NXZ 0000000140027378 f i libucrt:output.obj
 0001:00026390       ?state_case_percent@?$output_processor@DV?$string_output_adapter@D@__crt_stdio_output@@V?$positional_parameter_base@DV?$string_output_adapter@D@__crt_stdio_output@@@2@@__crt_stdio_output@@AEAA_NXZ 0000000140027390 f i libucrt:output.obj
 0001:000263a8       ?state_case_percent@?$output_processor@DV?$string_output_adapter@D@__crt_stdio_output@@V?$standard_base@DV?$string_output_adapter@D@__crt_stdio_output@@@2@@__crt_stdio_output@@AEAA_NXZ 00000001400273a8 f i libucrt:output.obj
 0001:000263c0       ?state_case_percent@?$output_processor@_WV?$stream_output_adapter@_W@__crt_stdio_output@@V?$format_validation_base@_WV?$stream_output_adapter@_W@__crt_stdio_output@@@2@@__crt_stdio_output@@AEAA_NXZ 00000001400273c0 f i libucrt:output.obj
 0001:000263d8       ?state_case_percent@?$output_processor@_WV?$stream_output_adapter@_W@__crt_stdio_output@@V?$positional_parameter_base@_WV?$stream_output_adapter@_W@__crt_stdio_output@@@2@@__crt_stdio_output@@AEAA_NXZ 00000001400273d8 f i libucrt:output.obj
 0001:000263f0       ?state_case_percent@?$output_processor@_WV?$stream_output_adapter@_W@__crt_stdio_output@@V?$standard_base@_WV?$stream_output_adapter@_W@__crt_stdio_output@@@2@@__crt_stdio_output@@AEAA_NXZ 00000001400273f0 f i libucrt:output.obj
 0001:00026408       ?state_case_percent@?$output_processor@_WV?$string_output_adapter@_W@__crt_stdio_output@@V?$format_validation_base@_WV?$string_output_adapter@_W@__crt_stdio_output@@@2@@__crt_stdio_output@@AEAA_NXZ 0000000140027408 f i libucrt:output.obj
 0001:00026420       ?state_case_percent@?$output_processor@_WV?$string_output_adapter@_W@__crt_stdio_output@@V?$positional_parameter_base@_WV?$string_output_adapter@_W@__crt_stdio_output@@@2@@__crt_stdio_output@@AEAA_NXZ 0000000140027420 f i libucrt:output.obj
 0001:00026438       ?state_case_percent@?$output_processor@_WV?$string_output_adapter@_W@__crt_stdio_output@@V?$standard_base@_WV?$string_output_adapter@_W@__crt_stdio_output@@@2@@__crt_stdio_output@@AEAA_NXZ 0000000140027438 f i libucrt:output.obj
 0001:00026450       ?state_case_precision@?$output_processor@DV?$stream_output_adapter@D@__crt_stdio_output@@V?$format_validation_base@DV?$stream_output_adapter@D@__crt_stdio_output@@@2@@__crt_stdio_output@@AEAA_NXZ 0000000140027450 f i libucrt:output.obj
 0001:00026480       ?state_case_precision@?$output_processor@DV?$stream_output_adapter@D@__crt_stdio_output@@V?$positional_parameter_base@DV?$stream_output_adapter@D@__crt_stdio_output@@@2@@__crt_stdio_output@@AEAA_NXZ 0000000140027480 f i libucrt:output.obj
 0001:000264cc       ?state_case_precision@?$output_processor@DV?$stream_output_adapter@D@__crt_stdio_output@@V?$standard_base@DV?$stream_output_adapter@D@__crt_stdio_output@@@2@@__crt_stdio_output@@AEAA_NXZ 00000001400274cc f i libucrt:output.obj
 0001:000264fc       ?state_case_precision@?$output_processor@DV?$string_output_adapter@D@__crt_stdio_output@@V?$format_validation_base@DV?$string_output_adapter@D@__crt_stdio_output@@@2@@__crt_stdio_output@@AEAA_NXZ 00000001400274fc f i libucrt:output.obj
 0001:0002652c       ?state_case_precision@?$output_processor@DV?$string_output_adapter@D@__crt_stdio_output@@V?$positional_parameter_base@DV?$string_output_adapter@D@__crt_stdio_output@@@2@@__crt_stdio_output@@AEAA_NXZ 000000014002752c f i libucrt:output.obj
 0001:00026578       ?state_case_precision@?$output_processor@DV?$string_output_adapter@D@__crt_stdio_output@@V?$standard_base@DV?$string_output_adapter@D@__crt_stdio_output@@@2@@__crt_stdio_output@@AEAA_NXZ 0000000140027578 f i libucrt:output.obj
 0001:000265a8       ?state_case_precision@?$output_processor@_WV?$stream_output_adapter@_W@__crt_stdio_output@@V?$format_validation_base@_WV?$stream_output_adapter@_W@__crt_stdio_output@@@2@@__crt_stdio_output@@AEAA_NXZ 00000001400275a8 f i libucrt:output.obj
 0001:000265dc       ?state_case_precision@?$output_processor@_WV?$stream_output_adapter@_W@__crt_stdio_output@@V?$positional_parameter_base@_WV?$stream_output_adapter@_W@__crt_stdio_output@@@2@@__crt_stdio_output@@AEAA_NXZ 00000001400275dc f i libucrt:output.obj
 0001:00026628       ?state_case_precision@?$output_processor@_WV?$stream_output_adapter@_W@__crt_stdio_output@@V?$standard_base@_WV?$stream_output_adapter@_W@__crt_stdio_output@@@2@@__crt_stdio_output@@AEAA_NXZ 0000000140027628 f i libucrt:output.obj
 0001:0002665c       ?state_case_precision@?$output_processor@_WV?$string_output_adapter@_W@__crt_stdio_output@@V?$format_validation_base@_WV?$string_output_adapter@_W@__crt_stdio_output@@@2@@__crt_stdio_output@@AEAA_NXZ 000000014002765c f i libucrt:output.obj
 0001:00026690       ?state_case_precision@?$output_processor@_WV?$string_output_adapter@_W@__crt_stdio_output@@V?$positional_parameter_base@_WV?$string_output_adapter@_W@__crt_stdio_output@@@2@@__crt_stdio_output@@AEAA_NXZ 0000000140027690 f i libucrt:output.obj
 0001:000266dc       ?state_case_precision@?$output_processor@_WV?$string_output_adapter@_W@__crt_stdio_output@@V?$standard_base@_WV?$string_output_adapter@_W@__crt_stdio_output@@@2@@__crt_stdio_output@@AEAA_NXZ 00000001400276dc f i libucrt:output.obj
 0001:00026710       ?state_case_size@?$output_processor@DV?$stream_output_adapter@D@__crt_stdio_output@@V?$format_validation_base@DV?$stream_output_adapter@D@__crt_stdio_output@@@2@@__crt_stdio_output@@AEAA_NXZ 0000000140027710 f i libucrt:output.obj
 0001:00026898       ?state_case_size@?$output_processor@DV?$stream_output_adapter@D@__crt_stdio_output@@V?$positional_parameter_base@DV?$stream_output_adapter@D@__crt_stdio_output@@@2@@__crt_stdio_output@@AEAA_NXZ 0000000140027898 f i libucrt:output.obj
 0001:00026a20       ?state_case_size@?$output_processor@DV?$stream_output_adapter@D@__crt_stdio_output@@V?$standard_base@DV?$stream_output_adapter@D@__crt_stdio_output@@@2@@__crt_stdio_output@@AEAA_NXZ 0000000140027a20 f i libucrt:output.obj
 0001:00026ba8       ?state_case_size@?$output_processor@DV?$string_output_adapter@D@__crt_stdio_output@@V?$format_validation_base@DV?$string_output_adapter@D@__crt_stdio_output@@@2@@__crt_stdio_output@@AEAA_NXZ 0000000140027ba8 f i libucrt:output.obj
 0001:00026d30       ?state_case_size@?$output_processor@DV?$string_output_adapter@D@__crt_stdio_output@@V?$positional_parameter_base@DV?$string_output_adapter@D@__crt_stdio_output@@@2@@__crt_stdio_output@@AEAA_NXZ 0000000140027d30 f i libucrt:output.obj
 0001:00026eb8       ?state_case_size@?$output_processor@DV?$string_output_adapter@D@__crt_stdio_output@@V?$standard_base@DV?$string_output_adapter@D@__crt_stdio_output@@@2@@__crt_stdio_output@@AEAA_NXZ 0000000140027eb8 f i libucrt:output.obj
 0001:00027040       ?state_case_size@?$output_processor@_WV?$stream_output_adapter@_W@__crt_stdio_output@@V?$format_validation_base@_WV?$stream_output_adapter@_W@__crt_stdio_output@@@2@@__crt_stdio_output@@AEAA_NXZ 0000000140028040 f i libucrt:output.obj
 0001:000271f0       ?state_case_size@?$output_processor@_WV?$stream_output_adapter@_W@__crt_stdio_output@@V?$positional_parameter_base@_WV?$stream_output_adapter@_W@__crt_stdio_output@@@2@@__crt_stdio_output@@AEAA_NXZ 00000001400281f0 f i libucrt:output.obj
 0001:000273a0       ?state_case_size@?$output_processor@_WV?$stream_output_adapter@_W@__crt_stdio_output@@V?$standard_base@_WV?$stream_output_adapter@_W@__crt_stdio_output@@@2@@__crt_stdio_output@@AEAA_NXZ 00000001400283a0 f i libucrt:output.obj
 0001:00027550       ?state_case_size@?$output_processor@_WV?$string_output_adapter@_W@__crt_stdio_output@@V?$format_validation_base@_WV?$string_output_adapter@_W@__crt_stdio_output@@@2@@__crt_stdio_output@@AEAA_NXZ 0000000140028550 f i libucrt:output.obj
 0001:00027700       ?state_case_size@?$output_processor@_WV?$string_output_adapter@_W@__crt_stdio_output@@V?$positional_parameter_base@_WV?$string_output_adapter@_W@__crt_stdio_output@@@2@@__crt_stdio_output@@AEAA_NXZ 0000000140028700 f i libucrt:output.obj
 0001:000278b0       ?state_case_size@?$output_processor@_WV?$string_output_adapter@_W@__crt_stdio_output@@V?$standard_base@_WV?$string_output_adapter@_W@__crt_stdio_output@@@2@@__crt_stdio_output@@AEAA_NXZ 00000001400288b0 f i libucrt:output.obj
 0001:00027a60       ?state_case_type@?$output_processor@DV?$stream_output_adapter@D@__crt_stdio_output@@V?$format_validation_base@DV?$stream_output_adapter@D@__crt_stdio_output@@@2@@__crt_stdio_output@@AEAA_NXZ 0000000140028a60 f i libucrt:output.obj
 0001:00027e98       ?state_case_type@?$output_processor@DV?$stream_output_adapter@D@__crt_stdio_output@@V?$positional_parameter_base@DV?$stream_output_adapter@D@__crt_stdio_output@@@2@@__crt_stdio_output@@AEAA_NXZ 0000000140028e98 f i libucrt:output.obj
 0001:00028300       ?state_case_type@?$output_processor@DV?$stream_output_adapter@D@__crt_stdio_output@@V?$standard_base@DV?$stream_output_adapter@D@__crt_stdio_output@@@2@@__crt_stdio_output@@AEAA_NXZ 0000000140029300 f i libucrt:output.obj
 0001:00028738       ?state_case_type@?$output_processor@DV?$string_output_adapter@D@__crt_stdio_output@@V?$format_validation_base@DV?$string_output_adapter@D@__crt_stdio_output@@@2@@__crt_stdio_output@@AEAA_NXZ 0000000140029738 f i libucrt:output.obj
 0001:00028b3c       ?state_case_type@?$output_processor@DV?$string_output_adapter@D@__crt_stdio_output@@V?$positional_parameter_base@DV?$string_output_adapter@D@__crt_stdio_output@@@2@@__crt_stdio_output@@AEAA_NXZ 0000000140029b3c f i libucrt:output.obj
 0001:00028f54       ?state_case_type@?$output_processor@DV?$string_output_adapter@D@__crt_stdio_output@@V?$standard_base@DV?$string_output_adapter@D@__crt_stdio_output@@@2@@__crt_stdio_output@@AEAA_NXZ 0000000140029f54 f i libucrt:output.obj
 0001:00029358       ?state_case_type@?$output_processor@_WV?$stream_output_adapter@_W@__crt_stdio_output@@V?$format_validation_base@_WV?$stream_output_adapter@_W@__crt_stdio_output@@@2@@__crt_stdio_output@@AEAA_NXZ 000000014002a358 f i libucrt:output.obj
 0001:0002981c       ?state_case_type@?$output_processor@_WV?$stream_output_adapter@_W@__crt_stdio_output@@V?$positional_parameter_base@_WV?$stream_output_adapter@_W@__crt_stdio_output@@@2@@__crt_stdio_output@@AEAA_NXZ 000000014002a81c f i libucrt:output.obj
 0001:00029cf8       ?state_case_type@?$output_processor@_WV?$stream_output_adapter@_W@__crt_stdio_output@@V?$standard_base@_WV?$stream_output_adapter@_W@__crt_stdio_output@@@2@@__crt_stdio_output@@AEAA_NXZ 000000014002acf8 f i libucrt:output.obj
 0001:0002a1bc       ?state_case_type@?$output_processor@_WV?$string_output_adapter@_W@__crt_stdio_output@@V?$format_validation_base@_WV?$string_output_adapter@_W@__crt_stdio_output@@@2@@__crt_stdio_output@@AEAA_NXZ 000000014002b1bc f i libucrt:output.obj
 0001:0002a620       ?state_case_type@?$output_processor@_WV?$string_output_adapter@_W@__crt_stdio_output@@V?$positional_parameter_base@_WV?$string_output_adapter@_W@__crt_stdio_output@@@2@@__crt_stdio_output@@AEAA_NXZ 000000014002b620 f i libucrt:output.obj
 0001:0002aab0       ?state_case_type@?$output_processor@_WV?$string_output_adapter@_W@__crt_stdio_output@@V?$standard_base@_WV?$string_output_adapter@_W@__crt_stdio_output@@@2@@__crt_stdio_output@@AEAA_NXZ 000000014002bab0 f i libucrt:output.obj
 0001:0002af14       ?state_case_width@?$output_processor@DV?$stream_output_adapter@D@__crt_stdio_output@@V?$format_validation_base@DV?$stream_output_adapter@D@__crt_stdio_output@@@2@@__crt_stdio_output@@AEAA_NXZ 000000014002bf14 f i libucrt:output.obj
 0001:0002af48       ?state_case_width@?$output_processor@DV?$stream_output_adapter@D@__crt_stdio_output@@V?$positional_parameter_base@DV?$stream_output_adapter@D@__crt_stdio_output@@@2@@__crt_stdio_output@@AEAA_NXZ 000000014002bf48 f i libucrt:output.obj
 0001:0002af98       ?state_case_width@?$output_processor@DV?$stream_output_adapter@D@__crt_stdio_output@@V?$standard_base@DV?$stream_output_adapter@D@__crt_stdio_output@@@2@@__crt_stdio_output@@AEAA_NXZ 000000014002bf98 f i libucrt:output.obj
 0001:0002afcc       ?state_case_width@?$output_processor@DV?$string_output_adapter@D@__crt_stdio_output@@V?$format_validation_base@DV?$string_output_adapter@D@__crt_stdio_output@@@2@@__crt_stdio_output@@AEAA_NXZ 000000014002bfcc f i libucrt:output.obj
 0001:0002b000       ?state_case_width@?$output_processor@DV?$string_output_adapter@D@__crt_stdio_output@@V?$positional_parameter_base@DV?$string_output_adapter@D@__crt_stdio_output@@@2@@__crt_stdio_output@@AEAA_NXZ 000000014002c000 f i libucrt:output.obj
 0001:0002b050       ?state_case_width@?$output_processor@DV?$string_output_adapter@D@__crt_stdio_output@@V?$standard_base@DV?$string_output_adapter@D@__crt_stdio_output@@@2@@__crt_stdio_output@@AEAA_NXZ 000000014002c050 f i libucrt:output.obj
 0001:0002b084       ?state_case_width@?$output_processor@_WV?$stream_output_adapter@_W@__crt_stdio_output@@V?$format_validation_base@_WV?$stream_output_adapter@_W@__crt_stdio_output@@@2@@__crt_stdio_output@@AEAA_NXZ 000000014002c084 f i libucrt:output.obj
 0001:0002b0b8       ?state_case_width@?$output_processor@_WV?$stream_output_adapter@_W@__crt_stdio_output@@V?$positional_parameter_base@_WV?$stream_output_adapter@_W@__crt_stdio_output@@@2@@__crt_stdio_output@@AEAA_NXZ 000000014002c0b8 f i libucrt:output.obj
 0001:0002b10c       ?state_case_width@?$output_processor@_WV?$stream_output_adapter@_W@__crt_stdio_output@@V?$standard_base@_WV?$stream_output_adapter@_W@__crt_stdio_output@@@2@@__crt_stdio_output@@AEAA_NXZ 000000014002c10c f i libucrt:output.obj
 0001:0002b140       ?state_case_width@?$output_processor@_WV?$string_output_adapter@_W@__crt_stdio_output@@V?$format_validation_base@_WV?$string_output_adapter@_W@__crt_stdio_output@@@2@@__crt_stdio_output@@AEAA_NXZ 000000014002c140 f i libucrt:output.obj
 0001:0002b174       ?state_case_width@?$output_processor@_WV?$string_output_adapter@_W@__crt_stdio_output@@V?$positional_parameter_base@_WV?$string_output_adapter@_W@__crt_stdio_output@@@2@@__crt_stdio_output@@AEAA_NXZ 000000014002c174 f i libucrt:output.obj
 0001:0002b1c8       ?state_case_width@?$output_processor@_WV?$string_output_adapter@_W@__crt_stdio_output@@V?$standard_base@_WV?$string_output_adapter@_W@__crt_stdio_output@@@2@@__crt_stdio_output@@AEAA_NXZ 000000014002c1c8 f i libucrt:output.obj
 0001:0002b1fc       ?state_count@?$format_validation_base@DV?$stream_output_adapter@D@__crt_stdio_output@@@__crt_stdio_output@@KAIXZ 000000014002c1fc f i libucrt:output.obj
 0001:0002b204       ?state_count@?$format_validation_base@DV?$string_output_adapter@D@__crt_stdio_output@@@__crt_stdio_output@@KAIXZ 000000014002c204 f i libucrt:output.obj
 0001:0002b20c       ?state_count@?$format_validation_base@_WV?$stream_output_adapter@_W@__crt_stdio_output@@@__crt_stdio_output@@KAIXZ 000000014002c20c f i libucrt:output.obj
 0001:0002b214       ?state_count@?$format_validation_base@_WV?$string_output_adapter@_W@__crt_stdio_output@@@__crt_stdio_output@@KAIXZ 000000014002c214 f i libucrt:output.obj
 0001:0002b21c       ?state_count@?$standard_base@DV?$stream_output_adapter@D@__crt_stdio_output@@@__crt_stdio_output@@KAIXZ 000000014002c21c f i libucrt:output.obj
 0001:0002b224       ?state_count@?$standard_base@DV?$string_output_adapter@D@__crt_stdio_output@@@__crt_stdio_output@@KAIXZ 000000014002c224 f i libucrt:output.obj
 0001:0002b22c       ?state_count@?$standard_base@_WV?$stream_output_adapter@_W@__crt_stdio_output@@@__crt_stdio_output@@KAIXZ 000000014002c22c f i libucrt:output.obj
 0001:0002b234       ?state_count@?$standard_base@_WV?$string_output_adapter@_W@__crt_stdio_output@@@__crt_stdio_output@@KAIXZ 000000014002c234 f i libucrt:output.obj
 0001:0002b23c       ?state_transition_table@?$format_validation_base@DV?$stream_output_adapter@D@__crt_stdio_output@@@__crt_stdio_output@@KAAEBV?$spectre_mitigated_lookup_table@Ustate_transition_pair@__crt_stdio_output@@$0IA@@2@XZ 000000014002c23c f i libucrt:output.obj
 0001:0002b244       ?state_transition_table@?$format_validation_base@DV?$string_output_adapter@D@__crt_stdio_output@@@__crt_stdio_output@@KAAEBV?$spectre_mitigated_lookup_table@Ustate_transition_pair@__crt_stdio_output@@$0IA@@2@XZ 000000014002c244 f i libucrt:output.obj
 0001:0002b24c       ?state_transition_table@?$format_validation_base@_WV?$stream_output_adapter@_W@__crt_stdio_output@@@__crt_stdio_output@@KAAEBV?$spectre_mitigated_lookup_table@Ustate_transition_pair@__crt_stdio_output@@$0IA@@2@XZ 000000014002c24c f i libucrt:output.obj
 0001:0002b254       ?state_transition_table@?$format_validation_base@_WV?$string_output_adapter@_W@__crt_stdio_output@@@__crt_stdio_output@@KAAEBV?$spectre_mitigated_lookup_table@Ustate_transition_pair@__crt_stdio_output@@$0IA@@2@XZ 000000014002c254 f i libucrt:output.obj
 0001:0002b25c       ?state_transition_table@?$standard_base@DV?$stream_output_adapter@D@__crt_stdio_output@@@__crt_stdio_output@@KAAEBV?$spectre_mitigated_lookup_table@Ustate_transition_pair@__crt_stdio_output@@$0IA@@2@XZ 000000014002c25c f i libucrt:output.obj
 0001:0002b264       ?state_transition_table@?$standard_base@DV?$string_output_adapter@D@__crt_stdio_output@@@__crt_stdio_output@@KAAEBV?$spectre_mitigated_lookup_table@Ustate_transition_pair@__crt_stdio_output@@$0IA@@2@XZ 000000014002c264 f i libucrt:output.obj
 0001:0002b26c       ?state_transition_table@?$standard_base@_WV?$stream_output_adapter@_W@__crt_stdio_output@@@__crt_stdio_output@@KAAEBV?$spectre_mitigated_lookup_table@Ustate_transition_pair@__crt_stdio_output@@$0IA@@2@XZ 000000014002c26c f i libucrt:output.obj
 0001:0002b274       ?state_transition_table@?$standard_base@_WV?$string_output_adapter@_W@__crt_stdio_output@@@__crt_stdio_output@@KAAEBV?$spectre_mitigated_lookup_table@Ustate_transition_pair@__crt_stdio_output@@$0IA@@2@XZ 000000014002c274 f i libucrt:output.obj
 0001:0002b27c       ?tchar_string@?$common_data@D@__crt_stdio_output@@IEAAAEAPEADD@Z 000000014002c27c f i libucrt:output.obj
 0001:0002b284       ?tchar_string@?$common_data@D@__crt_stdio_output@@IEAAAEAPEADXZ 000000014002c284 f i libucrt:output.obj
 0001:0002b28c       ?tchar_string@?$common_data@_W@__crt_stdio_output@@IEAAAEAPEA_WXZ 000000014002c28c f i libucrt:output.obj
 0001:0002b294       ?tchar_string@?$common_data@_W@__crt_stdio_output@@IEAAAEAPEA_W_W@Z 000000014002c294 f i libucrt:output.obj
 0001:0002b29c       ?to_integer_size@__crt_stdio_output@@YA_KW4length_modifier@1@@Z 000000014002c29c f i libucrt:output.obj
 0001:0002b2e4       ?type_case_X@?$output_processor@DV?$stream_output_adapter@D@__crt_stdio_output@@V?$format_validation_base@DV?$stream_output_adapter@D@__crt_stdio_output@@@2@@__crt_stdio_output@@AEAA_NXZ 000000014002c2e4 f i libucrt:output.obj
 0001:0002b2ec       ?type_case_X@?$output_processor@DV?$stream_output_adapter@D@__crt_stdio_output@@V?$positional_parameter_base@DV?$stream_output_adapter@D@__crt_stdio_output@@@2@@__crt_stdio_output@@AEAA_NXZ 000000014002c2ec f i libucrt:output.obj
 0001:0002b2f4       ?type_case_X@?$output_processor@DV?$stream_output_adapter@D@__crt_stdio_output@@V?$standard_base@DV?$stream_output_adapter@D@__crt_stdio_output@@@2@@__crt_stdio_output@@AEAA_NXZ 000000014002c2f4 f i libucrt:output.obj
 0001:0002b2fc       ?type_case_X@?$output_processor@DV?$string_output_adapter@D@__crt_stdio_output@@V?$format_validation_base@DV?$string_output_adapter@D@__crt_stdio_output@@@2@@__crt_stdio_output@@AEAA_NXZ 000000014002c2fc f i libucrt:output.obj
 0001:0002b304       ?type_case_X@?$output_processor@DV?$string_output_adapter@D@__crt_stdio_output@@V?$positional_parameter_base@DV?$string_output_adapter@D@__crt_stdio_output@@@2@@__crt_stdio_output@@AEAA_NXZ 000000014002c304 f i libucrt:output.obj
 0001:0002b30c       ?type_case_X@?$output_processor@DV?$string_output_adapter@D@__crt_stdio_output@@V?$standard_base@DV?$string_output_adapter@D@__crt_stdio_output@@@2@@__crt_stdio_output@@AEAA_NXZ 000000014002c30c f i libucrt:output.obj
 0001:0002b314       ?type_case_X@?$output_processor@_WV?$stream_output_adapter@_W@__crt_stdio_output@@V?$format_validation_base@_WV?$stream_output_adapter@_W@__crt_stdio_output@@@2@@__crt_stdio_output@@AEAA_NXZ 000000014002c314 f i libucrt:output.obj
 0001:0002b31c       ?type_case_X@?$output_processor@_WV?$stream_output_adapter@_W@__crt_stdio_output@@V?$positional_parameter_base@_WV?$stream_output_adapter@_W@__crt_stdio_output@@@2@@__crt_stdio_output@@AEAA_NXZ 000000014002c31c f i libucrt:output.obj
 0001:0002b324       ?type_case_X@?$output_processor@_WV?$stream_output_adapter@_W@__crt_stdio_output@@V?$standard_base@_WV?$stream_output_adapter@_W@__crt_stdio_output@@@2@@__crt_stdio_output@@AEAA_NXZ 000000014002c324 f i libucrt:output.obj
 0001:0002b32c       ?type_case_X@?$output_processor@_WV?$string_output_adapter@_W@__crt_stdio_output@@V?$format_validation_base@_WV?$string_output_adapter@_W@__crt_stdio_output@@@2@@__crt_stdio_output@@AEAA_NXZ 000000014002c32c f i libucrt:output.obj
 0001:0002b334       ?type_case_X@?$output_processor@_WV?$string_output_adapter@_W@__crt_stdio_output@@V?$positional_parameter_base@_WV?$string_output_adapter@_W@__crt_stdio_output@@@2@@__crt_stdio_output@@AEAA_NXZ 000000014002c334 f i libucrt:output.obj
 0001:0002b33c       ?type_case_X@?$output_processor@_WV?$string_output_adapter@_W@__crt_stdio_output@@V?$standard_base@_WV?$string_output_adapter@_W@__crt_stdio_output@@@2@@__crt_stdio_output@@AEAA_NXZ 000000014002c33c f i libucrt:output.obj
 0001:0002b344       ?type_case_Z@?$output_processor@DV?$stream_output_adapter@D@__crt_stdio_output@@V?$format_validation_base@DV?$stream_output_adapter@D@__crt_stdio_output@@@2@@__crt_stdio_output@@AEAA_NXZ 000000014002c344 f i libucrt:output.obj
 0001:0002b3c0       ?type_case_Z@?$output_processor@DV?$stream_output_adapter@D@__crt_stdio_output@@V?$positional_parameter_base@DV?$stream_output_adapter@D@__crt_stdio_output@@@2@@__crt_stdio_output@@AEAA_NXZ 000000014002c3c0 f i libucrt:output.obj
 0001:0002b468       ?type_case_Z@?$output_processor@DV?$stream_output_adapter@D@__crt_stdio_output@@V?$standard_base@DV?$stream_output_adapter@D@__crt_stdio_output@@@2@@__crt_stdio_output@@AEAA_NXZ 000000014002c468 f i libucrt:output.obj
 0001:0002b4e4       ?type_case_Z@?$output_processor@DV?$string_output_adapter@D@__crt_stdio_output@@V?$format_validation_base@DV?$string_output_adapter@D@__crt_stdio_output@@@2@@__crt_stdio_output@@AEAA_NXZ 000000014002c4e4 f i libucrt:output.obj
 0001:0002b560       ?type_case_Z@?$output_processor@DV?$string_output_adapter@D@__crt_stdio_output@@V?$positional_parameter_base@DV?$string_output_adapter@D@__crt_stdio_output@@@2@@__crt_stdio_output@@AEAA_NXZ 000000014002c560 f i libucrt:output.obj
 0001:0002b608       ?type_case_Z@?$output_processor@DV?$string_output_adapter@D@__crt_stdio_output@@V?$standard_base@DV?$string_output_adapter@D@__crt_stdio_output@@@2@@__crt_stdio_output@@AEAA_NXZ 000000014002c608 f i libucrt:output.obj
 0001:0002b684       ?type_case_Z@?$output_processor@_WV?$stream_output_adapter@_W@__crt_stdio_output@@V?$format_validation_base@_WV?$stream_output_adapter@_W@__crt_stdio_output@@@2@@__crt_stdio_output@@AEAA_NXZ 000000014002c684 f i libucrt:output.obj
 0001:0002b704       ?type_case_Z@?$output_processor@_WV?$stream_output_adapter@_W@__crt_stdio_output@@V?$positional_parameter_base@_WV?$stream_output_adapter@_W@__crt_stdio_output@@@2@@__crt_stdio_output@@AEAA_NXZ 000000014002c704 f i libucrt:output.obj
 0001:0002b79c       ?type_case_Z@?$output_processor@_WV?$stream_output_adapter@_W@__crt_stdio_output@@V?$standard_base@_WV?$stream_output_adapter@_W@__crt_stdio_output@@@2@@__crt_stdio_output@@AEAA_NXZ 000000014002c79c f i libucrt:output.obj
 0001:0002b81c       ?type_case_Z@?$output_processor@_WV?$string_output_adapter@_W@__crt_stdio_output@@V?$format_validation_base@_WV?$string_output_adapter@_W@__crt_stdio_output@@@2@@__crt_stdio_output@@AEAA_NXZ 000000014002c81c f i libucrt:output.obj
 0001:0002b89c       ?type_case_Z@?$output_processor@_WV?$string_output_adapter@_W@__crt_stdio_output@@V?$positional_parameter_base@_WV?$string_output_adapter@_W@__crt_stdio_output@@@2@@__crt_stdio_output@@AEAA_NXZ 000000014002c89c f i libucrt:output.obj
 0001:0002b934       ?type_case_Z@?$output_processor@_WV?$string_output_adapter@_W@__crt_stdio_output@@V?$standard_base@_WV?$string_output_adapter@_W@__crt_stdio_output@@@2@@__crt_stdio_output@@AEAA_NXZ 000000014002c934 f i libucrt:output.obj
 0001:0002b9b4       ?type_case_a@?$output_processor@DV?$stream_output_adapter@D@__crt_stdio_output@@V?$format_validation_base@DV?$stream_output_adapter@D@__crt_stdio_output@@@2@@__crt_stdio_output@@AEAA_NXZ 000000014002c9b4 f i libucrt:output.obj
 0001:0002bc08       ?type_case_a@?$output_processor@DV?$stream_output_adapter@D@__crt_stdio_output@@V?$positional_parameter_base@DV?$stream_output_adapter@D@__crt_stdio_output@@@2@@__crt_stdio_output@@AEAA_NXZ 000000014002cc08 f i libucrt:output.obj
 0001:0002be84       ?type_case_a@?$output_processor@DV?$stream_output_adapter@D@__crt_stdio_output@@V?$standard_base@DV?$stream_output_adapter@D@__crt_stdio_output@@@2@@__crt_stdio_output@@AEAA_NXZ 000000014002ce84 f i libucrt:output.obj
 0001:0002c0d8       ?type_case_a@?$output_processor@DV?$string_output_adapter@D@__crt_stdio_output@@V?$format_validation_base@DV?$string_output_adapter@D@__crt_stdio_output@@@2@@__crt_stdio_output@@AEAA_NXZ 000000014002d0d8 f i libucrt:output.obj
 0001:0002c32c       ?type_case_a@?$output_processor@DV?$string_output_adapter@D@__crt_stdio_output@@V?$positional_parameter_base@DV?$string_output_adapter@D@__crt_stdio_output@@@2@@__crt_stdio_output@@AEAA_NXZ 000000014002d32c f i libucrt:output.obj
 0001:0002c5a8       ?type_case_a@?$output_processor@DV?$string_output_adapter@D@__crt_stdio_output@@V?$standard_base@DV?$string_output_adapter@D@__crt_stdio_output@@@2@@__crt_stdio_output@@AEAA_NXZ 000000014002d5a8 f i libucrt:output.obj
 0001:0002c7fc       ?type_case_a@?$output_processor@_WV?$stream_output_adapter@_W@__crt_stdio_output@@V?$format_validation_base@_WV?$stream_output_adapter@_W@__crt_stdio_output@@@2@@__crt_stdio_output@@AEAA_NXZ 000000014002d7fc f i libucrt:output.obj
 0001:0002ca64       ?type_case_a@?$output_processor@_WV?$stream_output_adapter@_W@__crt_stdio_output@@V?$positional_parameter_base@_WV?$stream_output_adapter@_W@__crt_stdio_output@@@2@@__crt_stdio_output@@AEAA_NXZ 000000014002da64 f i libucrt:output.obj
 0001:0002ccf8       ?type_case_a@?$output_processor@_WV?$stream_output_adapter@_W@__crt_stdio_output@@V?$standard_base@_WV?$stream_output_adapter@_W@__crt_stdio_output@@@2@@__crt_stdio_output@@AEAA_NXZ 000000014002dcf8 f i libucrt:output.obj
 0001:0002cf60       ?type_case_a@?$output_processor@_WV?$string_output_adapter@_W@__crt_stdio_output@@V?$format_validation_base@_WV?$string_output_adapter@_W@__crt_stdio_output@@@2@@__crt_stdio_output@@AEAA_NXZ 000000014002df60 f i libucrt:output.obj
 0001:0002d1c8       ?type_case_a@?$output_processor@_WV?$string_output_adapter@_W@__crt_stdio_output@@V?$positional_parameter_base@_WV?$string_output_adapter@_W@__crt_stdio_output@@@2@@__crt_stdio_output@@AEAA_NXZ 000000014002e1c8 f i libucrt:output.obj
 0001:0002d45c       ?type_case_a@?$output_processor@_WV?$string_output_adapter@_W@__crt_stdio_output@@V?$standard_base@_WV?$string_output_adapter@_W@__crt_stdio_output@@@2@@__crt_stdio_output@@AEAA_NXZ 000000014002e45c f i libucrt:output.obj
 0001:0002d6c4       ?type_case_c@?$output_processor@DV?$stream_output_adapter@D@__crt_stdio_output@@V?$format_validation_base@DV?$stream_output_adapter@D@__crt_stdio_output@@@2@@__crt_stdio_output@@AEAA_NXZ 000000014002e6c4 f i libucrt:output.obj
 0001:0002d6cc       ?type_case_c@?$output_processor@DV?$stream_output_adapter@D@__crt_stdio_output@@V?$positional_parameter_base@DV?$stream_output_adapter@D@__crt_stdio_output@@@2@@__crt_stdio_output@@AEAA_NXZ 000000014002e6cc f i libucrt:output.obj
 0001:0002d6d4       ?type_case_c@?$output_processor@DV?$stream_output_adapter@D@__crt_stdio_output@@V?$standard_base@DV?$stream_output_adapter@D@__crt_stdio_output@@@2@@__crt_stdio_output@@AEAA_NXZ 000000014002e6d4 f i libucrt:output.obj
 0001:0002d6dc       ?type_case_c@?$output_processor@DV?$string_output_adapter@D@__crt_stdio_output@@V?$format_validation_base@DV?$string_output_adapter@D@__crt_stdio_output@@@2@@__crt_stdio_output@@AEAA_NXZ 000000014002e6dc f i libucrt:output.obj
 0001:0002d6e4       ?type_case_c@?$output_processor@DV?$string_output_adapter@D@__crt_stdio_output@@V?$positional_parameter_base@DV?$string_output_adapter@D@__crt_stdio_output@@@2@@__crt_stdio_output@@AEAA_NXZ 000000014002e6e4 f i libucrt:output.obj
 0001:0002d6ec       ?type_case_c@?$output_processor@DV?$string_output_adapter@D@__crt_stdio_output@@V?$standard_base@DV?$string_output_adapter@D@__crt_stdio_output@@@2@@__crt_stdio_output@@AEAA_NXZ 000000014002e6ec f i libucrt:output.obj
 0001:0002d6f4       ?type_case_c@?$output_processor@_WV?$stream_output_adapter@_W@__crt_stdio_output@@V?$format_validation_base@_WV?$stream_output_adapter@_W@__crt_stdio_output@@@2@@__crt_stdio_output@@AEAA_NXZ 000000014002e6f4 f i libucrt:output.obj
 0001:0002d6fc       ?type_case_c@?$output_processor@_WV?$stream_output_adapter@_W@__crt_stdio_output@@V?$positional_parameter_base@_WV?$stream_output_adapter@_W@__crt_stdio_output@@@2@@__crt_stdio_output@@AEAA_NXZ 000000014002e6fc f i libucrt:output.obj
 0001:0002d704       ?type_case_c@?$output_processor@_WV?$stream_output_adapter@_W@__crt_stdio_output@@V?$standard_base@_WV?$stream_output_adapter@_W@__crt_stdio_output@@@2@@__crt_stdio_output@@AEAA_NXZ 000000014002e704 f i libucrt:output.obj
 0001:0002d70c       ?type_case_c@?$output_processor@_WV?$string_output_adapter@_W@__crt_stdio_output@@V?$format_validation_base@_WV?$string_output_adapter@_W@__crt_stdio_output@@@2@@__crt_stdio_output@@AEAA_NXZ 000000014002e70c f i libucrt:output.obj
 0001:0002d714       ?type_case_c@?$output_processor@_WV?$string_output_adapter@_W@__crt_stdio_output@@V?$positional_parameter_base@_WV?$string_output_adapter@_W@__crt_stdio_output@@@2@@__crt_stdio_output@@AEAA_NXZ 000000014002e714 f i libucrt:output.obj
 0001:0002d71c       ?type_case_c@?$output_processor@_WV?$string_output_adapter@_W@__crt_stdio_output@@V?$standard_base@_WV?$string_output_adapter@_W@__crt_stdio_output@@@2@@__crt_stdio_output@@AEAA_NXZ 000000014002e71c f i libucrt:output.obj
 0001:0002d724       ?type_case_c_tchar@?$output_processor@DV?$stream_output_adapter@D@__crt_stdio_output@@V?$format_validation_base@DV?$stream_output_adapter@D@__crt_stdio_output@@@2@@__crt_stdio_output@@AEAA_ND@Z 000000014002e724 f i libucrt:output.obj
 0001:0002d7f8       ?type_case_c_tchar@?$output_processor@DV?$stream_output_adapter@D@__crt_stdio_output@@V?$positional_parameter_base@DV?$stream_output_adapter@D@__crt_stdio_output@@@2@@__crt_stdio_output@@AEAA_ND@Z 000000014002e7f8 f i libucrt:output.obj
 0001:0002d914       ?type_case_c_tchar@?$output_processor@DV?$stream_output_adapter@D@__crt_stdio_output@@V?$standard_base@DV?$stream_output_adapter@D@__crt_stdio_output@@@2@@__crt_stdio_output@@AEAA_ND@Z 000000014002e914 f i libucrt:output.obj
 0001:0002d9e8       ?type_case_c_tchar@?$output_processor@DV?$string_output_adapter@D@__crt_stdio_output@@V?$format_validation_base@DV?$string_output_adapter@D@__crt_stdio_output@@@2@@__crt_stdio_output@@AEAA_ND@Z 000000014002e9e8 f i libucrt:output.obj
 0001:0002dabc       ?type_case_c_tchar@?$output_processor@DV?$string_output_adapter@D@__crt_stdio_output@@V?$positional_parameter_base@DV?$string_output_adapter@D@__crt_stdio_output@@@2@@__crt_stdio_output@@AEAA_ND@Z 000000014002eabc f i libucrt:output.obj
 0001:0002dbd8       ?type_case_c_tchar@?$output_processor@DV?$string_output_adapter@D@__crt_stdio_output@@V?$standard_base@DV?$string_output_adapter@D@__crt_stdio_output@@@2@@__crt_stdio_output@@AEAA_ND@Z 000000014002ebd8 f i libucrt:output.obj
 0001:0002dcac       ?type_case_c_tchar@?$output_processor@_WV?$stream_output_adapter@_W@__crt_stdio_output@@V?$format_validation_base@_WV?$stream_output_adapter@_W@__crt_stdio_output@@@2@@__crt_stdio_output@@AEAA_N_W@Z 000000014002ecac f i libucrt:output.obj
 0001:0002dd70       ?type_case_c_tchar@?$output_processor@_WV?$stream_output_adapter@_W@__crt_stdio_output@@V?$positional_parameter_base@_WV?$stream_output_adapter@_W@__crt_stdio_output@@@2@@__crt_stdio_output@@AEAA_N_W@Z 000000014002ed70 f i libucrt:output.obj
 0001:0002de68       ?type_case_c_tchar@?$output_processor@_WV?$stream_output_adapter@_W@__crt_stdio_output@@V?$standard_base@_WV?$stream_output_adapter@_W@__crt_stdio_output@@@2@@__crt_stdio_output@@AEAA_N_W@Z 000000014002ee68 f i libucrt:output.obj
 0001:0002df2c       ?type_case_c_tchar@?$output_processor@_WV?$string_output_adapter@_W@__crt_stdio_output@@V?$format_validation_base@_WV?$string_output_adapter@_W@__crt_stdio_output@@@2@@__crt_stdio_output@@AEAA_N_W@Z 000000014002ef2c f i libucrt:output.obj
 0001:0002dff0       ?type_case_c_tchar@?$output_processor@_WV?$string_output_adapter@_W@__crt_stdio_output@@V?$positional_parameter_base@_WV?$string_output_adapter@_W@__crt_stdio_output@@@2@@__crt_stdio_output@@AEAA_N_W@Z 000000014002eff0 f i libucrt:output.obj
 0001:0002e0e8       ?type_case_c_tchar@?$output_processor@_WV?$string_output_adapter@_W@__crt_stdio_output@@V?$standard_base@_WV?$string_output_adapter@_W@__crt_stdio_output@@@2@@__crt_stdio_output@@AEAA_N_W@Z 000000014002f0e8 f i libucrt:output.obj
 0001:0002e1ac       ?type_case_d@?$output_processor@DV?$stream_output_adapter@D@__crt_stdio_output@@V?$format_validation_base@DV?$stream_output_adapter@D@__crt_stdio_output@@@2@@__crt_stdio_output@@AEAA_NXZ 000000014002f1ac f i libucrt:output.obj
 0001:0002e1b8       ?type_case_d@?$output_processor@DV?$stream_output_adapter@D@__crt_stdio_output@@V?$positional_parameter_base@DV?$stream_output_adapter@D@__crt_stdio_output@@@2@@__crt_stdio_output@@AEAA_NXZ 000000014002f1b8 f i libucrt:output.obj
 0001:0002e1c4       ?type_case_d@?$output_processor@DV?$stream_output_adapter@D@__crt_stdio_output@@V?$standard_base@DV?$stream_output_adapter@D@__crt_stdio_output@@@2@@__crt_stdio_output@@AEAA_NXZ 000000014002f1c4 f i libucrt:output.obj
 0001:0002e1d0       ?type_case_d@?$output_processor@DV?$string_output_adapter@D@__crt_stdio_output@@V?$format_validation_base@DV?$string_output_adapter@D@__crt_stdio_output@@@2@@__crt_stdio_output@@AEAA_NXZ 000000014002f1d0 f i libucrt:output.obj
 0001:0002e1dc       ?type_case_d@?$output_processor@DV?$string_output_adapter@D@__crt_stdio_output@@V?$positional_parameter_base@DV?$string_output_adapter@D@__crt_stdio_output@@@2@@__crt_stdio_output@@AEAA_NXZ 000000014002f1dc f i libucrt:output.obj
 0001:0002e1e8       ?type_case_d@?$output_processor@DV?$string_output_adapter@D@__crt_stdio_output@@V?$standard_base@DV?$string_output_adapter@D@__crt_stdio_output@@@2@@__crt_stdio_output@@AEAA_NXZ 000000014002f1e8 f i libucrt:output.obj
 0001:0002e1f4       ?type_case_d@?$output_processor@_WV?$stream_output_adapter@_W@__crt_stdio_output@@V?$format_validation_base@_WV?$stream_output_adapter@_W@__crt_stdio_output@@@2@@__crt_stdio_output@@AEAA_NXZ 000000014002f1f4 f i libucrt:output.obj
 0001:0002e200       ?type_case_d@?$output_processor@_WV?$stream_output_adapter@_W@__crt_stdio_output@@V?$positional_parameter_base@_WV?$stream_output_adapter@_W@__crt_stdio_output@@@2@@__crt_stdio_output@@AEAA_NXZ 000000014002f200 f i libucrt:output.obj
 0001:0002e20c       ?type_case_d@?$output_processor@_WV?$stream_output_adapter@_W@__crt_stdio_output@@V?$standard_base@_WV?$stream_output_adapter@_W@__crt_stdio_output@@@2@@__crt_stdio_output@@AEAA_NXZ 000000014002f20c f i libucrt:output.obj
 0001:0002e218       ?type_case_d@?$output_processor@_WV?$string_output_adapter@_W@__crt_stdio_output@@V?$format_validation_base@_WV?$string_output_adapter@_W@__crt_stdio_output@@@2@@__crt_stdio_output@@AEAA_NXZ 000000014002f218 f i libucrt:output.obj
 0001:0002e224       ?type_case_d@?$output_processor@_WV?$string_output_adapter@_W@__crt_stdio_output@@V?$positional_parameter_base@_WV?$string_output_adapter@_W@__crt_stdio_output@@@2@@__crt_stdio_output@@AEAA_NXZ 000000014002f224 f i libucrt:output.obj
 0001:0002e230       ?type_case_d@?$output_processor@_WV?$string_output_adapter@_W@__crt_stdio_output@@V?$standard_base@_WV?$string_output_adapter@_W@__crt_stdio_output@@@2@@__crt_stdio_output@@AEAA_NXZ 000000014002f230 f i libucrt:output.obj
 0001:0002e23c       ?type_case_n@?$output_processor@DV?$stream_output_adapter@D@__crt_stdio_output@@V?$format_validation_base@DV?$stream_output_adapter@D@__crt_stdio_output@@@2@@__crt_stdio_output@@AEAA_NXZ 000000014002f23c f i libucrt:output.obj
 0001:0002e2f4       ?type_case_n@?$output_processor@DV?$stream_output_adapter@D@__crt_stdio_output@@V?$positional_parameter_base@DV?$stream_output_adapter@D@__crt_stdio_output@@@2@@__crt_stdio_output@@AEAA_NXZ 000000014002f2f4 f i libucrt:output.obj
 0001:0002e3d8       ?type_case_n@?$output_processor@DV?$stream_output_adapter@D@__crt_stdio_output@@V?$standard_base@DV?$stream_output_adapter@D@__crt_stdio_output@@@2@@__crt_stdio_output@@AEAA_NXZ 000000014002f3d8 f i libucrt:output.obj
 0001:0002e490       ?type_case_n@?$output_processor@DV?$string_output_adapter@D@__crt_stdio_output@@V?$format_validation_base@DV?$string_output_adapter@D@__crt_stdio_output@@@2@@__crt_stdio_output@@AEAA_NXZ 000000014002f490 f i libucrt:output.obj
 0001:0002e548       ?type_case_n@?$output_processor@DV?$string_output_adapter@D@__crt_stdio_output@@V?$positional_parameter_base@DV?$string_output_adapter@D@__crt_stdio_output@@@2@@__crt_stdio_output@@AEAA_NXZ 000000014002f548 f i libucrt:output.obj
 0001:0002e62c       ?type_case_n@?$output_processor@DV?$string_output_adapter@D@__crt_stdio_output@@V?$standard_base@DV?$string_output_adapter@D@__crt_stdio_output@@@2@@__crt_stdio_output@@AEAA_NXZ 000000014002f62c f i libucrt:output.obj
 0001:0002e6e4       ?type_case_n@?$output_processor@_WV?$stream_output_adapter@_W@__crt_stdio_output@@V?$format_validation_base@_WV?$stream_output_adapter@_W@__crt_stdio_output@@@2@@__crt_stdio_output@@AEAA_NXZ 000000014002f6e4 f i libucrt:output.obj
 0001:0002e79c       ?type_case_n@?$output_processor@_WV?$stream_output_adapter@_W@__crt_stdio_output@@V?$positional_parameter_base@_WV?$stream_output_adapter@_W@__crt_stdio_output@@@2@@__crt_stdio_output@@AEAA_NXZ 000000014002f79c f i libucrt:output.obj
 0001:0002e880       ?type_case_n@?$output_processor@_WV?$stream_output_adapter@_W@__crt_stdio_output@@V?$standard_base@_WV?$stream_output_adapter@_W@__crt_stdio_output@@@2@@__crt_stdio_output@@AEAA_NXZ 000000014002f880 f i libucrt:output.obj
 0001:0002e938       ?type_case_n@?$output_processor@_WV?$string_output_adapter@_W@__crt_stdio_output@@V?$format_validation_base@_WV?$string_output_adapter@_W@__crt_stdio_output@@@2@@__crt_stdio_output@@AEAA_NXZ 000000014002f938 f i libucrt:output.obj
 0001:0002e9f0       ?type_case_n@?$output_processor@_WV?$string_output_adapter@_W@__crt_stdio_output@@V?$positional_parameter_base@_WV?$string_output_adapter@_W@__crt_stdio_output@@@2@@__crt_stdio_output@@AEAA_NXZ 000000014002f9f0 f i libucrt:output.obj
 0001:0002ead4       ?type_case_n@?$output_processor@_WV?$string_output_adapter@_W@__crt_stdio_output@@V?$standard_base@_WV?$string_output_adapter@_W@__crt_stdio_output@@@2@@__crt_stdio_output@@AEAA_NXZ 000000014002fad4 f i libucrt:output.obj
 0001:0002eb8c       ?type_case_o@?$output_processor@DV?$stream_output_adapter@D@__crt_stdio_output@@V?$format_validation_base@DV?$stream_output_adapter@D@__crt_stdio_output@@@2@@__crt_stdio_output@@AEAA_NXZ 000000014002fb8c f i libucrt:output.obj
 0001:0002eba8       ?type_case_o@?$output_processor@DV?$stream_output_adapter@D@__crt_stdio_output@@V?$positional_parameter_base@DV?$stream_output_adapter@D@__crt_stdio_output@@@2@@__crt_stdio_output@@AEAA_NXZ 000000014002fba8 f i libucrt:output.obj
 0001:0002ebc4       ?type_case_o@?$output_processor@DV?$stream_output_adapter@D@__crt_stdio_output@@V?$standard_base@DV?$stream_output_adapter@D@__crt_stdio_output@@@2@@__crt_stdio_output@@AEAA_NXZ 000000014002fbc4 f i libucrt:output.obj
 0001:0002ebe0       ?type_case_o@?$output_processor@DV?$string_output_adapter@D@__crt_stdio_output@@V?$format_validation_base@DV?$string_output_adapter@D@__crt_stdio_output@@@2@@__crt_stdio_output@@AEAA_NXZ 000000014002fbe0 f i libucrt:output.obj
 0001:0002ebfc       ?type_case_o@?$output_processor@DV?$string_output_adapter@D@__crt_stdio_output@@V?$positional_parameter_base@DV?$string_output_adapter@D@__crt_stdio_output@@@2@@__crt_stdio_output@@AEAA_NXZ 000000014002fbfc f i libucrt:output.obj
 0001:0002ec18       ?type_case_o@?$output_processor@DV?$string_output_adapter@D@__crt_stdio_output@@V?$standard_base@DV?$string_output_adapter@D@__crt_stdio_output@@@2@@__crt_stdio_output@@AEAA_NXZ 000000014002fc18 f i libucrt:output.obj
 0001:0002ec34       ?type_case_o@?$output_processor@_WV?$stream_output_adapter@_W@__crt_stdio_output@@V?$format_validation_base@_WV?$stream_output_adapter@_W@__crt_stdio_output@@@2@@__crt_stdio_output@@AEAA_NXZ 000000014002fc34 f i libucrt:output.obj
 0001:0002ec50       ?type_case_o@?$output_processor@_WV?$stream_output_adapter@_W@__crt_stdio_output@@V?$positional_parameter_base@_WV?$stream_output_adapter@_W@__crt_stdio_output@@@2@@__crt_stdio_output@@AEAA_NXZ 000000014002fc50 f i libucrt:output.obj
 0001:0002ec6c       ?type_case_o@?$output_processor@_WV?$stream_output_adapter@_W@__crt_stdio_output@@V?$standard_base@_WV?$stream_output_adapter@_W@__crt_stdio_output@@@2@@__crt_stdio_output@@AEAA_NXZ 000000014002fc6c f i libucrt:output.obj
 0001:0002ec88       ?type_case_o@?$output_processor@_WV?$string_output_adapter@_W@__crt_stdio_output@@V?$format_validation_base@_WV?$string_output_adapter@_W@__crt_stdio_output@@@2@@__crt_stdio_output@@AEAA_NXZ 000000014002fc88 f i libucrt:output.obj
 0001:0002eca4       ?type_case_o@?$output_processor@_WV?$string_output_adapter@_W@__crt_stdio_output@@V?$positional_parameter_base@_WV?$string_output_adapter@_W@__crt_stdio_output@@@2@@__crt_stdio_output@@AEAA_NXZ 000000014002fca4 f i libucrt:output.obj
 0001:0002ecc0       ?type_case_o@?$output_processor@_WV?$string_output_adapter@_W@__crt_stdio_output@@V?$standard_base@_WV?$string_output_adapter@_W@__crt_stdio_output@@@2@@__crt_stdio_output@@AEAA_NXZ 000000014002fcc0 f i libucrt:output.obj
 0001:0002ecdc       ?type_case_p@?$output_processor@DV?$stream_output_adapter@D@__crt_stdio_output@@V?$format_validation_base@DV?$stream_output_adapter@D@__crt_stdio_output@@@2@@__crt_stdio_output@@AEAA_NXZ 000000014002fcdc f i libucrt:output.obj
 0001:0002ecf4       ?type_case_p@?$output_processor@DV?$stream_output_adapter@D@__crt_stdio_output@@V?$positional_parameter_base@DV?$stream_output_adapter@D@__crt_stdio_output@@@2@@__crt_stdio_output@@AEAA_NXZ 000000014002fcf4 f i libucrt:output.obj
 0001:0002ed0c       ?type_case_p@?$output_processor@DV?$stream_output_adapter@D@__crt_stdio_output@@V?$standard_base@DV?$stream_output_adapter@D@__crt_stdio_output@@@2@@__crt_stdio_output@@AEAA_NXZ 000000014002fd0c f i libucrt:output.obj
 0001:0002ed24       ?type_case_p@?$output_processor@DV?$string_output_adapter@D@__crt_stdio_output@@V?$format_validation_base@DV?$string_output_adapter@D@__crt_stdio_output@@@2@@__crt_stdio_output@@AEAA_NXZ 000000014002fd24 f i libucrt:output.obj
 0001:0002ed3c       ?type_case_p@?$output_processor@DV?$string_output_adapter@D@__crt_stdio_output@@V?$positional_parameter_base@DV?$string_output_adapter@D@__crt_stdio_output@@@2@@__crt_stdio_output@@AEAA_NXZ 000000014002fd3c f i libucrt:output.obj
 0001:0002ed54       ?type_case_p@?$output_processor@DV?$string_output_adapter@D@__crt_stdio_output@@V?$standard_base@DV?$string_output_adapter@D@__crt_stdio_output@@@2@@__crt_stdio_output@@AEAA_NXZ 000000014002fd54 f i libucrt:output.obj
 0001:0002ed6c       ?type_case_p@?$output_processor@_WV?$stream_output_adapter@_W@__crt_stdio_output@@V?$format_validation_base@_WV?$stream_output_adapter@_W@__crt_stdio_output@@@2@@__crt_stdio_output@@AEAA_NXZ 000000014002fd6c f i libucrt:output.obj
 0001:0002ed84       ?type_case_p@?$output_processor@_WV?$stream_output_adapter@_W@__crt_stdio_output@@V?$positional_parameter_base@_WV?$stream_output_adapter@_W@__crt_stdio_output@@@2@@__crt_stdio_output@@AEAA_NXZ 000000014002fd84 f i libucrt:output.obj
 0001:0002ed9c       ?type_case_p@?$output_processor@_WV?$stream_output_adapter@_W@__crt_stdio_output@@V?$standard_base@_WV?$stream_output_adapter@_W@__crt_stdio_output@@@2@@__crt_stdio_output@@AEAA_NXZ 000000014002fd9c f i libucrt:output.obj
 0001:0002edb4       ?type_case_p@?$output_processor@_WV?$string_output_adapter@_W@__crt_stdio_output@@V?$format_validation_base@_WV?$string_output_adapter@_W@__crt_stdio_output@@@2@@__crt_stdio_output@@AEAA_NXZ 000000014002fdb4 f i libucrt:output.obj
 0001:0002edcc       ?type_case_p@?$output_processor@_WV?$string_output_adapter@_W@__crt_stdio_output@@V?$positional_parameter_base@_WV?$string_output_adapter@_W@__crt_stdio_output@@@2@@__crt_stdio_output@@AEAA_NXZ 000000014002fdcc f i libucrt:output.obj
 0001:0002ede4       ?type_case_p@?$output_processor@_WV?$string_output_adapter@_W@__crt_stdio_output@@V?$standard_base@_WV?$string_output_adapter@_W@__crt_stdio_output@@@2@@__crt_stdio_output@@AEAA_NXZ 000000014002fde4 f i libucrt:output.obj
 0001:0002edfc       ?type_case_s@?$output_processor@DV?$stream_output_adapter@D@__crt_stdio_output@@V?$format_validation_base@DV?$stream_output_adapter@D@__crt_stdio_output@@@2@@__crt_stdio_output@@AEAA_NXZ 000000014002fdfc f i libucrt:output.obj
 0001:0002ee98       ?type_case_s@?$output_processor@DV?$stream_output_adapter@D@__crt_stdio_output@@V?$positional_parameter_base@DV?$stream_output_adapter@D@__crt_stdio_output@@@2@@__crt_stdio_output@@AEAA_NXZ 000000014002fe98 f i libucrt:output.obj
 0001:0002ef54       ?type_case_s@?$output_processor@DV?$stream_output_adapter@D@__crt_stdio_output@@V?$standard_base@DV?$stream_output_adapter@D@__crt_stdio_output@@@2@@__crt_stdio_output@@AEAA_NXZ 000000014002ff54 f i libucrt:output.obj
 0001:0002eff0       ?type_case_s@?$output_processor@DV?$string_output_adapter@D@__crt_stdio_output@@V?$format_validation_base@DV?$string_output_adapter@D@__crt_stdio_output@@@2@@__crt_stdio_output@@AEAA_NXZ 000000014002fff0 f i libucrt:output.obj
 0001:0002f08c       ?type_case_s@?$output_processor@DV?$string_output_adapter@D@__crt_stdio_output@@V?$positional_parameter_base@DV?$string_output_adapter@D@__crt_stdio_output@@@2@@__crt_stdio_output@@AEAA_NXZ 000000014003008c f i libucrt:output.obj
 0001:0002f148       ?type_case_s@?$output_processor@DV?$string_output_adapter@D@__crt_stdio_output@@V?$standard_base@DV?$string_output_adapter@D@__crt_stdio_output@@@2@@__crt_stdio_output@@AEAA_NXZ 0000000140030148 f i libucrt:output.obj
 0001:0002f1e4       ?type_case_s@?$output_processor@_WV?$stream_output_adapter@_W@__crt_stdio_output@@V?$format_validation_base@_WV?$stream_output_adapter@_W@__crt_stdio_output@@@2@@__crt_stdio_output@@AEAA_NXZ 00000001400301e4 f i libucrt:output.obj
 0001:0002f280       ?type_case_s@?$output_processor@_WV?$stream_output_adapter@_W@__crt_stdio_output@@V?$positional_parameter_base@_WV?$stream_output_adapter@_W@__crt_stdio_output@@@2@@__crt_stdio_output@@AEAA_NXZ 0000000140030280 f i libucrt:output.obj
 0001:0002f334       ?type_case_s@?$output_processor@_WV?$stream_output_adapter@_W@__crt_stdio_output@@V?$standard_base@_WV?$stream_output_adapter@_W@__crt_stdio_output@@@2@@__crt_stdio_output@@AEAA_NXZ 0000000140030334 f i libucrt:output.obj
 0001:0002f3d0       ?type_case_s@?$output_processor@_WV?$string_output_adapter@_W@__crt_stdio_output@@V?$format_validation_base@_WV?$string_output_adapter@_W@__crt_stdio_output@@@2@@__crt_stdio_output@@AEAA_NXZ 00000001400303d0 f i libucrt:output.obj
 0001:0002f46c       ?type_case_s@?$output_processor@_WV?$string_output_adapter@_W@__crt_stdio_output@@V?$positional_parameter_base@_WV?$string_output_adapter@_W@__crt_stdio_output@@@2@@__crt_stdio_output@@AEAA_NXZ 000000014003046c f i libucrt:output.obj
 0001:0002f520       ?type_case_s@?$output_processor@_WV?$string_output_adapter@_W@__crt_stdio_output@@V?$standard_base@_WV?$string_output_adapter@_W@__crt_stdio_output@@@2@@__crt_stdio_output@@AEAA_NXZ 0000000140030520 f i libucrt:output.obj
 0001:0002f5bc       ?type_case_s_compute_narrow_string_length@?$output_processor@DV?$stream_output_adapter@D@__crt_stdio_output@@V?$format_validation_base@DV?$stream_output_adapter@D@__crt_stdio_output@@@2@@__crt_stdio_output@@AEAAHHD@Z 00000001400305bc f i libucrt:output.obj
 0001:0002f5c8       ?type_case_s_compute_narrow_string_length@?$output_processor@DV?$stream_output_adapter@D@__crt_stdio_output@@V?$positional_parameter_base@DV?$stream_output_adapter@D@__crt_stdio_output@@@2@@__crt_stdio_output@@AEAAHHD@Z 00000001400305c8 f i libucrt:output.obj
 0001:0002f5d4       ?type_case_s_compute_narrow_string_length@?$output_processor@DV?$stream_output_adapter@D@__crt_stdio_output@@V?$standard_base@DV?$stream_output_adapter@D@__crt_stdio_output@@@2@@__crt_stdio_output@@AEAAHHD@Z 00000001400305d4 f i libucrt:output.obj
 0001:0002f5e0       ?type_case_s_compute_narrow_string_length@?$output_processor@DV?$string_output_adapter@D@__crt_stdio_output@@V?$format_validation_base@DV?$string_output_adapter@D@__crt_stdio_output@@@2@@__crt_stdio_output@@AEAAHHD@Z 00000001400305e0 f i libucrt:output.obj
 0001:0002f5ec       ?type_case_s_compute_narrow_string_length@?$output_processor@DV?$string_output_adapter@D@__crt_stdio_output@@V?$positional_parameter_base@DV?$string_output_adapter@D@__crt_stdio_output@@@2@@__crt_stdio_output@@AEAAHHD@Z 00000001400305ec f i libucrt:output.obj
 0001:0002f5f8       ?type_case_s_compute_narrow_string_length@?$output_processor@DV?$string_output_adapter@D@__crt_stdio_output@@V?$standard_base@DV?$string_output_adapter@D@__crt_stdio_output@@@2@@__crt_stdio_output@@AEAAHHD@Z 00000001400305f8 f i libucrt:output.obj
 0001:0002f604       ?type_case_s_compute_narrow_string_length@?$output_processor@_WV?$stream_output_adapter@_W@__crt_stdio_output@@V?$format_validation_base@_WV?$stream_output_adapter@_W@__crt_stdio_output@@@2@@__crt_stdio_output@@AEAAHH_W@Z 0000000140030604 f i libucrt:output.obj
 0001:0002f678       ?type_case_s_compute_narrow_string_length@?$output_processor@_WV?$stream_output_adapter@_W@__crt_stdio_output@@V?$positional_parameter_base@_WV?$stream_output_adapter@_W@__crt_stdio_output@@@2@@__crt_stdio_output@@AEAAHH_W@Z 0000000140030678 f i libucrt:output.obj
 0001:0002f6ec       ?type_case_s_compute_narrow_string_length@?$output_processor@_WV?$stream_output_adapter@_W@__crt_stdio_output@@V?$standard_base@_WV?$stream_output_adapter@_W@__crt_stdio_output@@@2@@__crt_stdio_output@@AEAAHH_W@Z 00000001400306ec f i libucrt:output.obj
 0001:0002f760       ?type_case_s_compute_narrow_string_length@?$output_processor@_WV?$string_output_adapter@_W@__crt_stdio_output@@V?$format_validation_base@_WV?$string_output_adapter@_W@__crt_stdio_output@@@2@@__crt_stdio_output@@AEAAHH_W@Z 0000000140030760 f i libucrt:output.obj
 0001:0002f7d4       ?type_case_s_compute_narrow_string_length@?$output_processor@_WV?$string_output_adapter@_W@__crt_stdio_output@@V?$positional_parameter_base@_WV?$string_output_adapter@_W@__crt_stdio_output@@@2@@__crt_stdio_output@@AEAAHH_W@Z 00000001400307d4 f i libucrt:output.obj
 0001:0002f848       ?type_case_s_compute_narrow_string_length@?$output_processor@_WV?$string_output_adapter@_W@__crt_stdio_output@@V?$standard_base@_WV?$string_output_adapter@_W@__crt_stdio_output@@@2@@__crt_stdio_output@@AEAAHH_W@Z 0000000140030848 f i libucrt:output.obj
 0001:0002f8bc       ?type_case_u@?$output_processor@DV?$stream_output_adapter@D@__crt_stdio_output@@V?$format_validation_base@DV?$stream_output_adapter@D@__crt_stdio_output@@@2@@__crt_stdio_output@@AEAA_NXZ 00000001400308bc f i libucrt:output.obj
 0001:0002f8c4       ?type_case_u@?$output_processor@DV?$stream_output_adapter@D@__crt_stdio_output@@V?$positional_parameter_base@DV?$stream_output_adapter@D@__crt_stdio_output@@@2@@__crt_stdio_output@@AEAA_NXZ 00000001400308c4 f i libucrt:output.obj
 0001:0002f8cc       ?type_case_u@?$output_processor@DV?$stream_output_adapter@D@__crt_stdio_output@@V?$standard_base@DV?$stream_output_adapter@D@__crt_stdio_output@@@2@@__crt_stdio_output@@AEAA_NXZ 00000001400308cc f i libucrt:output.obj
 0001:0002f8d4       ?type_case_u@?$output_processor@DV?$string_output_adapter@D@__crt_stdio_output@@V?$format_validation_base@DV?$string_output_adapter@D@__crt_stdio_output@@@2@@__crt_stdio_output@@AEAA_NXZ 00000001400308d4 f i libucrt:output.obj
 0001:0002f8dc       ?type_case_u@?$output_processor@DV?$string_output_adapter@D@__crt_stdio_output@@V?$positional_parameter_base@DV?$string_output_adapter@D@__crt_stdio_output@@@2@@__crt_stdio_output@@AEAA_NXZ 00000001400308dc f i libucrt:output.obj
 0001:0002f8e4       ?type_case_u@?$output_processor@DV?$string_output_adapter@D@__crt_stdio_output@@V?$standard_base@DV?$string_output_adapter@D@__crt_stdio_output@@@2@@__crt_stdio_output@@AEAA_NXZ 00000001400308e4 f i libucrt:output.obj
 0001:0002f8ec       ?type_case_u@?$output_processor@_WV?$stream_output_adapter@_W@__crt_stdio_output@@V?$format_validation_base@_WV?$stream_output_adapter@_W@__crt_stdio_output@@@2@@__crt_stdio_output@@AEAA_NXZ 00000001400308ec f i libucrt:output.obj
 0001:0002f8f4       ?type_case_u@?$output_processor@_WV?$stream_output_adapter@_W@__crt_stdio_output@@V?$positional_parameter_base@_WV?$stream_output_adapter@_W@__crt_stdio_output@@@2@@__crt_stdio_output@@AEAA_NXZ 00000001400308f4 f i libucrt:output.obj
 0001:0002f8fc       ?type_case_u@?$output_processor@_WV?$stream_output_adapter@_W@__crt_stdio_output@@V?$standard_base@_WV?$stream_output_adapter@_W@__crt_stdio_output@@@2@@__crt_stdio_output@@AEAA_NXZ 00000001400308fc f i libucrt:output.obj
 0001:0002f904       ?type_case_u@?$output_processor@_WV?$string_output_adapter@_W@__crt_stdio_output@@V?$format_validation_base@_WV?$string_output_adapter@_W@__crt_stdio_output@@@2@@__crt_stdio_output@@AEAA_NXZ 0000000140030904 f i libucrt:output.obj
 0001:0002f90c       ?type_case_u@?$output_processor@_WV?$string_output_adapter@_W@__crt_stdio_output@@V?$positional_parameter_base@_WV?$string_output_adapter@_W@__crt_stdio_output@@@2@@__crt_stdio_output@@AEAA_NXZ 000000014003090c f i libucrt:output.obj
 0001:0002f914       ?type_case_u@?$output_processor@_WV?$string_output_adapter@_W@__crt_stdio_output@@V?$standard_base@_WV?$string_output_adapter@_W@__crt_stdio_output@@@2@@__crt_stdio_output@@AEAA_NXZ 0000000140030914 f i libucrt:output.obj
 0001:0002f91c       ?type_case_x@?$output_processor@DV?$stream_output_adapter@D@__crt_stdio_output@@V?$format_validation_base@DV?$stream_output_adapter@D@__crt_stdio_output@@@2@@__crt_stdio_output@@AEAA_NXZ 000000014003091c f i libucrt:output.obj
 0001:0002f924       ?type_case_x@?$output_processor@DV?$stream_output_adapter@D@__crt_stdio_output@@V?$positional_parameter_base@DV?$stream_output_adapter@D@__crt_stdio_output@@@2@@__crt_stdio_output@@AEAA_NXZ 0000000140030924 f i libucrt:output.obj
 0001:0002f92c       ?type_case_x@?$output_processor@DV?$stream_output_adapter@D@__crt_stdio_output@@V?$standard_base@DV?$stream_output_adapter@D@__crt_stdio_output@@@2@@__crt_stdio_output@@AEAA_NXZ 000000014003092c f i libucrt:output.obj
 0001:0002f934       ?type_case_x@?$output_processor@DV?$string_output_adapter@D@__crt_stdio_output@@V?$format_validation_base@DV?$string_output_adapter@D@__crt_stdio_output@@@2@@__crt_stdio_output@@AEAA_NXZ 0000000140030934 f i libucrt:output.obj
 0001:0002f93c       ?type_case_x@?$output_processor@DV?$string_output_adapter@D@__crt_stdio_output@@V?$positional_parameter_base@DV?$string_output_adapter@D@__crt_stdio_output@@@2@@__crt_stdio_output@@AEAA_NXZ 000000014003093c f i libucrt:output.obj
 0001:0002f944       ?type_case_x@?$output_processor@DV?$string_output_adapter@D@__crt_stdio_output@@V?$standard_base@DV?$string_output_adapter@D@__crt_stdio_output@@@2@@__crt_stdio_output@@AEAA_NXZ 0000000140030944 f i libucrt:output.obj
 0001:0002f94c       ?type_case_x@?$output_processor@_WV?$stream_output_adapter@_W@__crt_stdio_output@@V?$format_validation_base@_WV?$stream_output_adapter@_W@__crt_stdio_output@@@2@@__crt_stdio_output@@AEAA_NXZ 000000014003094c f i libucrt:output.obj
 0001:0002f954       ?type_case_x@?$output_processor@_WV?$stream_output_adapter@_W@__crt_stdio_output@@V?$positional_parameter_base@_WV?$stream_output_adapter@_W@__crt_stdio_output@@@2@@__crt_stdio_output@@AEAA_NXZ 0000000140030954 f i libucrt:output.obj
 0001:0002f95c       ?type_case_x@?$output_processor@_WV?$stream_output_adapter@_W@__crt_stdio_output@@V?$standard_base@_WV?$stream_output_adapter@_W@__crt_stdio_output@@@2@@__crt_stdio_output@@AEAA_NXZ 000000014003095c f i libucrt:output.obj
 0001:0002f964       ?type_case_x@?$output_processor@_WV?$string_output_adapter@_W@__crt_stdio_output@@V?$format_validation_base@_WV?$string_output_adapter@_W@__crt_stdio_output@@@2@@__crt_stdio_output@@AEAA_NXZ 0000000140030964 f i libucrt:output.obj
 0001:0002f96c       ?type_case_x@?$output_processor@_WV?$string_output_adapter@_W@__crt_stdio_output@@V?$positional_parameter_base@_WV?$string_output_adapter@_W@__crt_stdio_output@@@2@@__crt_stdio_output@@AEAA_NXZ 000000014003096c f i libucrt:output.obj
 0001:0002f974       ?type_case_x@?$output_processor@_WV?$string_output_adapter@_W@__crt_stdio_output@@V?$standard_base@_WV?$string_output_adapter@_W@__crt_stdio_output@@@2@@__crt_stdio_output@@AEAA_NXZ 0000000140030974 f i libucrt:output.obj
 0001:0002f97c       ?unget@?$c_string_character_source@D@__crt_strtox@@QEAAXD@Z 000000014003097c f i libucrt:output.obj
 0001:0002f9a8       ?unget@?$c_string_character_source@_W@__crt_strtox@@QEAAX_W@Z 00000001400309a8 f i libucrt:output.obj
 0001:0002f9d8       ?unsafe_value@?$cached@H@__crt_cached_ptd_host@@QEAAHXZ 00000001400309d8 f i libucrt:output.obj
 0001:0002f9dc       ?unsafe_value@?$cached@K@__crt_cached_ptd_host@@QEAAKXZ 00000001400309dc f i libucrt:output.obj
 0001:0002f9e0       ?unset_flag@?$output_processor@DV?$stream_output_adapter@D@__crt_stdio_output@@V?$format_validation_base@DV?$stream_output_adapter@D@__crt_stdio_output@@@2@@__crt_stdio_output@@AEAAXI@Z 00000001400309e0 f i libucrt:output.obj
 0001:0002f9e8       ?unset_flag@?$output_processor@DV?$stream_output_adapter@D@__crt_stdio_output@@V?$positional_parameter_base@DV?$stream_output_adapter@D@__crt_stdio_output@@@2@@__crt_stdio_output@@AEAAXI@Z 00000001400309e8 f i libucrt:output.obj
 0001:0002f9f0       ?unset_flag@?$output_processor@DV?$stream_output_adapter@D@__crt_stdio_output@@V?$standard_base@DV?$stream_output_adapter@D@__crt_stdio_output@@@2@@__crt_stdio_output@@AEAAXI@Z 00000001400309f0 f i libucrt:output.obj
 0001:0002f9f8       ?unset_flag@?$output_processor@DV?$string_output_adapter@D@__crt_stdio_output@@V?$format_validation_base@DV?$string_output_adapter@D@__crt_stdio_output@@@2@@__crt_stdio_output@@AEAAXI@Z 00000001400309f8 f i libucrt:output.obj
 0001:0002fa00       ?unset_flag@?$output_processor@DV?$string_output_adapter@D@__crt_stdio_output@@V?$positional_parameter_base@DV?$string_output_adapter@D@__crt_stdio_output@@@2@@__crt_stdio_output@@AEAAXI@Z 0000000140030a00 f i libucrt:output.obj
 0001:0002fa08       ?unset_flag@?$output_processor@DV?$string_output_adapter@D@__crt_stdio_output@@V?$standard_base@DV?$string_output_adapter@D@__crt_stdio_output@@@2@@__crt_stdio_output@@AEAAXI@Z 0000000140030a08 f i libucrt:output.obj
 0001:0002fa10       ?unset_flag@?$output_processor@_WV?$stream_output_adapter@_W@__crt_stdio_output@@V?$format_validation_base@_WV?$stream_output_adapter@_W@__crt_stdio_output@@@2@@__crt_stdio_output@@AEAAXI@Z 0000000140030a10 f i libucrt:output.obj
 0001:0002fa18       ?unset_flag@?$output_processor@_WV?$stream_output_adapter@_W@__crt_stdio_output@@V?$positional_parameter_base@_WV?$stream_output_adapter@_W@__crt_stdio_output@@@2@@__crt_stdio_output@@AEAAXI@Z 0000000140030a18 f i libucrt:output.obj
 0001:0002fa20       ?unset_flag@?$output_processor@_WV?$stream_output_adapter@_W@__crt_stdio_output@@V?$standard_base@_WV?$stream_output_adapter@_W@__crt_stdio_output@@@2@@__crt_stdio_output@@AEAAXI@Z 0000000140030a20 f i libucrt:output.obj
 0001:0002fa28       ?unset_flag@?$output_processor@_WV?$string_output_adapter@_W@__crt_stdio_output@@V?$format_validation_base@_WV?$string_output_adapter@_W@__crt_stdio_output@@@2@@__crt_stdio_output@@AEAAXI@Z 0000000140030a28 f i libucrt:output.obj
 0001:0002fa30       ?unset_flag@?$output_processor@_WV?$string_output_adapter@_W@__crt_stdio_output@@V?$positional_parameter_base@_WV?$string_output_adapter@_W@__crt_stdio_output@@@2@@__crt_stdio_output@@AEAAXI@Z 0000000140030a30 f i libucrt:output.obj
 0001:0002fa38       ?unset_flag@?$output_processor@_WV?$string_output_adapter@_W@__crt_stdio_output@@V?$standard_base@_WV?$string_output_adapter@_W@__crt_stdio_output@@@2@@__crt_stdio_output@@AEAAXI@Z 0000000140030a38 f i libucrt:output.obj
 0001:0002fa40       ?update_field_width@?$positional_parameter_base@DV?$stream_output_adapter@D@__crt_stdio_output@@@__crt_stdio_output@@IEAA_NXZ 0000000140030a40 f i libucrt:output.obj
 0001:0002fbb0       ?update_field_width@?$positional_parameter_base@DV?$string_output_adapter@D@__crt_stdio_output@@@__crt_stdio_output@@IEAA_NXZ 0000000140030bb0 f i libucrt:output.obj
 0001:0002fd20       ?update_field_width@?$positional_parameter_base@_WV?$stream_output_adapter@_W@__crt_stdio_output@@@__crt_stdio_output@@IEAA_NXZ 0000000140030d20 f i libucrt:output.obj
 0001:0002fe94       ?update_field_width@?$positional_parameter_base@_WV?$string_output_adapter@_W@__crt_stdio_output@@@__crt_stdio_output@@IEAA_NXZ 0000000140030e94 f i libucrt:output.obj
 0001:00030008       ?update_field_width@?$standard_base@DV?$stream_output_adapter@D@__crt_stdio_output@@@__crt_stdio_output@@IEAA_NXZ 0000000140031008 f i libucrt:output.obj
 0001:0003001c       ?update_field_width@?$standard_base@DV?$string_output_adapter@D@__crt_stdio_output@@@__crt_stdio_output@@IEAA_NXZ 000000014003101c f i libucrt:output.obj
 0001:00030030       ?update_field_width@?$standard_base@_WV?$stream_output_adapter@_W@__crt_stdio_output@@@__crt_stdio_output@@IEAA_NXZ 0000000140031030 f i libucrt:output.obj
 0001:00030044       ?update_field_width@?$standard_base@_WV?$string_output_adapter@_W@__crt_stdio_output@@@__crt_stdio_output@@IEAA_NXZ 0000000140031044 f i libucrt:output.obj
 0001:00030060       ?update_locale@__crt_cached_ptd_host@@AEAAXXZ 0000000140031060 f i libucrt:output.obj
 0001:00030070       ?update_locale_slow@__crt_cached_ptd_host@@AEAAXXZ 0000000140031070 f i libucrt:output.obj
 0001:000300e8       ?update_precision@?$positional_parameter_base@DV?$stream_output_adapter@D@__crt_stdio_output@@@__crt_stdio_output@@IEAA_NXZ 00000001400310e8 f i libucrt:output.obj
 0001:00030258       ?update_precision@?$positional_parameter_base@DV?$string_output_adapter@D@__crt_stdio_output@@@__crt_stdio_output@@IEAA_NXZ 0000000140031258 f i libucrt:output.obj
 0001:000303c8       ?update_precision@?$positional_parameter_base@_WV?$stream_output_adapter@_W@__crt_stdio_output@@@__crt_stdio_output@@IEAA_NXZ 00000001400313c8 f i libucrt:output.obj
 0001:0003053c       ?update_precision@?$positional_parameter_base@_WV?$string_output_adapter@_W@__crt_stdio_output@@@__crt_stdio_output@@IEAA_NXZ 000000014003153c f i libucrt:output.obj
 0001:000306b0       ?update_precision@?$standard_base@DV?$stream_output_adapter@D@__crt_stdio_output@@@__crt_stdio_output@@IEAA_NXZ 00000001400316b0 f i libucrt:output.obj
 0001:000306c4       ?update_precision@?$standard_base@DV?$string_output_adapter@D@__crt_stdio_output@@@__crt_stdio_output@@IEAA_NXZ 00000001400316c4 f i libucrt:output.obj
 0001:000306d8       ?update_precision@?$standard_base@_WV?$stream_output_adapter@_W@__crt_stdio_output@@@__crt_stdio_output@@IEAA_NXZ 00000001400316d8 f i libucrt:output.obj
 0001:000306ec       ?update_precision@?$standard_base@_WV?$string_output_adapter@_W@__crt_stdio_output@@@__crt_stdio_output@@IEAA_NXZ 00000001400316ec f i libucrt:output.obj
 0001:00030700       ?valid@?$cached@H@__crt_cached_ptd_host@@QEBA_NXZ 0000000140031700 f i libucrt:output.obj
 0001:00030704       ?valid@?$cached@K@__crt_cached_ptd_host@@QEBA_NXZ 0000000140031704 f i libucrt:output.obj
 0001:00030708       ?valid@__crt_stdio_stream@@QEBA_NXZ 0000000140031708 f i libucrt:output.obj
 0001:00030710       ?validate@?$c_string_character_source@D@__crt_strtox@@QEBA_NXZ 0000000140031710 f i libucrt:output.obj
 0001:00030738       ?validate@?$c_string_character_source@_W@__crt_strtox@@QEBA_NXZ 0000000140031738 f i libucrt:output.obj
 0001:00030760       ?validate@?$stream_output_adapter@D@__crt_stdio_output@@QEBA_NAEAV__crt_cached_ptd_host@@@Z 0000000140031760 f i libucrt:output.obj
 0001:000307a0       ?validate@?$stream_output_adapter@_W@__crt_stdio_output@@QEBA_NAEAV__crt_cached_ptd_host@@@Z 00000001400317a0 f i libucrt:output.obj
 0001:000307dc       ?validate@?$string_output_adapter@D@__crt_stdio_output@@QEBA_NAEAV__crt_cached_ptd_host@@@Z 00000001400317dc f i libucrt:output.obj
 0001:00030818       ?validate@?$string_output_adapter@_W@__crt_stdio_output@@QEBA_NAEAV__crt_cached_ptd_host@@@Z 0000000140031818 f i libucrt:output.obj
 0001:00030854       ?validate_and_store_parameter_data@?$positional_parameter_base@DV?$stream_output_adapter@D@__crt_stdio_output@@@__crt_stdio_output@@AEAA_NAEAUparameter_data@12@W4parameter_type@12@DW4length_modifier@2@@Z 0000000140031854 f i libucrt:output.obj
 0001:000308b8       ?validate_and_store_parameter_data@?$positional_parameter_base@DV?$string_output_adapter@D@__crt_stdio_output@@@__crt_stdio_output@@AEAA_NAEAUparameter_data@12@W4parameter_type@12@DW4length_modifier@2@@Z 00000001400318b8 f i libucrt:output.obj
 0001:0003091c       ?validate_and_store_parameter_data@?$positional_parameter_base@_WV?$stream_output_adapter@_W@__crt_stdio_output@@@__crt_stdio_output@@AEAA_NAEAUparameter_data@12@W4parameter_type@12@_WW4length_modifier@2@@Z 000000014003191c f i libucrt:output.obj
 0001:00030980       ?validate_and_store_parameter_data@?$positional_parameter_base@_WV?$string_output_adapter@_W@__crt_stdio_output@@@__crt_stdio_output@@AEAA_NAEAUparameter_data@12@W4parameter_type@12@_WW4length_modifier@2@@Z 0000000140031980 f i libucrt:output.obj
 0001:000309e4       ?validate_and_update_state_at_beginning_of_format_character@?$positional_parameter_base@DV?$stream_output_adapter@D@__crt_stdio_output@@@__crt_stdio_output@@IEAA_NXZ 00000001400319e4 f i libucrt:output.obj
 0001:00030b28       ?validate_and_update_state_at_beginning_of_format_character@?$positional_parameter_base@DV?$string_output_adapter@D@__crt_stdio_output@@@__crt_stdio_output@@IEAA_NXZ 0000000140031b28 f i libucrt:output.obj
 0001:00030c6c       ?validate_and_update_state_at_beginning_of_format_character@?$positional_parameter_base@_WV?$stream_output_adapter@_W@__crt_stdio_output@@@__crt_stdio_output@@IEAA_NXZ 0000000140031c6c f i libucrt:output.obj
 0001:00030dbc       ?validate_and_update_state_at_beginning_of_format_character@?$positional_parameter_base@_WV?$string_output_adapter@_W@__crt_stdio_output@@@__crt_stdio_output@@IEAA_NXZ 0000000140031dbc f i libucrt:output.obj
 0001:00030f0c       ?validate_and_update_state_at_beginning_of_format_character@?$standard_base@DV?$stream_output_adapter@D@__crt_stdio_output@@@__crt_stdio_output@@IEAA_NXZ 0000000140031f0c f i libucrt:output.obj
 0001:00030f10       ?validate_and_update_state_at_beginning_of_format_character@?$standard_base@DV?$string_output_adapter@D@__crt_stdio_output@@@__crt_stdio_output@@IEAA_NXZ 0000000140031f10 f i libucrt:output.obj
 0001:00030f14       ?validate_and_update_state_at_beginning_of_format_character@?$standard_base@_WV?$stream_output_adapter@_W@__crt_stdio_output@@@__crt_stdio_output@@IEAA_NXZ 0000000140031f14 f i libucrt:output.obj
 0001:00030f18       ?validate_and_update_state_at_beginning_of_format_character@?$standard_base@_WV?$string_output_adapter@_W@__crt_stdio_output@@@__crt_stdio_output@@IEAA_NXZ 0000000140031f18 f i libucrt:output.obj
 0001:00030f1c       ?validate_and_update_state_at_end_of_format_string@?$format_validation_base@DV?$stream_output_adapter@D@__crt_stdio_output@@@__crt_stdio_output@@IEAA_NXZ 0000000140031f1c f i libucrt:output.obj
 0001:00030f64       ?validate_and_update_state_at_end_of_format_string@?$format_validation_base@DV?$string_output_adapter@D@__crt_stdio_output@@@__crt_stdio_output@@IEAA_NXZ 0000000140031f64 f i libucrt:output.obj
 0001:00030fac       ?validate_and_update_state_at_end_of_format_string@?$format_validation_base@_WV?$stream_output_adapter@_W@__crt_stdio_output@@@__crt_stdio_output@@IEAA_NXZ 0000000140031fac f i libucrt:output.obj
 0001:00030ff4       ?validate_and_update_state_at_end_of_format_string@?$format_validation_base@_WV?$string_output_adapter@_W@__crt_stdio_output@@@__crt_stdio_output@@IEAA_NXZ 0000000140031ff4 f i libucrt:output.obj
 0001:0003103c       ?validate_and_update_state_at_end_of_format_string@?$positional_parameter_base@DV?$stream_output_adapter@D@__crt_stdio_output@@@__crt_stdio_output@@IEAA_NXZ 000000014003203c f i libucrt:output.obj
 0001:000310f4       ?validate_and_update_state_at_end_of_format_string@?$positional_parameter_base@DV?$string_output_adapter@D@__crt_stdio_output@@@__crt_stdio_output@@IEAA_NXZ 00000001400320f4 f i libucrt:output.obj
 0001:000311ac       ?validate_and_update_state_at_end_of_format_string@?$positional_parameter_base@_WV?$stream_output_adapter@_W@__crt_stdio_output@@@__crt_stdio_output@@IEAA_NXZ 00000001400321ac f i libucrt:output.obj
 0001:00031264       ?validate_and_update_state_at_end_of_format_string@?$positional_parameter_base@_WV?$string_output_adapter@_W@__crt_stdio_output@@@__crt_stdio_output@@IEAA_NXZ 0000000140032264 f i libucrt:output.obj
 0001:0003131c       ?validate_and_update_state_at_end_of_format_string@?$standard_base@DV?$stream_output_adapter@D@__crt_stdio_output@@@__crt_stdio_output@@IEBA_NXZ 000000014003231c f i libucrt:output.obj
 0001:00031320       ?validate_and_update_state_at_end_of_format_string@?$standard_base@DV?$string_output_adapter@D@__crt_stdio_output@@@__crt_stdio_output@@IEBA_NXZ 0000000140032320 f i libucrt:output.obj
 0001:00031324       ?validate_and_update_state_at_end_of_format_string@?$standard_base@_WV?$stream_output_adapter@_W@__crt_stdio_output@@@__crt_stdio_output@@IEBA_NXZ 0000000140032324 f i libucrt:output.obj
 0001:00031328       ?validate_and_update_state_at_end_of_format_string@?$standard_base@_WV?$string_output_adapter@_W@__crt_stdio_output@@@__crt_stdio_output@@IEBA_NXZ 0000000140032328 f i libucrt:output.obj
 0001:0003132c       ?validate_state_for_type_case_a@?$positional_parameter_base@DV?$stream_output_adapter@D@__crt_stdio_output@@@__crt_stdio_output@@IEAA_NXZ 000000014003232c f i libucrt:output.obj
 0001:00031410       ?validate_state_for_type_case_a@?$positional_parameter_base@DV?$string_output_adapter@D@__crt_stdio_output@@@__crt_stdio_output@@IEAA_NXZ 0000000140032410 f i libucrt:output.obj
 0001:000314f4       ?validate_state_for_type_case_a@?$positional_parameter_base@_WV?$stream_output_adapter@_W@__crt_stdio_output@@@__crt_stdio_output@@IEAA_NXZ 00000001400324f4 f i libucrt:output.obj
 0001:000315d8       ?validate_state_for_type_case_a@?$positional_parameter_base@_WV?$string_output_adapter@_W@__crt_stdio_output@@@__crt_stdio_output@@IEAA_NXZ 00000001400325d8 f i libucrt:output.obj
 0001:000316bc       ?validate_state_for_type_case_a@?$standard_base@DV?$stream_output_adapter@D@__crt_stdio_output@@@__crt_stdio_output@@IEBA_NXZ 00000001400326bc f i libucrt:output.obj
 0001:000316c0       ?validate_state_for_type_case_a@?$standard_base@DV?$string_output_adapter@D@__crt_stdio_output@@@__crt_stdio_output@@IEBA_NXZ 00000001400326c0 f i libucrt:output.obj
 0001:000316c4       ?validate_state_for_type_case_a@?$standard_base@_WV?$stream_output_adapter@_W@__crt_stdio_output@@@__crt_stdio_output@@IEBA_NXZ 00000001400326c4 f i libucrt:output.obj
 0001:000316c8       ?validate_state_for_type_case_a@?$standard_base@_WV?$string_output_adapter@_W@__crt_stdio_output@@@__crt_stdio_output@@IEBA_NXZ 00000001400326c8 f i libucrt:output.obj
 0001:000316cc       ?validate_stream_is_ansi_if_required@?$__acrt_stdio_char_traits@D@@SA_NQEAU_iobuf@@@Z 00000001400326cc f i libucrt:output.obj
 0001:00031768       ?validate_stream_is_ansi_if_required@?$__acrt_stdio_char_traits@_W@@SA_NQEAU_iobuf@@@Z 0000000140032768 f i libucrt:output.obj
 0001:0003176c       ?wide_character_to_digit@__crt_strtox@@YAH_W@Z 000000014003276c f i libucrt:output.obj
 0001:0003190c       ?wide_null_string@?$output_processor@DV?$stream_output_adapter@D@__crt_stdio_output@@V?$format_validation_base@DV?$stream_output_adapter@D@__crt_stdio_output@@@2@@__crt_stdio_output@@CAPEA_WXZ 000000014003290c f i libucrt:output.obj
 0001:00031914       ?wide_null_string@?$output_processor@DV?$stream_output_adapter@D@__crt_stdio_output@@V?$positional_parameter_base@DV?$stream_output_adapter@D@__crt_stdio_output@@@2@@__crt_stdio_output@@CAPEA_WXZ 0000000140032914 f i libucrt:output.obj
 0001:0003191c       ?wide_null_string@?$output_processor@DV?$stream_output_adapter@D@__crt_stdio_output@@V?$standard_base@DV?$stream_output_adapter@D@__crt_stdio_output@@@2@@__crt_stdio_output@@CAPEA_WXZ 000000014003291c f i libucrt:output.obj
 0001:00031924       ?wide_null_string@?$output_processor@DV?$string_output_adapter@D@__crt_stdio_output@@V?$format_validation_base@DV?$string_output_adapter@D@__crt_stdio_output@@@2@@__crt_stdio_output@@CAPEA_WXZ 0000000140032924 f i libucrt:output.obj
 0001:0003192c       ?wide_null_string@?$output_processor@DV?$string_output_adapter@D@__crt_stdio_output@@V?$positional_parameter_base@DV?$string_output_adapter@D@__crt_stdio_output@@@2@@__crt_stdio_output@@CAPEA_WXZ 000000014003292c f i libucrt:output.obj
 0001:00031934       ?wide_null_string@?$output_processor@DV?$string_output_adapter@D@__crt_stdio_output@@V?$standard_base@DV?$string_output_adapter@D@__crt_stdio_output@@@2@@__crt_stdio_output@@CAPEA_WXZ 0000000140032934 f i libucrt:output.obj
 0001:0003193c       ?wide_null_string@?$output_processor@_WV?$stream_output_adapter@_W@__crt_stdio_output@@V?$format_validation_base@_WV?$stream_output_adapter@_W@__crt_stdio_output@@@2@@__crt_stdio_output@@CAPEA_WXZ 000000014003293c f i libucrt:output.obj
 0001:00031944       ?wide_null_string@?$output_processor@_WV?$stream_output_adapter@_W@__crt_stdio_output@@V?$positional_parameter_base@_WV?$stream_output_adapter@_W@__crt_stdio_output@@@2@@__crt_stdio_output@@CAPEA_WXZ 0000000140032944 f i libucrt:output.obj
 0001:0003194c       ?wide_null_string@?$output_processor@_WV?$stream_output_adapter@_W@__crt_stdio_output@@V?$standard_base@_WV?$stream_output_adapter@_W@__crt_stdio_output@@@2@@__crt_stdio_output@@CAPEA_WXZ 000000014003294c f i libucrt:output.obj
 0001:00031954       ?wide_null_string@?$output_processor@_WV?$string_output_adapter@_W@__crt_stdio_output@@V?$format_validation_base@_WV?$string_output_adapter@_W@__crt_stdio_output@@@2@@__crt_stdio_output@@CAPEA_WXZ 0000000140032954 f i libucrt:output.obj
 0001:0003195c       ?wide_null_string@?$output_processor@_WV?$string_output_adapter@_W@__crt_stdio_output@@V?$positional_parameter_base@_WV?$string_output_adapter@_W@__crt_stdio_output@@@2@@__crt_stdio_output@@CAPEA_WXZ 000000014003295c f i libucrt:output.obj
 0001:00031964       ?wide_null_string@?$output_processor@_WV?$string_output_adapter@_W@__crt_stdio_output@@V?$standard_base@_WV?$string_output_adapter@_W@__crt_stdio_output@@@2@@__crt_stdio_output@@CAPEA_WXZ 0000000140032964 f i libucrt:output.obj
 0001:0003196c       ?write_character@?$output_adapter_common@DV?$stream_output_adapter@D@__crt_stdio_output@@@__crt_stdio_output@@QEBAXDQEAHAEAV__crt_cached_ptd_host@@@Z 000000014003296c f i libucrt:output.obj
 0001:000319b8       ?write_character@?$output_adapter_common@_WV?$stream_output_adapter@_W@__crt_stdio_output@@@__crt_stdio_output@@QEBAX_WQEAHAEAV__crt_cached_ptd_host@@@Z 00000001400329b8 f i libucrt:output.obj
 0001:00031a08       ?write_character@?$string_output_adapter@D@__crt_stdio_output@@QEBA_NDQEAHAEAV__crt_cached_ptd_host@@@Z 0000000140032a08 f i libucrt:output.obj
 0001:00031a50       ?write_character@?$string_output_adapter@_W@__crt_stdio_output@@QEBA_N_WQEAHAEAV__crt_cached_ptd_host@@@Z 0000000140032a50 f i libucrt:output.obj
 0001:00031a98       ?write_character_without_count_update@?$stream_output_adapter@D@__crt_stdio_output@@QEBA_NDAEAV__crt_cached_ptd_host@@@Z 0000000140032a98 f i libucrt:output.obj
 0001:00031ad8       ?write_character_without_count_update@?$stream_output_adapter@_W@__crt_stdio_output@@QEBA_N_WAEAV__crt_cached_ptd_host@@@Z 0000000140032ad8 f i libucrt:output.obj
 0001:00031b1c       ?write_stored_string_tchar@?$output_processor@DV?$stream_output_adapter@D@__crt_stdio_output@@V?$format_validation_base@DV?$stream_output_adapter@D@__crt_stdio_output@@@2@@__crt_stdio_output@@AEAA_ND@Z 0000000140032b1c f i libucrt:output.obj
 0001:00031c50       ?write_stored_string_tchar@?$output_processor@DV?$stream_output_adapter@D@__crt_stdio_output@@V?$positional_parameter_base@DV?$stream_output_adapter@D@__crt_stdio_output@@@2@@__crt_stdio_output@@AEAA_ND@Z 0000000140032c50 f i libucrt:output.obj
 0001:00031d84       ?write_stored_string_tchar@?$output_processor@DV?$stream_output_adapter@D@__crt_stdio_output@@V?$standard_base@DV?$stream_output_adapter@D@__crt_stdio_output@@@2@@__crt_stdio_output@@AEAA_ND@Z 0000000140032d84 f i libucrt:output.obj
 0001:00031eb8       ?write_stored_string_tchar@?$output_processor@DV?$string_output_adapter@D@__crt_stdio_output@@V?$format_validation_base@DV?$string_output_adapter@D@__crt_stdio_output@@@2@@__crt_stdio_output@@AEAA_ND@Z 0000000140032eb8 f i libucrt:output.obj
 0001:00031fa0       ?write_stored_string_tchar@?$output_processor@DV?$string_output_adapter@D@__crt_stdio_output@@V?$positional_parameter_base@DV?$string_output_adapter@D@__crt_stdio_output@@@2@@__crt_stdio_output@@AEAA_ND@Z 0000000140032fa0 f i libucrt:output.obj
 0001:00032088       ?write_stored_string_tchar@?$output_processor@DV?$string_output_adapter@D@__crt_stdio_output@@V?$standard_base@DV?$string_output_adapter@D@__crt_stdio_output@@@2@@__crt_stdio_output@@AEAA_ND@Z 0000000140033088 f i libucrt:output.obj
 0001:00032170       ?write_stored_string_tchar@?$output_processor@_WV?$stream_output_adapter@_W@__crt_stdio_output@@V?$format_validation_base@_WV?$stream_output_adapter@_W@__crt_stdio_output@@@2@@__crt_stdio_output@@AEAA_N_W@Z 0000000140033170 f i libucrt:output.obj
 0001:000322a4       ?write_stored_string_tchar@?$output_processor@_WV?$stream_output_adapter@_W@__crt_stdio_output@@V?$positional_parameter_base@_WV?$stream_output_adapter@_W@__crt_stdio_output@@@2@@__crt_stdio_output@@AEAA_N_W@Z 00000001400332a4 f i libucrt:output.obj
 0001:000323d8       ?write_stored_string_tchar@?$output_processor@_WV?$stream_output_adapter@_W@__crt_stdio_output@@V?$standard_base@_WV?$stream_output_adapter@_W@__crt_stdio_output@@@2@@__crt_stdio_output@@AEAA_N_W@Z 00000001400333d8 f i libucrt:output.obj
 0001:0003250c       ?write_stored_string_tchar@?$output_processor@_WV?$string_output_adapter@_W@__crt_stdio_output@@V?$format_validation_base@_WV?$string_output_adapter@_W@__crt_stdio_output@@@2@@__crt_stdio_output@@AEAA_N_W@Z 000000014003350c f i libucrt:output.obj
 0001:00032620       ?write_stored_string_tchar@?$output_processor@_WV?$string_output_adapter@_W@__crt_stdio_output@@V?$positional_parameter_base@_WV?$string_output_adapter@_W@__crt_stdio_output@@@2@@__crt_stdio_output@@AEAA_N_W@Z 0000000140033620 f i libucrt:output.obj
 0001:00032734       ?write_stored_string_tchar@?$output_processor@_WV?$string_output_adapter@_W@__crt_stdio_output@@V?$standard_base@_WV?$string_output_adapter@_W@__crt_stdio_output@@@2@@__crt_stdio_output@@AEAA_N_W@Z 0000000140033734 f i libucrt:output.obj
 0001:00032848       ?write_string@?$stream_output_adapter@D@__crt_stdio_output@@QEBAXQEBDHQEAHAEAV__crt_cached_ptd_host@@@Z 0000000140033848 f i libucrt:output.obj
 0001:00032870       ?write_string@?$stream_output_adapter@_W@__crt_stdio_output@@QEBAXQEB_WHQEAHAEAV__crt_cached_ptd_host@@@Z 0000000140033870 f i libucrt:output.obj
 0001:00032898       ?write_string@?$string_output_adapter@D@__crt_stdio_output@@QEBAXQEBDHQEAHAEAV__crt_cached_ptd_host@@@Z 0000000140033898 f i libucrt:output.obj
 0001:0003293c       ?write_string@?$string_output_adapter@_W@__crt_stdio_output@@QEBAXQEB_WHQEAHAEAV__crt_cached_ptd_host@@@Z 000000014003393c f i libucrt:output.obj
 0001:000329e4       ?write_string_impl@?$output_adapter_common@DV?$stream_output_adapter@D@__crt_stdio_output@@@__crt_stdio_output@@IEBAXQEBDHQEAHAEAV__crt_cached_ptd_host@@@Z 00000001400339e4 f i libucrt:output.obj
 0001:00032ab0       ?write_string_impl@?$output_adapter_common@_WV?$stream_output_adapter@_W@__crt_stdio_output@@@__crt_stdio_output@@IEBAXQEB_WHQEAHAEAV__crt_cached_ptd_host@@@Z 0000000140033ab0 f i libucrt:output.obj
 0001:00032b90       __acrt_disable_global_locale_sync 0000000140033b90 f i libucrt:output.obj
 0001:00032b98       __acrt_enable_global_locale_sync 0000000140033b98 f i libucrt:output.obj
 0001:00032ba4       __acrt_isleadbyte_l_noupdate 0000000140033ba4 f i libucrt:output.obj
 0001:00032bc8       __acrt_locale_changed      0000000140033bc8 f i libucrt:output.obj
 0001:00032bd4       __acrt_locale_get_ctype_array_value 0000000140033bd4 f i libucrt:output.obj
 0001:00032bec       __ascii_iswalpha           0000000140033bec f i libucrt:output.obj
 0001:00032c08       __ascii_toupper            0000000140033c08 f i libucrt:output.obj
 0001:00032c18       __ascii_towupper           0000000140033c18 f i libucrt:output.obj
 0001:00032c28       __stdio_common_vfprintf    0000000140033c28 f   libucrt:output.obj
 0001:00032d4c       __stdio_common_vfprintf_p  0000000140033d4c f   libucrt:output.obj
 0001:00032e70       __stdio_common_vfprintf_s  0000000140033e70 f   libucrt:output.obj
 0001:00032f94       __stdio_common_vfwprintf   0000000140033f94 f   libucrt:output.obj
 0001:000330b8       __stdio_common_vfwprintf_p 00000001400340b8 f   libucrt:output.obj
 0001:000331dc       __stdio_common_vfwprintf_s 00000001400341dc f   libucrt:output.obj
 0001:00033300       __stdio_common_vsnprintf_s 0000000140034300 f   libucrt:output.obj
 0001:000334d8       __stdio_common_vsnwprintf_s 00000001400344d8 f   libucrt:output.obj
 0001:000336b4       __stdio_common_vsprintf    00000001400346b4 f   libucrt:output.obj
 0001:00033908       __stdio_common_vsprintf_p  0000000140034908 f   libucrt:output.obj
 0001:000339c0       __stdio_common_vsprintf_s  00000001400349c0 f   libucrt:output.obj
 0001:00033ad4       __stdio_common_vswprintf   0000000140034ad4 f   libucrt:output.obj
 0001:00033d30       __stdio_common_vswprintf_p 0000000140034d30 f   libucrt:output.obj
 0001:00033de8       __stdio_common_vswprintf_s 0000000140034de8 f   libucrt:output.obj
 0001:00033efc       _ctype_fast_check_internal 0000000140034efc f i libucrt:output.obj
 0001:00033f10       _isdigit_fast_internal     0000000140034f10 f i libucrt:output.obj
 0001:00033f24       _tolower_fast_internal     0000000140034f24 f i libucrt:output.obj
 0001:00033f58       _seh_filter_dll            0000000140034f58 f   libucrt:exception_filter.obj
 0001:00033f6c       _seh_filter_exe            0000000140034f6c f   libucrt:exception_filter.obj
 0001:000341cc       __acrt_report_runtime_error 00000001400351cc f   libucrt:report_runtime_error.obj
 0001:0003432c       _invoke_watson_if_error    000000014003532c f i libucrt:report_runtime_error.obj
 0001:00034360       _query_app_type            0000000140035360 f   libucrt:report_runtime_error.obj
 0001:00034368       _set_app_type              0000000140035368 f   libucrt:report_runtime_error.obj
 0001:00034370       ??$__crt_fast_decode_pointer@P6AHPEAU_exception@@@Z@@YAP6AHPEAU_exception@@@ZQ6AH0@Z@Z 0000000140035370 f i libucrt:matherr.obj
 0001:00034388       ??$__crt_fast_encode_pointer@P6AHPEAU_exception@@@Z@@YAP6AHPEAU_exception@@@ZQ6AH0@Z@Z 0000000140035388 f i libucrt:matherr.obj
 0001:000343a8       ?__crt_rotate_pointer_value@@YA_K_KH@Z 00000001400353a8 f i libucrt:matherr.obj
 0001:000343b4       ?get_current_state_index@__crt_state_management@@YA_KXZ 00000001400353b4 f i libucrt:matherr.obj
 0001:000343b8       ?initialize@?$dual_state_global@P6AHPEAU_exception@@@Z@__crt_state_management@@QEAAXQ6AHPEAU_exception@@@Z@Z 00000001400353b8 f i libucrt:matherr.obj
 0001:000343c8       ?value@?$dual_state_global@P6AHPEAU_exception@@@Z@__crt_state_management@@QEAAAEAP6AHPEAU_exception@@@ZXZ 00000001400353c8 f i libucrt:matherr.obj
 0001:000343cc       __acrt_has_user_matherr    00000001400353cc f   libucrt:matherr.obj
 0001:000343ec       __acrt_initialize_user_matherr 00000001400353ec f   libucrt:matherr.obj
 0001:000343f4       __acrt_invoke_user_matherr 00000001400353f4 f   libucrt:matherr.obj
 0001:00034430       __setusermatherr           0000000140035430 f   libucrt:matherr.obj
 0001:00034458       ??$?RE@__crt_internal_free_policy@@QEBAXQEBE@Z 0000000140035458 f i libucrt:argv_parsing.obj
 0001:00034460       ??$?RPEAD@__crt_internal_free_policy@@QEBAXQEBQEAD@Z 0000000140035460 f i libucrt:argv_parsing.obj
 0001:00034468       ??$?RPEA_W@__crt_internal_free_policy@@QEBAXQEBQEA_W@Z 0000000140035468 f i libucrt:argv_parsing.obj
 0001:00034764       ??$get_module_file_name@$$TAEAY0BAF@DH@?$__crt_char_traits@D@@SAK$$QEA$$TAEAY0BAF@D$$QEAH@Z 0000000140035764 f i libucrt:argv_parsing.obj
 0001:00034770       ??$get_module_file_name@$$TAEAY0BAF@_WH@?$__crt_char_traits@_W@@SAK$$QEA$$TAEAY0BAF@_W$$QEAH@Z 0000000140035770 f i libucrt:argv_parsing.obj
 0001:00034aec       ??$set_program_name@PEAD@?$__crt_char_traits@D@@SAX$$QEAPEAD@Z 0000000140035aec f i libucrt:argv_parsing.obj
 0001:00034af8       ??$set_program_name@PEA_W@?$__crt_char_traits@_W@@SAX$$QEAPEA_W@Z 0000000140035af8 f i libucrt:argv_parsing.obj
 0001:00034b14       ??0?$__crt_unique_heap_ptr@EU__crt_internal_free_policy@@@@QEAA@QEAE@Z 0000000140035b14 f i libucrt:argv_parsing.obj
 0001:00034b1c       ??0?$__crt_unique_heap_ptr@PEADU__crt_internal_free_policy@@@@QEAA@QEAPEAD@Z 0000000140035b1c f i libucrt:argv_parsing.obj
 0001:00034b24       ??0?$__crt_unique_heap_ptr@PEA_WU__crt_internal_free_policy@@@@QEAA@QEAPEA_W@Z 0000000140035b24 f i libucrt:argv_parsing.obj
 0001:00034b2c       ??1?$__crt_unique_heap_ptr@EU__crt_internal_free_policy@@@@QEAA@XZ 0000000140035b2c f i libucrt:argv_parsing.obj
 0001:00034b48       ??1?$__crt_unique_heap_ptr@PEADU__crt_internal_free_policy@@@@QEAA@XZ 0000000140035b48 f i libucrt:argv_parsing.obj
 0001:00034b64       ??1?$__crt_unique_heap_ptr@PEA_WU__crt_internal_free_policy@@@@QEAA@XZ 0000000140035b64 f i libucrt:argv_parsing.obj
 0001:00034b80       ??B?$__crt_unique_heap_ptr@EU__crt_internal_free_policy@@@@QEBA_NXZ 0000000140035b80 f i libucrt:argv_parsing.obj
 0001:00034bc0       ?detach@?$__crt_unique_heap_ptr@EU__crt_internal_free_policy@@@@QEAAPEAEXZ 0000000140035bc0 f i libucrt:argv_parsing.obj
 0001:00034bc8       ?detach@?$__crt_unique_heap_ptr@PEADU__crt_internal_free_policy@@@@QEAAPEAPEADXZ 0000000140035bc8 f i libucrt:argv_parsing.obj
 0001:00034bd0       ?detach@?$__crt_unique_heap_ptr@PEA_WU__crt_internal_free_policy@@@@QEAAPEAPEA_WXZ 0000000140035bd0 f i libucrt:argv_parsing.obj
 0001:00034bf4       ?get@?$__crt_unique_heap_ptr@EU__crt_internal_free_policy@@@@QEBAPEAEXZ 0000000140035bf4 f i libucrt:argv_parsing.obj
 0001:00034bf8       ?get@?$__crt_unique_heap_ptr@PEADU__crt_internal_free_policy@@@@QEBAPEAPEADXZ 0000000140035bf8 f i libucrt:argv_parsing.obj
 0001:00034bfc       ?get@?$__crt_unique_heap_ptr@PEA_WU__crt_internal_free_policy@@@@QEBAPEAPEA_WXZ 0000000140035bfc f i libucrt:argv_parsing.obj
 0001:00034c00       ?get_address_of@?$__crt_unique_heap_ptr@PEADU__crt_internal_free_policy@@@@QEAAPEAPEAPEADXZ 0000000140035c00 f i libucrt:argv_parsing.obj
 0001:00034c04       ?get_address_of@?$__crt_unique_heap_ptr@PEA_WU__crt_internal_free_policy@@@@QEAAPEAPEAPEA_WXZ 0000000140035c04 f i libucrt:argv_parsing.obj
 0001:00034c28       ?is_valid@?$__crt_unique_heap_ptr@EU__crt_internal_free_policy@@@@QEBA_NXZ 0000000140035c28 f i libucrt:argv_parsing.obj
 0001:00034c30       ?release@?$__crt_unique_heap_ptr@EU__crt_internal_free_policy@@@@QEAAXXZ 0000000140035c30 f i libucrt:argv_parsing.obj
 0001:00034c4c       ?release@?$__crt_unique_heap_ptr@PEADU__crt_internal_free_policy@@@@QEAAXXZ 0000000140035c4c f i libucrt:argv_parsing.obj
 0001:00034c68       ?release@?$__crt_unique_heap_ptr@PEA_WU__crt_internal_free_policy@@@@QEAAXXZ 0000000140035c68 f i libucrt:argv_parsing.obj
 0001:00034ca0       __acrt_allocate_buffer_for_argv 0000000140035ca0 f   libucrt:argv_parsing.obj
 0001:00034d00       _configure_narrow_argv     0000000140035d00 f   libucrt:argv_parsing.obj
 0001:00034e88       _configure_wide_argv       0000000140035e88 f   libucrt:argv_parsing.obj
 0001:0003500c       _set_pgmptr                000000014003600c f i libucrt:argv_parsing.obj
 0001:00035014       _set_wpgmptr               0000000140036014 f i libucrt:argv_parsing.obj
 0001:0003501c       ??$?R_W@__crt_internal_free_policy@@QEBAXQEB_W@Z 000000014003601c f i libucrt:environment_initialization.obj
 0001:00035544       ??$get_environment_from_os@$$V@?$__crt_char_traits@D@@SAPEADXZ 0000000140036544 f i libucrt:environment_initialization.obj
 0001:0003554c       ??$get_environment_from_os@$$V@?$__crt_char_traits@_W@@SAPEA_WXZ 000000014003654c f i libucrt:environment_initialization.obj
 0001:000356f0       ??$set_variable_in_environment_nolock@PEADH@?$__crt_char_traits@D@@SAH$$QEAPEAD$$QEAH@Z 00000001400366f0 f i libucrt:environment_initialization.obj
 0001:000356fc       ??$set_variable_in_environment_nolock@PEA_WH@?$__crt_char_traits@_W@@SAH$$QEAPEA_W$$QEAH@Z 00000001400366fc f i libucrt:environment_initialization.obj
 0001:00035708       ??$tcscpy_s@PEADAEB_KAEAPEAD@?$__crt_char_traits@D@@SAH$$QEAPEADAEB_KAEAPEAD@Z 0000000140036708 f i libucrt:environment_initialization.obj
 0001:00035718       ??$tcscpy_s@PEA_WAEB_KAEAPEA_W@?$__crt_char_traits@_W@@SAH$$QEAPEA_WAEB_KAEAPEA_W@Z 0000000140036718 f i libucrt:environment_initialization.obj
 0001:00035728       ??$tcslen@AEAPEAD@?$__crt_char_traits@D@@SA_KAEAPEAD@Z 0000000140036728 f i libucrt:environment_initialization.obj
 0001:0003573c       ??$tcslen@AEAPEA_W@?$__crt_char_traits@_W@@SA_KAEAPEA_W@Z 000000014003673c f i libucrt:environment_initialization.obj
 0001:00035750       ??$uninitialize@A6AXAEAPEAPEAD@_E@?$dual_state_global@PEAPEAD@__crt_state_management@@QEAAXA6AXAEAPEAPEAD@_E@Z 0000000140036750 f i libucrt:environment_initialization.obj
 0001:000357a8       ??$uninitialize@A6AXAEAPEAPEA_W@_E@?$dual_state_global@PEAPEA_W@__crt_state_management@@QEAAXA6AXAEAPEAPEA_W@_E@Z 00000001400367a8 f i libucrt:environment_initialization.obj
 0001:00035838       ??0?$__crt_unique_heap_ptr@_WU__crt_internal_free_policy@@@@QEAA@QEA_W@Z 0000000140036838 f i libucrt:environment_initialization.obj
 0001:00035840       ??1?$__crt_unique_heap_ptr@_WU__crt_internal_free_policy@@@@QEAA@XZ 0000000140036840 f i libucrt:environment_initialization.obj
 0001:0003585c       ??B?$__crt_unique_heap_ptr@PEADU__crt_internal_free_policy@@@@QEBA_NXZ 000000014003685c f i libucrt:environment_initialization.obj
 0001:00035864       ??B?$__crt_unique_heap_ptr@PEA_WU__crt_internal_free_policy@@@@QEBA_NXZ 0000000140036864 f i libucrt:environment_initialization.obj
 0001:0003586c       ??B?$__crt_unique_heap_ptr@_WU__crt_internal_free_policy@@@@QEBA_NXZ 000000014003686c f i libucrt:environment_initialization.obj
 0001:00035874       ?__crt_compute_required_transform_buffer_count@@YA_KIQEBD@Z 0000000140036874 f i libucrt:environment_initialization.obj
 0001:00035898       ?__crt_compute_required_transform_buffer_count@@YA_KIQEB_W@Z 0000000140036898 f i libucrt:environment_initialization.obj
 0001:000358c8       ?__crt_transform_string@@YA_KIQEBDQEA_W_K@Z 00000001400368c8 f i libucrt:environment_initialization.obj
 0001:000358ec       ?__crt_transform_string@@YA_KIQEB_WQEAD_K@Z 00000001400368ec f i libucrt:environment_initialization.obj
 0001:0003591c       ?detach@?$__crt_unique_heap_ptr@DU__crt_internal_free_policy@@@@QEAAPEADXZ 000000014003691c f i libucrt:environment_initialization.obj
 0001:00035924       ?detach@?$__crt_unique_heap_ptr@_WU__crt_internal_free_policy@@@@QEAAPEA_WXZ 0000000140036924 f i libucrt:environment_initialization.obj
 0001:0003592c       ?get@?$__crt_unique_heap_ptr@_WU__crt_internal_free_policy@@@@QEBAPEA_WXZ 000000014003692c f i libucrt:environment_initialization.obj
 0001:00035960       ?initialize@?$dual_state_global@PEAPEAD@__crt_state_management@@QEAAXQEAPEAD@Z 0000000140036960 f i libucrt:environment_initialization.obj
 0001:00035970       ?initialize@?$dual_state_global@PEAPEA_W@__crt_state_management@@QEAAXQEAPEA_W@Z 0000000140036970 f i libucrt:environment_initialization.obj
 0001:00035980       ?is_valid@?$__crt_unique_heap_ptr@PEADU__crt_internal_free_policy@@@@QEBA_NXZ 0000000140036980 f i libucrt:environment_initialization.obj
 0001:00035988       ?is_valid@?$__crt_unique_heap_ptr@PEA_WU__crt_internal_free_policy@@@@QEBA_NXZ 0000000140036988 f i libucrt:environment_initialization.obj
 0001:00035990       ?is_valid@?$__crt_unique_heap_ptr@_WU__crt_internal_free_policy@@@@QEBA_NXZ 0000000140036990 f i libucrt:environment_initialization.obj
 0001:000359a4       ?release@?$__crt_unique_heap_ptr@_WU__crt_internal_free_policy@@@@QEAAXXZ 00000001400369a4 f i libucrt:environment_initialization.obj
 0001:000359c0       ?value@?$dual_state_global@PEAPEAD@__crt_state_management@@QEAAAEAPEAPEADXZ 00000001400369c0 f i libucrt:environment_initialization.obj
 0001:000359c4       ?value@?$dual_state_global@PEAPEA_W@__crt_state_management@@QEAAAEAPEAPEA_WXZ 00000001400369c4 f i libucrt:environment_initialization.obj
 0001:000359c8       __dcrt_get_or_create_narrow_environment_nolock 00000001400369c8 f   libucrt:environment_initialization.obj
 0001:00035a04       __dcrt_get_or_create_wide_environment_nolock 0000000140036a04 f   libucrt:environment_initialization.obj
 0001:00035a40       __dcrt_uninitialize_environments_nolock 0000000140036a40 f   libucrt:environment_initialization.obj
 0001:00035a84       __p__environ               0000000140036a84 f   libucrt:environment_initialization.obj
 0001:00035a8c       __p__wenviron              0000000140036a8c f   libucrt:environment_initialization.obj
 0001:00035a94       _get_initial_narrow_environment 0000000140036a94 f   libucrt:environment_initialization.obj
 0001:00035ae4       _get_initial_wide_environment 0000000140036ae4 f   libucrt:environment_initialization.obj
 0001:00035b34       _initialize_narrow_environment 0000000140036b34 f   libucrt:environment_initialization.obj
 0001:00035b3c       _initialize_wide_environment 0000000140036b3c f   libucrt:environment_initialization.obj
 0001:00035b44       _initterm                  0000000140036b44 f   libucrt:initterm.obj
 0001:00035b88       _initterm_e                0000000140036b88 f   libucrt:initterm.obj
 0001:00035bd0       ??$?B$$A6AXPEAXK0@Z@__crt_fast_encoded_nullptr_t@@QEBAP6AXPEAXK0@ZXZ 0000000140036bd0 f i libucrt:exit.obj
 0001:00035c40       ??$__crt_fast_decode_pointer@P6AXPEAXK0@Z@@YAP6AXPEAXK0@ZQ6AX0K0@Z@Z 0000000140036c40 f i libucrt:exit.obj
 0001:00035c58       ??$__crt_fast_encode_pointer@P6AXPEAXK0@Z@@YAP6AXPEAXK0@ZQ6AX0K0@Z@Z 0000000140036c58 f i libucrt:exit.obj
 0001:00035c78       ??$__crt_get_proc_address@P6AXI@Z@@YAP6AXI@ZQEAUHINSTANCE__@@QEBD@Z 0000000140036c78 f i libucrt:exit.obj
 0001:00035ca0       ??0?$__crt_unique_handle_t@U__crt_hmodule_traits@@@@QEAA@QEAUHINSTANCE__@@@Z 0000000140036ca0 f i libucrt:exit.obj
 0001:00035ca8       ??1?$__crt_unique_handle_t@U__crt_hmodule_traits@@@@QEAA@XZ 0000000140036ca8 f i libucrt:exit.obj
 0001:00035da8       ?__acrt_select_exit_lock@@YA?AW4__acrt_lock_id@@XZ 0000000140036da8 f i libucrt:exit.obj
 0001:00035db0       ?__crt_fast_encode_pointer@@YA?AU__crt_fast_encoded_nullptr_t@@$$T@Z 0000000140036db0 f i libucrt:exit.obj
 0001:00035dc4       ?close@?$__crt_unique_handle_t@U__crt_hmodule_traits@@@@QEAAXXZ 0000000140036dc4 f i libucrt:exit.obj
 0001:00035de8       ?close@__crt_hmodule_traits@@SA_NPEAUHINSTANCE__@@@Z 0000000140036de8 f i libucrt:exit.obj
 0001:00035ef8       ?get@?$__crt_unique_handle_t@U__crt_hmodule_traits@@@@QEBAPEAUHINSTANCE__@@XZ 0000000140036ef8 f i libucrt:exit.obj
 0001:00035efc       ?get_address_of@?$__crt_unique_handle_t@U__crt_hmodule_traits@@@@QEAAPEAPEAUHINSTANCE__@@XZ 0000000140036efc f i libucrt:exit.obj
 0001:00035f00       ?get_invalid_value@__crt_hmodule_traits@@SAPEAUHINSTANCE__@@XZ 0000000140036f00 f i libucrt:exit.obj
 0001:00035fec       _Exit                      0000000140036fec f   libucrt:exit.obj
 0001:00035ff8       __acrt_initialize_thread_local_exit_callback 0000000140036ff8 f   libucrt:exit.obj
 0001:00036000       _c_exit                    0000000140037000 f   libucrt:exit.obj
 0001:00036010       _cexit                     0000000140037010 f   libucrt:exit.obj
 0001:00036020       _exit                      0000000140037020 f   libucrt:exit.obj
 0001:0003602c       _is_c_termination_complete 000000014003702c f   libucrt:exit.obj
 0001:00036034       _register_thread_local_exe_atexit_callback 0000000140037034 f   libucrt:exit.obj
 0001:00036074       exit                       0000000140037074 f   libucrt:exit.obj
 0001:00036080       quick_exit                 0000000140037080 f   libucrt:exit.obj
 0001:0003608c       ??$__crt_interlocked_read@H@@YAHPEDH@Z 000000014003708c f i libucrt:setmode.obj
 0001:00036090       ?value@?$dual_state_global@H@__crt_state_management@@QEAAAEAHXZ 0000000140037090 f i libucrt:setmode.obj
 0001:00036094       _get_fmode                 0000000140037094 f   libucrt:setmode.obj
 0001:000360c4       _set_fmode                 00000001400370c4 f   libucrt:setmode.obj
 0001:00036104       _setmode                   0000000140037104 f   libucrt:setmode.obj
 0001:00036220       _setmode_nolock            0000000140037220 f   libucrt:setmode.obj
 0001:00036304       __acrt_initialize_command_line 0000000140037304 f   libucrt:argv_data.obj
 0001:0003632c       __acrt_uninitialize_command_line 000000014003732c f   libucrt:argv_data.obj
 0001:00036330       __p___argc                 0000000140037330 f   libucrt:argv_data.obj
 0001:00036338       __p___argv                 0000000140037338 f   libucrt:argv_data.obj
 0001:00036340       __p___wargv                0000000140037340 f   libucrt:argv_data.obj
 0001:00036348       __p__acmdln                0000000140037348 f   libucrt:argv_data.obj
 0001:00036350       __p__pgmptr                0000000140037350 f   libucrt:argv_data.obj
 0001:00036358       __p__wcmdln                0000000140037358 f   libucrt:argv_data.obj
 0001:00036360       __p__wpgmptr               0000000140037360 f   libucrt:argv_data.obj
 0001:00036368       _get_pgmptr                0000000140037368 f   libucrt:argv_data.obj
 0001:000363a0       _get_wpgmptr               00000001400373a0 f   libucrt:argv_data.obj
 0001:000363dc       ??$?RU__crt_locale_data@@@__crt_internal_free_policy@@QEBAXQEBU__crt_locale_data@@@Z 00000001400373dc f i libucrt:wsetlocale.obj
 0001:000363e4       ??$?RU__crt_locale_pointers@@@__crt_internal_free_policy@@QEBAXQEBU__crt_locale_pointers@@@Z 00000001400373e4 f i libucrt:wsetlocale.obj
 0001:000363ec       ??$?RU__crt_multibyte_data@@@__crt_internal_free_policy@@QEBAXQEBU__crt_multibyte_data@@@Z 00000001400373ec f i libucrt:wsetlocale.obj
 0001:000367f0       ??0?$__crt_unique_heap_ptr@U__crt_locale_data@@U__crt_internal_free_policy@@@@QEAA@QEAU__crt_locale_data@@@Z 00000001400377f0 f i libucrt:wsetlocale.obj
 0001:000367f8       ??0?$__crt_unique_heap_ptr@U__crt_locale_pointers@@U__crt_internal_free_policy@@@@QEAA@QEAU__crt_locale_pointers@@@Z 00000001400377f8 f i libucrt:wsetlocale.obj
 0001:00036800       ??0?$__crt_unique_heap_ptr@U__crt_multibyte_data@@U__crt_internal_free_policy@@@@QEAA@QEAU__crt_multibyte_data@@@Z 0000000140037800 f i libucrt:wsetlocale.obj
 0001:00036808       ??0_expandlocale_locale_name_cache@@QEAA@QEA_W_KQEAU__crt_qualified_locale_data@@@Z 0000000140037808 f i libucrt:wsetlocale.obj
 0001:00036864       ??1?$__crt_unique_heap_ptr@U__crt_locale_data@@U__crt_internal_free_policy@@@@QEAA@XZ 0000000140037864 f i libucrt:wsetlocale.obj
 0001:00036880       ??1?$__crt_unique_heap_ptr@U__crt_locale_pointers@@U__crt_internal_free_policy@@@@QEAA@XZ 0000000140037880 f i libucrt:wsetlocale.obj
 0001:0003689c       ??1?$__crt_unique_heap_ptr@U__crt_multibyte_data@@U__crt_internal_free_policy@@@@QEAA@XZ 000000014003789c f i libucrt:wsetlocale.obj
 0001:000368b8       ??1_expandlocale_locale_name_cache@@QEAA@XZ 00000001400378b8 f i libucrt:wsetlocale.obj
 0001:00036900       ??B?$__crt_unique_heap_ptr@U__crt_locale_data@@U__crt_internal_free_policy@@@@QEBA_NXZ 0000000140037900 f i libucrt:wsetlocale.obj
 0001:00036908       ??B?$__crt_unique_heap_ptr@U__crt_locale_pointers@@U__crt_internal_free_policy@@@@QEBA_NXZ 0000000140037908 f i libucrt:wsetlocale.obj
 0001:00036910       ??B?$__crt_unique_heap_ptr@U__crt_multibyte_data@@U__crt_internal_free_policy@@@@QEBA_NXZ 0000000140037910 f i libucrt:wsetlocale.obj
 0001:00036b90       ?commit_locale_name@_expandlocale_locale_name_cache@@QEAAXQEB_W_K@Z 0000000140037b90 f i libucrt:wsetlocale.obj
 0001:00036c08       ?commit_locale_name_cache_already_updated@_expandlocale_locale_name_cache@@QEAAXQEB_W_K@Z 0000000140037c08 f i libucrt:wsetlocale.obj
 0001:00036c48       ?detach@?$__crt_unique_heap_ptr@U__crt_locale_data@@U__crt_internal_free_policy@@@@QEAAPEAU__crt_locale_data@@XZ 0000000140037c48 f i libucrt:wsetlocale.obj
 0001:00036c50       ?detach@?$__crt_unique_heap_ptr@U__crt_locale_pointers@@U__crt_internal_free_policy@@@@QEAAPEAU__crt_locale_pointers@@XZ 0000000140037c50 f i libucrt:wsetlocale.obj
 0001:00036c58       ?detach@?$__crt_unique_heap_ptr@U__crt_multibyte_data@@U__crt_internal_free_policy@@@@QEAAPEAU__crt_multibyte_data@@XZ 0000000140037c58 f i libucrt:wsetlocale.obj
 0001:00036c60       ?get@?$__crt_unique_heap_ptr@U__crt_locale_data@@U__crt_internal_free_policy@@@@QEBAPEAU__crt_locale_data@@XZ 0000000140037c60 f i libucrt:wsetlocale.obj
 0001:00036c64       ?get@?$__crt_unique_heap_ptr@U__crt_locale_pointers@@U__crt_internal_free_policy@@@@QEBAPEAU__crt_locale_pointers@@XZ 0000000140037c64 f i libucrt:wsetlocale.obj
 0001:00036c68       ?get@?$__crt_unique_heap_ptr@U__crt_multibyte_data@@U__crt_internal_free_policy@@@@QEBAPEAU__crt_multibyte_data@@XZ 0000000140037c68 f i libucrt:wsetlocale.obj
 0001:00036c6c       ?is_valid@?$__crt_unique_heap_ptr@U__crt_locale_data@@U__crt_internal_free_policy@@@@QEBA_NXZ 0000000140037c6c f i libucrt:wsetlocale.obj
 0001:00036c74       ?is_valid@?$__crt_unique_heap_ptr@U__crt_locale_pointers@@U__crt_internal_free_policy@@@@QEBA_NXZ 0000000140037c74 f i libucrt:wsetlocale.obj
 0001:00036c7c       ?is_valid@?$__crt_unique_heap_ptr@U__crt_multibyte_data@@U__crt_internal_free_policy@@@@QEBA_NXZ 0000000140037c7c f i libucrt:wsetlocale.obj
 0001:00036c84       ?release@?$__crt_unique_heap_ptr@U__crt_locale_data@@U__crt_internal_free_policy@@@@QEAAXXZ 0000000140037c84 f i libucrt:wsetlocale.obj
 0001:00036ca0       ?release@?$__crt_unique_heap_ptr@U__crt_locale_pointers@@U__crt_internal_free_policy@@@@QEAAXXZ 0000000140037ca0 f i libucrt:wsetlocale.obj
 0001:00036cbc       ?release@?$__crt_unique_heap_ptr@U__crt_multibyte_data@@U__crt_internal_free_policy@@@@QEAAXXZ 0000000140037cbc f i libucrt:wsetlocale.obj
 0001:00036cd8       ?value@?$dual_state_global@PEAU__crt_locale_data@@@__crt_state_management@@QEAAAEAPEAU__crt_locale_data@@XZ 0000000140037cd8 f i libucrt:wsetlocale.obj
 0001:00036cdc       __acrt_copy_locale_name    0000000140037cdc f   libucrt:wsetlocale.obj
 0001:00036d60       __acrt_set_locale_changed  0000000140037d60 f   libucrt:wsetlocale.obj
 0001:00036d6c       __acrt_uninitialize_locale 0000000140037d6c f   libucrt:wsetlocale.obj
 0001:00036d9c       __ascii_tolower            0000000140037d9c f i libucrt:wsetlocale.obj
 0001:00036dac       __ascii_towlower           0000000140037dac f i libucrt:wsetlocale.obj
 0001:00036dbc       __lc_lctowcs               0000000140037dbc f   libucrt:wsetlocale.obj
 0001:00036e60       __lc_wcstolc               0000000140037e60 f   libucrt:wsetlocale.obj
 0001:00036fc8       _configthreadlocale        0000000140037fc8 f   libucrt:wsetlocale.obj
 0001:000370f4       _create_locale             00000001400380f4 f   libucrt:wsetlocale.obj
 0001:000375ec       _free_locale               00000001400385ec f   libucrt:wsetlocale.obj
 0001:00037690       _get_current_locale        0000000140038690 f   libucrt:wsetlocale.obj
 0001:0003774c       _wcreate_locale            000000014003874c f   libucrt:wsetlocale.obj
 0001:00037894       _wcscats                   0000000140038894 f   libucrt:wsetlocale.obj
 0001:000378fc       _wsetlocale                00000001400388fc f   libucrt:wsetlocale.obj
 0001:00038718       ?value@?$dual_state_global@J@__crt_state_management@@QEAAAEAJXZ 0000000140039718 f i libucrt:new_mode.obj
 0001:0003871c       _query_new_mode            000000014003971c f   libucrt:new_mode.obj
 0001:00038724       _set_new_mode              0000000140039724 f   libucrt:new_mode.obj
 0001:00038750       __p__commode               0000000140039750 f   libucrt:ncommode.obj
 0001:00038758       ??$?B$$A6AXXZ@__crt_fast_encoded_nullptr_t@@QEBAP6AXXZXZ 0000000140039758 f i libucrt:onexit.obj
 0001:00038760       ??$?BP6AXXZ@__crt_fast_encoded_nullptr_t@@QEBAPEAP6AXXZXZ 0000000140039760 f i libucrt:onexit.obj
 0001:00038768       ??$?RP6AXXZ@__crt_internal_free_policy@@QEBAXQEBQ6AXXZ@Z 0000000140039768 f i libucrt:onexit.obj
 0001:00038840       ??$__crt_fast_decode_pointer@P6AXXZ@@YAP6AXXZQ6AXXZ@Z 0000000140039840 f i libucrt:onexit.obj
 0001:00038858       ??$__crt_fast_decode_pointer@PEAP6AXXZ@@YAPEAP6AXXZQEAP6AXXZ@Z 0000000140039858 f i libucrt:onexit.obj
 0001:00038870       ??$__crt_fast_encode_pointer@P6AHXZ@@YAP6AHXZQ6AHXZ@Z 0000000140039870 f i libucrt:onexit.obj
 0001:00038890       ??$__crt_fast_encode_pointer@P6AXXZ@@YAP6AXXZQ6AXXZ@Z 0000000140039890 f i libucrt:onexit.obj
 0001:000388b0       ??$__crt_fast_encode_pointer@PEAP6AXXZ@@YAPEAP6AXXZQEAP6AXXZ@Z 00000001400398b0 f i libucrt:onexit.obj
 0001:00038904       ??0?$__crt_unique_heap_ptr@P6AXXZU__crt_internal_free_policy@@@@QEAA@QEAP6AXXZ@Z 0000000140039904 f i libucrt:onexit.obj
 0001:0003890c       ??1?$__crt_unique_heap_ptr@P6AXXZU__crt_internal_free_policy@@@@QEAA@XZ 000000014003990c f i libucrt:onexit.obj
 0001:00038928       ??1scoped_global_state_reset@__crt_state_management@@QEAA@XZ 0000000140039928 f i libucrt:onexit.obj
 0001:00038c1c       ?detach@?$__crt_unique_heap_ptr@P6AXXZU__crt_internal_free_policy@@@@QEAAPEAP6AXXZXZ 0000000140039c1c f i libucrt:onexit.obj
 0001:00038c24       ?release@?$__crt_unique_heap_ptr@P6AXXZU__crt_internal_free_policy@@@@QEAAXXZ 0000000140039c24 f i libucrt:onexit.obj
 0001:00038c40       _crt_at_quick_exit         0000000140039c40 f   libucrt:onexit.obj
 0001:00038c50       _crt_atexit                0000000140039c50 f   libucrt:onexit.obj
 0001:00038c60       _execute_onexit_table      0000000140039c60 f   libucrt:onexit.obj
 0001:00038ca4       _initialize_onexit_table   0000000140039ca4 f   libucrt:onexit.obj
 0001:00038ccc       _register_onexit_function  0000000140039ccc f   libucrt:onexit.obj
 0001:00038e54       ??$?BX@__crt_fast_encoded_nullptr_t@@QEBAPEAXXZ 0000000140039e54 f i libucrt:initialization.obj
 0001:00038e5c       ??$__crt_fast_encode_pointer@PEAX@@YAPEAXQEAX@Z 0000000140039e5c f i libucrt:initialization.obj
 0001:00038f18       ?__acrt_stdio_is_initialized@@YA_NXZ 0000000140039f18 f i libucrt:initialization.obj
 0001:00038f24       ?initialize@?$dual_state_global@PEAU__crt_locale_data@@@__crt_state_management@@QEAAXQEAU__crt_locale_data@@@Z 0000000140039f24 f i libucrt:initialization.obj
 0001:00038f34       __acrt_initialize          0000000140039f34 f   libucrt:initialization.obj
 0001:00038f48       __acrt_thread_attach       0000000140039f48 f   libucrt:initialization.obj
 0001:00038f5c       __acrt_thread_detach       0000000140039f5c f   libucrt:initialization.obj
 0001:00038f6c       __acrt_uninitialize        0000000140039f6c f   libucrt:initialization.obj
 0001:00038fa4       __acrt_uninitialize_critical 0000000140039fa4 f   libucrt:initialization.obj
 0001:00038fc8       _get_terminate             0000000140039fc8 f   libucrt:terminate.obj
 0001:00038fec       set_terminate              0000000140039fec f   libucrt:terminate.obj
 0001:00039018       terminate                  000000014003a018 f   libucrt:terminate.obj
 0001:00039044       free                       000000014003a044 f   libucrt:free.obj
 0001:00039058       malloc                     000000014003a058 f   libucrt:malloc.obj
 0001:000390c4       strcpy_s                   000000014003a0c4 f   libucrt:strcpy_s.obj
 0001:00039124       _set_abort_behavior        000000014003a124 f   libucrt:abort.obj
 0001:00039140       abort                      000000014003a140 f   libucrt:abort.obj
 0001:00039198       calloc                     000000014003a198 f   libucrt:calloc.obj
 0001:000391a0       ??$is_overflow_condition@_K@__crt_strtox@@YA_NI_K@Z 000000014003a1a0 f i libucrt:atox.obj
 0001:000391d8       ??$make_c_string_character_source@D$$T@__crt_strtox@@YA?AV?$c_string_character_source@D@0@QEBD$$T@Z 000000014003a1d8 f i libucrt:atox.obj
 0001:000391ec       ??$make_c_string_character_source@_W$$T@__crt_strtox@@YA?AV?$c_string_character_source@_W@0@QEB_W$$T@Z 000000014003a1ec f i libucrt:atox.obj
 0001:00039200       ??$parse_integer@KV?$c_string_character_source@D@__crt_strtox@@$00@__crt_strtox@@YAKAEAV__crt_cached_ptd_host@@V?$c_string_character_source@D@0@H_N@Z 000000014003a200 f i libucrt:atox.obj
 0001:000394f0       ??$parse_integer@KV?$c_string_character_source@_W@__crt_strtox@@$00@__crt_strtox@@YAKAEAV__crt_cached_ptd_host@@V?$c_string_character_source@_W@0@H_N@Z 000000014003a4f0 f i libucrt:atox.obj
 0001:00039c8c       ??$parse_integer@_KV?$c_string_character_source@D@__crt_strtox@@$00@__crt_strtox@@YA_KAEAV__crt_cached_ptd_host@@V?$c_string_character_source@D@0@H_N@Z 000000014003ac8c f i libucrt:atox.obj
 0001:00039f68       ??$parse_integer@_KV?$c_string_character_source@_W@__crt_strtox@@$00@__crt_strtox@@YA_KAEAV__crt_cached_ptd_host@@V?$c_string_character_source@_W@0@H_N@Z 000000014003af68 f i libucrt:atox.obj
 0001:0003a6ec       ??$parse_integer_from_string@JD$$T@__crt_strtox@@YAJQEBD$$THQEAU__crt_locale_pointers@@@Z 000000014003b6ec f i libucrt:atox.obj
 0001:0003a7a8       ??$parse_integer_from_string@J_W$$T@__crt_strtox@@YAJQEB_W$$THQEAU__crt_locale_pointers@@@Z 000000014003b7a8 f i libucrt:atox.obj
 0001:0003a864       ??$parse_integer_from_string@_JD$$T@__crt_strtox@@YA_JQEBD$$THQEAU__crt_locale_pointers@@@Z 000000014003b864 f i libucrt:atox.obj
 0001:0003a924       ??$parse_integer_from_string@_J_W$$T@__crt_strtox@@YA_JQEB_W$$THQEAU__crt_locale_pointers@@@Z 000000014003b924 f i libucrt:atox.obj
 0001:0003a9e4       ?is_space@__crt_strtox@@YA_NDQEAU__crt_locale_pointers@@@Z 000000014003b9e4 f i libucrt:atox.obj
 0001:0003aa04       ?is_space@__crt_strtox@@YA_N_WPEAU__crt_locale_pointers@@@Z 000000014003ba04 f i libucrt:atox.obj
 0001:0003aa1c       ?maximum_signed_value@__crt_strtox@@YA_J_K@Z 000000014003ba1c f i libucrt:atox.obj
 0001:0003aa28       ?minimum_signed_value@__crt_strtox@@YA_J_K@Z 000000014003ba28 f i libucrt:atox.obj
 0001:0003aa34       __acrt_get_locale_data_prefix 000000014003ba34 f i libucrt:atox.obj
 0001:0003aa38       _atoi64                    000000014003ba38 f   libucrt:atox.obj
 0001:0003aaec       _atoi64_l                  000000014003baec f   libucrt:atox.obj
 0001:0003aba8       _atoi_l                    000000014003bba8 f   libucrt:atox.obj
 0001:0003ac64       _atol_l                    000000014003bc64 f   libucrt:atox.obj
 0001:0003ad20       _atoll_l                   000000014003bd20 f   libucrt:atox.obj
 0001:0003addc       _chvalidchk_l              000000014003bddc f i libucrt:atox.obj
 0001:0003ae40       _ischartype_l              000000014003be40 f i libucrt:atox.obj
 0001:0003aeb8       _wtoi                      000000014003beb8 f   libucrt:atox.obj
 0001:0003af68       _wtoi64                    000000014003bf68 f   libucrt:atox.obj
 0001:0003b01c       _wtoi64_l                  000000014003c01c f   libucrt:atox.obj
 0001:0003b0d8       _wtoi_l                    000000014003c0d8 f   libucrt:atox.obj
 0001:0003b194       _wtol                      000000014003c194 f   libucrt:atox.obj
 0001:0003b244       _wtol_l                    000000014003c244 f   libucrt:atox.obj
 0001:0003b300       _wtoll                     000000014003c300 f   libucrt:atox.obj
 0001:0003b3b4       _wtoll_l                   000000014003c3b4 f   libucrt:atox.obj
 0001:0003b470       atoi                       000000014003c470 f   libucrt:atox.obj
 0001:0003b520       atol                       000000014003c520 f   libucrt:atox.obj
 0001:0003b5d0       atoll                      000000014003c5d0 f   libucrt:atox.obj
 0001:0003b6a0       strncmp                    000000014003c6a0 f   libucrt:strncmp.obj
 0001:0003b720       wcsncmp                    000000014003c720 f   libucrt:wcsncmp.obj
 0001:0003b74c       ??$__crt_fast_decode_pointer@P6AXPEB_W00I_K@Z@@YAP6AXPEB_W00I_K@ZQ6AX000I1@Z@Z 000000014003c74c f i libucrt:invalid_parameter.obj
 0001:0003b764       ??$__crt_fast_encode_pointer@P6AXPEB_W00I_K@Z@@YAP6AXPEB_W00I_K@ZQ6AX000I1@Z@Z 000000014003c764 f i libucrt:invalid_parameter.obj
 0001:0003b784       ??$initialize_from_array@$$BY00Q6AXPEB_W00I_K@Z@?$dual_state_global@P6AXPEB_W00I_K@Z@__crt_state_management@@QEAAXAEAY00Q6AXPEB_W00I_K@Z@Z 000000014003c784 f i libucrt:invalid_parameter.obj
 0001:0003b7fc       ?check_synchronize_global_state_index@__crt_cached_ptd_host@@AEAA_KXZ 000000014003c7fc f i libucrt:invalid_parameter.obj
 0001:0003b830       ?dangerous_get_state_array@?$dual_state_global@P6AXPEB_W00I_K@Z@__crt_state_management@@QEAAPEAP6AXPEB_W00I_K@ZXZ 000000014003c830 f i libucrt:invalid_parameter.obj
 0001:0003b834       ?get_current_global_state_index@__crt_cached_ptd_host@@QEAA_KXZ 000000014003c834 f i libucrt:invalid_parameter.obj
 0001:0003b874       ?get_raw_ptd_noexit@__crt_cached_ptd_host@@QEAAPEAU__acrt_ptd@@XZ 000000014003c874 f i libucrt:invalid_parameter.obj
 0001:0003b8e0       ?try_synchronize_per_thread_data@__crt_cached_ptd_host@@AEAAPEAU__acrt_ptd@@XZ 000000014003c8e0 f i libucrt:invalid_parameter.obj
 0001:0003b944       ?value@?$dual_state_global@P6AXPEB_W00I_K@Z@__crt_state_management@@QEAAAEAP6AXPEB_W00I_K@ZAEAV__crt_cached_ptd_host@@@Z 000000014003c944 f i libucrt:invalid_parameter.obj
 0001:0003b990       ?value@?$dual_state_global@P6AXPEB_W00I_K@Z@__crt_state_management@@QEAAAEAP6AXPEB_W00I_K@ZXZ 000000014003c990 f i libucrt:invalid_parameter.obj
 0001:0003b994       __acrt_call_reportfault    000000014003c994 f   libucrt:invalid_parameter.obj
 0001:0003baf0       __acrt_initialize_invalid_parameter_handler 000000014003caf0 f   libucrt:invalid_parameter.obj
 0001:0003baf8       _get_invalid_parameter_handler 000000014003caf8 f   libucrt:invalid_parameter.obj
 0001:0003bb14       _get_thread_local_invalid_parameter_handler 000000014003cb14 f   libucrt:invalid_parameter.obj
 0001:0003bb30       _invalid_parameter         000000014003cb30 f   libucrt:invalid_parameter.obj
 0001:0003bbcc       _invalid_parameter_internal 000000014003cbcc f   libucrt:invalid_parameter.obj
 0001:0003bc98       _invalid_parameter_noinfo  000000014003cc98 f   libucrt:invalid_parameter.obj
 0001:0003bcb8       _invalid_parameter_noinfo_noreturn 000000014003ccb8 f   libucrt:invalid_parameter.obj
 0001:0003bce8       _invoke_watson             000000014003cce8 f   libucrt:invalid_parameter.obj
 0001:0003bd30       _set_invalid_parameter_handler 000000014003cd30 f   libucrt:invalid_parameter.obj
 0001:0003bd64       _set_thread_local_invalid_parameter_handler 000000014003cd64 f   libucrt:invalid_parameter.obj
 0001:0003bd8c       ?get_doserrno@__crt_cached_ptd_host@@QEAA@XZ 000000014003cd8c f i libucrt:errno.obj
 0001:0003bd94       ?set@?$cached@K@__crt_cached_ptd_host@@QEAAKK@Z 000000014003cd94 f i libucrt:errno.obj
 0001:0003bda0       __acrt_errno_from_os_error 000000014003cda0 f   libucrt:errno.obj
 0001:0003bde8       __acrt_errno_map_os_error  000000014003cde8 f   libucrt:errno.obj
 0001:0003be30       __acrt_errno_map_os_error_ptd 000000014003ce30 f   libucrt:errno.obj
 0001:0003be54       __doserrno                 000000014003ce54 f   libucrt:errno.obj
 0001:0003be74       _errno                     000000014003ce74 f   libucrt:errno.obj
 0001:0003be94       _get_doserrno              000000014003ce94 f   libucrt:errno.obj
 0001:0003bed0       _get_errno                 000000014003ced0 f   libucrt:errno.obj
 0001:0003bf0c       _set_doserrno              000000014003cf0c f   libucrt:errno.obj
 0001:0003bf48       _set_errno                 000000014003cf48 f   libucrt:errno.obj
 0001:0003bf84       _calloc_base               000000014003cf84 f   libucrt:calloc_base.obj
 0001:0003c004       _free_base                 000000014003d004 f   libucrt:free_base.obj
 0001:0003c078       ??$?B$$A6AHPEA_WK_J@Z@__crt_fast_encoded_nullptr_t@@QEBAP6AHPEA_WK_J@ZXZ 000000014003d078 f i libucrt:winapi_thunks.obj
 0001:0003c124       ??$__crt_fast_decode_pointer@P6AHPEA_WK_J@Z@@YAP6AHPEA_WK_J@ZQ6AH0K1@Z@Z 000000014003d124 f i libucrt:winapi_thunks.obj
 0001:0003c13c       ??$__crt_fast_decode_pointer@PEAX@@YAPEAXQEAX@Z 000000014003d13c f i libucrt:winapi_thunks.obj
 0001:0003c154       ??$__crt_fast_encode_pointer@P6AHPEA_WK_J@Z@@YAP6AHPEA_WK_J@ZQ6AH0K1@Z@Z 000000014003d154 f i libucrt:winapi_thunks.obj
 0001:0003cbd0       GetCurrentThreadEffectiveToken 000000014003dbd0 f i libucrt:winapi_thunks.obj
 0001:0003cbd8       __acrt_AppPolicyGetProcessTerminationMethodInternal 000000014003dbd8 f   libucrt:winapi_thunks.obj
 0001:0003cc30       __acrt_AppPolicyGetShowDeveloperDiagnosticInternal 000000014003dc30 f   libucrt:winapi_thunks.obj
 0001:0003cc88       __acrt_AppPolicyGetThreadInitializationTypeInternal 000000014003dc88 f   libucrt:winapi_thunks.obj
 0001:0003cce0       __acrt_AppPolicyGetWindowingModelInternal 000000014003dce0 f   libucrt:winapi_thunks.obj
 0001:0003cd38       __acrt_AreFileApisANSI     000000014003dd38 f   libucrt:winapi_thunks.obj
 0001:0003cd7c       __acrt_CompareStringEx     000000014003dd7c f   libucrt:winapi_thunks.obj
 0001:0003ce68       __acrt_EnumSystemLocalesEx 000000014003de68 f   libucrt:winapi_thunks.obj
 0001:0003cf08       __acrt_FlsAlloc            000000014003df08 f   libucrt:winapi_thunks.obj
 0001:0003cf10       __acrt_FlsFree             000000014003df10 f   libucrt:winapi_thunks.obj
 0001:0003cf18       __acrt_FlsGetValue         000000014003df18 f   libucrt:winapi_thunks.obj
 0001:0003cf20       __acrt_FlsSetValue         000000014003df20 f   libucrt:winapi_thunks.obj
 0001:0003cf28       __acrt_GetDateFormatEx     000000014003df28 f   libucrt:winapi_thunks.obj
 0001:0003cfe8       __acrt_GetEnabledXStateFeatures 000000014003dfe8 f   libucrt:winapi_thunks.obj
 0001:0003d02c       __acrt_GetLocaleInfoEx     000000014003e02c f   libucrt:winapi_thunks.obj
 0001:0003d0bc       __acrt_GetSystemTimePreciseAsFileTime 000000014003e0bc f   libucrt:winapi_thunks.obj
 0001:0003d114       __acrt_GetTempPath2W       000000014003e114 f   libucrt:winapi_thunks.obj
 0001:0003d174       __acrt_GetTimeFormatEx     000000014003e174 f   libucrt:winapi_thunks.obj
 0001:0003d228       __acrt_GetUserDefaultLocaleName 000000014003e228 f   libucrt:winapi_thunks.obj
 0001:0003d294       __acrt_GetXStateFeaturesMask 000000014003e294 f   libucrt:winapi_thunks.obj
 0001:0003d2f0       __acrt_InitializeCriticalSectionEx 000000014003e2f0 f   libucrt:winapi_thunks.obj
 0001:0003d360       __acrt_IsValidLocaleName   000000014003e360 f   libucrt:winapi_thunks.obj
 0001:0003d3c4       __acrt_LCIDToLocaleName    000000014003e3c4 f   libucrt:winapi_thunks.obj
 0001:0003d448       __acrt_LCMapStringEx       000000014003e448 f   libucrt:winapi_thunks.obj
 0001:0003d534       __acrt_LocaleNameToLCID    000000014003e534 f   libucrt:winapi_thunks.obj
 0001:0003d594       __acrt_LocateXStateFeature 000000014003e594 f   libucrt:winapi_thunks.obj
 0001:0003d600       __acrt_MessageBoxA         000000014003e600 f   libucrt:winapi_thunks.obj
 0001:0003d67c       __acrt_MessageBoxW         000000014003e67c f   libucrt:winapi_thunks.obj
 0001:0003d6f8       __acrt_RoInitialize        000000014003e6f8 f   libucrt:winapi_thunks.obj
 0001:0003d744       __acrt_RoUninitialize      000000014003e744 f   libucrt:winapi_thunks.obj
 0001:0003d784       __acrt_RtlGenRandom        000000014003e784 f   libucrt:winapi_thunks.obj
 0001:0003d7e0       __acrt_SetThreadStackGuarantee 000000014003e7e0 f   libucrt:winapi_thunks.obj
 0001:0003d82c       __acrt_can_show_message_box 000000014003e82c f   libucrt:winapi_thunks.obj
 0001:0003d89c       __acrt_can_use_vista_locale_apis 000000014003e89c f   libucrt:winapi_thunks.obj
 0001:0003d8cc       __acrt_can_use_xstate_apis 000000014003e8cc f   libucrt:winapi_thunks.obj
 0001:0003d8fc       __acrt_eagerly_load_locale_apis 000000014003e8fc f   libucrt:winapi_thunks.obj
 0001:0003da58       __acrt_get_parent_window   000000014003ea58 f   libucrt:winapi_thunks.obj
 0001:0003dae4       __acrt_initialize_winapi_thunks 000000014003eae4 f   libucrt:winapi_thunks.obj
 0001:0003db08       __acrt_is_interactive      000000014003eb08 f   libucrt:winapi_thunks.obj
 0001:0003dbe8       __acrt_uninitialize_winapi_thunks 000000014003ebe8 f   libucrt:winapi_thunks.obj
 0001:0003dc2c       ??0__crt_stdio_stream@@QEAA@QEAU__crt_stdio_stream_data@@@Z 000000014003ec2c f i libucrt:closeall.obj
 0001:0003dc34       ?is_in_use@__crt_stdio_stream@@QEBA_NXZ 000000014003ec34 f i libucrt:closeall.obj
 0001:0003dc44       _fcloseall                 000000014003ec44 f   libucrt:closeall.obj
 0001:0003e108       ?__acrt_stdio_reset_buffer@@YAXV__crt_stdio_stream@@@Z 000000014003f108 f i libucrt:fflush.obj
 0001:0003e1f8       ?has_all_of@__crt_stdio_stream@@QEBA_NJ@Z 000000014003f1f8 f i libucrt:fflush.obj
 0001:0003e244       ?set_flags@__crt_stdio_stream@@QEBA_NJ@Z 000000014003f244 f i libucrt:fflush.obj
 0001:0003e264       ?unset_flags@__crt_stdio_stream@@QEBA_NJ@Z 000000014003f264 f i libucrt:fflush.obj
 0001:0003e28c       __acrt_stdio_flush_nolock  000000014003f28c f   libucrt:fflush.obj
 0001:0003e318       _fflush_nolock             000000014003f318 f   libucrt:fflush.obj
 0001:0003e3ec       _flushall                  000000014003f3ec f   libucrt:fflush.obj
 0001:0003e3f4       fflush                     000000014003f3f4 f   libucrt:fflush.obj
 0001:0003e45c       ?has_any_of@__crt_stdio_stream@@QEBA_NJ@Z 000000014003f45c f i libucrt:_freebuf.obj
 0001:0003e46c       ?has_crt_buffer@__crt_stdio_stream@@QEBA_NXZ 000000014003f46c f i libucrt:_freebuf.obj
 0001:0003e47c       __acrt_stdio_free_buffer_nolock 000000014003f47c f   libucrt:_freebuf.obj
 0001:0003e6d4       __acrt_initialize_lowio    000000014003f6d4 f   libucrt:ioinit.obj
 0001:0003e710       __acrt_uninitialize_lowio  000000014003f710 f   libucrt:ioinit.obj
 0001:0003e750       _malloc_base               000000014003f750 f   libucrt:malloc_base.obj
 0001:0003f064       ??1?$__crt_simd_cleanup_guard@$00@@QEAA@XZ 0000000140040064 f i libucrt:strnlen.obj
 0001:0003f068       ??1?$__crt_simd_cleanup_guard@$0A@@@QEAA@XZ 0000000140040068 f i libucrt:strnlen.obj
 0001:0003f06c       ?compare_equals@?$__crt_simd_traits@$00E@@SA?AT__m256i@@T2@0@Z 000000014004006c f i libucrt:strnlen.obj
 0001:0003f078       ?compare_equals@?$__crt_simd_traits@$00G@@SA?AT__m256i@@T2@0@Z 0000000140040078 f i libucrt:strnlen.obj
 0001:0003f084       ?compare_equals@?$__crt_simd_traits@$0A@E@@SA?AT__m128i@@T2@0@Z 0000000140040084 f i libucrt:strnlen.obj
 0001:0003f090       ?compare_equals@?$__crt_simd_traits@$0A@G@@SA?AT__m128i@@T2@0@Z 0000000140040090 f i libucrt:strnlen.obj
 0001:0003f09c       ?compute_byte_mask@?$__crt_simd_pack_traits@$00@@SAHT__m256i@@@Z 000000014004009c f i libucrt:strnlen.obj
 0001:0003f0a8       ?compute_byte_mask@?$__crt_simd_pack_traits@$0A@@@SAHT__m128i@@@Z 00000001400400a8 f i libucrt:strnlen.obj
 0001:0003f0b4       ?get_zero_pack@?$__crt_simd_pack_traits@$00@@SA?AT__m256i@@XZ 00000001400400b4 f i libucrt:strnlen.obj
 0001:0003f0bc       ?get_zero_pack@?$__crt_simd_pack_traits@$0A@@@SA?AT__m128i@@XZ 00000001400400bc f i libucrt:strnlen.obj
 0001:0003f0c0       strnlen                    00000001400400c0 f   libucrt:strnlen.obj
 0001:0003f210       wcslen                     0000000140040210 f   libucrt:strnlen.obj
 0001:0003f33c       wcsnlen                    000000014004033c f   libucrt:strnlen.obj
 0001:0003f514       ?value@?$dual_state_global@PEAU__crt_multibyte_data@@@__crt_state_management@@QEAAAEAPEAU__crt_multibyte_data@@XZ 0000000140040514 f i libucrt:locale_update.obj
 0001:0003f518       ?value_explicit@?$dual_state_global@PEAU__crt_locale_data@@@__crt_state_management@@QEAAAEAPEAU__crt_locale_data@@_K@Z 0000000140040518 f i libucrt:locale_update.obj
 0001:0003f520       ?value_explicit@?$dual_state_global@PEAU__crt_multibyte_data@@@__crt_state_management@@QEAAAEAPEAU__crt_multibyte_data@@_K@Z 0000000140040520 f i libucrt:locale_update.obj
 0001:0003f528       __acrt_should_sync_with_global_locale 0000000140040528 f i libucrt:locale_update.obj
 0001:0003f538       __acrt_update_locale_info  0000000140040538 f   libucrt:locale_update.obj
 0001:0003f56c       __acrt_update_locale_info_explicit 000000014004056c f   libucrt:locale_update.obj
 0001:0003f5a4       __acrt_update_multibyte_info 00000001400405a4 f   libucrt:locale_update.obj
 0001:0003f5d8       __acrt_update_multibyte_info_explicit 00000001400405d8 f   libucrt:locale_update.obj
 0001:0003f610       ?__acrt_fp_classify@@YA?AW4__acrt_fp_class@@AEBN@Z 0000000140040610 f i libucrt:cvt.obj
 0001:0003f66c       ?__acrt_fp_is_negative@@YA_NAEBN@Z 000000014004066c f i libucrt:cvt.obj
 0001:000402d8       ?strrchr@@YAPEADQEADH@Z    00000001400412d8 f i libucrt:cvt.obj
 0001:000402e0       __acrt_fp_format           00000001400412e0 f   libucrt:cvt.obj
 0001:000405c8       ?value_or@?$cached@H@__crt_cached_ptd_host@@QEBAHH@Z 00000001400415c8 f i libucrt:wctomb.obj
 0001:000405d4       _wctomb_internal           00000001400415d4 f   libucrt:wctomb.obj
 0001:00040784       _wctomb_l                  0000000140041784 f   libucrt:wctomb.obj
 0001:00040870       _wctomb_s_l                0000000140041870 f   libucrt:wctomb.obj
 0001:00040920       wctomb                     0000000140041920 f   libucrt:wctomb.obj
 0001:000409e8       wctomb_s                   00000001400419e8 f   libucrt:wctomb.obj
 0001:00040a88       _isleadbyte_fast_internal  0000000140041a88 f i libucrt:mbtowc.obj
 0001:00040aa0       _mbtowc_internal           0000000140041aa0 f   libucrt:mbtowc.obj
 0001:00040c18       _mbtowc_l                  0000000140041c18 f   libucrt:mbtowc.obj
 0001:00040cbc       mbtowc                     0000000140041cbc f   libucrt:mbtowc.obj
 0001:00040d54       ?lowio_handle@__crt_stdio_stream@@QEBAHXZ 0000000140041d54 f i libucrt:fileno.obj
 0001:00040d5c       _fileno                    0000000140041d5c f   libucrt:fileno.obj
 0001:00040d84       _get_printf_count_output   0000000140041d84 f   libucrt:printf_count_output.obj
 0001:00040d9c       _set_printf_count_output   0000000140041d9c f   libucrt:printf_count_output.obj
 0001:00040e60       _fputwc_nolock             0000000140041e60 f   libucrt:fputwc.obj
 0001:00040efc       _fputwc_nolock_internal    0000000140041efc f   libucrt:fputwc.obj
 0001:00041088       _fputwchar                 0000000140042088 f   libucrt:fputwc.obj
 0001:000410ac       _putwc_nolock              00000001400420ac f   libucrt:fputwc.obj
 0001:000410b4       fputwc                     00000001400420b4 f   libucrt:fputwc.obj
 0001:00041150       putwc                      0000000140042150 f   libucrt:fputwc.obj
 0001:00041158       putwchar                   0000000140042158 f   libucrt:fputwc.obj
 0001:000412c8       _fputc_nolock              00000001400422c8 f   libucrt:fputc.obj
 0001:00041374       _fputc_nolock_internal     0000000140042374 f   libucrt:fputc.obj
 0001:0004138c       _fputchar                  000000014004238c f   libucrt:fputc.obj
 0001:000413b0       _putc_nolock               00000001400423b0 f   libucrt:fputc.obj
 0001:000413b8       fputc                      00000001400423b8 f   libucrt:fputc.obj
 0001:00041450       putc                       0000000140042450 f   libucrt:fputc.obj
 0001:00041458       putchar                    0000000140042458 f   libucrt:fputc.obj
 0001:00041460       ?has_any_buffer@__crt_stdio_stream@@QEBA_NXZ 0000000140042460 f i libucrt:_sftbuf.obj
 0001:00041474       ?has_temporary_buffer@__crt_stdio_stream@@QEBA_NXZ 0000000140042474 f i libucrt:_sftbuf.obj
 0001:00041484       __acrt_should_use_temporary_buffer 0000000140042484 f   libucrt:_sftbuf.obj
 0001:000414d0       __acrt_stdio_begin_temporary_buffering_nolock 00000001400424d0 f   libucrt:_sftbuf.obj
 0001:00041598       __acrt_stdio_end_temporary_buffering_nolock 0000000140042598 f   libucrt:_sftbuf.obj
 0001:000415d8       ??$?RU__acrt_ptd@@@__crt_internal_free_policy@@QEBAXQEBU__acrt_ptd@@@Z 00000001400425d8 f i libucrt:per_thread_data.obj
 0001:0004180c       ??0?$__crt_unique_heap_ptr@U__acrt_ptd@@U__crt_internal_free_policy@@@@QEAA@QEAU__acrt_ptd@@@Z 000000014004280c f i libucrt:per_thread_data.obj
 0001:00041814       ??1?$__crt_unique_heap_ptr@U__acrt_ptd@@U__crt_internal_free_policy@@@@QEAA@XZ 0000000140042814 f i libucrt:per_thread_data.obj
 0001:00041830       ??B?$__crt_unique_heap_ptr@U__acrt_ptd@@U__crt_internal_free_policy@@@@QEBA_NXZ 0000000140042830 f i libucrt:per_thread_data.obj
 0001:00041a84       ?dangerous_get_state_array@?$dual_state_global@PEAU__crt_locale_data@@@__crt_state_management@@QEAAPEAPEAU__crt_locale_data@@XZ 0000000140042a84 f i libucrt:per_thread_data.obj
 0001:00041c98       ?detach@?$__crt_unique_heap_ptr@U__acrt_ptd@@U__crt_internal_free_policy@@@@QEAAPEAU__acrt_ptd@@XZ 0000000140042c98 f i libucrt:per_thread_data.obj
 0001:00041ca0       ?get@?$__crt_unique_heap_ptr@U__acrt_ptd@@U__crt_internal_free_policy@@@@QEBAPEAU__acrt_ptd@@XZ 0000000140042ca0 f i libucrt:per_thread_data.obj
 0001:00041ec0       ?is_valid@?$__crt_unique_heap_ptr@U__acrt_ptd@@U__crt_internal_free_policy@@@@QEBA_NXZ 0000000140042ec0 f i libucrt:per_thread_data.obj
 0001:00041ec8       ?release@?$__crt_unique_heap_ptr@U__acrt_ptd@@U__crt_internal_free_policy@@@@QEAAXXZ 0000000140042ec8 f i libucrt:per_thread_data.obj
 0001:00041f60       __acrt_freeptd             0000000140042f60 f   libucrt:per_thread_data.obj
 0001:00041fa4       __acrt_getptd              0000000140042fa4 f   libucrt:per_thread_data.obj
 0001:00042078       __acrt_getptd_head         0000000140043078 f   libucrt:per_thread_data.obj
 0001:0004211c       __acrt_getptd_noexit       000000014004311c f   libucrt:per_thread_data.obj
 0001:000421e4       __acrt_getptd_noexit_explicit 00000001400431e4 f   libucrt:per_thread_data.obj
 0001:000422a4       __acrt_initialize_ptd      00000001400432a4 f   libucrt:per_thread_data.obj
 0001:000422e0       __acrt_uninitialize_ptd    00000001400432e0 f   libucrt:per_thread_data.obj
 0001:00042304       __threadhandle             0000000140043304 f   libucrt:per_thread_data.obj
 0001:0004230c       __threadid                 000000014004330c f   libucrt:per_thread_data.obj
 0001:00042314       __p___mb_cur_max           0000000140043314 f   libucrt:nlsdata.obj
 0001:00042344       _set_error_mode            0000000140043344 f   libucrt:set_error_mode.obj
 0001:00042408       wcscat_s                   0000000140043408 f   libucrt:wcscat_s.obj
 0001:000424ec       wcscpy_s                   00000001400434ec f   libucrt:wcscpy_s.obj
 0001:00042648       wcsncpy_s                  0000000140043648 f   libucrt:wcsncpy_s.obj
 0001:0004288c       ??$message_box@$$TAEBQEBDAEBQEBDK@?$__crt_char_traits@D@@SAH$$QEA$$TAEBQEBD1$$QEAK@Z 000000014004388c f i libucrt:crtmbox.obj
 0001:000428a0       ??$message_box@$$TAEBQEB_WAEBQEB_WK@?$__crt_char_traits@_W@@SAH$$QEA$$TAEBQEB_W1$$QEAK@Z 00000001400438a0 f i libucrt:crtmbox.obj
 0001:000428b4       ??$message_box@PEAUHWND__@@AEBQEBDAEBQEBDAEBI@?$__crt_char_traits@D@@SAH$$QEAPEAUHWND__@@AEBQEBD1AEBI@Z 00000001400438b4 f i libucrt:crtmbox.obj
 0001:000428c8       ??$message_box@PEAUHWND__@@AEBQEB_WAEBQEB_WAEBI@?$__crt_char_traits@_W@@SAH$$QEAPEAUHWND__@@AEBQEB_W1AEBI@Z 00000001400438c8 f i libucrt:crtmbox.obj
 0001:000428dc       ??$output_debug_string@AEBQEBD@?$__crt_char_traits@D@@SAXAEBQEBD@Z 00000001400438dc f i libucrt:crtmbox.obj
 0001:000428e4       ??$output_debug_string@AEBQEB_W@?$__crt_char_traits@_W@@SAXAEBQEB_W@Z 00000001400438e4 f i libucrt:crtmbox.obj
 0001:000428f0       __acrt_show_narrow_message_box 00000001400438f0 f   libucrt:crtmbox.obj
 0001:00042994       __acrt_show_wide_message_box 0000000140043994 f   libucrt:crtmbox.obj
 0001:00042a60       ??$__acrt_convert_wcs_mbs_cp@D_WV<lambda_7c9dea7b4ca7285d2cdb541a38da6275>@@U__crt_win32_buffer_internal_dynamic_resizing@@@@YAHQEBDAEAV?$__crt_win32_buffer@_WU__crt_win32_buffer_internal_dynamic_resizing@@@@AEBV<lambda_7c9dea7b4ca7285d2cdb541a38da6275>@@I@Z 0000000140043a60 f i libucrt:argv_wildcards.obj
 0001:00042bdc       ??$__acrt_convert_wcs_mbs_cp@_WDV<lambda_d8593a27d1aa8c02be35c86a17d324c4>@@U__crt_win32_buffer_internal_dynamic_resizing@@@@YAHQEB_WAEAV?$__crt_win32_buffer@DU__crt_win32_buffer_internal_dynamic_resizing@@@@AEBV<lambda_d8593a27d1aa8c02be35c86a17d324c4>@@I@Z 0000000140043bdc f i libucrt:argv_wildcards.obj
 0001:00042d68       ??$__acrt_mbs_to_wcs_cp@U__crt_win32_buffer_internal_dynamic_resizing@@@@YAHQEBDAEAV?$__crt_win32_buffer@_WU__crt_win32_buffer_internal_dynamic_resizing@@@@I@Z 0000000140043d68 f i libucrt:argv_wildcards.obj
 0001:00042d78       ??$__acrt_wcs_to_mbs_cp@U__crt_win32_buffer_internal_dynamic_resizing@@@@YAHQEB_WAEAV?$__crt_win32_buffer@DU__crt_win32_buffer_internal_dynamic_resizing@@@@I@Z 0000000140043d78 f i libucrt:argv_wildcards.obj
 0001:00043ba8       ??$tcslen@AEBQEBD@?$__crt_char_traits@D@@SA_KAEBQEBD@Z 0000000140044ba8 f i libucrt:argv_wildcards.obj
 0001:00043bbc       ??$tcslen@AEBQEB_W@?$__crt_char_traits@_W@@SA_KAEBQEB_W@Z 0000000140044bbc f i libucrt:argv_wildcards.obj
 0001:00043bd0       ??$tcsncpy_s@AEAPEAD_KAEAPEADAEB_K@?$__crt_char_traits@D@@SAHAEAPEAD$$QEA_K0AEB_K@Z 0000000140044bd0 f i libucrt:argv_wildcards.obj
 0001:00043be4       ??$tcsncpy_s@AEAPEA_W_KAEAPEA_WAEB_K@?$__crt_char_traits@_W@@SAHAEAPEA_W$$QEA_K0AEB_K@Z 0000000140044be4 f i libucrt:argv_wildcards.obj
 0001:00043bf8       ??$tcsncpy_s@PEADAEB_KAEBQEBDAEB_K@?$__crt_char_traits@D@@SAH$$QEAPEADAEB_KAEBQEBD1@Z 0000000140044bf8 f i libucrt:argv_wildcards.obj
 0001:00043c0c       ??$tcsncpy_s@PEAD_KAEBQEBDAEB_K@?$__crt_char_traits@D@@SAH$$QEAPEAD$$QEA_KAEBQEBDAEB_K@Z 0000000140044c0c f i libucrt:argv_wildcards.obj
 0001:00043c20       ??$tcsncpy_s@PEA_WAEB_KAEBQEB_WAEB_K@?$__crt_char_traits@_W@@SAH$$QEAPEA_WAEB_KAEBQEB_W1@Z 0000000140044c20 f i libucrt:argv_wildcards.obj
 0001:00043c34       ??$tcsncpy_s@PEA_W_KAEBQEB_WAEB_K@?$__crt_char_traits@_W@@SAH$$QEAPEA_W$$QEA_KAEBQEB_WAEB_K@Z 0000000140044c34 f i libucrt:argv_wildcards.obj
 0001:00043c48       ??$tcspbrk@AEAPEADAEAY02$$CBD@?$__crt_char_traits@D@@SAPEADAEAPEADAEAY02$$CBD@Z 0000000140044c48 f i libucrt:argv_wildcards.obj
 0001:00043c50       ??$tcspbrk@AEAPEA_WAEAY02$$CB_W@?$__crt_char_traits@_W@@SAPEA_WAEAPEA_WAEAY02$$CB_W@Z 0000000140044c50 f i libucrt:argv_wildcards.obj
 0001:00043c58       ??0?$__crt_unique_handle_t@U__crt_findfile_traits@@@@QEAA@QEAX@Z 0000000140044c58 f i libucrt:argv_wildcards.obj
 0001:00043c60       ??0?$__crt_win32_buffer@DU__crt_win32_buffer_internal_dynamic_resizing@@@@QEAA@XZ 0000000140044c60 f i libucrt:argv_wildcards.obj
 0001:00043c7c       ??0?$__crt_win32_buffer@_WU__crt_win32_buffer_internal_dynamic_resizing@@@@QEAA@XZ 0000000140044c7c f i libucrt:argv_wildcards.obj
 0001:00043cc0       ??0_LocaleUpdate@@QEAA@QEAU__crt_locale_pointers@@@Z 0000000140044cc0 f i libucrt:argv_wildcards.obj
 0001:00043d5c       ??1?$__crt_unique_handle_t@U__crt_findfile_traits@@@@QEAA@XZ 0000000140044d5c f i libucrt:argv_wildcards.obj
 0001:00043d80       ??1?$__crt_win32_buffer@DU__crt_win32_buffer_internal_dynamic_resizing@@@@QEAA@XZ 0000000140044d80 f i libucrt:argv_wildcards.obj
 0001:00043da4       ??1?$__crt_win32_buffer@_WU__crt_win32_buffer_internal_dynamic_resizing@@@@QEAA@XZ 0000000140044da4 f i libucrt:argv_wildcards.obj
 0001:00043e40       ??1_LocaleUpdate@@QEAA@XZ  0000000140044e40 f i libucrt:argv_wildcards.obj
 0001:00043e64       ??R<lambda_7c9dea7b4ca7285d2cdb541a38da6275>@@QEBA@IQEBDQEA_W_K@Z 0000000140044e64 f i libucrt:argv_wildcards.obj
 0001:00043ef4       ??R<lambda_d8593a27d1aa8c02be35c86a17d324c4>@@QEBA@IQEB_WQEAD_K@Z 0000000140044ef4 f i libucrt:argv_wildcards.obj
 0001:00043f24       ?GetLocaleT@_LocaleUpdate@@QEAAPEAU__crt_locale_pointers@@XZ 0000000140044f24 f i libucrt:argv_wildcards.obj
 0001:00043f2c       ?__acrt_get_utf8_acp_compatibility_codepage@@YAIXZ 0000000140044f2c f i libucrt:argv_wildcards.obj
 0001:00043f78       ?_deallocate@?$__crt_win32_buffer@DU__crt_win32_buffer_internal_dynamic_resizing@@@@AEAAXXZ 0000000140044f78 f i libucrt:argv_wildcards.obj
 0001:00043f9c       ?_deallocate@?$__crt_win32_buffer@_WU__crt_win32_buffer_internal_dynamic_resizing@@@@AEAAXXZ 0000000140044f9c f i libucrt:argv_wildcards.obj
 0001:00043fc0       ?allocate@?$__crt_win32_buffer@DU__crt_win32_buffer_internal_dynamic_resizing@@@@QEAAH_K@Z 0000000140044fc0 f i libucrt:argv_wildcards.obj
 0001:00044024       ?allocate@?$__crt_win32_buffer@_WU__crt_win32_buffer_internal_dynamic_resizing@@@@QEAAH_K@Z 0000000140045024 f i libucrt:argv_wildcards.obj
 0001:00044088       ?allocate@__crt_win32_buffer_internal_dynamic_resizing@@SAHQEAPEAX_KAEBV__crt_win32_buffer_empty_debug_info@@@Z 0000000140045088 f i libucrt:argv_wildcards.obj
 0001:00044274       ?capacity@?$__crt_win32_buffer@DU__crt_win32_buffer_internal_dynamic_resizing@@@@QEBA_KXZ 0000000140045274 f i libucrt:argv_wildcards.obj
 0001:0004427c       ?capacity@?$__crt_win32_buffer@_WU__crt_win32_buffer_internal_dynamic_resizing@@@@QEBA_KXZ 000000014004527c f i libucrt:argv_wildcards.obj
 0001:00044284       ?close@?$__crt_unique_handle_t@U__crt_findfile_traits@@@@QEAAXXZ 0000000140045284 f i libucrt:argv_wildcards.obj
 0001:000442a8       ?close@__crt_findfile_traits@@SA_NPEAX@Z 00000001400452a8 f i libucrt:argv_wildcards.obj
 0001:000442bc       ?data@?$__crt_win32_buffer@DU__crt_win32_buffer_internal_dynamic_resizing@@@@QEAAPEADXZ 00000001400452bc f i libucrt:argv_wildcards.obj
 0001:000442c4       ?data@?$__crt_win32_buffer@_WU__crt_win32_buffer_internal_dynamic_resizing@@@@QEAAPEA_WXZ 00000001400452c4 f i libucrt:argv_wildcards.obj
 0001:000442cc       ?deallocate@__crt_win32_buffer_internal_dynamic_resizing@@SAXQEAXAEBV__crt_win32_buffer_empty_debug_info@@@Z 00000001400452cc f i libucrt:argv_wildcards.obj
 0001:000442d4       ?debug_info@?$__crt_win32_buffer@DU__crt_win32_buffer_internal_dynamic_resizing@@@@QEBAAEBV__crt_win32_buffer_empty_debug_info@@XZ 00000001400452d4 f i libucrt:argv_wildcards.obj
 0001:000442d8       ?debug_info@?$__crt_win32_buffer@_WU__crt_win32_buffer_internal_dynamic_resizing@@@@QEBAAEBV__crt_win32_buffer_empty_debug_info@@XZ 00000001400452d8 f i libucrt:argv_wildcards.obj
 0001:0004447c       ?get@?$__crt_unique_handle_t@U__crt_findfile_traits@@@@QEBAPEAXXZ 000000014004547c f i libucrt:argv_wildcards.obj
 0001:00044528       ?get_invalid_value@__crt_findfile_traits@@SAPEAXXZ 0000000140045528 f i libucrt:argv_wildcards.obj
 0001:000445e8       ?set_to_nullptr@?$__crt_win32_buffer@DU__crt_win32_buffer_internal_dynamic_resizing@@@@QEAAXXZ 00000001400455e8 f i libucrt:argv_wildcards.obj
 0001:00044624       ?set_to_nullptr@?$__crt_win32_buffer@_WU__crt_win32_buffer_internal_dynamic_resizing@@@@QEAAXXZ 0000000140045624 f i libucrt:argv_wildcards.obj
 0001:00044660       ?size@?$__crt_win32_buffer@DU__crt_win32_buffer_internal_dynamic_resizing@@@@QEAAX_K@Z 0000000140045660 f i libucrt:argv_wildcards.obj
 0001:00044668       ?size@?$__crt_win32_buffer@_WU__crt_win32_buffer_internal_dynamic_resizing@@@@QEAAX_K@Z 0000000140045668 f i libucrt:argv_wildcards.obj
 0001:00044688       ?strpbrk@@YAPEADQEADQEBD@Z 0000000140045688 f i libucrt:argv_wildcards.obj
 0001:00044690       ?wcspbrk@@YAPEA_WPEA_WPEB_W@Z 0000000140045690 f i libucrt:argv_wildcards.obj
 0001:00044698       __acrt_expand_narrow_argv_wildcards 0000000140045698 f   libucrt:argv_wildcards.obj
 0001:000446a0       __acrt_expand_wide_argv_wildcards 00000001400456a0 f   libucrt:argv_wildcards.obj
 0001:000446a8       ??$__acrt_convert_wcs_mbs_cp@_WDV<lambda_f788ae46380686e8b737efdd8c720d07>@@U__crt_win32_buffer_no_resizing@@@@YAHQEB_WAEAV?$__crt_win32_buffer@DU__crt_win32_buffer_no_resizing@@@@AEBV<lambda_f788ae46380686e8b737efdd8c720d07>@@I@Z 00000001400456a8 f i libucrt:getmodulefilenamea.obj
 0001:000447c4       ??$__acrt_wcs_to_mbs_cp@U__crt_win32_buffer_no_resizing@@@@YAHQEB_WAEAV?$__crt_win32_buffer@DU__crt_win32_buffer_no_resizing@@@@I@Z 00000001400457c4 f i libucrt:getmodulefilenamea.obj
 0001:000447d4       ??0?$__crt_win32_buffer@DU__crt_win32_buffer_no_resizing@@@@QEAA@QEAD_K@Z 00000001400457d4 f i libucrt:getmodulefilenamea.obj
 0001:000447f0       ??1?$__crt_win32_buffer@DU__crt_win32_buffer_no_resizing@@@@QEAA@XZ 00000001400457f0 f i libucrt:getmodulefilenamea.obj
 0001:000447fc       ??R<lambda_f788ae46380686e8b737efdd8c720d07>@@QEBA@IQEB_WQEAD_K@Z 00000001400457fc f i libucrt:getmodulefilenamea.obj
 0001:0004482c       ?_deallocate@?$__crt_win32_buffer@DU__crt_win32_buffer_no_resizing@@@@AEAAXXZ 000000014004582c f i libucrt:getmodulefilenamea.obj
 0001:00044838       ?allocate@?$__crt_win32_buffer@DU__crt_win32_buffer_no_resizing@@@@QEAAH_K@Z 0000000140045838 f i libucrt:getmodulefilenamea.obj
 0001:00044868       ?allocate@__crt_win32_buffer_no_resizing@@SAHQEAPEAX_KAEBV__crt_win32_buffer_empty_debug_info@@@Z 0000000140045868 f i libucrt:getmodulefilenamea.obj
 0001:00044880       ?capacity@?$__crt_win32_buffer@DU__crt_win32_buffer_no_resizing@@@@QEBA_KXZ 0000000140045880 f i libucrt:getmodulefilenamea.obj
 0001:00044888       ?data@?$__crt_win32_buffer@DU__crt_win32_buffer_no_resizing@@@@QEAAPEADXZ 0000000140045888 f i libucrt:getmodulefilenamea.obj
 0001:00044890       ?deallocate@__crt_win32_buffer_no_resizing@@SAXQEAXAEBV__crt_win32_buffer_empty_debug_info@@@Z 0000000140045890 f i libucrt:getmodulefilenamea.obj
 0001:00044894       ?debug_info@?$__crt_win32_buffer@DU__crt_win32_buffer_no_resizing@@@@QEBAAEBV__crt_win32_buffer_empty_debug_info@@XZ 0000000140045894 f i libucrt:getmodulefilenamea.obj
 0001:00044898       ?set_to_nullptr@?$__crt_win32_buffer@DU__crt_win32_buffer_no_resizing@@@@QEAAXXZ 0000000140045898 f i libucrt:getmodulefilenamea.obj
 0001:000448b0       ?size@?$__crt_win32_buffer@DU__crt_win32_buffer_no_resizing@@@@QEAAX_K@Z 00000001400458b0 f i libucrt:getmodulefilenamea.obj
 0001:000448b8       ?size@?$__crt_win32_buffer@DU__crt_win32_buffer_no_resizing@@@@QEBA_KXZ 00000001400458b8 f i libucrt:getmodulefilenamea.obj
 0001:000448c0       __acrt_GetModuleFileNameA  00000001400458c0 f   libucrt:getmodulefilenamea.obj
 0001:00044bdc       ??$initialize_from_array@$$BY10BAA@E@?$dual_state_global@PEAE@__crt_state_management@@QEAAXAEAY10BAA@E@Z 0000000140045bdc f i libucrt:mbctype.obj
 0001:00044be0       ??$initialize_from_array@$$BY10BAB@E@?$dual_state_global@PEAE@__crt_state_management@@QEAAXAEAY10BAB@E@Z 0000000140045be0 f i libucrt:mbctype.obj
 0001:00044dec       ?dangerous_get_state_array@?$dual_state_global@PEAE@__crt_state_management@@QEAAPEAPEAEXZ 0000000140045dec f i libucrt:mbctype.obj
 0001:00044df0       ?dangerous_get_state_array@?$dual_state_global@PEAU__crt_multibyte_data@@@__crt_state_management@@QEAAPEAPEAU__crt_multibyte_data@@XZ 0000000140045df0 f i libucrt:mbctype.obj
 0001:00044e74       ?initialize@?$dual_state_global@PEAU__crt_multibyte_data@@@__crt_state_management@@QEAAXQEAU__crt_multibyte_data@@@Z 0000000140045e74 f i libucrt:mbctype.obj
 0001:0004542c       ?value@?$dual_state_global@PEAE@__crt_state_management@@QEAAAEAPEAEXZ 000000014004642c f i libucrt:mbctype.obj
 0001:00045430       __acrt_initialize_multibyte 0000000140046430 f   libucrt:mbctype.obj
 0001:00045490       __acrt_update_thread_multibyte_data 0000000140046490 f   libucrt:mbctype.obj
 0001:000454ac       __p__mbcasemap             00000001400464ac f   libucrt:mbctype.obj
 0001:000454b4       __p__mbctype               00000001400464b4 f   libucrt:mbctype.obj
 0001:000454bc       _getmbcp                   00000001400464bc f   libucrt:mbctype.obj
 0001:000454f8       _setmbcp                   00000001400464f8 f   libucrt:mbctype.obj
 0001:00045520       _setmbcp_nolock            0000000140046520 f   libucrt:mbctype.obj
 0001:000458dc       _ismbbalnum                00000001400468dc f   libucrt:ismbbyte.obj
 0001:000458f4       _ismbbalnum_l              00000001400468f4 f   libucrt:ismbbyte.obj
 0001:00045910       _ismbbalpha                0000000140046910 f   libucrt:ismbbyte.obj
 0001:00045928       _ismbbalpha_l              0000000140046928 f   libucrt:ismbbyte.obj
 0001:00045944       _ismbbblank                0000000140046944 f   libucrt:ismbbyte.obj
 0001:00045960       _ismbbblank_l              0000000140046960 f   libucrt:ismbbyte.obj
 0001:00045980       _ismbbgraph                0000000140046980 f   libucrt:ismbbyte.obj
 0001:00045998       _ismbbgraph_l              0000000140046998 f   libucrt:ismbbyte.obj
 0001:000459b4       _ismbbkalnum               00000001400469b4 f   libucrt:ismbbyte.obj
 0001:000459c8       _ismbbkalnum_l             00000001400469c8 f   libucrt:ismbbyte.obj
 0001:000459e0       _ismbbkana                 00000001400469e0 f   libucrt:ismbbyte.obj
 0001:000459e8       _ismbbkana_l               00000001400469e8 f   libucrt:ismbbyte.obj
 0001:00045a50       _ismbbkprint               0000000140046a50 f   libucrt:ismbbyte.obj
 0001:00045a64       _ismbbkprint_l             0000000140046a64 f   libucrt:ismbbyte.obj
 0001:00045a7c       _ismbbkpunct               0000000140046a7c f   libucrt:ismbbyte.obj
 0001:00045a90       _ismbbkpunct_l             0000000140046a90 f   libucrt:ismbbyte.obj
 0001:00045aa8       _ismbblead                 0000000140046aa8 f   libucrt:ismbbyte.obj
 0001:00045abc       _ismbblead_l               0000000140046abc f   libucrt:ismbbyte.obj
 0001:00045ad4       _ismbbprint                0000000140046ad4 f   libucrt:ismbbyte.obj
 0001:00045aec       _ismbbprint_l              0000000140046aec f   libucrt:ismbbyte.obj
 0001:00045b08       _ismbbpunct                0000000140046b08 f   libucrt:ismbbyte.obj
 0001:00045b1c       _ismbbpunct_l              0000000140046b1c f   libucrt:ismbbyte.obj
 0001:00045b34       _ismbbtrail                0000000140046b34 f   libucrt:ismbbyte.obj
 0001:00045b48       _ismbbtrail_l              0000000140046b48 f   libucrt:ismbbyte.obj
 0001:00045bec       __acrt_MultiByteToWideChar 0000000140046bec f   libucrt:multibytetowidechar.obj
 0001:00045d04       __acrt_WideCharToMultiByte 0000000140046d04 f   libucrt:widechartomultibyte.obj
 0001:00045e84       __dcrt_get_narrow_environment_from_os 0000000140046e84 f   libucrt:get_environment_from_os.obj
 0001:00045f94       __dcrt_get_wide_environment_from_os 0000000140046f94 f   libucrt:get_environment_from_os.obj
 0001:00046a2c       ??$get_or_create_environment_nolock@$$V@?$__crt_char_traits@D@@SAPEAPEADXZ 0000000140047a2c f i libucrt:setenv.obj
 0001:00046a34       ??$get_or_create_environment_nolock@$$V@?$__crt_char_traits@_W@@SAPEAPEA_WXZ 0000000140047a34 f i libucrt:setenv.obj
 0001:00046a3c       ??$set_environment_variable@AEBQEADQEAD@?$__crt_char_traits@D@@SAHAEBQEAD$$QEBQEAD@Z 0000000140047a3c f i libucrt:setenv.obj
 0001:00046a48       ??$set_environment_variable@AEBQEA_WQEA_W@?$__crt_char_traits@_W@@SAHAEBQEA_W$$QEBQEA_W@Z 0000000140047a48 f i libucrt:setenv.obj
 0001:00046a58       ??$tcschr@AEBQEADD@?$__crt_char_traits@D@@SAPEADAEBQEAD$$QEAD@Z 0000000140047a58 f i libucrt:setenv.obj
 0001:00046a64       ??$tcschr@AEBQEA_WD@?$__crt_char_traits@_W@@SAPEA_WAEBQEA_W$$QEAD@Z 0000000140047a64 f i libucrt:setenv.obj
 0001:00046a70       ??$tcscpy_s@AEAPEADAEB_KAEAPEAD@?$__crt_char_traits@D@@SAHAEAPEADAEB_K0@Z 0000000140047a70 f i libucrt:setenv.obj
 0001:00046a80       ??$tcscpy_s@AEAPEA_WAEB_KAEAPEA_W@?$__crt_char_traits@_W@@SAHAEAPEA_WAEB_K0@Z 0000000140047a80 f i libucrt:setenv.obj
 0001:00046a90       ??$tcscpy_s@AEBQEADAEB_KAEBQEAD@?$__crt_char_traits@D@@SAHAEBQEADAEB_K0@Z 0000000140047a90 f i libucrt:setenv.obj
 0001:00046aa0       ??$tcscpy_s@AEBQEA_WAEB_KAEBQEA_W@?$__crt_char_traits@_W@@SAHAEBQEA_WAEB_K0@Z 0000000140047aa0 f i libucrt:setenv.obj
 0001:00046ab0       ??$tcslen@AEBQEAD@?$__crt_char_traits@D@@SA_KAEBQEAD@Z 0000000140047ab0 f i libucrt:setenv.obj
 0001:00046ac4       ??$tcslen@AEBQEA_W@?$__crt_char_traits@_W@@SA_KAEBQEA_W@Z 0000000140047ac4 f i libucrt:setenv.obj
 0001:00046ad8       ??$tcsnicoll@AEBQEBDAEAPEADAEB_K@?$__crt_char_traits@D@@SAHAEBQEBDAEAPEADAEB_K@Z 0000000140047ad8 f i libucrt:setenv.obj
 0001:00046ae8       ??$tcsnicoll@AEBQEB_WAEAPEA_WAEB_K@?$__crt_char_traits@_W@@SAHAEBQEB_WAEAPEA_WAEB_K@Z 0000000140047ae8 f i libucrt:setenv.obj
 0001:00046b28       ?strchr@@YAPEADQEADH@Z     0000000140047b28 f i libucrt:setenv.obj
 0001:00046b30       ?wcschr@@YAPEA_WPEA_W_W@Z  0000000140047b30 f i libucrt:setenv.obj
 0001:00046b38       __dcrt_set_variable_in_narrow_environment_nolock 0000000140047b38 f   libucrt:setenv.obj
 0001:00046b40       __dcrt_set_variable_in_wide_environment_nolock 0000000140047b40 f   libucrt:setenv.obj
 0001:00046b48       __acrt_initialize_locks    0000000140047b48 f   libucrt:locks.obj
 0001:00046b90       __acrt_lock                0000000140047b90 f   libucrt:locks.obj
 0001:00046bac       __acrt_uninitialize_locks  0000000140047bac f   libucrt:locks.obj
 0001:00046be4       __acrt_unlock              0000000140047be4 f   libucrt:locks.obj
 0001:00046c00       _lock_locales              0000000140047c00 f   libucrt:locks.obj
 0001:00046c1c       _unlock_locales            0000000140047c1c f   libucrt:locks.obj
 0001:00046c2c       __acrt_app_verifier_enabled 0000000140047c2c f   libucrt:peb_access.obj
 0001:00046c48       __acrt_is_secure_process   0000000140047c48 f   libucrt:peb_access.obj
 0001:00046dec       __acrt_get_begin_thread_init_policy 0000000140047dec f   libucrt:win_policies.obj
 0001:00046e2c       __acrt_get_developer_information_policy 0000000140047e2c f   libucrt:win_policies.obj
 0001:00046e70       __acrt_get_process_end_policy 0000000140047e70 f   libucrt:win_policies.obj
 0001:00046ea0       __acrt_get_windowing_model_policy 0000000140047ea0 f   libucrt:win_policies.obj
 0001:00046f08       ??$?RU__crt_lowio_handle_data@@@__crt_internal_free_policy@@QEBAXQEBU__crt_lowio_handle_data@@@Z 0000000140047f08 f i libucrt:osfinfo.obj
 0001:00046f10       ??0?$__crt_unique_heap_ptr@U__crt_lowio_handle_data@@U__crt_internal_free_policy@@@@QEAA@QEAU__crt_lowio_handle_data@@@Z 0000000140047f10 f i libucrt:osfinfo.obj
 0001:00046f18       ??1?$__crt_unique_heap_ptr@U__crt_lowio_handle_data@@U__crt_internal_free_policy@@@@QEAA@XZ 0000000140047f18 f i libucrt:osfinfo.obj
 0001:00046f34       ??B?$__crt_unique_heap_ptr@U__crt_lowio_handle_data@@U__crt_internal_free_policy@@@@QEBA_NXZ 0000000140047f34 f i libucrt:osfinfo.obj
 0001:00046f3c       ?detach@?$__crt_unique_heap_ptr@U__crt_lowio_handle_data@@U__crt_internal_free_policy@@@@QEAAPEAU__crt_lowio_handle_data@@XZ 0000000140047f3c f i libucrt:osfinfo.obj
 0001:00046f44       ?get@?$__crt_unique_heap_ptr@U__crt_lowio_handle_data@@U__crt_internal_free_policy@@@@QEBAPEAU__crt_lowio_handle_data@@XZ 0000000140047f44 f i libucrt:osfinfo.obj
 0001:00046f48       ?is_valid@?$__crt_unique_heap_ptr@U__crt_lowio_handle_data@@U__crt_internal_free_policy@@@@QEBA_NXZ 0000000140047f48 f i libucrt:osfinfo.obj
 0001:00046f50       ?release@?$__crt_unique_heap_ptr@U__crt_lowio_handle_data@@U__crt_internal_free_policy@@@@QEAAXXZ 0000000140047f50 f i libucrt:osfinfo.obj
 0001:00046f6c       __acrt_lowio_create_handle_array 0000000140047f6c f   libucrt:osfinfo.obj
 0001:00047014       __acrt_lowio_destroy_handle_array 0000000140048014 f   libucrt:osfinfo.obj
 0001:00047064       __acrt_lowio_ensure_fh_exists 0000000140048064 f   libucrt:osfinfo.obj
 0001:0004710c       __acrt_lowio_lock_fh       000000014004810c f   libucrt:osfinfo.obj
 0001:00047134       __acrt_lowio_set_os_handle 0000000140048134 f   libucrt:osfinfo.obj
 0001:000471f4       __acrt_lowio_unlock_fh     00000001400481f4 f   libucrt:osfinfo.obj
 0001:0004721c       _alloc_osfhnd              000000014004821c f   libucrt:osfinfo.obj
 0001:0004735c       _free_osfhnd               000000014004835c f   libucrt:osfinfo.obj
 0001:00047418       _get_osfhandle             0000000140048418 f   libucrt:osfinfo.obj
 0001:00047490       _open_osfhandle            0000000140048490 f   libucrt:osfinfo.obj
 0001:00047590       ?dangerous_get_state_array@?$dual_state_global@H@__crt_state_management@@QEAAPEAHXZ 0000000140048590 f i libucrt:txtmode.obj
 0001:00047594       __acrt_initialize_fmode    0000000140048594 f   libucrt:txtmode.obj
 0001:000475b0       __p__fmode                 00000001400485b0 f   libucrt:txtmode.obj
 0001:000475b8       ??$?RG@__crt_internal_free_policy@@QEBAXQEBG@Z 00000001400485b8 f i libucrt:initctype.obj
 0001:000475c0       ??$?RJ@__crt_internal_free_policy@@QEBAXQEBJ@Z 00000001400485c0 f i libucrt:initctype.obj
 0001:000475c8       ??0?$__crt_unique_heap_ptr@GU__crt_internal_free_policy@@@@QEAA@QEAG@Z 00000001400485c8 f i libucrt:initctype.obj
 0001:000475d0       ??0?$__crt_unique_heap_ptr@JU__crt_internal_free_policy@@@@QEAA@QEAJ@Z 00000001400485d0 f i libucrt:initctype.obj
 0001:000475d8       ??1?$__crt_unique_heap_ptr@GU__crt_internal_free_policy@@@@QEAA@XZ 00000001400485d8 f i libucrt:initctype.obj
 0001:000475f4       ??1?$__crt_unique_heap_ptr@JU__crt_internal_free_policy@@@@QEAA@XZ 00000001400485f4 f i libucrt:initctype.obj
 0001:00047610       ?detach@?$__crt_unique_heap_ptr@GU__crt_internal_free_policy@@@@QEAAPEAGXZ 0000000140048610 f i libucrt:initctype.obj
 0001:00047618       ?detach@?$__crt_unique_heap_ptr@JU__crt_internal_free_policy@@@@QEAAPEAJXZ 0000000140048618 f i libucrt:initctype.obj
 0001:00047620       ?release@?$__crt_unique_heap_ptr@GU__crt_internal_free_policy@@@@QEAAXXZ 0000000140048620 f i libucrt:initctype.obj
 0001:0004763c       ?release@?$__crt_unique_heap_ptr@JU__crt_internal_free_policy@@@@QEAAXXZ 000000014004863c f i libucrt:initctype.obj
 0001:00047658       ___lc_codepage_func        0000000140048658 f   libucrt:initctype.obj
 0001:00047688       ___lc_collate_cp_func      0000000140048688 f   libucrt:initctype.obj
 0001:000476b8       ___lc_locale_name_func     00000001400486b8 f   libucrt:initctype.obj
 0001:000476ec       ___mb_cur_max_func         00000001400486ec f   libucrt:initctype.obj
 0001:0004771c       ___mb_cur_max_l_func       000000014004871c f   libucrt:initctype.obj
 0001:0004772c       __acrt_locale_initialize_ctype 000000014004872c f   libucrt:initctype.obj
 0001:00047d90       ??$?RUlconv@@@__crt_internal_free_policy@@QEBAXQEBUlconv@@@Z 0000000140048d90 f i libucrt:initmon.obj
 0001:00047d98       ??0?$__crt_unique_heap_ptr@Ulconv@@U__crt_internal_free_policy@@@@QEAA@QEAUlconv@@@Z 0000000140048d98 f i libucrt:initmon.obj
 0001:00047da0       ??1?$__crt_unique_heap_ptr@Ulconv@@U__crt_internal_free_policy@@@@QEAA@XZ 0000000140048da0 f i libucrt:initmon.obj
 0001:00047dbc       ?detach@?$__crt_unique_heap_ptr@Ulconv@@U__crt_internal_free_policy@@@@QEAAPEAUlconv@@XZ 0000000140048dbc f i libucrt:initmon.obj
 0001:00047dc4       ?release@?$__crt_unique_heap_ptr@Ulconv@@U__crt_internal_free_policy@@@@QEAAXXZ 0000000140048dc4 f i libucrt:initmon.obj
 0001:00047de0       __acrt_locale_free_monetary 0000000140048de0 f   libucrt:initmon.obj
 0001:00047eec       __acrt_locale_initialize_monetary 0000000140048eec f   libucrt:initmon.obj
 0001:0004843c       __acrt_locale_free_numeric 000000014004943c f   libucrt:initnum.obj
 0001:000484a8       __acrt_locale_initialize_numeric 00000001400494a8 f   libucrt:initnum.obj
 0001:000487c4       ??$?RU__crt_lc_time_data@@@__crt_internal_free_policy@@QEBAXQEBU__crt_lc_time_data@@@Z 00000001400497c4 f i libucrt:inittime.obj
 0001:00048814       ??0?$__crt_unique_heap_ptr@U__crt_lc_time_data@@U__crt_internal_free_policy@@@@QEAA@QEAU__crt_lc_time_data@@@Z 0000000140049814 f i libucrt:inittime.obj
 0001:0004881c       ??1?$__crt_unique_heap_ptr@U__crt_lc_time_data@@U__crt_internal_free_policy@@@@QEAA@XZ 000000014004981c f i libucrt:inittime.obj
 0001:00048838       ??B?$__crt_unique_heap_ptr@U__crt_lc_time_data@@U__crt_internal_free_policy@@@@QEBA_NXZ 0000000140049838 f i libucrt:inittime.obj
 0001:00048840       ?detach@?$__crt_unique_heap_ptr@U__crt_lc_time_data@@U__crt_internal_free_policy@@@@QEAAPEAU__crt_lc_time_data@@XZ 0000000140049840 f i libucrt:inittime.obj
 0001:0004887c       ?get@?$__crt_unique_heap_ptr@U__crt_lc_time_data@@U__crt_internal_free_policy@@@@QEBAPEAU__crt_lc_time_data@@XZ 000000014004987c f i libucrt:inittime.obj
 0001:00048c40       ?is_valid@?$__crt_unique_heap_ptr@U__crt_lc_time_data@@U__crt_internal_free_policy@@@@QEBA_NXZ 0000000140049c40 f i libucrt:inittime.obj
 0001:00048c48       ?release@?$__crt_unique_heap_ptr@U__crt_lc_time_data@@U__crt_internal_free_policy@@@@QEAAXXZ 0000000140049c48 f i libucrt:inittime.obj
 0001:00048c64       __acrt_locale_free_time    0000000140049c64 f   libucrt:inittime.obj
 0001:00048d6c       __acrt_locale_initialize_time 0000000140049d6c f   libucrt:inittime.obj
 0001:00048e08       __pctype_func              0000000140049e08 f   libucrt:ctype.obj
 0001:00048e38       __pwctype_func             0000000140049e38 f   libucrt:ctype.obj
 0001:00048f38       wcsncat_s                  0000000140049f38 f   libucrt:wcsncat_s.obj
 0001:00049030       wcscspn                    000000014004a030 f   libucrt:wcscspn.obj
 0001:00049070       wcspbrk                    000000014004a070 f   libucrt:wcspbrk.obj
 0001:000490a4       ??0?$__crt_scoped_stack_ptr@_W@@QEAA@U?$__crt_scoped_stack_ptr_tag@_W@@@Z 000000014004a0a4 f i libucrt:getstringtypea.obj
 0001:000490ac       ??0?$__crt_scoped_stack_ptr_tag@_W@@QEAA@QEA_W@Z 000000014004a0ac f i libucrt:getstringtypea.obj
 0001:000490b4       ??1?$__crt_scoped_stack_ptr@_W@@QEAA@XZ 000000014004a0b4 f i libucrt:getstringtypea.obj
 0001:000490d8       ?get@?$__crt_scoped_stack_ptr@_W@@QEBAPEA_WXZ 000000014004a0d8 f i libucrt:getstringtypea.obj
 0001:000490dc       _MallocaComputeSize        000000014004a0dc f i libucrt:getstringtypea.obj
 0001:000490ec       _MarkAllocaS               000000014004a0ec f i libucrt:getstringtypea.obj
 0001:000490fc       __acrt_GetStringTypeA      000000014004a0fc f   libucrt:getstringtypea.obj
 0001:0004928c       _freea_crt                 000000014004a28c f i libucrt:getstringtypea.obj
 0001:000492ac       __acrt_add_locale_ref      000000014004a2ac f   libucrt:locale_refcounting.obj
 0001:00049338       __acrt_free_locale         000000014004a338 f   libucrt:locale_refcounting.obj
 0001:000494b0       __acrt_locale_add_lc_time_reference 000000014004a4b0 f   libucrt:locale_refcounting.obj
 0001:000494d8       __acrt_locale_free_lc_time_if_unreferenced 000000014004a4d8 f   libucrt:locale_refcounting.obj
 0001:00049510       __acrt_locale_release_lc_time_reference 000000014004a510 f   libucrt:locale_refcounting.obj
 0001:00049538       __acrt_release_locale_ref  000000014004a538 f   libucrt:locale_refcounting.obj
 0001:000495e0       __acrt_update_thread_locale_data 000000014004a5e0 f   libucrt:locale_refcounting.obj
 0001:00049650       _updatetlocinfoEx_nolock   000000014004a650 f   libucrt:locale_refcounting.obj
 0001:00049f04       __acrt_get_qualified_locale 000000014004af04 f   libucrt:get_qualified_locale.obj
 0001:0004aa1c       __acrt_get_qualified_locale_downlevel 000000014004ba1c f   libucrt:getqloc_downlevel.obj
 0001:0004ac9c       localeconv                 000000014004bc9c f   libucrt:localeconv.obj
 0001:0004acd0       _recalloc                  000000014004bcd0 f   libucrt:recalloc.obj
 0001:0004acd8       _recalloc_base             000000014004bcd8 f   libucrt:recalloc.obj
 0001:0004ad70       __acrt_getheap             000000014004bd70 f   libucrt:heap_handle.obj
 0001:0004ad78       __acrt_initialize_heap     000000014004bd78 f   libucrt:heap_handle.obj
 0001:0004ad94       __acrt_uninitialize_heap   000000014004bd94 f   libucrt:heap_handle.obj
 0001:0004ada0       _get_heap_handle           000000014004bda0 f   libucrt:heap_handle.obj
 0001:0004ada8       __acrt_execute_initializers 000000014004bda8 f   libucrt:shared_initialization.obj
 0001:0004ae3c       __acrt_execute_uninitializers 000000014004be3c f   libucrt:shared_initialization.obj
 0001:0004ae84       ??$?B$$A6AH_K@Z@__crt_fast_encoded_nullptr_t@@QEBAP6AH_K@ZXZ 000000014004be84 f i libucrt:new_handler.obj
 0001:0004ae8c       ??$__crt_fast_decode_pointer@P6AH_K@Z@@YAP6AH_K@ZQ6AH0@Z@Z 000000014004be8c f i libucrt:new_handler.obj
 0001:0004aea4       ??$__crt_fast_encode_pointer@P6AH_K@Z@@YAP6AH_K@ZQ6AH0@Z@Z 000000014004bea4 f i libucrt:new_handler.obj
 0001:0004aec4       ?_set_new_handler@@YAP6AH_K@ZH@Z 000000014004bec4 f   libucrt:new_handler.obj
 0001:0004aed0       ?initialize@?$dual_state_global@P6AH_K@Z@__crt_state_management@@QEAAXQ6AH_K@Z@Z 000000014004bed0 f i libucrt:new_handler.obj
 0001:0004aee0       ?value@?$dual_state_global@P6AH_K@Z@__crt_state_management@@QEAAAEAP6AH_K@ZXZ 000000014004bee0 f i libucrt:new_handler.obj
 0001:0004aee4       __acrt_initialize_new_handler 000000014004bee4 f   libucrt:new_handler.obj
 0001:0004aeec       _callnewh                  000000014004beec f   libucrt:new_handler.obj
 0001:0004af2c       _query_new_handler         000000014004bf2c f   libucrt:new_handler.obj
 0001:0004af64       _set_new_handler           000000014004bf64 f   libucrt:new_handler.obj
 0001:0004afc0       ??$?B$$A6AXH@Z@__crt_fast_encoded_nullptr_t@@QEBAP6AXH@ZXZ 000000014004bfc0 f i libucrt:signal.obj
 0001:0004b038       ??$__crt_fast_decode_pointer@P6AXH@Z@@YAP6AXH@ZQ6AXH@Z@Z 000000014004c038 f i libucrt:signal.obj
 0001:0004b050       ??$__crt_fast_encode_pointer@P6AXH@Z@@YAP6AXH@ZQ6AXH@Z@Z 000000014004c050 f i libucrt:signal.obj
 0001:0004b184       ?initialize@?$dual_state_global@P6AXH@Z@__crt_state_management@@QEAAXQ6AXH@Z@Z 000000014004c184 f i libucrt:signal.obj
 0001:0004b214       ?value@?$dual_state_global@P6AXH@Z@__crt_state_management@@QEAAAEAP6AXH@ZXZ 000000014004c214 f i libucrt:signal.obj
 0001:0004b218       __acrt_get_sigabrt_handler 000000014004c218 f   libucrt:signal.obj
 0001:0004b248       __acrt_initialize_signal_handlers 000000014004c248 f   libucrt:signal.obj
 0001:0004b268       __fpecode                  000000014004c268 f   libucrt:signal.obj
 0001:0004b27c       __pxcptinfoptrs            000000014004c27c f   libucrt:signal.obj
 0001:0004b290       raise                      000000014004c290 f   libucrt:signal.obj
 0001:0004b50c       signal                     000000014004c50c f   libucrt:signal.obj
 0001:0004b6d0       _iswctype_l                000000014004c6d0 f   libucrt:iswctype.obj
 0001:0004b6d8       iswctype                   000000014004c6d8 f   libucrt:iswctype.obj
 0001:0004b744       _isctype                   000000014004c744 f   libucrt:isctype.obj
 0001:0004b774       _isctype_l                 000000014004c774 f   libucrt:isctype.obj
 0001:0004b94c       __acrt_DownlevelLCIDToLocaleName 000000014004c94c f   libucrt:lcidtoname_downlevel.obj
 0001:0004ba34       __acrt_DownlevelLocaleNameToLCID 000000014004ca34 f   libucrt:lcidtoname_downlevel.obj
 0001:0004bbfc       _fclose_nolock             000000014004cbfc f   libucrt:fclose.obj
 0001:0004bc94       fclose                     000000014004cc94 f   libucrt:fclose.obj
 0001:0004be70       _commit                    000000014004ce70 f   libucrt:commit.obj
 0001:0004c8b0       _utf8_no_of_trailbytes     000000014004d8b0 f i libucrt:write.obj
 0001:0004c8c0       _write                     000000014004d8c0 f   libucrt:write.obj
 0001:0004c958       _write_internal            000000014004d958 f   libucrt:write.obj
 0001:0004ca78       _write_nolock              000000014004da78 f   libucrt:write.obj
 0001:0004ce68       __acrt_fp_strflt_to_string 000000014004de68 f   libucrt:_fptostr.obj
 0001:0004e0c0       ??0big_integer@__crt_strtox@@QEAA@AEBU01@@Z 000000014004f0c0 f i libucrt:cfout.obj
 0001:0004e0f0       ??0big_integer@__crt_strtox@@QEAA@XZ 000000014004f0f0 f i libucrt:cfout.obj
 0001:0004e1a0       ??4big_integer@__crt_strtox@@QEAAAEAU01@AEBU01@@Z 000000014004f1a0 f i libucrt:cfout.obj
 0001:0004e1d0       ??8__crt_strtox@@YA_NAEBUbig_integer@0@0@Z 000000014004f1d0 f i libucrt:cfout.obj
 0001:0004e200       ??9__crt_strtox@@YA_NAEBUbig_integer@0@0@Z 000000014004f200 f i libucrt:cfout.obj
 0001:0004e240       ?add_carry@__crt_strtox@@YAIAEAIII@Z 000000014004f240 f i libucrt:cfout.obj
 0001:0004e260       ?add_multiply_carry@__crt_strtox@@YAIAEAIIII@Z 000000014004f260 f i libucrt:cfout.obj
 0001:0004e280       ?bit_scan_reverse@__crt_strtox@@YAII@Z 000000014004f280 f i libucrt:cfout.obj
 0001:0004e2a0       ?count_sequential_high_zeroes@__crt_strtox@@YAII@Z 000000014004f2a0 f i libucrt:cfout.obj
 0001:0004e2c0       ?divide@__crt_strtox@@YA_KAEAUbig_integer@1@AEBU21@@Z 000000014004f2c0 f i libucrt:cfout.obj
 0001:0004e760       ?is_zero@__crt_strtox@@YA_NAEBUbig_integer@1@@Z 000000014004f760 f i libucrt:cfout.obj
 0001:0004e770       ?make_big_integer@__crt_strtox@@YA?AUbig_integer@1@_K@Z 000000014004f770 f i libucrt:cfout.obj
 0001:0004e790       ?make_big_integer_power_of_two@__crt_strtox@@YA?AUbig_integer@1@I@Z 000000014004f790 f i libucrt:cfout.obj
 0001:0004e800       ?multiply@__crt_strtox@@YA_NAEAUbig_integer@1@AEBU21@@Z 000000014004f800 f i libucrt:cfout.obj
 0001:0004eba0       ?multiply@__crt_strtox@@YA_NAEAUbig_integer@1@I@Z 000000014004fba0 f i libucrt:cfout.obj
 0001:0004ec90       ?multiply_64_32@__crt_strtox@@YA_K_KI@Z 000000014004fc90 f i libucrt:cfout.obj
 0001:0004eca0       ?multiply_by_power_of_ten@__crt_strtox@@YA_NAEAUbig_integer@1@I@Z 000000014004fca0 f i libucrt:cfout.obj
 0001:0004f210       ?multiply_core@__crt_strtox@@YAIQEAIII@Z 0000000140050210 f i libucrt:cfout.obj
 0001:0004f260       ?shift_left@__crt_strtox@@YA_NAEAUbig_integer@1@I@Z 0000000140050260 f i libucrt:cfout.obj
 0001:0004f3dc       __acrt_fltout              00000001400503dc f   libucrt:cfout.obj
 0001:000506f4       __fpe_flt_rounds           00000001400516f4 f   libucrt:fegetround.obj
 0001:0005073c       fegetround                 000000014005173c f   libucrt:fegetround.obj
 0001:00050750       ?__c32rtomb_utf8@__crt_mbstring@@YA_KPEAD_UPEAU_Mbstatet@@AEAV__crt_cached_ptd_host@@@Z 0000000140051750 f   libucrt:c32rtomb.obj
 0001:000507f4       c32rtomb                   00000001400517f4 f   libucrt:c32rtomb.obj
 0001:000508b8       ?__mbrtowc_utf8@__crt_mbstring@@YA_KPEA_WPEBD_KPEAU_Mbstatet@@AEAV__crt_cached_ptd_host@@@Z 00000001400518b8 f   libucrt:mbrtowc.obj
 0001:000508fc       ?__mbsrtowcs_utf8@__crt_mbstring@@YA_KPEA_WPEAPEBD_KPEAU_Mbstatet@@AEAV__crt_cached_ptd_host@@@Z 00000001400518fc f   libucrt:mbrtowc.obj
 0001:00050f2c       btowc                      0000000140051f2c f   libucrt:mbrtowc.obj
 0001:00051004       mbrlen                     0000000140052004 f   libucrt:mbrtowc.obj
 0001:000510cc       mbrtowc                    00000001400520cc f   libucrt:mbrtowc.obj
 0001:000511b4       mbsrtowcs                  00000001400521b4 f   libucrt:mbrtowc.obj
 0001:00051258       mbsrtowcs_s                0000000140052258 f   libucrt:mbrtowc.obj
 0001:00051744       ?has_big_buffer@__crt_stdio_stream@@QEBA_NXZ 0000000140052744 f i libucrt:_flsbuf.obj
 0001:000517d0       __acrt_stdio_flush_and_write_narrow_nolock 00000001400527d0 f   libucrt:_flsbuf.obj
 0001:0005189c       __acrt_stdio_flush_and_write_wide_nolock 000000014005289c f   libucrt:_flsbuf.obj
 0001:00051968       _isatty                    0000000140052968 f   libucrt:isatty.obj
 0001:000519c8       __acrt_OutputDebugStringA  00000001400529c8 f   libucrt:outputdebugstringa.obj
 0001:00051b70       qsort                      0000000140052b70 f   libucrt:qsort.obj
 0001:00052060       strncpy_s                  0000000140053060 f   libucrt:strncpy_s.obj
 0001:000521f0       strpbrk                    00000001400531f0 f   libucrt:strpbrk.obj
 0001:000525b8       _mbsdec                    00000001400535b8 f   libucrt:mbsdec.obj
 0001:000525c0       _mbsdec_l                  00000001400535c0 f   libucrt:mbsdec.obj
 0001:00052654       ??B?$__crt_scoped_stack_ptr@_W@@QEBA_NXZ 0000000140053654 f i libucrt:lcmapstringa.obj
 0001:00052990       __acrt_LCMapStringA        0000000140053990 f   libucrt:lcmapstringa.obj
 0001:00052a40       _wcsnicoll                 0000000140053a40 f   libucrt:wcsnicol.obj
 0001:00052a90       _wcsnicoll_l               0000000140053a90 f   libucrt:wcsnicol.obj
 0001:00052b80       _strnicoll                 0000000140053b80 f   libucrt:strnicol.obj
 0001:00052b98       _strnicoll_l               0000000140053b98 f   libucrt:strnicol.obj
 0001:00052c98       __acrt_SetEnvironmentVariableA 0000000140053c98 f   libucrt:setenvironmentvariablea.obj
 0001:00052fb4       __acrt_GetLocaleInfoA      0000000140053fb4 f   libucrt:getlocaleinfoa.obj
 0001:000536a4       _i64toa                    00000001400546a4 f   libucrt:xtoa.obj
 0001:000536d8       _i64toa_s                  00000001400546d8 f   libucrt:xtoa.obj
 0001:000536fc       _i64tow                    00000001400546fc f   libucrt:xtoa.obj
 0001:00053730       _i64tow_s                  0000000140054730 f   libucrt:xtoa.obj
 0001:00053754       _itoa                      0000000140054754 f   libucrt:xtoa.obj
 0001:00053784       _itoa_s                    0000000140054784 f   libucrt:xtoa.obj
 0001:000537a4       _itow                      00000001400547a4 f   libucrt:xtoa.obj
 0001:000537d4       _itow_s                    00000001400547d4 f   libucrt:xtoa.obj
 0001:000537f4       _ltoa                      00000001400547f4 f   libucrt:xtoa.obj
 0001:00053824       _ltoa_s                    0000000140054824 f   libucrt:xtoa.obj
 0001:00053844       _ltow                      0000000140054844 f   libucrt:xtoa.obj
 0001:00053874       _ltow_s                    0000000140054874 f   libucrt:xtoa.obj
 0001:00053894       _ui64toa                   0000000140054894 f   libucrt:xtoa.obj
 0001:000538b8       _ui64toa_s                 00000001400548b8 f   libucrt:xtoa.obj
 0001:000538cc       _ui64tow                   00000001400548cc f   libucrt:xtoa.obj
 0001:000538f0       _ui64tow_s                 00000001400548f0 f   libucrt:xtoa.obj
 0001:00053904       _ultoa                     0000000140054904 f   libucrt:xtoa.obj
 0001:00053928       _ultoa_s                   0000000140054928 f   libucrt:xtoa.obj
 0001:0005393c       _ultow                     000000014005493c f   libucrt:xtoa.obj
 0001:00053960       _ultow_s                   0000000140054960 f   libucrt:xtoa.obj
 0001:00053974       __ascii_wcsicmp            0000000140054974 f   libucrt:wcsicmp.obj
 0001:000539b4       _towlower_fast_internal    00000001400549b4 f i libucrt:wcsicmp.obj
 0001:000539dc       _towlower_internal         00000001400549dc f i libucrt:wcsicmp.obj
 0001:00053a10       _wcsicmp                   0000000140054a10 f   libucrt:wcsicmp.obj
 0001:00053a58       _wcsicmp_l                 0000000140054a58 f   libucrt:wcsicmp.obj
 0001:00053b8c       __ascii_wcsnicmp           0000000140054b8c f   libucrt:wcsnicmp.obj
 0001:00053bd8       _wcsnicmp                  0000000140054bd8 f   libucrt:wcsnicmp.obj
 0001:00053c20       _wcsnicmp_l                0000000140054c20 f   libucrt:wcsnicmp.obj
 0001:00053d74       wcscmp                     0000000140054d74 f   libucrt:wcscmp.obj
 0001:00053dac       _msize                     0000000140054dac f   libucrt:msize.obj
 0001:00053db4       _msize_base                0000000140054db4 f   libucrt:msize.obj
 0001:00053df0       _realloc_base              0000000140054df0 f   libucrt:realloc_base.obj
 0001:00053e6c       __acrt_GetStringTypeW      0000000140054e6c f   libucrt:getstringtypew.obj
 0001:00054008       _close                     0000000140055008 f   libucrt:close.obj
 0001:000540a0       _close_internal            00000001400550a0 f   libucrt:close.obj
 0001:00054164       _close_nolock              0000000140055164 f   libucrt:close.obj
 0001:000541fc       _close_nolock_internal     00000001400551fc f   libucrt:close.obj
 0001:000542cc       ??$?RU__crt_stdio_stream_data@@@__crt_internal_free_policy@@QEBAXQEBU__crt_stdio_stream_data@@@Z 00000001400552cc f i libucrt:stream.obj
 0001:000542d4       ??0?$__crt_unique_heap_ptr@U__crt_stdio_stream_data@@U__crt_internal_free_policy@@@@QEAA@QEAU__crt_stdio_stream_data@@@Z 00000001400552d4 f i libucrt:stream.obj
 0001:000542dc       ??0__crt_stdio_stream@@QEAA@XZ 00000001400552dc f i libucrt:stream.obj
 0001:000542e4       ??1?$__crt_unique_heap_ptr@U__crt_stdio_stream_data@@U__crt_internal_free_policy@@@@QEAA@XZ 00000001400552e4 f i libucrt:stream.obj
 0001:00054300       ?__acrt_stdio_allocate_stream@@YA?AV__crt_stdio_stream@@XZ 0000000140055300 f   libucrt:stream.obj
 0001:00054358       ?__acrt_stdio_free_stream@@YAXV__crt_stdio_stream@@@Z 0000000140055358 f   libucrt:stream.obj
 0001:00054374       ?deallocate@__crt_stdio_stream@@QEAAXXZ 0000000140055374 f i libucrt:stream.obj
 0001:00054380       ?detach@?$__crt_unique_heap_ptr@U__crt_stdio_stream_data@@U__crt_internal_free_policy@@@@QEAAPEAU__crt_stdio_stream_data@@XZ 0000000140055380 f i libucrt:stream.obj
 0001:00054474       ?lock@__crt_stdio_stream@@QEBAXXZ 0000000140055474 f i libucrt:stream.obj
 0001:0005447c       ?release@?$__crt_unique_heap_ptr@U__crt_stdio_stream_data@@U__crt_internal_free_policy@@@@QEAAXXZ 000000014005547c f i libucrt:stream.obj
 0001:00054498       ?try_allocate@__crt_stdio_stream@@QEAA_NXZ 0000000140055498 f i libucrt:stream.obj
 0001:000544b8       ?unlock@__crt_stdio_stream@@QEBAXXZ 00000001400554b8 f i libucrt:stream.obj
 0001:00054990       _lseek                     0000000140055990 f   libucrt:lseek.obj
 0001:00054a28       _lseek_internal            0000000140055a28 f   libucrt:lseek.obj
 0001:00054a30       _lseek_nolock              0000000140055a30 f   libucrt:lseek.obj
 0001:00054ac8       _lseek_nolock_internal     0000000140055ac8 f   libucrt:lseek.obj
 0001:00054ad0       _lseeki64                  0000000140055ad0 f   libucrt:lseek.obj
 0001:00054b6c       _lseeki64_internal         0000000140055b6c f   libucrt:lseek.obj
 0001:00054b74       _lseeki64_nolock           0000000140055b74 f   libucrt:lseek.obj
 0001:00054c10       _lseeki64_nolock_internal  0000000140055c10 f   libucrt:lseek.obj
 0001:00054cb4       _putwch                    0000000140055cb4 f   libucrt:putwch.obj
 0001:00054cf0       _putwch_nolock             0000000140055cf0 f   libucrt:putwch.obj
 0001:00054d2c       _putwch_nolock_internal    0000000140055d2c f   libucrt:putwch.obj
 0001:0005543c       _read                      000000014005643c f   libucrt:read.obj
 0001:0005555c       _read_nolock               000000014005655c f   libucrt:read.obj
 0001:000559ac       _controlfp_s               00000001400569ac f   libucrt:contrlfp.obj
 0001:00055a10       fegetenv                   0000000140056a10 f   libucrt:fegetenv.obj
 0001:00055a30       fesetenv                   0000000140056a30 f   libucrt:fesetenv.obj
 0001:00055a88       feholdexcept               0000000140056a88 f   libucrt:feholdexcept.obj
 0001:00055ad8       ceil                       0000000140056ad8 f   libucrt:ceil.obj
 0001:00055ba0       log10                      0000000140056ba0 f   libucrt:log10.obj
 0001:0005614c       ??$__acrt_fenv_shift_bits@W4__acrt_fenv_abstract_control@@@@YA?AW4__acrt_fenv_abstract_control@@W40@0I@Z 000000014005714c f i libucrt:_fenvutils.obj
 0001:00056158       ??$__acrt_fenv_shift_bits@W4__acrt_fenv_abstract_status@@@@YA?AW4__acrt_fenv_abstract_status@@W40@0I@Z 0000000140057158 f i libucrt:_fenvutils.obj
 0001:00056164       ??$__acrt_fenv_translate_bit@W4__acrt_fenv_abstract_control@@W4__acrt_fenv_machine_sse_control@@@@YA?AW4__acrt_fenv_abstract_control@@W4__acrt_fenv_machine_sse_control@@0W40@1@Z 0000000140057164 f i libucrt:_fenvutils.obj
 0001:00056170       ??$__acrt_fenv_translate_bit@W4__acrt_fenv_abstract_status@@W4__acrt_fenv_machine_sse_status@@@@YA?AW4__acrt_fenv_abstract_status@@W4__acrt_fenv_machine_sse_status@@0W40@1@Z 0000000140057170 f i libucrt:_fenvutils.obj
 0001:0005617c       ??$__acrt_fenv_translate_bit@W4__acrt_fenv_machine_sse_control@@W4__acrt_fenv_abstract_control@@@@YA?AW4__acrt_fenv_machine_sse_control@@W4__acrt_fenv_abstract_control@@0W40@1@Z 000000014005717c f i libucrt:_fenvutils.obj
 0001:00056188       ??$__acrt_fenv_translate_bit@W4__acrt_fenv_machine_sse_status@@W4__acrt_fenv_abstract_status@@@@YA?AW4__acrt_fenv_machine_sse_status@@W4__acrt_fenv_abstract_status@@0W40@1@Z 0000000140057188 f i libucrt:_fenvutils.obj
 0001:00056194       ??$__acrt_fenv_unshift_bits@W4__acrt_fenv_abstract_control@@@@YA?AW4__acrt_fenv_abstract_control@@W40@0I@Z 0000000140057194 f i libucrt:_fenvutils.obj
 0001:000561a0       ??$__acrt_fenv_unshift_bits@W4__acrt_fenv_abstract_status@@@@YA?AW4__acrt_fenv_abstract_status@@W40@0I@Z 00000001400571a0 f i libucrt:_fenvutils.obj
 0001:00056364       ??I@YA?AW4__acrt_fenv_abstract_control@@W40@0@Z 0000000140057364 f i libucrt:_fenvutils.obj
 0001:0005636c       ??I@YA?AW4__acrt_fenv_abstract_status@@W40@0@Z 000000014005736c f i libucrt:_fenvutils.obj
 0001:00056374       ??I@YA?AW4__acrt_fenv_machine_sse_control@@W40@0@Z 0000000140057374 f i libucrt:_fenvutils.obj
 0001:0005637c       ??I@YA?AW4__acrt_fenv_machine_sse_status@@W40@0@Z 000000014005737c f i libucrt:_fenvutils.obj
 0001:00056384       ??U@YA?AW4__acrt_fenv_abstract_control@@W40@0@Z 0000000140057384 f i libucrt:_fenvutils.obj
 0001:0005638c       ??U@YA?AW4__acrt_fenv_abstract_status@@W40@0@Z 000000014005738c f i libucrt:_fenvutils.obj
 0001:00056394       ??U@YA?AW4__acrt_fenv_machine_sse_control@@W40@0@Z 0000000140057394 f i libucrt:_fenvutils.obj
 0001:0005639c       ??_5@YAAEAW4__acrt_fenv_abstract_control@@AEAW40@W40@@Z 000000014005739c f i libucrt:_fenvutils.obj
 0001:000563a4       ??_5@YAAEAW4__acrt_fenv_abstract_status@@AEAW40@W40@@Z 00000001400573a4 f i libucrt:_fenvutils.obj
 0001:000563ac       ??_5@YAAEAW4__acrt_fenv_machine_sse_control@@AEAW40@W40@@Z 00000001400573ac f i libucrt:_fenvutils.obj
 0001:000563b4       ??_5@YAAEAW4__acrt_fenv_machine_sse_status@@AEAW40@W40@@Z 00000001400573b4 f i libucrt:_fenvutils.obj
 0001:000563bc       ?__acrt_fenv_shift_abstract_sse_control@@YA?AW4__acrt_fenv_abstract_control@@W41@@Z 00000001400573bc f i libucrt:_fenvutils.obj
 0001:000563d0       ?__acrt_fenv_shift_abstract_sse_status@@YA?AW4__acrt_fenv_abstract_status@@W41@@Z 00000001400573d0 f i libucrt:_fenvutils.obj
 0001:000563dc       ?__acrt_fenv_unshift_abstract_sse_control@@YA?AW4__acrt_fenv_abstract_control@@W41@@Z 00000001400573dc f i libucrt:_fenvutils.obj
 0001:000563f4       ?__acrt_fenv_unshift_abstract_sse_status@@YA?AW4__acrt_fenv_abstract_status@@W41@@Z 00000001400573f4 f i libucrt:_fenvutils.obj
 0001:000566b4       __acrt_fenv_expand_round_control 00000001400576b4 f   libucrt:_fenvutils.obj
 0001:000566cc       __acrt_fenv_get_common_round_control 00000001400576cc f   libucrt:_fenvutils.obj
 0001:000566d8       __acrt_fenv_get_control    00000001400576d8 f   libucrt:_fenvutils.obj
 0001:000567bc       __acrt_fenv_get_fp_status_word_from_exception_mask 00000001400577bc f   libucrt:_fenvutils.obj
 0001:000567c8       __acrt_fenv_get_status     00000001400577c8 f   libucrt:_fenvutils.obj
 0001:00056820       __acrt_fenv_set_control    0000000140057820 f   libucrt:_fenvutils.obj
 0001:00056958       __acrt_fenv_set_status     0000000140057958 f   libucrt:_fenvutils.obj
 0001:000569cc       ?reset_and_return@__crt_mbstring@@YA_K_KPEAU_Mbstatet@@@Z 00000001400579cc f   libucrt:common_utf8.obj
 0001:000569d4       ?return_illegal_sequence@__crt_mbstring@@YA_KPEAU_Mbstatet@@AEAV__crt_cached_ptd_host@@@Z 00000001400579d4 f   libucrt:common_utf8.obj
 0001:000569e8       ?__mbrtoc32_utf8@__crt_mbstring@@YA_KPEA_UPEBD_KPEAU_Mbstatet@@AEAV__crt_cached_ptd_host@@@Z 00000001400579e8 f   libucrt:mbrtoc32.obj
 0001:00056bc4       mbrtoc32                   0000000140057bc4 f   libucrt:mbrtoc32.obj
 0001:00056c68       __acrt_stdio_allocate_buffer_nolock 0000000140057c68 f   libucrt:_getbuf.obj
 0001:00056ff0       _mbstowcs_l                0000000140057ff0 f   libucrt:mbstowcs.obj
 0001:00057098       _mbstowcs_s_l              0000000140058098 f   libucrt:mbstowcs.obj
 0001:00057150       mbstowcs                   0000000140058150 f   libucrt:mbstowcs.obj
 0001:000571ec       mbstowcs_s                 00000001400581ec f   libucrt:mbstowcs.obj
 0001:00057294       __strncnt                  0000000140058294 f   libucrt:strncnt.obj
 0001:000572ac       __acrt_CompareStringW      00000001400582ac f   libucrt:comparestringw.obj
 0001:0005736c       __ascii_strnicmp           000000014005836c f   libucrt:strnicmp.obj
 0001:000573b8       _strnicmp                  00000001400583b8 f   libucrt:strnicmp.obj
 0001:00057408       _strnicmp_l                0000000140058408 f   libucrt:strnicmp.obj
 0001:0005783c       __acrt_CompareStringA      000000014005883c f   libucrt:comparestringa.obj
 0001:000578c8       _towlower_l                00000001400588c8 f   libucrt:towlower.obj
 0001:000579bc       towlower                   00000001400589bc f   libucrt:towlower.obj
 0001:00057aec       __dcrt_lowio_ensure_console_output_initialized 0000000140058aec f   libucrt:initcon.obj
 0001:00057b40       __dcrt_terminate_console_output 0000000140058b40 f   libucrt:initcon.obj
 0001:00057b5c       __dcrt_write_console       0000000140058b5c f   libucrt:initcon.obj
 0001:00057d30       _clearfp                   0000000140058d30 f   libucrt:ieee.obj
 0001:00057d9c       _control87                 0000000140058d9c f   libucrt:ieee.obj
 0001:00057da4       _controlfp                 0000000140058da4 f   libucrt:ieee.obj
 0001:00057db0       _fpreset                   0000000140058db0 f   libucrt:ieee.obj
 0001:00057e78       _set_controlfp             0000000140058e78 f   libucrt:ieee.obj
 0001:00057eac       _statusfp                  0000000140058eac f   libucrt:ieee.obj
 0001:000582cc       _handle_error              00000001400592cc f   libucrt:libm_error.obj
 0001:000583f4       _handle_errorf             00000001400593f4 f   libucrt:libm_error.obj
 0001:00058528       _handle_nan                0000000140059528 f   libucrt:libm_error.obj
 0001:00058544       _handle_nanf               0000000140059544 f   libucrt:libm_error.obj
 0001:00058560       __acrt_initialize_fma3     0000000140059560 f   libucrt:fma3_available.obj
 0001:000585d0       _get_FMA3_enable           00000001400595d0 f   libucrt:fma3_available.obj
 0001:000585d8       _set_FMA3_enable           00000001400595d8 f   libucrt:fma3_available.obj
 0001:000585f0       _log10_special             00000001400595f0 f   libucrt:log_special.obj
 0001:00058610       _log10f_special            0000000140059610 f   libucrt:log_special.obj
 0001:00058630       _log_special               0000000140059630 f   libucrt:log_special.obj
 0001:000586e8       _logf_special              00000001400596e8 f   libucrt:log_special.obj
 0001:000587a4       __acrt_LCMapStringW        00000001400597a4 f   libucrt:lcmapstringw.obj
 0001:00058840       _get_fpsr                  0000000140059840 f   libucrt:fpsr.obj
 0001:00058850       _set_fpsr                  0000000140059850 f   libucrt:fpsr.obj
 0001:0005885a       _fclrf                     000000014005985a f   libucrt:fpsr.obj
 0001:0005886e       _frnd                      000000014005986e f   libucrt:fpsr.obj
 0001:00058890       ?should_round_up@__crt_strtox@@YA_N_N000@Z 0000000140059890 f i libucrt:fpexcept.obj
 0001:00058918       _errcode                   0000000140059918 f   libucrt:fpexcept.obj
 0001:0005895c       _except1                   000000014005995c f   libucrt:fpexcept.obj
 0001:00058a50       _except2                   0000000140059a50 f   libucrt:fpexcept.obj
 0001:00058b8c       _handle_exc                0000000140059b8c f   libucrt:fpexcept.obj
 0001:00058e80       _handle_qnan2              0000000140059e80 f   libucrt:fpexcept.obj
 0001:00058e88       _raise_exc                 0000000140059e88 f   libucrt:fpexcept.obj
 0001:00058eb0       _raise_exc_ex              0000000140059eb0 f   libucrt:fpexcept.obj
 0001:000591b8       _raise_excf                000000014005a1b8 f   libucrt:fpexcept.obj
 0001:000591e4       _set_errno_from_matherr    000000014005a1e4 f   libucrt:fpexcept.obj
 0001:00059214       _umatherr                  000000014005a214 f   libucrt:fpexcept.obj
 0001:000592e4       _clrfp                     000000014005a2e4 f   libucrt:fpctrl.obj
 0001:00059304       _ctrlfp                    000000014005a304 f   libucrt:fpctrl.obj
 0001:00059380       _set_statfp                000000014005a380 f   libucrt:fpctrl.obj
 0001:000593a0       _statfp                    000000014005a3a0 f   libucrt:fpctrl.obj
 0001:000593b4       _add_exp                   000000014005a3b4 f   libucrt:util.obj
 0001:00059404       _decomp                    000000014005a404 f   libucrt:util.obj
 0001:00059534       _get_exp                   000000014005a534 f   libucrt:util.obj
 0001:00059554       _set_bexp                  000000014005a554 f   libucrt:util.obj
 0001:00059584       _set_exp                   000000014005a584 f   libucrt:util.obj
 0001:000595bc       _sptype                    000000014005a5bc f   libucrt:util.obj
 0001:00059634       QueryPerformanceCounter    000000014005a634 f   kernel32:KERNEL32.dll
 0001:0005963a       GetCurrentProcessId        000000014005a63a f   kernel32:KERNEL32.dll
 0001:00059640       GetCurrentThreadId         000000014005a640 f   kernel32:KERNEL32.dll
 0001:00059646       GetSystemTimeAsFileTime    000000014005a646 f   kernel32:KERNEL32.dll
 0001:0005964c       InitializeSListHead        000000014005a64c f   kernel32:KERNEL32.dll
 0001:00059652       RtlCaptureContext          000000014005a652 f   kernel32:KERNEL32.dll
 0001:00059658       RtlLookupFunctionEntry     000000014005a658 f   kernel32:KERNEL32.dll
 0001:0005965e       RtlVirtualUnwind           000000014005a65e f   kernel32:KERNEL32.dll
 0001:00059664       IsDebuggerPresent          000000014005a664 f   kernel32:KERNEL32.dll
 0001:0005966a       UnhandledExceptionFilter   000000014005a66a f   kernel32:KERNEL32.dll
 0001:00059670       SetUnhandledExceptionFilter 000000014005a670 f   kernel32:KERNEL32.dll
 0001:00059676       GetStartupInfoW            000000014005a676 f   kernel32:KERNEL32.dll
 0001:0005967c       IsProcessorFeaturePresent  000000014005a67c f   kernel32:KERNEL32.dll
 0001:00059682       GetModuleHandleW           000000014005a682 f   kernel32:KERNEL32.dll
 0001:00059688       RtlUnwindEx                000000014005a688 f   kernel32:KERNEL32.dll
 0001:0005968e       InterlockedPushEntrySList  000000014005a68e f   kernel32:KERNEL32.dll
 0001:00059694       InterlockedFlushSList      000000014005a694 f   kernel32:KERNEL32.dll
 0001:0005969a       GetLastError               000000014005a69a f   kernel32:KERNEL32.dll
 0001:000596a0       SetLastError               000000014005a6a0 f   kernel32:KERNEL32.dll
 0001:000596a6       EnterCriticalSection       000000014005a6a6 f   kernel32:KERNEL32.dll
 0001:000596ac       LeaveCriticalSection       000000014005a6ac f   kernel32:KERNEL32.dll
 0001:000596b2       DeleteCriticalSection      000000014005a6b2 f   kernel32:KERNEL32.dll
 0001:000596b8       InitializeCriticalSectionAndSpinCount 000000014005a6b8 f   kernel32:KERNEL32.dll
 0001:000596be       TlsAlloc                   000000014005a6be f   kernel32:KERNEL32.dll
 0001:000596c4       TlsGetValue                000000014005a6c4 f   kernel32:KERNEL32.dll
 0001:000596ca       TlsSetValue                000000014005a6ca f   kernel32:KERNEL32.dll
 0001:000596d0       TlsFree                    000000014005a6d0 f   kernel32:KERNEL32.dll
 0001:000596d6       FreeLibrary                000000014005a6d6 f   kernel32:KERNEL32.dll
 0001:000596dc       GetProcAddress             000000014005a6dc f   kernel32:KERNEL32.dll
 0001:000596e2       LoadLibraryExW             000000014005a6e2 f   kernel32:KERNEL32.dll
 0001:000596e8       EncodePointer              000000014005a6e8 f   kernel32:KERNEL32.dll
 0001:000596ee       RaiseException             000000014005a6ee f   kernel32:KERNEL32.dll
 0001:000596f4       RtlPcToFileHeader          000000014005a6f4 f   kernel32:KERNEL32.dll
 0001:000596fa       RtlUnwind                  000000014005a6fa f   kernel32:KERNEL32.dll
 0001:00059700       GetStdHandle               000000014005a700 f   kernel32:KERNEL32.dll
 0001:00059706       WriteFile                  000000014005a706 f   kernel32:KERNEL32.dll
 0001:0005970c       GetModuleFileNameW         000000014005a70c f   kernel32:KERNEL32.dll
 0001:00059712       GetCurrentProcess          000000014005a712 f   kernel32:KERNEL32.dll
 0001:00059718       ExitProcess                000000014005a718 f   kernel32:KERNEL32.dll
 0001:0005971e       TerminateProcess           000000014005a71e f   kernel32:KERNEL32.dll
 0001:00059724       GetModuleHandleExW         000000014005a724 f   kernel32:KERNEL32.dll
 0001:0005972a       GetCommandLineA            000000014005a72a f   kernel32:KERNEL32.dll
 0001:00059730       GetCommandLineW            000000014005a730 f   kernel32:KERNEL32.dll
 0001:00059736       HeapAlloc                  000000014005a736 f   kernel32:KERNEL32.dll
 0001:0005973c       HeapFree                   000000014005a73c f   kernel32:KERNEL32.dll
 0001:00059742       GetTempPathW               000000014005a742 f   kernel32:KERNEL32.dll
 0001:00059748       FlsAlloc                   000000014005a748 f   kernel32:KERNEL32.dll
 0001:0005974e       FlsGetValue                000000014005a74e f   kernel32:KERNEL32.dll
 0001:00059754       FlsSetValue                000000014005a754 f   kernel32:KERNEL32.dll
 0001:0005975a       FlsFree                    000000014005a75a f   kernel32:KERNEL32.dll
 0001:00059760       GetDateFormatW             000000014005a760 f   kernel32:KERNEL32.dll
 0001:00059766       GetTimeFormatW             000000014005a766 f   kernel32:KERNEL32.dll
 0001:0005976c       CompareStringW             000000014005a76c f   kernel32:KERNEL32.dll
 0001:00059772       LCMapStringW               000000014005a772 f   kernel32:KERNEL32.dll
 0001:00059778       GetLocaleInfoW             000000014005a778 f   kernel32:KERNEL32.dll
 0001:0005977e       IsValidLocale              000000014005a77e f   kernel32:KERNEL32.dll
 0001:00059784       GetUserDefaultLCID         000000014005a784 f   kernel32:KERNEL32.dll
 0001:0005978a       EnumSystemLocalesW         000000014005a78a f   kernel32:KERNEL32.dll
 0001:00059790       GetFileType                000000014005a790 f   kernel32:KERNEL32.dll
 0001:00059796       GetCurrentThread           000000014005a796 f   kernel32:KERNEL32.dll
 0001:0005979c       OutputDebugStringW         000000014005a79c f   kernel32:KERNEL32.dll
 0001:000597a2       FindClose                  000000014005a7a2 f   kernel32:KERNEL32.dll
 0001:000597a8       FindFirstFileExW           000000014005a7a8 f   kernel32:KERNEL32.dll
 0001:000597ae       FindNextFileW              000000014005a7ae f   kernel32:KERNEL32.dll
 0001:000597b4       IsValidCodePage            000000014005a7b4 f   kernel32:KERNEL32.dll
 0001:000597ba       GetACP                     000000014005a7ba f   kernel32:KERNEL32.dll
 0001:000597c0       GetOEMCP                   000000014005a7c0 f   kernel32:KERNEL32.dll
 0001:000597c6       GetCPInfo                  000000014005a7c6 f   kernel32:KERNEL32.dll
 0001:000597cc       MultiByteToWideChar        000000014005a7cc f   kernel32:KERNEL32.dll
 0001:000597d2       WideCharToMultiByte        000000014005a7d2 f   kernel32:KERNEL32.dll
 0001:000597d8       GetEnvironmentStringsW     000000014005a7d8 f   kernel32:KERNEL32.dll
 0001:000597de       FreeEnvironmentStringsW    000000014005a7de f   kernel32:KERNEL32.dll
 0001:000597e4       SetEnvironmentVariableW    000000014005a7e4 f   kernel32:KERNEL32.dll
 0001:000597ea       SetStdHandle               000000014005a7ea f   kernel32:KERNEL32.dll
 0001:000597f0       GetStringTypeW             000000014005a7f0 f   kernel32:KERNEL32.dll
 0001:000597f6       GetProcessHeap             000000014005a7f6 f   kernel32:KERNEL32.dll
 0001:000597fc       SetConsoleCtrlHandler      000000014005a7fc f   kernel32:KERNEL32.dll
 0001:00059802       FlushFileBuffers           000000014005a802 f   kernel32:KERNEL32.dll
 0001:00059808       GetConsoleOutputCP         000000014005a808 f   kernel32:KERNEL32.dll
 0001:0005980e       GetConsoleMode             000000014005a80e f   kernel32:KERNEL32.dll
 0001:00059814       GetFileSizeEx              000000014005a814 f   kernel32:KERNEL32.dll
 0001:0005981a       SetFilePointerEx           000000014005a81a f   kernel32:KERNEL32.dll
 0001:00059820       HeapSize                   000000014005a820 f   kernel32:KERNEL32.dll
 0001:00059826       HeapReAlloc                000000014005a826 f   kernel32:KERNEL32.dll
 0001:0005982c       CloseHandle                000000014005a82c f   kernel32:KERNEL32.dll
 0001:00059832       ReadFile                   000000014005a832 f   kernel32:KERNEL32.dll
 0001:00059838       ReadConsoleW               000000014005a838 f   kernel32:KERNEL32.dll
 0001:0005983e       CreateFileW                000000014005a83e f   kernel32:KERNEL32.dll
 0001:00059844       WriteConsoleW              000000014005a844 f   kernel32:KERNEL32.dll
 0001:00059850       _FindPESection             000000014005a850 f   LIBCMT:pesect.obj
 0001:000598a0       _IsNonwritableInCurrentImage 000000014005a8a0 f   LIBCMT:pesect.obj
 0001:000598f0       _ValidateImageBase         000000014005a8f0 f   LIBCMT:pesect.obj
 0001:0005991c       ??1type_info@@UEAA@XZ      000000014005a91c f   LIBCMT:std_type_info_static.obj
 0001:00059928       ??_Etype_info@@UEAAPEAXI@Z 000000014005a928 f i LIBCMT:std_type_info_static.obj
 0001:00059928       ??_Gtype_info@@UEAAPEAXI@Z 000000014005a928 f i LIBCMT:std_type_info_static.obj
 0001:00059954       __GSHandlerCheck           000000014005a954 f   LIBCMT:gshandler.obj
 0001:00059974       __GSHandlerCheckCommon     000000014005a974 f   LIBCMT:gshandler.obj
 0001:000599e0       __security_check_cookie    000000014005a9e0 f   LIBCMT:amdsecgs.obj
 0001:00059a00       ??3@YAXPEAX_K@Z            000000014005aa00 f   LIBCMT:delete_scalar_size.obj
 0001:00059a08       __GSHandlerCheck_SEH       000000014005aa08 f   LIBCMT:gshandlerseh.obj
 0001:00059a90       __raise_securityfailure    000000014005aa90 f   LIBCMT:gs_report.obj
 0001:00059ac4       __report_gsfailure         000000014005aac4 f   LIBCMT:gs_report.obj
 0001:00059b98       __report_rangecheckfailure 000000014005ab98 f   LIBCMT:gs_report.obj
 0001:00059bac       __report_securityfailure   000000014005abac f   LIBCMT:gs_report.obj
 0001:00059c48       __report_securityfailureEx 000000014005ac48 f   LIBCMT:gs_report.obj
 0001:00059e50       __chkstk                   000000014005ae50 f   LIBCMT:chkstk.obj
 0001:00059e50       _alloca_probe              000000014005ae50 f   LIBCMT:chkstk.obj
 0001:00059ea0       __GSHandlerCheck_EH        000000014005aea0 f   LIBCMT:gshandlereh.obj
 0001:00059f20       ??3@YAXPEAX@Z              000000014005af20 f   LIBCMT:delete_scalar.obj
 0001:00059f40       memcmp                     000000014005af40 f   libvcruntime:memcmp.obj
 0001:0005a008       __C_specific_handler_noexcept 000000014005b008 f   libvcruntime:chandler_noexcept.obj
 0001:0005a054       strrchr                    000000014005b054 f   libvcruntime:strrchr.obj
 0001:0005a190       strchr                     000000014005b190 f   libvcruntime:strchr.obj
 0001:0005a210       wcschr                     000000014005b210 f   libvcruntime:wcschr.obj
 0001:0005a2a0       _guard_dispatch_icall_nop  000000014005b2a0 f   LIBCMT:guard_dispatch.obj
 0001:0005a2c0       _guard_xfg_dispatch_icall_nop 000000014005b2c0 f   LIBCMT:guard_xfg_dispatch.obj
 0002:00000000       __imp_QueryPerformanceCounter 000000014005c000     kernel32:KERNEL32.dll
 0002:00000008       __imp_GetCurrentProcessId  000000014005c008     kernel32:KERNEL32.dll
 0002:00000010       __imp_GetCurrentThreadId   000000014005c010     kernel32:KERNEL32.dll
 0002:00000018       __imp_GetSystemTimeAsFileTime 000000014005c018     kernel32:KERNEL32.dll
 0002:00000020       __imp_InitializeSListHead  000000014005c020     kernel32:KERNEL32.dll
 0002:00000028       __imp_RtlCaptureContext    000000014005c028     kernel32:KERNEL32.dll
 0002:00000030       __imp_RtlLookupFunctionEntry 000000014005c030     kernel32:KERNEL32.dll
 0002:00000038       __imp_RtlVirtualUnwind     000000014005c038     kernel32:KERNEL32.dll
 0002:00000040       __imp_IsDebuggerPresent    000000014005c040     kernel32:KERNEL32.dll
 0002:00000048       __imp_UnhandledExceptionFilter 000000014005c048     kernel32:KERNEL32.dll
 0002:00000050       __imp_SetUnhandledExceptionFilter 000000014005c050     kernel32:KERNEL32.dll
 0002:00000058       __imp_GetStartupInfoW      000000014005c058     kernel32:KERNEL32.dll
 0002:00000060       __imp_IsProcessorFeaturePresent 000000014005c060     kernel32:KERNEL32.dll
 0002:00000068       __imp_GetModuleHandleW     000000014005c068     kernel32:KERNEL32.dll
 0002:00000070       __imp_RtlUnwindEx          000000014005c070     kernel32:KERNEL32.dll
 0002:00000078       __imp_InterlockedPushEntrySList 000000014005c078     kernel32:KERNEL32.dll
 0002:00000080       __imp_InterlockedFlushSList 000000014005c080     kernel32:KERNEL32.dll
 0002:00000088       __imp_GetLastError         000000014005c088     kernel32:KERNEL32.dll
 0002:00000090       __imp_SetLastError         000000014005c090     kernel32:KERNEL32.dll
 0002:00000098       __imp_EnterCriticalSection 000000014005c098     kernel32:KERNEL32.dll
 0002:000000a0       __imp_LeaveCriticalSection 000000014005c0a0     kernel32:KERNEL32.dll
 0002:000000a8       __imp_DeleteCriticalSection 000000014005c0a8     kernel32:KERNEL32.dll
 0002:000000b0       __imp_InitializeCriticalSectionAndSpinCount 000000014005c0b0     kernel32:KERNEL32.dll
 0002:000000b8       __imp_TlsAlloc             000000014005c0b8     kernel32:KERNEL32.dll
 0002:000000c0       __imp_TlsGetValue          000000014005c0c0     kernel32:KERNEL32.dll
 0002:000000c8       __imp_TlsSetValue          000000014005c0c8     kernel32:KERNEL32.dll
 0002:000000d0       __imp_TlsFree              000000014005c0d0     kernel32:KERNEL32.dll
 0002:000000d8       __imp_FreeLibrary          000000014005c0d8     kernel32:KERNEL32.dll
 0002:000000e0       __imp_GetProcAddress       000000014005c0e0     kernel32:KERNEL32.dll
 0002:000000e8       __imp_LoadLibraryExW       000000014005c0e8     kernel32:KERNEL32.dll
 0002:000000f0       __imp_EncodePointer        000000014005c0f0     kernel32:KERNEL32.dll
 0002:000000f8       __imp_RaiseException       000000014005c0f8     kernel32:KERNEL32.dll
 0002:00000100       __imp_RtlPcToFileHeader    000000014005c100     kernel32:KERNEL32.dll
 0002:00000108       __imp_RtlUnwind            000000014005c108     kernel32:KERNEL32.dll
 0002:00000110       __imp_GetStdHandle         000000014005c110     kernel32:KERNEL32.dll
 0002:00000118       __imp_WriteFile            000000014005c118     kernel32:KERNEL32.dll
 0002:00000120       __imp_GetModuleFileNameW   000000014005c120     kernel32:KERNEL32.dll
 0002:00000128       __imp_GetCurrentProcess    000000014005c128     kernel32:KERNEL32.dll
 0002:00000130       __imp_ExitProcess          000000014005c130     kernel32:KERNEL32.dll
 0002:00000138       __imp_TerminateProcess     000000014005c138     kernel32:KERNEL32.dll
 0002:00000140       __imp_GetModuleHandleExW   000000014005c140     kernel32:KERNEL32.dll
 0002:00000148       __imp_GetCommandLineA      000000014005c148     kernel32:KERNEL32.dll
 0002:00000150       __imp_GetCommandLineW      000000014005c150     kernel32:KERNEL32.dll
 0002:00000158       __imp_HeapAlloc            000000014005c158     kernel32:KERNEL32.dll
 0002:00000160       __imp_HeapFree             000000014005c160     kernel32:KERNEL32.dll
 0002:00000168       __imp_GetTempPathW         000000014005c168     kernel32:KERNEL32.dll
 0002:00000170       __imp_FlsAlloc             000000014005c170     kernel32:KERNEL32.dll
 0002:00000178       __imp_FlsGetValue          000000014005c178     kernel32:KERNEL32.dll
 0002:00000180       __imp_FlsSetValue          000000014005c180     kernel32:KERNEL32.dll
 0002:00000188       __imp_FlsFree              000000014005c188     kernel32:KERNEL32.dll
 0002:00000190       __imp_GetDateFormatW       000000014005c190     kernel32:KERNEL32.dll
 0002:00000198       __imp_GetTimeFormatW       000000014005c198     kernel32:KERNEL32.dll
 0002:000001a0       __imp_CompareStringW       000000014005c1a0     kernel32:KERNEL32.dll
 0002:000001a8       __imp_LCMapStringW         000000014005c1a8     kernel32:KERNEL32.dll
 0002:000001b0       __imp_GetLocaleInfoW       000000014005c1b0     kernel32:KERNEL32.dll
 0002:000001b8       __imp_IsValidLocale        000000014005c1b8     kernel32:KERNEL32.dll
 0002:000001c0       __imp_GetUserDefaultLCID   000000014005c1c0     kernel32:KERNEL32.dll
 0002:000001c8       __imp_EnumSystemLocalesW   000000014005c1c8     kernel32:KERNEL32.dll
 0002:000001d0       __imp_GetFileType          000000014005c1d0     kernel32:KERNEL32.dll
 0002:000001d8       __imp_GetCurrentThread     000000014005c1d8     kernel32:KERNEL32.dll
 0002:000001e0       __imp_OutputDebugStringW   000000014005c1e0     kernel32:KERNEL32.dll
 0002:000001e8       __imp_FindClose            000000014005c1e8     kernel32:KERNEL32.dll
 0002:000001f0       __imp_FindFirstFileExW     000000014005c1f0     kernel32:KERNEL32.dll
 0002:000001f8       __imp_FindNextFileW        000000014005c1f8     kernel32:KERNEL32.dll
 0002:00000200       __imp_IsValidCodePage      000000014005c200     kernel32:KERNEL32.dll
 0002:00000208       __imp_GetACP               000000014005c208     kernel32:KERNEL32.dll
 0002:00000210       __imp_GetOEMCP             000000014005c210     kernel32:KERNEL32.dll
 0002:00000218       __imp_GetCPInfo            000000014005c218     kernel32:KERNEL32.dll
 0002:00000220       __imp_MultiByteToWideChar  000000014005c220     kernel32:KERNEL32.dll
 0002:00000228       __imp_WideCharToMultiByte  000000014005c228     kernel32:KERNEL32.dll
 0002:00000230       __imp_GetEnvironmentStringsW 000000014005c230     kernel32:KERNEL32.dll
 0002:00000238       __imp_FreeEnvironmentStringsW 000000014005c238     kernel32:KERNEL32.dll
 0002:00000240       __imp_SetEnvironmentVariableW 000000014005c240     kernel32:KERNEL32.dll
 0002:00000248       __imp_SetStdHandle         000000014005c248     kernel32:KERNEL32.dll
 0002:00000250       __imp_GetStringTypeW       000000014005c250     kernel32:KERNEL32.dll
 0002:00000258       __imp_GetProcessHeap       000000014005c258     kernel32:KERNEL32.dll
 0002:00000260       __imp_SetConsoleCtrlHandler 000000014005c260     kernel32:KERNEL32.dll
 0002:00000268       __imp_FlushFileBuffers     000000014005c268     kernel32:KERNEL32.dll
 0002:00000270       __imp_GetConsoleOutputCP   000000014005c270     kernel32:KERNEL32.dll
 0002:00000278       __imp_GetConsoleMode       000000014005c278     kernel32:KERNEL32.dll
 0002:00000280       __imp_GetFileSizeEx        000000014005c280     kernel32:KERNEL32.dll
 0002:00000288       __imp_SetFilePointerEx     000000014005c288     kernel32:KERNEL32.dll
 0002:00000290       __imp_HeapSize             000000014005c290     kernel32:KERNEL32.dll
 0002:00000298       __imp_HeapReAlloc          000000014005c298     kernel32:KERNEL32.dll
 0002:000002a0       __imp_CloseHandle          000000014005c2a0     kernel32:KERNEL32.dll
 0002:000002a8       __imp_ReadFile             000000014005c2a8     kernel32:KERNEL32.dll
 0002:000002b0       __imp_ReadConsoleW         000000014005c2b0     kernel32:KERNEL32.dll
 0002:000002b8       __imp_CreateFileW          000000014005c2b8     kernel32:KERNEL32.dll
 0002:000002c0       __imp_WriteConsoleW        000000014005c2c0     kernel32:KERNEL32.dll
 0002:000002c8       \177KERNEL32_NULL_THUNK_DATA 000000014005c2c8     kernel32:KERNEL32.dll
 0002:000002d0       __guard_check_icall_fptr   000000014005c2d0     LIBCMT:guard_support.obj
 0002:000002d8       __guard_xfg_check_icall_fptr 000000014005c2d8     LIBCMT:guard_support.obj
 0002:000002e0       __guard_dispatch_icall_fptr 000000014005c2e0     LIBCMT:guard_support.obj
 0002:000002e8       __guard_xfg_dispatch_icall_fptr 000000014005c2e8     LIBCMT:guard_support.obj
 0002:000002f0       __guard_xfg_table_dispatch_icall_fptr 000000014005c2f0     LIBCMT:guard_support.obj
 0002:000002f8       __castguard_check_failure_os_handled_fptr 000000014005c2f8     LIBCMT:guard_support.obj
 0002:00000300       __guard_memcpy_fptr        000000014005c300     libvcruntime:softmemtag.obj
 0002:00000308       __xc_a                     000000014005c308     LIBCMT:initializers.obj
 0002:00000318       __xc_z                     000000014005c318     LIBCMT:initializers.obj
 0002:00000320       __xi_a                     000000014005c320     LIBCMT:initializers.obj
 0002:00000338       __acrt_stdio_initializer   000000014005c338     libucrt:stdio_initializer.obj
 0002:00000340       __acrt_multibyte_initializer 000000014005c340     libucrt:multibyte_initializer.obj
 0002:00000348       __acrt_fmode_initializer   000000014005c348     libucrt:fmode_initializer.obj
 0002:00000350       __acrt_tran_fma3_initializer 000000014005c350     libucrt:fma3_initializer.obj
 0002:00000358       __xi_z                     000000014005c358     LIBCMT:initializers.obj
 0002:00000360       __xp_a                     000000014005c360     LIBCMT:initializers.obj
 0002:00000368       __acrt_locale_terminator   000000014005c368     libucrt:locale_initializer.obj
 0002:00000370       __dcrt_console_output_terminator 000000014005c370     libucrt:console_output_initializer.obj
 0002:00000378       __acrt_stdio_terminator    000000014005c378     libucrt:stdio_initializer.obj
 0002:00000380       __xp_z                     000000014005c380     LIBCMT:initializers.obj
 0002:00000388       __xt_a                     000000014005c388     LIBCMT:initializers.obj
 0002:00000390       __xt_z                     000000014005c390     LIBCMT:initializers.obj
 0002:000003a8       ??_C@_0BC@HMCDPOFE@msvc_SEH_1?5begin?6@ 000000014005c3a8     main.obj
 0002:000003c0       ??_C@_0BN@OODDBEIH@msvc_SEH_1?3goto__except?5?$CI1?$CJ?6@ 000000014005c3c0     main.obj
 0002:000003e0       ??_C@_0BA@JNDECPKA@msvc_SEH_1?5end?6@ 000000014005c3e0     main.obj
 0002:000003f0       __xmm@ffffffffffffffffffffffffffffffff 000000014005c3f0     LIBCMT:utility.obj
 0002:00000400       _pDestructExceptionObject  000000014005c400     libvcruntime:ehhelpers.obj
 0002:00000b20       ??_C@_08EHJDFFNH@__based?$CI@ 000000014005cb20     libvcruntime:undname.obj
 0002:00000b30       ??_C@_07KOLFKCDI@__cdecl@  000000014005cb30     libvcruntime:undname.obj
 0002:00000b38       ??_C@_08GHMPAG@__pascal@   000000014005cb38     libvcruntime:undname.obj
 0002:00000b48       ??_C@_09IFJBGAPI@__stdcall@ 000000014005cb48     libvcruntime:undname.obj
 0002:00000b58       ??_C@_0L@NPHFGOKO@__thiscall@ 000000014005cb58     libvcruntime:undname.obj
 0002:00000b68       ??_C@_0L@JMKHOMEK@__fastcall@ 000000014005cb68     libvcruntime:undname.obj
 0002:00000b78       ??_C@_0N@BCKKPABJ@__vectorcall@ 000000014005cb78     libvcruntime:undname.obj
 0002:00000b88       ??_C@_09HIJEGCPM@__clrcall@ 000000014005cb88     libvcruntime:undname.obj
 0002:00000b94       ??_C@_06GHPCKEAG@__eabi@   000000014005cb94     libvcruntime:undname.obj
 0002:00000ba0       ??_C@_09IOPIDJLG@__swift_1@ 000000014005cba0     libvcruntime:undname.obj
 0002:00000bb0       ??_C@_09KFNFGKHF@__swift_2@ 000000014005cbb0     libvcruntime:undname.obj
 0002:00000bc0       ??_C@_09LMMOFLDE@__swift_3@ 000000014005cbc0     libvcruntime:undname.obj
 0002:00000bd0       ??_C@_07JOMMBBKO@__ptr64@  000000014005cbd0     libvcruntime:undname.obj
 0002:00000bd8       ??_C@_0L@PILCLIHE@__restrict@ 000000014005cbd8     libvcruntime:undname.obj
 0002:00000be8       ??_C@_0M@GFIIJFMG@__unaligned@ 000000014005cbe8     libvcruntime:undname.obj
 0002:00000bf8       ??_C@_09DHDLOLLB@restrict?$CI@ 000000014005cbf8     libvcruntime:undname.obj
 0002:00000c02       ??_C@_00CNPNBAHC@@         000000014005cc02     libvcruntime:undname.obj
 0002:00000c04       ??_C@_04NIHEBCM@?5new@     000000014005cc04     libvcruntime:undname.obj
 0002:00000c10       ??_C@_07FPCDHGMM@?5delete@ 000000014005cc10     libvcruntime:undname.obj
 0002:00000c18       ??_C@_01NEMOKFLO@?$DN@     000000014005cc18     libvcruntime:undname.obj
 0002:00000c1c       ??_C@_02GPIOPFAK@?$DO?$DO@ 000000014005cc1c     libvcruntime:undname.obj
 0002:00000c20       ??_C@_02FODMEDOG@?$DM?$DM@ 000000014005cc20     libvcruntime:undname.obj
 0002:00000c24       ??_C@_01DCLJPIOD@?$CB@     000000014005cc24     libvcruntime:undname.obj
 0002:00000c28       ??_C@_02EGOFBIJA@?$DN?$DN@ 000000014005cc28     libvcruntime:undname.obj
 0002:00000c2c       ??_C@_02FDNJECIE@?$CB?$DN@ 000000014005cc2c     libvcruntime:undname.obj
 0002:00000c30       ??_C@_02GPECMEKF@?$FL?$FN@ 000000014005cc30     libvcruntime:undname.obj
 0002:00000c38       ??_C@_08LHJFAFGD@operator@ 000000014005cc38     libvcruntime:undname.obj
 0002:00000c44       ??_C@_02HBOOOICD@?9?$DO@   000000014005cc44     libvcruntime:undname.obj
 0002:00000c48       ??_C@_01NBENCBCI@?$CK@     000000014005cc48     libvcruntime:undname.obj
 0002:00000c4c       ??_C@_02ECNGHCIF@?$CL?$CL@ 000000014005cc4c     libvcruntime:undname.obj
 0002:00000c50       ??_C@_02BAABKJLB@?9?9@     000000014005cc50     libvcruntime:undname.obj
 0002:00000c54       ??_C@_01JOAMLHOP@?9@       000000014005cc54     libvcruntime:undname.obj
 0002:00000c58       ??_C@_01MIFGBAGJ@?$CL@     000000014005cc58     libvcruntime:undname.obj
 0002:00000c5c       ??_C@_01HNPIGOCE@?$CG@     000000014005cc5c     libvcruntime:undname.obj
 0002:00000c60       ??_C@_03MNHNFDLC@?9?$DO?$CK@ 000000014005cc60     libvcruntime:undname.obj
 0002:00000c64       ??_C@_01KMDKNFGN@?1@       000000014005cc64     libvcruntime:undname.obj
 0002:00000c68       ??_C@_01FGNFDNOH@?$CF@     000000014005cc68     libvcruntime:undname.obj
 0002:00000c6c       ??_C@_01MNNFJEPP@?$DM@     000000014005cc6c     libvcruntime:undname.obj
 0002:00000c70       ??_C@_02EHCHHCKH@?$DM?$DN@ 000000014005cc70     libvcruntime:undname.obj
 0002:00000c74       ??_C@_01PPODPGHN@?$DO@     000000014005cc74     libvcruntime:undname.obj
 0002:00000c78       ??_C@_02EEKDKGMJ@?$DO?$DN@ 000000014005cc78     libvcruntime:undname.obj
 0002:00000c7c       ??_C@_01IHBHIGKO@?0@       000000014005cc7c     libvcruntime:undname.obj
 0002:00000c80       ??_C@_02HCKGKOFO@?$CI?$CJ@ 000000014005cc80     libvcruntime:undname.obj
 0002:00000c84       ??_C@_01PJKLJHI@?$HO@      000000014005cc84     libvcruntime:undname.obj
 0002:00000c88       ??_C@_01JKBOJNNK@?$FO@     000000014005cc88     libvcruntime:undname.obj
 0002:00000c8c       ??_C@_01DNKMNLPK@?$HM@     000000014005cc8c     libvcruntime:undname.obj
 0002:00000c90       ??_C@_02PPKAJPJL@?$CG?$CG@ 000000014005cc90     libvcruntime:undname.obj
 0002:00000c94       ??_C@_02NONPIBCD@?$HM?$HM@ 000000014005cc94     libvcruntime:undname.obj
 0002:00000c98       ??_C@_02FPIMKNGF@?$CK?$DN@ 000000014005cc98     libvcruntime:undname.obj
 0002:00000c9c       ??_C@_02FOEOMHFC@?$CL?$DN@ 000000014005cc9c     libvcruntime:undname.obj
 0002:00000ca0       ??_C@_02FKMDLLOA@?9?$DN@   000000014005cca0     libvcruntime:undname.obj
 0002:00000ca4       ??_C@_02FJEHGPIO@?1?$DN@   000000014005cca4     libvcruntime:undname.obj
 0002:00000ca8       ??_C@_02FENAOKFI@?$CF?$DN@ 000000014005cca8     libvcruntime:undname.obj
 0002:00000cac       ??_C@_03IKFCCPFF@?$DO?$DO?$DN@ 000000014005ccac     libvcruntime:undname.obj
 0002:00000cb0       ??_C@_03CDNPDDLA@?$DM?$DM?$DN@ 000000014005ccb0     libvcruntime:undname.obj
 0002:00000cb4       ??_C@_02FGJGFEAB@?$CG?$DN@ 000000014005ccb4     libvcruntime:undname.obj
 0002:00000cb8       ??_C@_02DHLNPPGH@?$HM?$DN@ 000000014005ccb8     libvcruntime:undname.obj
 0002:00000cbc       ??_C@_02MHEGNOJ@?$FO?$DN@  000000014005ccbc     libvcruntime:undname.obj
 0002:00000cc0       ??_C@_09IFPLHPGF@?$GAvftable?8@ 000000014005ccc0     libvcruntime:undname.obj
 0002:00000cd0       ??_C@_09BLBHBJP@?$GAvbtable?8@ 000000014005ccd0     libvcruntime:undname.obj
 0002:00000ce0       ??_C@_07FEEIOKP@?$GAvcall?8@ 000000014005cce0     libvcruntime:undname.obj
 0002:00000ce8       ??_C@_08LLFFHHDJ@?$GAtypeof?8@ 000000014005cce8     libvcruntime:undname.obj
 0002:00000cf8       ??_C@_0BF@KDPPACIK@?$GAlocal?5static?5guard?8@ 000000014005ccf8     libvcruntime:undname.obj
 0002:00000d10       ??_C@_08OBABFOLI@?$GAstring?8@ 000000014005cd10     libvcruntime:undname.obj
 0002:00000d20       ??_C@_0BD@JDLKDPAB@?$GAvbase?5destructor?8@ 000000014005cd20     libvcruntime:undname.obj
 0002:00000d38       ??_C@_0BN@DEGPLNFK@?$GAvector?5deleting?5destructor?8@ 000000014005cd38     libvcruntime:undname.obj
 0002:00000d58       ??_C@_0BO@OBMKPJIG@?$GAdefault?5constructor?5closure?8@ 000000014005cd58     libvcruntime:undname.obj
 0002:00000d78       ??_C@_0BN@IMDCHIKM@?$GAscalar?5deleting?5destructor?8@ 000000014005cd78     libvcruntime:undname.obj
 0002:00000d98       ??_C@_0BO@PFGOCPJJ@?$GAvector?5constructor?5iterator?8@ 000000014005cd98     libvcruntime:undname.obj
 0002:00000db8       ??_C@_0BN@LFPFMEDL@?$GAvector?5destructor?5iterator?8@ 000000014005cdb8     libvcruntime:undname.obj
 0002:00000dd8       ??_C@_0CE@IKBNEHA@?$GAvector?5vbase?5constructor?5itera@ 000000014005cdd8     libvcruntime:undname.obj
 0002:00000e00       ??_C@_0BL@NILFHHPC@?$GAvirtual?5displacement?5map?8@ 000000014005ce00     libvcruntime:undname.obj
 0002:00000e20       ??_C@_0CB@JONCMFFK@?$GAeh?5vector?5constructor?5iterator@ 000000014005ce20     libvcruntime:undname.obj
 0002:00000e48       ??_C@_0CA@GCEOPDGL@?$GAeh?5vector?5destructor?5iterator?8@ 000000014005ce48     libvcruntime:undname.obj
 0002:00000e68       ??_C@_0CH@OOJPLCPH@?$GAeh?5vector?5vbase?5constructor?5it@ 000000014005ce68     libvcruntime:undname.obj
 0002:00000e90       ??_C@_0BL@LLKPOHJI@?$GAcopy?5constructor?5closure?8@ 000000014005ce90     libvcruntime:undname.obj
 0002:00000eb0       ??_C@_0BA@KBCDOMBN@?$GAudt?5returning?8@ 000000014005ceb0     libvcruntime:undname.obj
 0002:00000ec0       ??_C@_03KLGMFNMG@?$GAEH@   000000014005cec0     libvcruntime:undname.obj
 0002:00000ec4       ??_C@_05KHLCHHI@?$GARTTI@  000000014005cec4     libvcruntime:undname.obj
 0002:00000ed0       ??_C@_0BA@KKLDJDLB@?$GAlocal?5vftable?8@ 000000014005ced0     libvcruntime:undname.obj
 0002:00000ee0       ??_C@_0CE@IIHCMGGL@?$GAlocal?5vftable?5constructor?5clos@ 000000014005cee0     libvcruntime:undname.obj
 0002:00000f04       ??_C@_06FHBGPFGH@?5new?$FL?$FN@ 000000014005cf04     libvcruntime:undname.obj
 0002:00000f10       ??_C@_09LBNFPBCA@?5delete?$FL?$FN@ 000000014005cf10     libvcruntime:undname.obj
 0002:00000f20       ??_C@_0P@HJKNJFNN@?$GAomni?5callsig?8@ 000000014005cf20     libvcruntime:undname.obj
 0002:00000f30       ??_C@_0BL@CNOONJFP@?$GAplacement?5delete?5closure?8@ 000000014005cf30     libvcruntime:undname.obj
 0002:00000f50       ??_C@_0BN@CKNJLHMB@?$GAplacement?5delete?$FL?$FN?5closure?8@ 000000014005cf50     libvcruntime:undname.obj
 0002:00000f70       ??_C@_0CG@CFDHKGGD@?$GAmanaged?5vector?5constructor?5ite@ 000000014005cf70     libvcruntime:undname.obj
 0002:00000f98       ??_C@_0CF@IMGKMJNO@?$GAmanaged?5vector?5destructor?5iter@ 000000014005cf98     libvcruntime:undname.obj
 0002:00000fc0       ??_C@_0CG@HLDDJMAG@?$GAeh?5vector?5copy?5constructor?5ite@ 000000014005cfc0     libvcruntime:undname.obj
 0002:00000fe8       ??_C@_0CM@FCBBDIGB@?$GAeh?5vector?5vbase?5copy?5construct@ 000000014005cfe8     libvcruntime:undname.obj
 0002:00001018       ??_C@_0BL@CLIPGLGB@?$GAdynamic?5initializer?5for?5?8@ 000000014005d018     libvcruntime:undname.obj
 0002:00001038       ??_C@_0CB@PDBIFEP@?$GAdynamic?5atexit?5destructor?5for?5@ 000000014005d038     libvcruntime:undname.obj
 0002:00001060       ??_C@_0CD@CGAJBKEJ@?$GAvector?5copy?5constructor?5iterat@ 000000014005d060     libvcruntime:undname.obj
 0002:00001088       ??_C@_0CJ@GJELGAMM@?$GAvector?5vbase?5copy?5constructor?5@ 000000014005d088     libvcruntime:undname.obj
 0002:000010b8       ??_C@_0CL@FGIJHLCE@?$GAmanaged?5vector?5copy?5constructo@ 000000014005d0b8     libvcruntime:undname.obj
 0002:000010e8       ??_C@_0BM@PMGGMLDN@?$GAlocal?5static?5thread?5guard?8@ 000000014005d0e8     libvcruntime:undname.obj
 0002:00001108       ??_C@_0N@BDNMDMOL@operator?5?$CC?$CC?5@ 000000014005d108     libvcruntime:undname.obj
 0002:00001118       ??_C@_0BC@GGEBGALA@operator?5co_await@ 000000014005d118     libvcruntime:undname.obj
 0002:00001130       ??_C@_0M@GAAIMMOH@operator?$DM?$DN?$DO@ 000000014005d130     libvcruntime:undname.obj
 0002:00001140       ??_C@_0BC@DAFEJGAK@?5Type?5Descriptor?8@ 000000014005d140     libvcruntime:undname.obj
 0002:00001158       ??_C@_0BM@LDKODKLH@?5Base?5Class?5Descriptor?5at?5?$CI@ 000000014005d158     libvcruntime:undname.obj
 0002:00001178       ??_C@_0BD@LGICGFMM@?5Base?5Class?5Array?8@ 000000014005d178     libvcruntime:undname.obj
 0002:00001190       ??_C@_0BN@MECKDCOJ@?5Class?5Hierarchy?5Descriptor?8@ 000000014005d190     libvcruntime:undname.obj
 0002:000011b0       ??_C@_0BK@CFCOFLF@?5Complete?5Object?5Locator?8@ 000000014005d1b0     libvcruntime:undname.obj
 0002:000011d0       ??_C@_0BG@JNJLAMPM@?$GAanonymous?5namespace?8@ 000000014005d1d0     libvcruntime:undname.obj
 0002:000011e8       ??_C@_04HEJADOOB@CV?3?5@   000000014005d1e8     libvcruntime:undname.obj
 0002:000011f0       ??_C@_02MOLJINC@?3?3@      000000014005d1f0     libvcruntime:undname.obj
 0002:000011f8       ??_C@_0BE@JAEOCHPE@template?9parameter?9@ 000000014005d1f8     libvcruntime:undname.obj
 0002:00001210       ??_C@_0BF@LNLGBBNL@?$GAtemplate?9parameter?9@ 000000014005d210     libvcruntime:undname.obj
 0002:00001228       ??_C@_0O@KHGCOMHP@generic?9type?9@ 000000014005d228     libvcruntime:undname.obj
 0002:00001238       ??_C@_0P@ODDENDLM@?$GAgeneric?9type?9@ 000000014005d238     libvcruntime:undname.obj
 0002:00001248       ??_C@_02OHHJMEON@?8?8@     000000014005d248     libvcruntime:undname.obj
 0002:00001250       ??_C@_0BN@IBLMMFAP@?$GAnon?9type?9template?9parameter@ 000000014005d250     libvcruntime:undname.obj
 0002:00001270       ??_C@_03DLDNIBIK@?$CFlf@   000000014005d270     libvcruntime:undname.obj
 0002:00001274       ??_C@_04OFALKAJ@?$DP?$DP_C@ 000000014005d274     libvcruntime:undname.obj
 0002:0000127c       ??_C@_03KHICJKCI@?4?4?4@   000000014005d27c     libvcruntime:undname.obj
 0002:00001280       ??_C@_04HIBGFPH@NULL@      000000014005d280     libvcruntime:undname.obj
 0002:00001288       ??_C@_02DPKJAMEF@?$CFd@    000000014005d288     libvcruntime:undname.obj
 0002:00001290       ??_C@_0BK@IHCCFNEL@?$GAtemplate?9type?9parameter?9@ 000000014005d290     libvcruntime:undname.obj
 0002:000012b0       ??_C@_0BK@OFCNNNKO@?$GAgeneric?9class?9parameter?9@ 000000014005d2b0     libvcruntime:undname.obj
 0002:000012d0       ??_C@_0BL@NGJBLFIL@?$GAgeneric?9method?9parameter?9@ 000000014005d2d0     libvcruntime:undname.obj
 0002:000012f0       ??_C@_07OHNGEDJK@nullptr@  000000014005d2f0     libvcruntime:undname.obj
 0002:000012f8       ??_C@_06COJIGPIB@lambda@   000000014005d2f8     libvcruntime:undname.obj
 0002:00001300       ??_C@_04GKJNKENE@void@     000000014005d300     libvcruntime:undname.obj
 0002:00001308       ??_C@_0BE@EODMJLIF@?$GAtemplate?9parameter@ 000000014005d308     libvcruntime:undname.obj
 0002:0000131c       ??_C@_03OPGICMGF@?$HN?8?5@ 000000014005d31c     libvcruntime:undname.obj
 0002:00001320       ??_C@_02IGFCGPIL@?$HN?8@   000000014005d320     libvcruntime:undname.obj
 0002:00001328       ??_C@_0N@CBHHHENL@?$GAvtordispex?$HL@ 000000014005d328     libvcruntime:undname.obj
 0002:00001338       ??_C@_0L@GHPFDFH@?$GAvtordisp?$HL@ 000000014005d338     libvcruntime:undname.obj
 0002:00001348       ??_C@_0L@HNGCOGAE@?$GAadjustor?$HL@ 000000014005d348     libvcruntime:undname.obj
 0002:00001358       ??_C@_0CB@KJDOOODE@?$GAlocal?5static?5destructor?5helper@ 000000014005d358     libvcruntime:undname.obj
 0002:00001380       ??_C@_0DB@ILEFOCIJ@?$GAtemplate?5static?5data?5member?5co@ 000000014005d380     libvcruntime:undname.obj
 0002:000013b8       ??_C@_0DA@HGFJFBBE@?$GAtemplate?5static?5data?5member?5de@ 000000014005d3b8     libvcruntime:undname.obj
 0002:000013e8       ??_C@_07PGOEDBHP@static?5@ 000000014005d3e8     libvcruntime:undname.obj
 0002:000013f0       ??_C@_08NIEOINHE@virtual?5@ 000000014005d3f0     libvcruntime:undname.obj
 0002:00001400       ??_C@_09LAPHOOG@private?3?5@ 000000014005d400     libvcruntime:undname.obj
 0002:00001410       ??_C@_0M@GAIFPFIP@protected?3?5@ 000000014005d410     libvcruntime:undname.obj
 0002:00001420       ??_C@_08GPDDCMKI@public?3?5@ 000000014005d420     libvcruntime:undname.obj
 0002:00001430       ??_C@_08KJLFOPNE@?$FLthunk?$FN?3@ 000000014005d430     libvcruntime:undname.obj
 0002:00001440       ??_C@_0M@DHNBOJMP@extern?5?$CCC?$CC?5@ 000000014005d440     libvcruntime:undname.obj
 0002:0000144c       ??_C@_02KCKGHPCA@?$CJ?5@   000000014005d44c     libvcruntime:undname.obj
 0002:00001450       ??_C@_05CIHEBHNO@char?5@   000000014005d450     libvcruntime:undname.obj
 0002:00001458       ??_C@_06EHJMALKF@short?5@  000000014005d458     libvcruntime:undname.obj
 0002:00001460       ??_C@_04LAHKHJMA@int?5@    000000014005d460     libvcruntime:undname.obj
 0002:00001468       ??_C@_05CJIMAING@long?5@   000000014005d468     libvcruntime:undname.obj
 0002:00001470       ??_C@_09EBBEKKIH@unsigned?5@ 000000014005d470     libvcruntime:undname.obj
 0002:0000147c       ??_C@_05BEFAKPML@void?5@   000000014005d47c     libvcruntime:undname.obj
 0002:00001488       ??_C@_09GAIEOBLP@volatile?5@ 000000014005d488     libvcruntime:undname.obj
 0002:00001498       ??_C@_08PABEKFH@volatile@  000000014005d498     libvcruntime:undname.obj
 0002:000014a8       ??_C@_0BA@LKIJLKPP@std?3?3nullptr_t?5@ 000000014005d4a8     libvcruntime:undname.obj
 0002:000014b8       ??_C@_0P@GCOCNKDM@std?3?3nullptr_t@ 000000014005d4b8     libvcruntime:undname.obj
 0002:000014c8       ??_C@_0L@EGPHHEKN@?$DMellipsis?$DO@ 000000014005d4c8     libvcruntime:undname.obj
 0002:000014d4       ??_C@_04EENFHACM@?0?4?4?4@ 000000014005d4d4     libvcruntime:undname.obj
 0002:000014e0       ??_C@_0M@ELJOJFFH@?0?$DMellipsis?$DO@ 000000014005d4e0     libvcruntime:undname.obj
 0002:000014f0       ??_C@_09DNHFEOJI@?5noexcept@ 000000014005d4f0     libvcruntime:undname.obj
 0002:000014fc       ??_C@_03PBJBJNON@cpu@      000000014005d4fc     libvcruntime:undname.obj
 0002:00001500       ??_C@_03DCBBJBAA@amp@      000000014005d500     libvcruntime:undname.obj
 0002:00001504       ??_C@_02KEGNLNML@?0?5@     000000014005d504     libvcruntime:undname.obj
 0002:00001508       ??_C@_04ENMBGAPA@char@     000000014005d508     libvcruntime:undname.obj
 0002:00001510       ??_C@_05BFKKPKCG@short@    000000014005d510     libvcruntime:undname.obj
 0002:00001518       ??_C@_03JBIPMCLC@int@      000000014005d518     libvcruntime:undname.obj
 0002:0000151c       ??_C@_04GOKPGOLB@long@     000000014005d51c     libvcruntime:undname.obj
 0002:00001524       ??_C@_05KNFBNCOH@float@    000000014005d524     libvcruntime:undname.obj
 0002:0000152c       ??_C@_06BNJCAIGJ@double@   000000014005d52c     libvcruntime:undname.obj
 0002:00001534       ??_C@_04DDKJGDCM@bool@     000000014005d534     libvcruntime:undname.obj
 0002:0000153c       ??_C@_06EBGKOKIG@__int8@   000000014005d53c     libvcruntime:undname.obj
 0002:00001548       ??_C@_07ICFHOGAF@__int16@  000000014005d548     libvcruntime:undname.obj
 0002:00001550       ??_C@_07OFLPPHGP@__int32@  000000014005d550     libvcruntime:undname.obj
 0002:00001558       ??_C@_07LFCOJCAC@__int64@  000000014005d558     libvcruntime:undname.obj
 0002:00001560       ??_C@_08GAHOLHEO@__int128@ 000000014005d560     libvcruntime:undname.obj
 0002:00001570       ??_C@_09EEKGDCPH@?$DMunknown?$DO@ 000000014005d570     libvcruntime:undname.obj
 0002:00001580       ??_C@_07CFHGOPCN@char8_t@  000000014005d580     libvcruntime:undname.obj
 0002:00001588       ??_C@_08HBIPOFJB@char16_t@ 000000014005d588     libvcruntime:undname.obj
 0002:00001598       ??_C@_08IECNCBKG@char32_t@ 000000014005d598     libvcruntime:undname.obj
 0002:000015a8       ??_C@_07CLGGIAMF@wchar_t@  000000014005d5a8     libvcruntime:undname.obj
 0002:000015b0       ??_C@_04HAPDLBFF@auto@     000000014005d5b0     libvcruntime:undname.obj
 0002:000015b8       ??_C@_0P@LHCGKIGK@decltype?$CIauto?$CJ@ 000000014005d5b8     libvcruntime:undname.obj
 0002:000015c8       ??_C@_05PCNBGHCF@this?5@   000000014005d5c8     libvcruntime:undname.obj
 0002:000015d0       ??_C@_06GCICPBLB@__w64?5@  000000014005d5d0     libvcruntime:undname.obj
 0002:000015d8       ??_C@_07NFANNNEC@UNKNOWN@  000000014005d5d8     libvcruntime:undname.obj
 0002:000015e0       ??_C@_07EDHNAJHC@signed?5@ 000000014005d5e0     libvcruntime:undname.obj
 0002:000015e8       ??_C@_05BNCCCJPP@const@    000000014005d5e8     libvcruntime:undname.obj
 0002:000015f0       ??_C@_09EFNPDFFP@?5volatile@ 000000014005d5f0     libvcruntime:undname.obj
 0002:00001600       ??_C@_0P@GCIFDJCJ@?$GAunknown?5ecsu?8@ 000000014005d600     libvcruntime:undname.obj
 0002:00001610       ??_C@_06MOJHIBMG@union?5@  000000014005d610     libvcruntime:undname.obj
 0002:00001618       ??_C@_07DIBCDNGL@struct?5@ 000000014005d618     libvcruntime:undname.obj
 0002:00001620       ??_C@_06LJBABKPM@class?5@  000000014005d620     libvcruntime:undname.obj
 0002:00001628       ??_C@_08KOFANOFK@coclass?5@ 000000014005d628     libvcruntime:undname.obj
 0002:00001638       ??_C@_0N@DLIEFKNA@cointerface?5@ 000000014005d638     libvcruntime:undname.obj
 0002:00001648       ??_C@_05LJGMCFOG@enum?5@   000000014005d648     libvcruntime:undname.obj
 0002:00001650       ??_C@_06LIJLOJAG@const?5@  000000014005d650     libvcruntime:undname.obj
 0002:00001658       ??_C@_02KJPKDIBN@?$CG?5@   000000014005d658     libvcruntime:undname.obj
 0002:0000165c       ??_C@_03PCKGMOPB@?$CG?$CG?5@ 000000014005d65c     libvcruntime:undname.obj
 0002:00001660       ??_C@_0M@EALIELKG@cli?3?3array?$DM@ 000000014005d660     libvcruntime:undname.obj
 0002:00001670       ??_C@_0O@GKABPPIF@cli?3?3pin_ptr?$DM@ 000000014005d670     libvcruntime:undname.obj
 0002:00001680       ??_C@_02GOGNNPBN@?$CJ?$FL@ 000000014005d680     libvcruntime:undname.obj
 0002:00001684       ??_C@_06EEGAIFAK@?$HLflat?$HN@ 000000014005d684     libvcruntime:undname.obj
 0002:0000168c       ??_C@_05JIBOFOHK@?$HLfor?5@ 000000014005d68c     libvcruntime:undname.obj
 0002:00001694       ??_C@_02MDINNEEG@s?5@      000000014005d694     libvcruntime:undname.obj
 0002:000016a0       ??_7DNameNode@@6B@         000000014005d6a0     libvcruntime:undname.obj
 0002:000016c8       ??_7charNode@@6B@          000000014005d6c8     libvcruntime:undname.obj
 0002:000016f0       ??_7pcharNode@@6B@         000000014005d6f0     libvcruntime:undname.obj
 0002:00001718       ??_7pDNameNode@@6B@        000000014005d718     libvcruntime:undname.obj
 0002:00001740       ??_7DNameStatusNode@@6B@   000000014005d740     libvcruntime:undname.obj
 0002:00001768       ??_7pairNode@@6B@          000000014005d768     libvcruntime:undname.obj
 0002:00001890       ??_C@_04OKOHEJBO@?5?$DP?$DP?5@ 000000014005d890     libvcruntime:undname.obj
 0002:000018a0       ?nodes@?1??make@DNameStatusNode@@SAPEBV2@W4DNameStatus@@@Z@4QBV2@B 000000014005d8a0     libvcruntime:undname.obj
 0002:000018f8       ??_C@_1DM@KHCHBNEB@?$AAa?$AAp?$AAi?$AA?9?$AAm?$AAs?$AA?9?$AAw?$AAi?$AAn?$AA?9?$AAc?$AAo?$AAr?$AAe@ 000000014005d8f8     libvcruntime:winapi_downlevel.obj
 0002:00001938       ??_C@_1DK@LPPGFMPP@?$AAa?$AAp?$AAi?$AA?9?$AAm?$AAs?$AA?9?$AAw?$AAi?$AAn?$AA?9?$AAc?$AAo?$AAr?$AAe@ 000000014005d938     libvcruntime:winapi_downlevel.obj
 0002:00001978       ??_C@_1BC@GDMECMAK@?$AAk?$AAe?$AAr?$AAn?$AAe?$AAl?$AA3?$AA2@ 000000014005d978     libvcruntime:winapi_downlevel.obj
 0002:00001990       ??_C@_1BA@PFFKHIOG@?$AAa?$AAp?$AAi?$AA?9?$AAm?$AAs?$AA?9@ 000000014005d990     libvcruntime:winapi_downlevel.obj
 0002:000019a8       ??_C@_08KNHFBNJ@FlsAlloc@  000000014005d9a8     libvcruntime:winapi_downlevel.obj
 0002:000019c0       ??_C@_07PEJMOBNF@FlsFree@  000000014005d9c0     libvcruntime:winapi_downlevel.obj
 0002:000019d0       ??_C@_0M@GDNOONDI@FlsGetValue@ 000000014005d9d0     libvcruntime:winapi_downlevel.obj
 0002:000019e8       ??_C@_0M@JCPCPOEF@FlsSetValue@ 000000014005d9e8     libvcruntime:winapi_downlevel.obj
 0002:00001a00       ??_C@_0BM@HCFOFFN@InitializeCriticalSectionEx@ 000000014005da00     libvcruntime:winapi_downlevel.obj
 0002:00001a20       ?s_negLengthTab@FH4@@3QBCB 000000014005da20     libvcruntime:risctrnsctrl.obj
 0002:00001a30       ?s_shiftTab@FH4@@3QBEB     000000014005da30     libvcruntime:risctrnsctrl.obj
 0002:00001b80       ??_7exception@std@@6B@     000000014005db80     libvcruntime:frame.obj
 0002:00001b90       ??_C@_0BC@EOODALEL@Unknown?5exception@ 000000014005db90     libvcruntime:frame.obj
 0002:00001bb0       ??_7bad_exception@std@@6B@ 000000014005dbb0     libvcruntime:frame.obj
 0002:00001bc0       ??_C@_0O@DPKOEFFH@bad?5exception@ 000000014005dbc0     libvcruntime:frame.obj
 0002:00001bd0       _Fenv1                     000000014005dbd0     libucrt:output.obj
 0002:00001be0       ?standard_lookup_table_spectre@__crt_stdio_output@@3V?$spectre_mitigated_lookup_table@Ustate_transition_pair@__crt_stdio_output@@$0IA@@1@B 000000014005dbe0     libucrt:output.obj
 0002:00001ce0       ?format_validation_lookup_table_spectre@__crt_stdio_output@@3V?$spectre_mitigated_lookup_table@Ustate_transition_pair@__crt_stdio_output@@$0IA@@1@B 000000014005dce0     libucrt:output.obj
 0002:00001de0       ??_C@_1O@CEDCILHN@?$AA?$CI?$AAn?$AAu?$AAl?$AAl?$AA?$CJ@ 000000014005dde0     libucrt:output.obj
 0002:00001df0       ??_C@_06OJHGLDPL@?$CInull?$CJ@ 000000014005ddf0     libucrt:output.obj
 0002:00001e00       __acrt_exception_action_table 000000014005de00     libucrt:exception_filter.obj
 0002:00001ec0       __acrt_signal_action_table_count 000000014005dec0     libucrt:exception_filter.obj
 0002:00001ec8       __acrt_signal_action_table_size 000000014005dec8     libucrt:exception_filter.obj
 0002:00001ed0       __acrt_signal_action_first_fpe_index 000000014005ded0     libucrt:exception_filter.obj
 0002:00001ed8       __acrt_signal_action_fpe_count 000000014005ded8     libucrt:exception_filter.obj
 0002:00001ee0       ??_C@_1DE@JNGNBFGO@?$AAR?$AAu?$AAn?$AAt?$AAi?$AAm?$AAe?$AA?5?$AAE?$AAr?$AAr?$AAo?$AAr?$AA?$CB?$AA?6@ 000000014005dee0     libucrt:report_runtime_error.obj
 0002:00001f18       ??_C@_1CO@EAEJAADC@?$AA?$DM?$AAp?$AAr?$AAo?$AAg?$AAr?$AAa?$AAm?$AA?5?$AAn?$AAa?$AAm?$AAe?$AA?5?$AAu@ 000000014005df18     libucrt:report_runtime_error.obj
 0002:00001f48       ??_C@_17LGKOMLJ@?$AA?4?$AA?4?$AA?4@ 000000014005df48     libucrt:report_runtime_error.obj
 0002:00001f50       ??_C@_15IABLJNFO@?$AA?6?$AA?6@ 000000014005df50     libucrt:report_runtime_error.obj
 0002:00001f60       ??_C@_1EK@MBDPDCGA@?$AAM?$AAi?$AAc?$AAr?$AAo?$AAs?$AAo?$AAf?$AAt?$AA?5?$AAV?$AAi?$AAs?$AAu?$AAa@ 000000014005df60     libucrt:report_runtime_error.obj
 0002:000020a0       ??_C@_1BI@BGOHAHKC@?$AAm?$AAs?$AAc?$AAo?$AAr?$AAe?$AAe?$AA?4?$AAd?$AAl?$AAl@ 000000014005e0a0     libucrt:exit.obj
 0002:000020b8       ??_C@_0P@MIGLKIOC@CorExitProcess@ 000000014005e0b8     libucrt:exit.obj
 0002:00002150       __lc_category              000000014005e150     libucrt:wsetlocale.obj
 0002:000021e0       ??_C@_1O@GIFLHMA@?$AAL?$AAC?$AA_?$AAA?$AAL?$AAL@ 000000014005e1e0     libucrt:wsetlocale.obj
 0002:000021f0       ??_C@_1BG@PPOMIBNJ@?$AAL?$AAC?$AA_?$AAC?$AAO?$AAL?$AAL?$AAA?$AAT?$AAE@ 000000014005e1f0     libucrt:wsetlocale.obj
 0002:00002208       ??_C@_1BC@FFJGAPJM@?$AAL?$AAC?$AA_?$AAC?$AAT?$AAY?$AAP?$AAE@ 000000014005e208     libucrt:wsetlocale.obj
 0002:00002220       ??_C@_1BI@PCKFNJFB@?$AAL?$AAC?$AA_?$AAM?$AAO?$AAN?$AAE?$AAT?$AAA?$AAR?$AAY@ 000000014005e220     libucrt:wsetlocale.obj
 0002:00002238       ??_C@_1BG@ENIEDKID@?$AAL?$AAC?$AA_?$AAN?$AAU?$AAM?$AAE?$AAR?$AAI?$AAC@ 000000014005e238     libucrt:wsetlocale.obj
 0002:00002250       ??_C@_1BA@HAAOMIIG@?$AAL?$AAC?$AA_?$AAT?$AAI?$AAM?$AAE@ 000000014005e250     libucrt:wsetlocale.obj
 0002:00002260       ??_C@_15NBPDDFIP@?$AA?$DN?$AA?$DL@ 000000014005e260     libucrt:wsetlocale.obj
 0002:00002268       ??_C@_13PJJBFPED@?$AA?$DL@ 000000014005e268     libucrt:wsetlocale.obj
 0002:0000226c       ??_C@_13NMPKAAJP@?$AA?$DN@ 000000014005e26c     libucrt:wsetlocale.obj
 0002:00002270       ??_C@_13IMODFHAA@?$AA?9@   000000014005e270     libucrt:wsetlocale.obj
 0002:00002278       ??_C@_17EFJLDFDO@?$AA?9?$AA_?$AA?4@ 000000014005e278     libucrt:wsetlocale.obj
 0002:00002280       ??_C@_13FHBKNHDA@?$AAC@    000000014005e280     libucrt:wsetlocale.obj
 0002:00002288       ??_C@_17MBJJLFDM@?$AA_?$AA?4?$AA?0@ 000000014005e288     libucrt:wsetlocale.obj
 0002:00002290       ??_C@_13ENNFDPBH@?$AA_@    000000014005e290     libucrt:wsetlocale.obj
 0002:00002294       ??_C@_13JOFGPIOO@?$AA?4@   000000014005e294     libucrt:wsetlocale.obj
 0002:00002558       RtlNtPathSeperatorString   000000014005e558     libucrt:winapi_thunks.obj
 0002:00002568       ??_C@_13FPGAJAPJ@?$AA?2@   000000014005e568     libucrt:winapi_thunks.obj
 0002:00002570       RtlDosPathSeperatorsString 000000014005e570     libucrt:winapi_thunks.obj
 0002:00002580       ??_C@_15MNCACJLI@?$AA?2?$AA?1@ 000000014005e580     libucrt:winapi_thunks.obj
 0002:00002588       RtlAlternateDosPathSeperatorString 000000014005e588     libucrt:winapi_thunks.obj
 0002:00002598       ??_C@_13CGOKJPIL@?$AA?1@   000000014005e598     libucrt:winapi_thunks.obj
 0002:00002650       ??_C@_1EA@JGEFHKEI@?$AAa?$AAp?$AAi?$AA?9?$AAm?$AAs?$AA?9?$AAw?$AAi?$AAn?$AA?9?$AAc?$AAo?$AAr?$AAe@ 000000014005e650     libucrt:winapi_thunks.obj
 0002:00002690       ??_C@_1DI@KMEPCBPN@?$AAa?$AAp?$AAi?$AA?9?$AAm?$AAs?$AA?9?$AAw?$AAi?$AAn?$AA?9?$AAc?$AAo?$AAr?$AAe@ 000000014005e690     libucrt:winapi_thunks.obj
 0002:000026c8       ??_C@_1DI@IJCEHOCB@?$AAa?$AAp?$AAi?$AA?9?$AAm?$AAs?$AA?9?$AAw?$AAi?$AAn?$AA?9?$AAc?$AAo?$AAr?$AAe@ 000000014005e6c8     libucrt:winapi_thunks.obj
 0002:00002700       ??_C@_1EI@MPIAOHOC@?$AAa?$AAp?$AAi?$AA?9?$AAm?$AAs?$AA?9?$AAw?$AAi?$AAn?$AA?9?$AAc?$AAo?$AAr?$AAe@ 000000014005e700     libucrt:winapi_thunks.obj
 0002:00002750       ??_C@_1FK@FPHCKFIE@?$AAa?$AAp?$AAi?$AA?9?$AAm?$AAs?$AA?9?$AAw?$AAi?$AAn?$AA?9?$AAc?$AAo?$AAr?$AAe@ 000000014005e750     libucrt:winapi_thunks.obj
 0002:000027b0       ??_C@_1EM@DILCGIIO@?$AAa?$AAp?$AAi?$AA?9?$AAm?$AAs?$AA?9?$AAw?$AAi?$AAn?$AA?9?$AAc?$AAo?$AAr?$AAe@ 000000014005e7b0     libucrt:winapi_thunks.obj
 0002:00002800       ??_C@_1DM@LNCGDDPN@?$AAa?$AAp?$AAi?$AA?9?$AAm?$AAs?$AA?9?$AAw?$AAi?$AAn?$AA?9?$AAc?$AAo?$AAr?$AAe@ 000000014005e800     libucrt:winapi_thunks.obj
 0002:00002840       ??_C@_1DO@FPAPJEMD@?$AAa?$AAp?$AAi?$AA?9?$AAm?$AAs?$AA?9?$AAw?$AAi?$AAn?$AA?9?$AAc?$AAo?$AAr?$AAe@ 000000014005e840     libucrt:winapi_thunks.obj
 0002:00002880       ??_C@_1DK@NDHNAHIO@?$AAa?$AAp?$AAi?$AA?9?$AAm?$AAs?$AA?9?$AAw?$AAi?$AAn?$AA?9?$AAc?$AAo?$AAr?$AAe@ 000000014005e880     libucrt:winapi_thunks.obj
 0002:000028c0       ??_C@_1DM@KGHDGBCM@?$AAa?$AAp?$AAi?$AA?9?$AAm?$AAs?$AA?9?$AAw?$AAi?$AAn?$AA?9?$AAc?$AAo?$AAr?$AAe@ 000000014005e8c0     libucrt:winapi_thunks.obj
 0002:00002900       ??_C@_1EO@IJIOEFOH@?$AAa?$AAp?$AAi?$AA?9?$AAm?$AAs?$AA?9?$AAw?$AAi?$AAn?$AA?9?$AAr?$AAt?$AAc?$AAo@ 000000014005e900     libucrt:winapi_thunks.obj
 0002:00002950       ??_C@_1FG@HHGEKANL@?$AAa?$AAp?$AAi?$AA?9?$AAm?$AAs?$AA?9?$AAw?$AAi?$AAn?$AA?9?$AAs?$AAe?$AAc?$AAu@ 000000014005e950     libucrt:winapi_thunks.obj
 0002:000029b0       ??_C@_1EG@DBIOJECG@?$AAe?$AAx?$AAt?$AA?9?$AAm?$AAs?$AA?9?$AAw?$AAi?$AAn?$AA?9?$AAn?$AAt?$AAu?$AAs@ 000000014005e9b0     libucrt:winapi_thunks.obj
 0002:00002a00       ??_C@_1EO@FIHMJCLF@?$AAe?$AAx?$AAt?$AA?9?$AAm?$AAs?$AA?9?$AAw?$AAi?$AAn?$AA?9?$AAn?$AAt?$AAu?$AAs@ 000000014005ea00     libucrt:winapi_thunks.obj
 0002:00002a50       ??_C@_1BC@DNHGCMLG@?$AAa?$AAd?$AAv?$AAa?$AAp?$AAi?$AA3?$AA2@ 000000014005ea50     libucrt:winapi_thunks.obj
 0002:00002a68       ??_C@_1BG@CJPGBMEF@?$AAk?$AAe?$AAr?$AAn?$AAe?$AAl?$AAb?$AAa?$AAs?$AAe@ 000000014005ea68     libucrt:winapi_thunks.obj
 0002:00002a80       ??_C@_1M@OAIMIKLP@?$AAn?$AAt?$AAd?$AAl?$AAl@ 000000014005ea80     libucrt:winapi_thunks.obj
 0002:00002a90       ??_C@_1EG@DPGNFKGC@?$AAa?$AAp?$AAi?$AA?9?$AAm?$AAs?$AA?9?$AAw?$AAi?$AAn?$AA?9?$AAa?$AAp?$AAp?$AAm@ 000000014005ea90     libucrt:winapi_thunks.obj
 0002:00002ad8       ??_C@_1O@BCCLBEOE@?$AAu?$AAs?$AAe?$AAr?$AA3?$AA2@ 000000014005ead8     libucrt:winapi_thunks.obj
 0002:00002ae8       ??_C@_1BA@IAIFMGEF@?$AAe?$AAx?$AAt?$AA?9?$AAm?$AAs?$AA?9@ 000000014005eae8     libucrt:winapi_thunks.obj
 0002:00002b00       ??_C@_0BA@FHFNEAED@AreFileApisANSI@ 000000014005eb00     libucrt:winapi_thunks.obj
 0002:00002b18       ??_C@_0BA@IHGNDAEB@CompareStringEx@ 000000014005eb18     libucrt:winapi_thunks.obj
 0002:00002b30       ??_C@_0BE@LJANKFHF@EnumSystemLocalesEx@ 000000014005eb30     libucrt:winapi_thunks.obj
 0002:00002b50       ??_C@_0BA@HNOPNCHB@GetActiveWindow@ 000000014005eb50     libucrt:winapi_thunks.obj
 0002:00002b68       ??_C@_0BA@EPCJIIPD@GetDateFormatEx@ 000000014005eb68     libucrt:winapi_thunks.obj
 0002:00002b80       ??_C@_0O@NNMIPI@GetTempPath2W@ 000000014005eb80     libucrt:winapi_thunks.obj
 0002:00002b98       ??_C@_0BJ@DIBIJBHA@GetEnabledXStateFeatures@ 000000014005eb98     libucrt:winapi_thunks.obj
 0002:00002bc0       ??_C@_0BD@HHGDFDBJ@GetLastActivePopup@ 000000014005ebc0     libucrt:winapi_thunks.obj
 0002:00002be0       ??_C@_0BA@ONOKGCMP@GetLocaleInfoEx@ 000000014005ebe0     libucrt:winapi_thunks.obj
 0002:00002bf8       ??_C@_0BI@DFKBFLJE@GetProcessWindowStation@ 000000014005ebf8     libucrt:winapi_thunks.obj
 0002:00002c18       ??_C@_0BP@FPNJPEJC@GetSystemTimePreciseAsFileTime@ 000000014005ec18     libucrt:winapi_thunks.obj
 0002:00002c40       ??_C@_0BA@CIJJKCJJ@GetTimeFormatEx@ 000000014005ec40     libucrt:winapi_thunks.obj
 0002:00002c58       ??_C@_0BJ@PBCCBIPI@GetUserDefaultLocaleName@ 000000014005ec58     libucrt:winapi_thunks.obj
 0002:00002c80       ??_C@_0BK@DEKFELLI@GetUserObjectInformationW@ 000000014005ec80     libucrt:winapi_thunks.obj
 0002:00002ca8       ??_C@_0BG@IKLDMBLM@GetXStateFeaturesMask@ 000000014005eca8     libucrt:winapi_thunks.obj
 0002:00002cd0       ??_C@_0BC@CELBKLLA@IsValidLocaleName@ 000000014005ecd0     libucrt:winapi_thunks.obj
 0002:00002cf0       ??_C@_0O@KKBNKAPF@LCMapStringEx@ 000000014005ecf0     libucrt:winapi_thunks.obj
 0002:00002d08       ??_C@_0BB@CDHDDLLP@LCIDToLocaleName@ 000000014005ed08     libucrt:winapi_thunks.obj
 0002:00002d28       ??_C@_0BB@HBDEELFH@LocaleNameToLCID@ 000000014005ed28     libucrt:winapi_thunks.obj
 0002:00002d48       ??_C@_0BE@KINNKFDA@LocateXStateFeature@ 000000014005ed48     libucrt:winapi_thunks.obj
 0002:00002d68       ??_C@_0M@CHKKJDAI@MessageBoxA@ 000000014005ed68     libucrt:winapi_thunks.obj
 0002:00002d80       ??_C@_0M@DLDCCGNP@MessageBoxW@ 000000014005ed80     libucrt:winapi_thunks.obj
 0002:00002d90       ??_C@_0N@PPOMPGGK@RoInitialize@ 000000014005ed90     libucrt:winapi_thunks.obj
 0002:00002da8       ??_C@_0P@LLFHBIJD@RoUninitialize@ 000000014005eda8     libucrt:winapi_thunks.obj
 0002:00002dc0       ??_C@_0CF@OJOFEIGO@AppPolicyGetProcessTerminationM@ 000000014005edc0     libucrt:winapi_thunks.obj
 0002:00002df0       ??_C@_0CF@NNDFDCOC@AppPolicyGetThreadInitializatio@ 000000014005edf0     libucrt:winapi_thunks.obj
 0002:00002e20       ??_C@_0CE@OICFMIKE@AppPolicyGetShowDeveloperDiagno@ 000000014005ee20     libucrt:winapi_thunks.obj
 0002:00002e48       ??_C@_0BL@ODDJNEDA@AppPolicyGetWindowingModel@ 000000014005ee48     libucrt:winapi_thunks.obj
 0002:00002e70       ??_C@_0BI@BKLFFAPO@SetThreadStackGuarantee@ 000000014005ee70     libucrt:winapi_thunks.obj
 0002:00002e90       ??_C@_0BC@JEAENNKH@SystemFunction036@ 000000014005ee90     libucrt:winapi_thunks.obj
 0002:00002f30       ??_C@_03OEIAHPBN@INF@      000000014005ef30     libucrt:cvt.obj
 0002:00002f34       ??_C@_03OJHLLCGB@inf@      000000014005ef34     libucrt:cvt.obj
 0002:00002f38       ??_C@_03LKNCIKJB@NAN@      000000014005ef38     libucrt:cvt.obj
 0002:00002f3c       ??_C@_03LHCJEHON@nan@      000000014005ef3c     libucrt:cvt.obj
 0002:00002f40       ??_C@_09OFJJIMPC@NAN?$CISNAN?$CJ@ 000000014005ef40     libucrt:cvt.obj
 0002:00002f50       ??_C@_09IPFBKMDL@nan?$CIsnan?$CJ@ 000000014005ef50     libucrt:cvt.obj
 0002:00002f60       ??_C@_08IKHNHAJ@NAN?$CIIND?$CJ@ 000000014005ef60     libucrt:cvt.obj
 0002:00002f70       ??_C@_08OFCDMILK@nan?$CIind?$CJ@ 000000014005ef70     libucrt:cvt.obj
 0002:00002f7c       ??_C@_05KLBDPFGC@e?$CL000@ 000000014005ef7c     libucrt:cvt.obj
 0002:00002f90       __lc_time_c                000000014005ef90     libucrt:nlsdata.obj
 0002:00003250       ??_C@_03KOEHGMDN@Sun@      000000014005f250     libucrt:nlsdata.obj
 0002:00003254       ??_C@_03PDAGKDH@Mon@       000000014005f254     libucrt:nlsdata.obj
 0002:00003258       ??_C@_03NAGEINEP@Tue@      000000014005f258     libucrt:nlsdata.obj
 0002:0000325c       ??_C@_03MHOMLAJA@Wed@      000000014005f25c     libucrt:nlsdata.obj
 0002:00003260       ??_C@_03IOFIKPDN@Thu@      000000014005f260     libucrt:nlsdata.obj
 0002:00003264       ??_C@_03IDIOELNC@Fri@      000000014005f264     libucrt:nlsdata.obj
 0002:00003268       ??_C@_03FEFJNEK@Sat@       000000014005f268     libucrt:nlsdata.obj
 0002:0000326c       ??_C@_06OOPIFAJ@Sunday@    000000014005f26c     libucrt:nlsdata.obj
 0002:00003274       ??_C@_06JLEDEDGH@Monday@   000000014005f274     libucrt:nlsdata.obj
 0002:00003280       ??_C@_07BAAGCFCM@Tuesday@  000000014005f280     libucrt:nlsdata.obj
 0002:00003288       ??_C@_09DLIGFAKA@Wednesday@ 000000014005f288     libucrt:nlsdata.obj
 0002:00003298       ??_C@_08HACCIKIA@Thursday@ 000000014005f298     libucrt:nlsdata.obj
 0002:000032a4       ??_C@_06JECMNKMI@Friday@   000000014005f2a4     libucrt:nlsdata.obj
 0002:000032b0       ??_C@_08INBOOONO@Saturday@ 000000014005f2b0     libucrt:nlsdata.obj
 0002:000032bc       ??_C@_03JIHJHPIE@Jan@      000000014005f2bc     libucrt:nlsdata.obj
 0002:000032c0       ??_C@_03HJBDCHOM@Feb@      000000014005f2c0     libucrt:nlsdata.obj
 0002:000032c4       ??_C@_03ODNJBKGA@Mar@      000000014005f2c4     libucrt:nlsdata.obj
 0002:000032c8       ??_C@_03LEOLGMJP@Apr@      000000014005f2c8     libucrt:nlsdata.obj
 0002:000032cc       ??_C@_03CNMDKL@May@        000000014005f2cc     libucrt:nlsdata.obj
 0002:000032d0       ??_C@_03IDFGHECI@Jun@      000000014005f2d0     libucrt:nlsdata.obj
 0002:000032d4       ??_C@_03LBGABGKK@Jul@      000000014005f2d4     libucrt:nlsdata.obj
 0002:000032d8       ??_C@_03IFJFEIGA@Aug@      000000014005f2d8     libucrt:nlsdata.obj
 0002:000032dc       ??_C@_03GGCAPAJC@Sep@      000000014005f2dc     libucrt:nlsdata.obj
 0002:000032e0       ??_C@_03BMAOKBAD@Oct@      000000014005f2e0     libucrt:nlsdata.obj
 0002:000032e4       ??_C@_03JPJOFNIA@Nov@      000000014005f2e4     libucrt:nlsdata.obj
 0002:000032e8       ??_C@_03MKABNOCG@Dec@      000000014005f2e8     libucrt:nlsdata.obj
 0002:000032f0       ??_C@_07CGJPFGJA@January@  000000014005f2f0     libucrt:nlsdata.obj
 0002:000032f8       ??_C@_08GNJGEPFN@February@ 000000014005f2f8     libucrt:nlsdata.obj
 0002:00003304       ??_C@_05HPCKOFNC@March@    000000014005f304     libucrt:nlsdata.obj
 0002:0000330c       ??_C@_05DMJDNLEJ@April@    000000014005f30c     libucrt:nlsdata.obj
 0002:00003314       ??_C@_04CNLMGBGM@June@     000000014005f314     libucrt:nlsdata.obj
 0002:0000331c       ??_C@_04MIEPOIFP@July@     000000014005f31c     libucrt:nlsdata.obj
 0002:00003324       ??_C@_06LBBHFDDG@August@   000000014005f324     libucrt:nlsdata.obj
 0002:00003330       ??_C@_09BHHEALKD@September@ 000000014005f330     libucrt:nlsdata.obj
 0002:00003340       ??_C@_07JJNFCEND@October@  000000014005f340     libucrt:nlsdata.obj
 0002:00003348       ??_C@_08HCHEGEOA@November@ 000000014005f348     libucrt:nlsdata.obj
 0002:00003358       ??_C@_08EDHMEBNP@December@ 000000014005f358     libucrt:nlsdata.obj
 0002:00003364       ??_C@_02DEDBPAFC@AM@       000000014005f364     libucrt:nlsdata.obj
 0002:00003368       ??_C@_02CJNFDJBF@PM@       000000014005f368     libucrt:nlsdata.obj
 0002:00003370       ??_C@_08BPBNCDIB@MM?1dd?1yy@ 000000014005f370     libucrt:nlsdata.obj
 0002:00003380       ??_C@_0BE@CKGJFCPC@dddd?0?5MMMM?5dd?0?5yyyy@ 000000014005f380     libucrt:nlsdata.obj
 0002:00003398       ??_C@_08JCCMCCIL@HH?3mm?3ss@ 000000014005f398     libucrt:nlsdata.obj
 0002:000033a8       ??_C@_17MBGCMIPB@?$AAS?$AAu?$AAn@ 000000014005f3a8     libucrt:nlsdata.obj
 0002:000033b0       ??_C@_17KBOMKBF@?$AAM?$AAo?$AAn@ 000000014005f3b0     libucrt:nlsdata.obj
 0002:000033b8       ??_C@_17BMKGEGOJ@?$AAT?$AAu?$AAe@ 000000014005f3b8     libucrt:nlsdata.obj
 0002:000033c0       ??_C@_17CJEDCEPE@?$AAW?$AAe?$AAd@ 000000014005f3c0     libucrt:nlsdata.obj
 0002:000033c8       ??_C@_17PDPHAADD@?$AAT?$AAh?$AAu@ 000000014005f3c8     libucrt:nlsdata.obj
 0002:000033d0       ??_C@_17HFOLPPLP@?$AAF?$AAr?$AAi@ 000000014005f3d0     libucrt:nlsdata.obj
 0002:000033d8       ??_C@_17GGIBDPIH@?$AAS?$AAa?$AAt@ 000000014005f3d8     libucrt:nlsdata.obj
 0002:000033e0       ??_C@_1O@IHNHDHPB@?$AAS?$AAu?$AAn?$AAd?$AAa?$AAy@ 000000014005f3e0     libucrt:nlsdata.obj
 0002:000033f0       ??_C@_1O@MMNBFLIA@?$AAM?$AAo?$AAn?$AAd?$AAa?$AAy@ 000000014005f3f0     libucrt:nlsdata.obj
 0002:00003400       ??_C@_1BA@ENFBFFEK@?$AAT?$AAu?$AAe?$AAs?$AAd?$AAa?$AAy@ 000000014005f400     libucrt:nlsdata.obj
 0002:00003410       ??_C@_1BE@EBOGMDOH@?$AAW?$AAe?$AAd?$AAn?$AAe?$AAs?$AAd?$AAa?$AAy@ 000000014005f410     libucrt:nlsdata.obj
 0002:00003428       ??_C@_1BC@HHMNLIHE@?$AAT?$AAh?$AAu?$AAr?$AAs?$AAd?$AAa?$AAy@ 000000014005f428     libucrt:nlsdata.obj
 0002:00003440       ??_C@_1O@PDICJHAG@?$AAF?$AAr?$AAi?$AAd?$AAa?$AAy@ 000000014005f440     libucrt:nlsdata.obj
 0002:00003450       ??_C@_1BC@ENMNNPAJ@?$AAS?$AAa?$AAt?$AAu?$AAr?$AAd?$AAa?$AAy@ 000000014005f450     libucrt:nlsdata.obj
 0002:00003468       ??_C@_17DKNBKCHM@?$AAJ?$AAa?$AAn@ 000000014005f468     libucrt:nlsdata.obj
 0002:00003470       ??_C@_17LMDJEKJN@?$AAF?$AAe?$AAb@ 000000014005f470     libucrt:nlsdata.obj
 0002:00003478       ??_C@_17CKNLEDEC@?$AAM?$AAa?$AAr@ 000000014005f478     libucrt:nlsdata.obj
 0002:00003480       ??_C@_17LFPOIHDD@?$AAA?$AAp?$AAr@ 000000014005f480     libucrt:nlsdata.obj
 0002:00003488       ??_C@_17PNNKMEED@?$AAM?$AAa?$AAy@ 000000014005f488     libucrt:nlsdata.obj
 0002:00003490       ??_C@_17KCJGOCPB@?$AAJ?$AAu?$AAn@ 000000014005f490     libucrt:nlsdata.obj
 0002:00003498       ??_C@_17IJPCKHK@?$AAJ?$AAu?$AAl@ 000000014005f498     libucrt:nlsdata.obj
 0002:000034a0       ??_C@_17ICPELBCN@?$AAA?$AAu?$AAg@ 000000014005f4a0     libucrt:nlsdata.obj
 0002:000034a8       ??_C@_17HCHCOKMG@?$AAS?$AAe?$AAp@ 000000014005f4a8     libucrt:nlsdata.obj
 0002:000034b0       ??_C@_17FNLKOI@?$AAO?$AAc?$AAt@ 000000014005f4b0     libucrt:nlsdata.obj
 0002:000034b8       ??_C@_17BBDMLCIG@?$AAN?$AAo?$AAv@ 000000014005f4b8     libucrt:nlsdata.obj
 0002:000034c0       ??_C@_17EGKACKIF@?$AAD?$AAe?$AAc@ 000000014005f4c0     libucrt:nlsdata.obj
 0002:000034c8       ??_C@_1BA@EFMEIEBA@?$AAJ?$AAa?$AAn?$AAu?$AAa?$AAr?$AAy@ 000000014005f4c8     libucrt:nlsdata.obj
 0002:000034d8       ??_C@_1BC@JGDDFFAM@?$AAF?$AAe?$AAb?$AAr?$AAu?$AAa?$AAr?$AAy@ 000000014005f4d8     libucrt:nlsdata.obj
 0002:000034f0       ??_C@_1M@IKEENEDF@?$AAM?$AAa?$AAr?$AAc?$AAh@ 000000014005f4f0     libucrt:nlsdata.obj
 0002:00003500       ??_C@_1M@GJNLMHFD@?$AAA?$AAp?$AAr?$AAi?$AAl@ 000000014005f500     libucrt:nlsdata.obj
 0002:00003510       ??_C@_19EPFLPGAP@?$AAJ?$AAu?$AAn?$AAe@ 000000014005f510     libucrt:nlsdata.obj
 0002:00003520       ??_C@_19BIFMLPCD@?$AAJ?$AAu?$AAl?$AAy@ 000000014005f520     libucrt:nlsdata.obj
 0002:00003530       ??_C@_1O@PAHLKOAC@?$AAA?$AAu?$AAg?$AAu?$AAs?$AAt@ 000000014005f530     libucrt:nlsdata.obj
 0002:00003540       ??_C@_1BE@DKAAMBJL@?$AAS?$AAe?$AAp?$AAt?$AAe?$AAm?$AAb?$AAe?$AAr@ 000000014005f540     libucrt:nlsdata.obj
 0002:00003558       ??_C@_1BA@EPANDLNG@?$AAO?$AAc?$AAt?$AAo?$AAb?$AAe?$AAr@ 000000014005f558     libucrt:nlsdata.obj
 0002:00003568       ??_C@_1BC@BGLIFPF@?$AAN?$AAo?$AAv?$AAe?$AAm?$AAb?$AAe?$AAr@ 000000014005f568     libucrt:nlsdata.obj
 0002:00003580       ??_C@_1BC@FEMKIFH@?$AAD?$AAe?$AAc?$AAe?$AAm?$AAb?$AAe?$AAr@ 000000014005f580     libucrt:nlsdata.obj
 0002:00003594       ??_C@_15ODEHAHHF@?$AAA?$AAM@ 000000014005f594     libucrt:nlsdata.obj
 0002:0000359c       ??_C@_15CLMNNGEL@?$AAP?$AAM@ 000000014005f59c     libucrt:nlsdata.obj
 0002:000035a8       ??_C@_1BC@IEBCMHCM@?$AAM?$AAM?$AA?1?$AAd?$AAd?$AA?1?$AAy?$AAy@ 000000014005f5a8     libucrt:nlsdata.obj
 0002:000035c0       ??_C@_1CI@KNAKOEBC@?$AAd?$AAd?$AAd?$AAd?$AA?0?$AA?5?$AAM?$AAM?$AAM?$AAM?$AA?5?$AAd?$AAd?$AA?0?$AA?5@ 000000014005f5c0     libucrt:nlsdata.obj
 0002:000035e8       ??_C@_1BC@GDGBMEMK@?$AAH?$AAH?$AA?3?$AAm?$AAm?$AA?3?$AAs?$AAs@ 000000014005f5e8     libucrt:nlsdata.obj
 0002:00003600       ??_C@_1M@BMHNFIME@?$AAe?$AAn?$AA?9?$AAU?$AAS@ 000000014005f600     libucrt:nlsdata.obj
 0002:00003630       ??_C@_1M@HPNHIDJI@?$AAj?$AAa?$AA?9?$AAJ?$AAP@ 000000014005f630     libucrt:mbctype.obj
 0002:00003640       ??_C@_1M@BIBDDEMK@?$AAz?$AAh?$AA?9?$AAC?$AAN@ 000000014005f640     libucrt:mbctype.obj
 0002:00003650       ??_C@_1M@JLOOOEGK@?$AAk?$AAo?$AA?9?$AAK?$AAR@ 000000014005f650     libucrt:mbctype.obj
 0002:00003660       ??_C@_1M@CLNBBOPM@?$AAz?$AAh?$AA?9?$AAT?$AAW@ 000000014005f660     libucrt:mbctype.obj
 0002:00003670       __newctype                 000000014005f670     libucrt:ctype.obj
 0002:00003970       __newclmap                 000000014005f970     libucrt:ctype.obj
 0002:00003af0       __newcumap                 000000014005faf0     libucrt:ctype.obj
 0002:00003c70       _wctype                    000000014005fc70     libucrt:ctype.obj
 0002:00003e80       __acrt_rg_language         000000014005fe80     libucrt:get_qualified_locale.obj
 0002:00004290       __acrt_rg_language_count   0000000140060290     libucrt:get_qualified_locale.obj
 0002:000042a0       __acrt_rg_country          00000001400602a0     libucrt:get_qualified_locale.obj
 0002:00004410       __acrt_rg_country_count    0000000140060410     libucrt:get_qualified_locale.obj
 0002:00004418       ??_C@_1BC@LLOKLNP@?$AAa?$AAm?$AAe?$AAr?$AAi?$AAc?$AAa?$AAn@ 0000000140060418     libucrt:get_qualified_locale.obj
 0002:00004430       ??_C@_1CC@HEIGCDGG@?$AAa?$AAm?$AAe?$AAr?$AAi?$AAc?$AAa?$AAn?$AA?5?$AAe?$AAn?$AAg?$AAl?$AAi?$AAs@ 0000000140060430     libucrt:get_qualified_locale.obj
 0002:00004458       ??_C@_1CC@IHCNOMIN@?$AAa?$AAm?$AAe?$AAr?$AAi?$AAc?$AAa?$AAn?$AA?9?$AAe?$AAn?$AAg?$AAl?$AAi?$AAs@ 0000000140060458     libucrt:get_qualified_locale.obj
 0002:00004480       ??_C@_1BG@GKAGPCGG@?$AAa?$AAu?$AAs?$AAt?$AAr?$AAa?$AAl?$AAi?$AAa?$AAn@ 0000000140060480     libucrt:get_qualified_locale.obj
 0002:00004498       ??_C@_1BA@GMENCENF@?$AAb?$AAe?$AAl?$AAg?$AAi?$AAa?$AAn@ 0000000140060498     libucrt:get_qualified_locale.obj
 0002:000044a8       ??_C@_1BC@PJMIIAAN@?$AAc?$AAa?$AAn?$AAa?$AAd?$AAi?$AAa?$AAn@ 00000001400604a8     libucrt:get_qualified_locale.obj
 0002:000044c0       ??_C@_17NOIMNFBF@?$AAc?$AAh?$AAh@ 00000001400604c0     libucrt:get_qualified_locale.obj
 0002:000044c8       ??_C@_17GGDALCHA@?$AAc?$AAh?$AAi@ 00000001400604c8     libucrt:get_qualified_locale.obj
 0002:000044d0       ??_C@_1BA@NPNJKIBL@?$AAc?$AAh?$AAi?$AAn?$AAe?$AAs?$AAe@ 00000001400604d0     libucrt:get_qualified_locale.obj
 0002:000044e0       ??_C@_1CC@DINBAMMJ@?$AAc?$AAh?$AAi?$AAn?$AAe?$AAs?$AAe?$AA?9?$AAh?$AAo?$AAn?$AAg?$AAk?$AAo?$AAn@ 00000001400604e0     libucrt:get_qualified_locale.obj
 0002:00004508       ??_C@_1CG@IOBJPACO@?$AAc?$AAh?$AAi?$AAn?$AAe?$AAs?$AAe?$AA?9?$AAs?$AAi?$AAm?$AAp?$AAl?$AAi?$AAf@ 0000000140060508     libucrt:get_qualified_locale.obj
 0002:00004530       ??_C@_1CE@GAJNDCKG@?$AAc?$AAh?$AAi?$AAn?$AAe?$AAs?$AAe?$AA?9?$AAs?$AAi?$AAn?$AAg?$AAa?$AAp?$AAo@ 0000000140060530     libucrt:get_qualified_locale.obj
 0002:00004558       ??_C@_1CI@PAJPIOOD@?$AAc?$AAh?$AAi?$AAn?$AAe?$AAs?$AAe?$AA?9?$AAt?$AAr?$AAa?$AAd?$AAi?$AAt?$AAi@ 0000000140060558     libucrt:get_qualified_locale.obj
 0002:00004580       ??_C@_1BM@NILJBMMD@?$AAd?$AAu?$AAt?$AAc?$AAh?$AA?9?$AAb?$AAe?$AAl?$AAg?$AAi?$AAa?$AAn@ 0000000140060580     libucrt:get_qualified_locale.obj
 0002:000045a0       ??_C@_1CC@OOJPJNEJ@?$AAe?$AAn?$AAg?$AAl?$AAi?$AAs?$AAh?$AA?9?$AAa?$AAm?$AAe?$AAr?$AAi?$AAc?$AAa@ 00000001400605a0     libucrt:get_qualified_locale.obj
 0002:000045c8       ??_C@_1BI@IOLFEEM@?$AAe?$AAn?$AAg?$AAl?$AAi?$AAs?$AAh?$AA?9?$AAa?$AAu?$AAs@ 00000001400605c8     libucrt:get_qualified_locale.obj
 0002:000045e0       ??_C@_1BO@HFFNLENJ@?$AAe?$AAn?$AAg?$AAl?$AAi?$AAs?$AAh?$AA?9?$AAb?$AAe?$AAl?$AAi?$AAz?$AAe@ 00000001400605e0     libucrt:get_qualified_locale.obj
 0002:00004600       ??_C@_1BI@HAPKJMPO@?$AAe?$AAn?$AAg?$AAl?$AAi?$AAs?$AAh?$AA?9?$AAc?$AAa?$AAn@ 0000000140060600     libucrt:get_qualified_locale.obj
 0002:00004618       ??_C@_1CE@HLNDMIOJ@?$AAe?$AAn?$AAg?$AAl?$AAi?$AAs?$AAh?$AA?9?$AAc?$AAa?$AAr?$AAi?$AAb?$AAb?$AAe@ 0000000140060618     libucrt:get_qualified_locale.obj
 0002:00004640       ??_C@_1BI@LDHJHHAC@?$AAe?$AAn?$AAg?$AAl?$AAi?$AAs?$AAh?$AA?9?$AAi?$AAr?$AAe@ 0000000140060640     libucrt:get_qualified_locale.obj
 0002:00004658       ??_C@_1CA@NJMMCFOC@?$AAe?$AAn?$AAg?$AAl?$AAi?$AAs?$AAh?$AA?9?$AAj?$AAa?$AAm?$AAa?$AAi?$AAc?$AAa@ 0000000140060658     libucrt:get_qualified_locale.obj
 0002:00004678       ??_C@_1BG@BHJEBBGG@?$AAe?$AAn?$AAg?$AAl?$AAi?$AAs?$AAh?$AA?9?$AAn?$AAz@ 0000000140060678     libucrt:get_qualified_locale.obj
 0002:00004690       ??_C@_1CK@FGOEJJCO@?$AAe?$AAn?$AAg?$AAl?$AAi?$AAs?$AAh?$AA?9?$AAs?$AAo?$AAu?$AAt?$AAh?$AA?5?$AAa@ 0000000140060690     libucrt:get_qualified_locale.obj
 0002:000046c0       ??_C@_1DE@PDBJPCJ@?$AAe?$AAn?$AAg?$AAl?$AAi?$AAs?$AAh?$AA?9?$AAt?$AAr?$AAi?$AAn?$AAi?$AAd?$AAa@ 00000001400606c0     libucrt:get_qualified_locale.obj
 0002:000046f8       ??_C@_1BG@JGCANDME@?$AAe?$AAn?$AAg?$AAl?$AAi?$AAs?$AAh?$AA?9?$AAu?$AAk@ 00000001400606f8     libucrt:get_qualified_locale.obj
 0002:00004710       ??_C@_1BG@DINKMLE@?$AAe?$AAn?$AAg?$AAl?$AAi?$AAs?$AAh?$AA?9?$AAu?$AAs@ 0000000140060710     libucrt:get_qualified_locale.obj
 0002:00004728       ??_C@_1BI@NMFDBHJE@?$AAe?$AAn?$AAg?$AAl?$AAi?$AAs?$AAh?$AA?9?$AAu?$AAs?$AAa@ 0000000140060728     libucrt:get_qualified_locale.obj
 0002:00004740       ??_C@_1BO@OIHKJKII@?$AAf?$AAr?$AAe?$AAn?$AAc?$AAh?$AA?9?$AAb?$AAe?$AAl?$AAg?$AAi?$AAa?$AAn@ 0000000140060740     libucrt:get_qualified_locale.obj
 0002:00004760       ??_C@_1CA@NKAELJKI@?$AAf?$AAr?$AAe?$AAn?$AAc?$AAh?$AA?9?$AAc?$AAa?$AAn?$AAa?$AAd?$AAi?$AAa?$AAn@ 0000000140060760     libucrt:get_qualified_locale.obj
 0002:00004780       ??_C@_1CE@MGKCNLGN@?$AAf?$AAr?$AAe?$AAn?$AAc?$AAh?$AA?9?$AAl?$AAu?$AAx?$AAe?$AAm?$AAb?$AAo?$AAu@ 0000000140060780     libucrt:get_qualified_locale.obj
 0002:000047a8       ??_C@_1BK@CEGEAILM@?$AAf?$AAr?$AAe?$AAn?$AAc?$AAh?$AA?9?$AAs?$AAw?$AAi?$AAs?$AAs@ 00000001400607a8     libucrt:get_qualified_locale.obj
 0002:000047c8       ??_C@_1CA@PAFKEOCC@?$AAg?$AAe?$AAr?$AAm?$AAa?$AAn?$AA?9?$AAa?$AAu?$AAs?$AAt?$AAr?$AAi?$AAa?$AAn@ 00000001400607c8     libucrt:get_qualified_locale.obj
 0002:000047e8       ??_C@_1CI@HCFHGOFD@?$AAg?$AAe?$AAr?$AAm?$AAa?$AAn?$AA?9?$AAl?$AAi?$AAc?$AAh?$AAt?$AAe?$AAn?$AAs@ 00000001400607e8     libucrt:get_qualified_locale.obj
 0002:00004810       ??_C@_1CE@FEDDNPDG@?$AAg?$AAe?$AAr?$AAm?$AAa?$AAn?$AA?9?$AAl?$AAu?$AAx?$AAe?$AAm?$AAb?$AAo?$AAu@ 0000000140060810     libucrt:get_qualified_locale.obj
 0002:00004838       ??_C@_1BK@LIMINNMN@?$AAg?$AAe?$AAr?$AAm?$AAa?$AAn?$AA?9?$AAs?$AAw?$AAi?$AAs?$AAs@ 0000000140060838     libucrt:get_qualified_locale.obj
 0002:00004858       ??_C@_1BM@LGMDBEPD@?$AAi?$AAr?$AAi?$AAs?$AAh?$AA?9?$AAe?$AAn?$AAg?$AAl?$AAi?$AAs?$AAh@ 0000000140060858     libucrt:get_qualified_locale.obj
 0002:00004878       ??_C@_1BM@NNCFBAEE@?$AAi?$AAt?$AAa?$AAl?$AAi?$AAa?$AAn?$AA?9?$AAs?$AAw?$AAi?$AAs?$AAs@ 0000000140060878     libucrt:get_qualified_locale.obj
 0002:00004898       ??_C@_1BE@FEDJNPIB@?$AAn?$AAo?$AAr?$AAw?$AAe?$AAg?$AAi?$AAa?$AAn@ 0000000140060898     libucrt:get_qualified_locale.obj
 0002:000048b0       ??_C@_1CC@CILKDEIE@?$AAn?$AAo?$AAr?$AAw?$AAe?$AAg?$AAi?$AAa?$AAn?$AA?9?$AAb?$AAo?$AAk?$AAm?$AAa@ 00000001400608b0     libucrt:get_qualified_locale.obj
 0002:000048d8       ??_C@_1CE@DHMMHEPL@?$AAn?$AAo?$AAr?$AAw?$AAe?$AAg?$AAi?$AAa?$AAn?$AA?9?$AAn?$AAy?$AAn?$AAo?$AAr@ 00000001400608d8     libucrt:get_qualified_locale.obj
 0002:00004900       ??_C@_1CK@OPNMHECD@?$AAp?$AAo?$AAr?$AAt?$AAu?$AAg?$AAu?$AAe?$AAs?$AAe?$AA?9?$AAb?$AAr?$AAa?$AAz@ 0000000140060900     libucrt:get_qualified_locale.obj
 0002:00004930       ??_C@_1CE@KEEHCDB@?$AAs?$AAp?$AAa?$AAn?$AAi?$AAs?$AAh?$AA?9?$AAa?$AAr?$AAg?$AAe?$AAn?$AAt?$AAi@ 0000000140060930     libucrt:get_qualified_locale.obj
 0002:00004958       ??_C@_1CA@GIAOLHJD@?$AAs?$AAp?$AAa?$AAn?$AAi?$AAs?$AAh?$AA?9?$AAb?$AAo?$AAl?$AAi?$AAv?$AAi?$AAa@ 0000000140060958     libucrt:get_qualified_locale.obj
 0002:00004978       ??_C@_1BM@OJNDFNPD@?$AAs?$AAp?$AAa?$AAn?$AAi?$AAs?$AAh?$AA?9?$AAc?$AAh?$AAi?$AAl?$AAe@ 0000000140060978     libucrt:get_qualified_locale.obj
 0002:00004998       ??_C@_1CC@OCOLPALL@?$AAs?$AAp?$AAa?$AAn?$AAi?$AAs?$AAh?$AA?9?$AAc?$AAo?$AAl?$AAo?$AAm?$AAb?$AAi@ 0000000140060998     libucrt:get_qualified_locale.obj
 0002:000049c0       ??_C@_1CG@BPOFMKBB@?$AAs?$AAp?$AAa?$AAn?$AAi?$AAs?$AAh?$AA?9?$AAc?$AAo?$AAs?$AAt?$AAa?$AA?5?$AAr@ 00000001400609c0     libucrt:get_qualified_locale.obj
 0002:000049e8       ??_C@_1DG@IGOBAPBB@?$AAs?$AAp?$AAa?$AAn?$AAi?$AAs?$AAh?$AA?9?$AAd?$AAo?$AAm?$AAi?$AAn?$AAi?$AAc@ 00000001400609e8     libucrt:get_qualified_locale.obj
 0002:00004a20       ??_C@_1CA@JHAPGEGI@?$AAs?$AAp?$AAa?$AAn?$AAi?$AAs?$AAh?$AA?9?$AAe?$AAc?$AAu?$AAa?$AAd?$AAo?$AAr@ 0000000140060a20     libucrt:get_qualified_locale.obj
 0002:00004a40       ??_C@_1CI@LAPALJPP@?$AAs?$AAp?$AAa?$AAn?$AAi?$AAs?$AAh?$AA?9?$AAe?$AAl?$AA?5?$AAs?$AAa?$AAl?$AAv@ 0000000140060a40     libucrt:get_qualified_locale.obj
 0002:00004a68       ??_C@_1CE@PDGBOFOM@?$AAs?$AAp?$AAa?$AAn?$AAi?$AAs?$AAh?$AA?9?$AAg?$AAu?$AAa?$AAt?$AAe?$AAm?$AAa@ 0000000140060a68     libucrt:get_qualified_locale.obj
 0002:00004a90       ??_C@_1CC@NBEBAODI@?$AAs?$AAp?$AAa?$AAn?$AAi?$AAs?$AAh?$AA?9?$AAh?$AAo?$AAn?$AAd?$AAu?$AAr?$AAa@ 0000000140060a90     libucrt:get_qualified_locale.obj
 0002:00004ab8       ??_C@_1CA@LLKGHBMF@?$AAs?$AAp?$AAa?$AAn?$AAi?$AAs?$AAh?$AA?9?$AAm?$AAe?$AAx?$AAi?$AAc?$AAa?$AAn@ 0000000140060ab8     libucrt:get_qualified_locale.obj
 0002:00004ad8       ??_C@_1BO@LKNDOIGD@?$AAs?$AAp?$AAa?$AAn?$AAi?$AAs?$AAh?$AA?9?$AAm?$AAo?$AAd?$AAe?$AAr?$AAn@ 0000000140060ad8     libucrt:get_qualified_locale.obj
 0002:00004af8       ??_C@_1CE@NMDMOEEB@?$AAs?$AAp?$AAa?$AAn?$AAi?$AAs?$AAh?$AA?9?$AAn?$AAi?$AAc?$AAa?$AAr?$AAa?$AAg@ 0000000140060af8     libucrt:get_qualified_locale.obj
 0002:00004b20       ??_C@_1BO@LLCBEJGB@?$AAs?$AAp?$AAa?$AAn?$AAi?$AAs?$AAh?$AA?9?$AAp?$AAa?$AAn?$AAa?$AAm?$AAa@ 0000000140060b20     libucrt:get_qualified_locale.obj
 0002:00004b40       ??_C@_1CC@FKPGGIHO@?$AAs?$AAp?$AAa?$AAn?$AAi?$AAs?$AAh?$AA?9?$AAp?$AAa?$AAr?$AAa?$AAg?$AAu?$AAa@ 0000000140060b40     libucrt:get_qualified_locale.obj
 0002:00004b68       ??_C@_1BK@CDEIHOOP@?$AAs?$AAp?$AAa?$AAn?$AAi?$AAs?$AAh?$AA?9?$AAp?$AAe?$AAr?$AAu@ 0000000140060b68     libucrt:get_qualified_locale.obj
 0002:00004b88       ??_C@_1CI@GAHAKKGP@?$AAs?$AAp?$AAa?$AAn?$AAi?$AAs?$AAh?$AA?9?$AAp?$AAu?$AAe?$AAr?$AAt?$AAo?$AA?5@ 0000000140060b88     libucrt:get_qualified_locale.obj
 0002:00004bb0       ??_C@_1CA@NKJBCAGP@?$AAs?$AAp?$AAa?$AAn?$AAi?$AAs?$AAh?$AA?9?$AAu?$AAr?$AAu?$AAg?$AAu?$AAa?$AAy@ 0000000140060bb0     libucrt:get_qualified_locale.obj
 0002:00004bd0       ??_C@_1CE@ODILCONM@?$AAs?$AAp?$AAa?$AAn?$AAi?$AAs?$AAh?$AA?9?$AAv?$AAe?$AAn?$AAe?$AAz?$AAu?$AAe@ 0000000140060bd0     libucrt:get_qualified_locale.obj
 0002:00004bf8       ??_C@_1CA@OBNMCGFO@?$AAs?$AAw?$AAe?$AAd?$AAi?$AAs?$AAh?$AA?9?$AAf?$AAi?$AAn?$AAl?$AAa?$AAn?$AAd@ 0000000140060bf8     libucrt:get_qualified_locale.obj
 0002:00004c18       ??_C@_1M@PIPDDPPI@?$AAs?$AAw?$AAi?$AAs?$AAs@ 0000000140060c18     libucrt:get_qualified_locale.obj
 0002:00004c24       ??_C@_15PJPFLCCM@?$AAu?$AAk@ 0000000140060c24     libucrt:get_qualified_locale.obj
 0002:00004c2c       ??_C@_15GMFIMNFM@?$AAu?$AAs@ 0000000140060c2c     libucrt:get_qualified_locale.obj
 0002:00004c38       ??_C@_17HAEBFAGL@?$AAu?$AAs?$AAa@ 0000000140060c38     libucrt:get_qualified_locale.obj
 0002:00004c40       ??_C@_1BA@DPFJEPHB@?$AAa?$AAm?$AAe?$AAr?$AAi?$AAc?$AAa@ 0000000140060c40     libucrt:get_qualified_locale.obj
 0002:00004c50       ??_C@_1BA@ELOGGFK@?$AAb?$AAr?$AAi?$AAt?$AAa?$AAi?$AAn@ 0000000140060c50     libucrt:get_qualified_locale.obj
 0002:00004c60       ??_C@_1M@GHBGIGDA@?$AAc?$AAh?$AAi?$AAn?$AAa@ 0000000140060c60     libucrt:get_qualified_locale.obj
 0002:00004c70       ??_C@_1M@NCHEJOPO@?$AAc?$AAz?$AAe?$AAc?$AAh@ 0000000140060c70     libucrt:get_qualified_locale.obj
 0002:00004c80       ??_C@_1BA@BKPAPBLA@?$AAe?$AAn?$AAg?$AAl?$AAa?$AAn?$AAd@ 0000000140060c80     libucrt:get_qualified_locale.obj
 0002:00004c90       ??_C@_1BM@HKBCKIPC@?$AAg?$AAr?$AAe?$AAa?$AAt?$AA?5?$AAb?$AAr?$AAi?$AAt?$AAa?$AAi?$AAn@ 0000000140060c90     libucrt:get_qualified_locale.obj
 0002:00004cb0       ??_C@_1BA@PPCHPGJB@?$AAh?$AAo?$AAl?$AAl?$AAa?$AAn?$AAd@ 0000000140060cb0     libucrt:get_qualified_locale.obj
 0002:00004cc0       ??_C@_1BE@JBMPEGDG@?$AAh?$AAo?$AAn?$AAg?$AA?9?$AAk?$AAo?$AAn?$AAg@ 0000000140060cc0     libucrt:get_qualified_locale.obj
 0002:00004cd8       ??_C@_1BI@KOELBBPJ@?$AAn?$AAe?$AAw?$AA?9?$AAz?$AAe?$AAa?$AAl?$AAa?$AAn?$AAd@ 0000000140060cd8     libucrt:get_qualified_locale.obj
 0002:00004cf0       ??_C@_15HIEBHAIO@?$AAn?$AAz@ 0000000140060cf0     libucrt:get_qualified_locale.obj
 0002:00004cf8       ??_C@_1BC@CHBCPFPI@?$AAp?$AAr?$AA?5?$AAc?$AAh?$AAi?$AAn?$AAa@ 0000000140060cf8     libucrt:get_qualified_locale.obj
 0002:00004d10       ??_C@_1BC@JAOIIFKD@?$AAp?$AAr?$AA?9?$AAc?$AAh?$AAi?$AAn?$AAa@ 0000000140060d10     libucrt:get_qualified_locale.obj
 0002:00004d28       ??_C@_1BI@BEHPPHKC@?$AAp?$AAu?$AAe?$AAr?$AAt?$AAo?$AA?9?$AAr?$AAi?$AAc?$AAo@ 0000000140060d28     libucrt:get_qualified_locale.obj
 0002:00004d40       ??_C@_1O@PAEOFKDI@?$AAs?$AAl?$AAo?$AAv?$AAa?$AAk@ 0000000140060d40     libucrt:get_qualified_locale.obj
 0002:00004d50       ??_C@_1BK@FIHMCKAM@?$AAs?$AAo?$AAu?$AAt?$AAh?$AA?5?$AAa?$AAf?$AAr?$AAi?$AAc?$AAa@ 0000000140060d50     libucrt:get_qualified_locale.obj
 0002:00004d70       ??_C@_1BI@NAEOODKB@?$AAs?$AAo?$AAu?$AAt?$AAh?$AA?5?$AAk?$AAo?$AAr?$AAe?$AAa@ 0000000140060d70     libucrt:get_qualified_locale.obj
 0002:00004d88       ??_C@_1BK@FBDGGIFF@?$AAs?$AAo?$AAu?$AAt?$AAh?$AA?9?$AAa?$AAf?$AAr?$AAi?$AAc?$AAa@ 0000000140060d88     libucrt:get_qualified_locale.obj
 0002:00004da8       ??_C@_1BI@GHLEJDPK@?$AAs?$AAo?$AAu?$AAt?$AAh?$AA?9?$AAk?$AAo?$AAr?$AAe?$AAa@ 0000000140060da8     libucrt:get_qualified_locale.obj
 0002:00004dc0       ??_C@_1CE@PLHLOMJF@?$AAt?$AAr?$AAi?$AAn?$AAi?$AAd?$AAa?$AAd?$AA?5?$AA?$CG?$AA?5?$AAt?$AAo?$AAb?$AAa@ 0000000140060dc0     libucrt:get_qualified_locale.obj
 0002:00004de8       ??_C@_1BO@MODIMHHI@?$AAu?$AAn?$AAi?$AAt?$AAe?$AAd?$AA?9?$AAk?$AAi?$AAn?$AAg?$AAd?$AAo?$AAm@ 0000000140060de8     libucrt:get_qualified_locale.obj
 0002:00004e08       ??_C@_1BM@FFHJONBJ@?$AAu?$AAn?$AAi?$AAt?$AAe?$AAd?$AA?9?$AAs?$AAt?$AAa?$AAt?$AAe?$AAs@ 0000000140060e08     libucrt:get_qualified_locale.obj
 0002:00004e28       ??_C@_19MPDNHKDG@?$AAu?$AAt?$AAf?$AA8@ 0000000140060e28     libucrt:get_qualified_locale.obj
 0002:00004e38       ??_C@_17DNCLJFIF@?$AAA?$AAC?$AAP@ 0000000140060e38     libucrt:get_qualified_locale.obj
 0002:00004e40       ??_C@_1M@FPEIIFAM@?$AAu?$AAt?$AAf?$AA?9?$AA8@ 0000000140060e40     libucrt:get_qualified_locale.obj
 0002:00004e50       ??_C@_17CIKBIHLH@?$AAO?$AAC?$AAP@ 0000000140060e50     libucrt:get_qualified_locale.obj
 0002:00004e58       __rglangidNotDefault       0000000140060e58     libucrt:getqloc_downlevel.obj
 0002:00005cb0       ??_C@_15EMKDOKLE@?$AAa?$AAr@ 0000000140061cb0     libucrt:lcidtoname_downlevel.obj
 0002:00005cb8       ??_C@_15KNPADPLH@?$AAb?$AAg@ 0000000140061cb8     libucrt:lcidtoname_downlevel.obj
 0002:00005cc0       ??_C@_15EDMHLDMO@?$AAc?$AAa@ 0000000140061cc0     libucrt:lcidtoname_downlevel.obj
 0002:00005cc8       ??_C@_1O@BPEAJADD@?$AAz?$AAh?$AA?9?$AAC?$AAH?$AAS@ 0000000140061cc8     libucrt:lcidtoname_downlevel.obj
 0002:00005cd8       ??_C@_15LJNHCMNK@?$AAc?$AAs@ 0000000140061cd8     libucrt:lcidtoname_downlevel.obj
 0002:00005ce0       ??_C@_15FOMCIDHG@?$AAd?$AAa@ 0000000140061ce0     libucrt:lcidtoname_downlevel.obj
 0002:00005ce8       ??_C@_15NBKABECB@?$AAd?$AAe@ 0000000140061ce8     libucrt:lcidtoname_downlevel.obj
 0002:00005cf0       ??_C@_15GHPEIIAO@?$AAe?$AAl@ 0000000140061cf0     libucrt:lcidtoname_downlevel.obj
 0002:00005cf8       ??_C@_15MNPNEAIF@?$AAe?$AAn@ 0000000140061cf8     libucrt:lcidtoname_downlevel.obj
 0002:00005d00       ??_C@_15GPIOMPMH@?$AAe?$AAs@ 0000000140061d00     libucrt:lcidtoname_downlevel.obj
 0002:00005d08       ??_C@_15NGLOAKJC@?$AAf?$AAi@ 0000000140061d08     libucrt:lcidtoname_downlevel.obj
 0002:00005d10       ??_C@_15FBKGNKAM@?$AAf?$AAr@ 0000000140061d10     libucrt:lcidtoname_downlevel.obj
 0002:00005d18       ??_C@_15KGGCNEFK@?$AAh?$AAe@ 0000000140061d18     libucrt:lcidtoname_downlevel.obj
 0002:00005d20       ??_C@_15PGHLIDMF@?$AAh?$AAu@ 0000000140061d20     libucrt:lcidtoname_downlevel.obj
 0002:00005d28       ??_C@_15BIEMAPLM@?$AAi?$AAs@ 0000000140061d28     libucrt:lcidtoname_downlevel.obj
 0002:00005d30       ??_C@_15IFJLDHAF@?$AAi?$AAt@ 0000000140061d30     libucrt:lcidtoname_downlevel.obj
 0002:00005d38       ??_C@_15GEMIOCAG@?$AAj?$AAa@ 0000000140061d38     libucrt:lcidtoname_downlevel.obj
 0002:00005d40       ??_C@_15EPELEGJA@?$AAk?$AAo@ 0000000140061d40     libucrt:lcidtoname_downlevel.obj
 0002:00005d48       ??_C@_15NDDHIMN@?$AAn?$AAl@ 0000000140061d48     libucrt:lcidtoname_downlevel.obj
 0002:00005d50       ??_C@_15BPIGNHCD@?$AAn?$AAo@ 0000000140061d50     libucrt:lcidtoname_downlevel.obj
 0002:00005d58       ??_C@_15DEOPBLCG@?$AAp?$AAl@ 0000000140061d58     libucrt:lcidtoname_downlevel.obj
 0002:00005d60       ??_C@_15KBECGEFG@?$AAp?$AAt@ 0000000140061d60     libucrt:lcidtoname_downlevel.obj
 0002:00005d68       ??_C@_15GLJCBFMD@?$AAr?$AAo@ 0000000140061d68     libucrt:lcidtoname_downlevel.obj
 0002:00005d70       ??_C@_15FEDGKCDI@?$AAr?$AAu@ 0000000140061d70     libucrt:lcidtoname_downlevel.obj
 0002:00005d78       ??_C@_15GLKMLLHM@?$AAh?$AAr@ 0000000140061d78     libucrt:lcidtoname_downlevel.obj
 0002:00005d80       ??_C@_15CPKMFBDB@?$AAs?$AAk@ 0000000140061d80     libucrt:lcidtoname_downlevel.obj
 0002:00005d88       ??_C@_15BAAIOGMK@?$AAs?$AAq@ 0000000140061d88     libucrt:lcidtoname_downlevel.obj
 0002:00005d90       ??_C@_15INNPNOHD@?$AAs?$AAv@ 0000000140061d90     libucrt:lcidtoname_downlevel.obj
 0002:00005d98       ??_C@_15CABMMOGH@?$AAt?$AAh@ 0000000140061d98     libucrt:lcidtoname_downlevel.obj
 0002:00005da0       ??_C@_15BPLIHJJM@?$AAt?$AAr@ 0000000140061da0     libucrt:lcidtoname_downlevel.obj
 0002:00005da8       ??_C@_15NEOEKKDJ@?$AAu?$AAr@ 0000000140061da8     libucrt:lcidtoname_downlevel.obj
 0002:00005db0       ??_C@_15NFICGAJK@?$AAi?$AAd@ 0000000140061db0     libucrt:lcidtoname_downlevel.obj
 0002:00005db8       ??_C@_15HPJPHDM@?$AAb?$AAe@ 0000000140061db8     libucrt:lcidtoname_downlevel.obj
 0002:00005dc0       ??_C@_15LCHLGJII@?$AAs?$AAl@ 0000000140061dc0     libucrt:lcidtoname_downlevel.obj
 0002:00005dc8       ??_C@_15PCFJPHHO@?$AAe?$AAt@ 0000000140061dc8     libucrt:lcidtoname_downlevel.obj
 0002:00005dd0       ??_C@_15HPFPGODN@?$AAl?$AAv@ 0000000140061dd0     libucrt:lcidtoname_downlevel.obj
 0002:00005dd8       ??_C@_15NFFGKGLG@?$AAl?$AAt@ 0000000140061dd8     libucrt:lcidtoname_downlevel.obj
 0002:00005de0       ??_C@_15BDAKCCHN@?$AAf?$AAa@ 0000000140061de0     libucrt:lcidtoname_downlevel.obj
 0002:00005de8       ??_C@_15NFGIAIAJ@?$AAv?$AAi@ 0000000140061de8     libucrt:lcidtoname_downlevel.obj
 0002:00005df0       ??_C@_15LMKNDMHN@?$AAh?$AAy@ 0000000140061df0     libucrt:lcidtoname_downlevel.obj
 0002:00005df8       ??_C@_15IJBHMCFL@?$AAa?$AAz@ 0000000140061df8     libucrt:lcidtoname_downlevel.obj
 0002:00005e00       ??_C@_15EKOFJABL@?$AAe?$AAu@ 0000000140061e00     libucrt:lcidtoname_downlevel.obj
 0002:00005e08       ??_C@_15BGHADCNK@?$AAm?$AAk@ 0000000140061e08     libucrt:lcidtoname_downlevel.obj
 0002:00005e10       ??_C@_15JDNICKHM@?$AAa?$AAf@ 0000000140061e10     libucrt:lcidtoname_downlevel.obj
 0002:00005e18       ??_C@_15KPJEDBKD@?$AAk?$AAa@ 0000000140061e18     libucrt:lcidtoname_downlevel.obj
 0002:00005e20       ??_C@_15PDNFFFEO@?$AAf?$AAo@ 0000000140061e20     libucrt:lcidtoname_downlevel.obj
 0002:00005e28       ??_C@_15OMLEGLOC@?$AAh?$AAi@ 0000000140061e28     libucrt:lcidtoname_downlevel.obj
 0002:00005e30       ??_C@_15IDNNENKK@?$AAm?$AAs@ 0000000140061e30     libucrt:lcidtoname_downlevel.obj
 0002:00005e38       ??_C@_15MACJNBMH@?$AAk?$AAk@ 0000000140061e38     libucrt:lcidtoname_downlevel.obj
 0002:00005e40       ??_C@_15DKDJEOND@?$AAk?$AAy@ 0000000140061e40     libucrt:lcidtoname_downlevel.obj
 0002:00005e48       ??_C@_15DFGDLJBG@?$AAs?$AAw@ 0000000140061e48     libucrt:lcidtoname_downlevel.obj
 0002:00005e50       ??_C@_15BBFAICNG@?$AAu?$AAz@ 0000000140061e50     libucrt:lcidtoname_downlevel.obj
 0002:00005e58       ??_C@_15DKNDCGEA@?$AAt?$AAt@ 0000000140061e58     libucrt:lcidtoname_downlevel.obj
 0002:00005e60       ??_C@_15MGIFMDPL@?$AAp?$AAa@ 0000000140061e60     libucrt:lcidtoname_downlevel.obj
 0002:00005e68       ??_C@_15HCNDBBA@?$AAg?$AAu@ 0000000140061e68     libucrt:lcidtoname_downlevel.obj
 0002:00005e70       ??_C@_15FNBEIBON@?$AAt?$AAa@ 0000000140061e70     libucrt:lcidtoname_downlevel.obj
 0002:00005e78       ??_C@_15NCHGBGLK@?$AAt?$AAe@ 0000000140061e78     libucrt:lcidtoname_downlevel.obj
 0002:00005e80       ??_C@_15PHPHCBPF@?$AAk?$AAn@ 0000000140061e80     libucrt:lcidtoname_downlevel.obj
 0002:00005e88       ??_C@_15DLGBCKMP@?$AAm?$AAr@ 0000000140061e88     libucrt:lcidtoname_downlevel.obj
 0002:00005e90       ??_C@_15EABBLBFF@?$AAs?$AAa@ 0000000140061e90     libucrt:lcidtoname_downlevel.obj
 0002:00005e98       ??_C@_15CBKOMCOI@?$AAm?$AAn@ 0000000140061e98     libucrt:lcidtoname_downlevel.obj
 0002:00005ea0       ??_C@_15CKDMCJAF@?$AAg?$AAl@ 0000000140061ea0     libucrt:lcidtoname_downlevel.obj
 0002:00005ea8       ??_C@_17CNJFBPG@?$AAk?$AAo?$AAk@ 0000000140061ea8     libucrt:lcidtoname_downlevel.obj
 0002:00005eb0       ??_C@_17FFBJICPL@?$AAs?$AAy?$AAr@ 0000000140061eb0     libucrt:lcidtoname_downlevel.obj
 0002:00005eb8       ??_C@_17KPNDCPAF@?$AAd?$AAi?$AAv@ 0000000140061eb8     libucrt:lcidtoname_downlevel.obj
 0002:00005ec0       ??_C@_11LOCGONAA@@         0000000140061ec0     libucrt:lcidtoname_downlevel.obj
 0002:00005ec8       ??_C@_1M@OKAHONE@?$AAa?$AAr?$AA?9?$AAS?$AAA@ 0000000140061ec8     libucrt:lcidtoname_downlevel.obj
 0002:00005ed8       ??_C@_1M@FFFIGIGK@?$AAb?$AAg?$AA?9?$AAB?$AAG@ 0000000140061ed8     libucrt:lcidtoname_downlevel.obj
 0002:00005ee8       ??_C@_1M@BJNKEDC@?$AAc?$AAa?$AA?9?$AAE?$AAS@ 0000000140061ee8     libucrt:lcidtoname_downlevel.obj
 0002:00005ef8       ??_C@_1M@IJJHFJHA@?$AAc?$AAs?$AA?9?$AAC?$AAZ@ 0000000140061ef8     libucrt:lcidtoname_downlevel.obj
 0002:00005f08       ??_C@_1M@CLPEOBGI@?$AAd?$AAa?$AA?9?$AAD?$AAK@ 0000000140061f08     libucrt:lcidtoname_downlevel.obj
 0002:00005f18       ??_C@_1M@MCMADGCB@?$AAd?$AAe?$AA?9?$AAD?$AAE@ 0000000140061f18     libucrt:lcidtoname_downlevel.obj
 0002:00005f28       ??_C@_1M@OOCKEMAM@?$AAe?$AAl?$AA?9?$AAG?$AAR@ 0000000140061f28     libucrt:lcidtoname_downlevel.obj
 0002:00005f38       ??_C@_1M@DDNJFGID@?$AAf?$AAi?$AA?9?$AAF?$AAI@ 0000000140061f38     libucrt:lcidtoname_downlevel.obj
 0002:00005f48       ??_C@_1M@GLIPPMAC@?$AAf?$AAr?$AA?9?$AAF?$AAR@ 0000000140061f48     libucrt:lcidtoname_downlevel.obj
 0002:00005f58       ??_C@_1M@GFMCHPE@?$AAh?$AAe?$AA?9?$AAI?$AAL@ 0000000140061f58     libucrt:lcidtoname_downlevel.obj
 0002:00005f68       ??_C@_1M@MHLPGNKM@?$AAh?$AAu?$AA?9?$AAH?$AAU@ 0000000140061f68     libucrt:lcidtoname_downlevel.obj
 0002:00005f78       ??_C@_1M@LPDDNNPN@?$AAi?$AAs?$AA?9?$AAI?$AAS@ 0000000140061f78     libucrt:lcidtoname_downlevel.obj
 0002:00005f88       ??_C@_1M@MADIPODN@?$AAi?$AAt?$AA?9?$AAI?$AAT@ 0000000140061f88     libucrt:lcidtoname_downlevel.obj
 0002:00005f98       ??_C@_1M@IHBJJGG@?$AAn?$AAl?$AA?9?$AAN?$AAL@ 0000000140061f98     libucrt:lcidtoname_downlevel.obj
 0002:00005fa8       ??_C@_1M@EANAGDL@?$AAn?$AAb?$AA?9?$AAN?$AAO@ 0000000140061fa8     libucrt:lcidtoname_downlevel.obj
 0002:00005fb8       ??_C@_1M@NEIEMEGP@?$AAp?$AAl?$AA?9?$AAP?$AAL@ 0000000140061fb8     libucrt:lcidtoname_downlevel.obj
 0002:00005fc8       ??_C@_1M@BOCFIGEP@?$AAp?$AAt?$AA?9?$AAB?$AAR@ 0000000140061fc8     libucrt:lcidtoname_downlevel.obj
 0002:00005fd8       ??_C@_1M@IMPFOPBG@?$AAr?$AAo?$AA?9?$AAR?$AAO@ 0000000140061fd8     libucrt:lcidtoname_downlevel.obj
 0002:00005fe8       ??_C@_1M@IDNNEJMM@?$AAr?$AAu?$AA?9?$AAR?$AAU@ 0000000140061fe8     libucrt:lcidtoname_downlevel.obj
 0002:00005ff8       ??_C@_1M@LILEEOGM@?$AAh?$AAr?$AA?9?$AAH?$AAR@ 0000000140061ff8     libucrt:lcidtoname_downlevel.obj
 0002:00006008       ??_C@_1M@FKIFEHPB@?$AAs?$AAk?$AA?9?$AAS?$AAK@ 0000000140062008     libucrt:lcidtoname_downlevel.obj
 0002:00006018       ??_C@_1M@LJMAMNPJ@?$AAs?$AAq?$AA?9?$AAA?$AAL@ 0000000140062018     libucrt:lcidtoname_downlevel.obj
 0002:00006028       ??_C@_1M@GIAKDKJK@?$AAs?$AAv?$AA?9?$AAS?$AAE@ 0000000140062028     libucrt:lcidtoname_downlevel.obj
 0002:00006038       ??_C@_1M@MKJKIKCL@?$AAt?$AAh?$AA?9?$AAT?$AAH@ 0000000140062038     libucrt:lcidtoname_downlevel.obj
 0002:00006048       ??_C@_1M@MFLCCMPB@?$AAt?$AAr?$AA?9?$AAT?$AAR@ 0000000140062048     libucrt:lcidtoname_downlevel.obj
 0002:00006058       ??_C@_1M@OIJHDKJN@?$AAu?$AAr?$AA?9?$AAP?$AAK@ 0000000140062058     libucrt:lcidtoname_downlevel.obj
 0002:00006068       ??_C@_1M@LHIPCIEK@?$AAi?$AAd?$AA?9?$AAI?$AAD@ 0000000140062068     libucrt:lcidtoname_downlevel.obj
 0002:00006078       ??_C@_1M@MFMOBGI@?$AAu?$AAk?$AA?9?$AAU?$AAA@ 0000000140062078     libucrt:lcidtoname_downlevel.obj
 0002:00006088       ??_C@_1M@OBGLJIPL@?$AAb?$AAe?$AA?9?$AAB?$AAY@ 0000000140062088     libucrt:lcidtoname_downlevel.obj
 0002:00006098       ??_C@_1M@BCFAJEAD@?$AAs?$AAl?$AA?9?$AAS?$AAI@ 0000000140062098     libucrt:lcidtoname_downlevel.obj
 0002:000060a8       ??_C@_1M@FKFFEDDN@?$AAe?$AAt?$AA?9?$AAE?$AAE@ 00000001400620a8     libucrt:lcidtoname_downlevel.obj
 0002:000060b8       ??_C@_1M@KGKKAACI@?$AAl?$AAv?$AA?9?$AAL?$AAV@ 00000001400620b8     libucrt:lcidtoname_downlevel.obj
 0002:000060c8       ??_C@_1M@IFGBIJO@?$AAl?$AAt?$AA?9?$AAL?$AAT@ 00000001400620c8     libucrt:lcidtoname_downlevel.obj
 0002:000060d8       ??_C@_1M@FGEAHEDM@?$AAf?$AAa?$AA?9?$AAI?$AAR@ 00000001400620d8     libucrt:lcidtoname_downlevel.obj
