 seh-example1

 Timestamp is 63f9aaa8 (Sat Feb 25 14:28:56 2023)

 Preferred load address is 0000000140000000

 Start         Length     Name                   Class
 0001:00000000 0005a240H .text$mn                CODE
 0001:0005a240 00000040H .text$mn$00             CODE
 0001:0005a280 00000a70H .text$x                 CODE
 0002:00000000 000002d0H .idata$5                DATA
 0002:000002d0 00000038H .00cfg                  DATA
 0002:00000308 00000008H .CRT$XCA                DATA
 0002:00000310 00000008H .CRT$XCAA               DATA
 0002:00000318 00000008H .CRT$XCZ                DATA
 0002:00000320 00000008H .CRT$XIA                DATA
 0002:00000328 00000008H .CRT$XIAA               DATA
 0002:00000330 00000008H .CRT$XIAC               DATA
 0002:00000338 00000020H .CRT$XIC                DATA
 0002:00000358 00000008H .CRT$XIZ                DATA
 0002:00000360 00000008H .CRT$XPA                DATA
 0002:00000368 00000010H .CRT$XPX                DATA
 0002:00000378 00000008H .CRT$XPXA               DATA
 0002:00000380 00000008H .CRT$XPZ                DATA
 0002:00000388 00000008H .CRT$XTA                DATA
 0002:00000390 00000010H .CRT$XTZ                DATA
 0002:00000398 00000000H .gehcont$y              DATA
 0002:00000398 00000000H .gfids$y                DATA
 0002:000003a0 0000a860H .rdata                  DATA
 0002:0000ac00 00000080H .rdata$CastGuardVftablesA DATA
 0002:0000ac80 00000080H .rdata$CastGuardVftablesC DATA
 0002:0000ad00 00000464H .rdata$r                DATA
 0002:0000b164 00000668H .rdata$voltmd           DATA
 0002:0000b7cc 000003d4H .rdata$zzzdbg           DATA
 0002:0000bba0 00000008H .rtc$IAA                DATA
 0002:0000bba8 00000008H .rtc$IZZ                DATA
 0002:0000bbb0 00000008H .rtc$TAA                DATA
 0002:0000bbb8 00000008H .rtc$TZZ                DATA
 0002:0000bbc0 00005bf0H .xdata                  DATA
 0002:000117b0 000000dcH .xdata$x                DATA
 0002:0001188c 00000000H .edata                  DATA
 0002:0001188c 00000014H .idata$2                DATA
 0002:000118a0 00000018H .idata$3                DATA
 0002:000118b8 000002d0H .idata$4                DATA
 0002:00011b88 00000682H .idata$6                DATA
 0003:00000000 00000a70H .data                   DATA
 0003:00000a70 00000090H .data$r                 DATA
 0003:00000b00 000000f0H .data$rs                DATA
 0003:00000bf0 00001a58H .bss                    DATA
 0004:00000000 00004728H .pdata                  DATA
 0005:00000000 0000015cH _RDATA                  DATA
 0006:00000000 00000060H .rsrc$01                DATA
 0006:00000060 00000180H .rsrc$02                DATA

  Address         Publics by Value              Rva+Base               Lib:Object

 0000:00000000       __AbsoluteZero             0000000000000000     <absolute>
 0000:00000000       ___safe_se_handler_count   0000000000000000     <absolute>
 0000:00000000       ___safe_se_handler_table   0000000000000000     <absolute>
 0000:00000000       __arm64x_extra_rfe_table   0000000000000000     <absolute>
 0000:00000000       __arm64x_extra_rfe_table_size 0000000000000000     <absolute>
 0000:00000000       __arm64x_native_entrypoint 0000000000000000     <absolute>
 0000:00000000       __arm64x_redirection_metadata 0000000000000000     <absolute>
 0000:00000000       __arm64x_redirection_metadata_count 0000000000000000     <absolute>
 0000:00000000       __dynamic_value_reloc_table 0000000000000000     <absolute>
 0000:00000000       __enclave_config           0000000000000000     <absolute>
 0000:00000000       __guard_check_icall_a64n_fptr 0000000000000000     <absolute>
 0000:00000000       __guard_eh_cont_count      0000000000000000     <absolute>
 0000:00000000       __guard_eh_cont_table      0000000000000000     <absolute>
 0000:00000000       __guard_fids_count         0000000000000000     <absolute>
 0000:00000000       __guard_fids_table         0000000000000000     <absolute>
 0000:00000000       __guard_iat_count          0000000000000000     <absolute>
 0000:00000000       __guard_iat_table          0000000000000000     <absolute>
 0000:00000000       __guard_longjmp_count      0000000000000000     <absolute>
 0000:00000000       __guard_longjmp_table      0000000000000000     <absolute>
 0000:00000000       __hybrid_auxiliary_iat     0000000000000000     <absolute>
 0000:00000000       __hybrid_auxiliary_iat_copy 0000000000000000     <absolute>
 0000:00000000       __hybrid_code_map          0000000000000000     <absolute>
 0000:00000000       __hybrid_code_map_count    0000000000000000     <absolute>
 0000:00000000       __x64_code_ranges_to_entry_points 0000000000000000     <absolute>
 0000:00000000       __x64_code_ranges_to_entry_points_count 0000000000000000     <absolute>
 0000:00000100       __guard_flags              0000000000000100     <absolute>
 0000:00000000       __ImageBase                0000000140000000     <linker-defined>
 0001:00000000       __local_stdio_printf_options 0000000140001000 f i example1.obj
 0001:00000010       main                       0000000140001010 f   example1.obj
 0001:00000030       msvc_CXX_1                 0000000140001030 f   example1.obj
 0001:00000080       msvc_SEH_1                 0000000140001080 f   example1.obj
 0001:000000c0       printf                     00000001400010c0 f i example1.obj
 0001:00000114       ??1type_info@@UEAA@XZ      0000000140001114 f   LIBCMT:std_type_info_static.obj
 0001:00000120       ??_Etype_info@@UEAAPEAXI@Z 0000000140001120 f i LIBCMT:std_type_info_static.obj
 0001:00000120       ??_Gtype_info@@UEAAPEAXI@Z 0000000140001120 f i LIBCMT:std_type_info_static.obj
 0001:000003c0       ?configure_argv@__scrt_narrow_argv_policy@@SAHXZ 00000001400013c0 f i LIBCMT:exe_main.obj
 0001:000003d4       ?initialize_environment@__scrt_narrow_environment_policy@@SAHXZ 00000001400013d4 f i LIBCMT:exe_main.obj
 0001:00000414       ?set_app_type@__scrt_main_policy@@SAXXZ 0000000140001414 f i LIBCMT:exe_main.obj
 0001:00000420       ?set_commode@__scrt_file_policy@@SAXXZ 0000000140001420 f i LIBCMT:exe_main.obj
 0001:0000043c       ?set_fmode@__scrt_file_policy@@SAXXZ 000000014000143c f i LIBCMT:exe_main.obj
 0001:00000450       mainCRTStartup             0000000140001450 f   LIBCMT:exe_main.obj
 0001:00000464       ??3@YAXPEAX_K@Z            0000000140001464 f   LIBCMT:delete_scalar_size.obj
 0001:000004e8       NtCurrentTeb               00000001400014e8 f i LIBCMT:utility.obj
 0001:000004f4       __scrt_acquire_startup_lock 00000001400014f4 f   LIBCMT:utility.obj
 0001:00000530       __scrt_dllmain_after_initialize_c 0000000140001530 f   LIBCMT:utility.obj
 0001:00000564       __scrt_dllmain_before_initialize_c 0000000140001564 f   LIBCMT:utility.obj
 0001:0000057c       __scrt_dllmain_crt_thread_attach 000000014000157c f   LIBCMT:utility.obj
 0001:000005a4       __scrt_dllmain_crt_thread_detach 00000001400015a4 f   LIBCMT:utility.obj
 0001:000005bc       __scrt_dllmain_exception_filter 00000001400015bc f   LIBCMT:utility.obj
 0001:0000061c       __scrt_dllmain_uninitialize_c 000000014000161c f   LIBCMT:utility.obj
 0001:0000064c       __scrt_dllmain_uninitialize_critical 000000014000164c f   LIBCMT:utility.obj
 0001:00000660       __scrt_initialize_crt      0000000140001660 f   LIBCMT:utility.obj
 0001:000006ac       __scrt_initialize_onexit_tables 00000001400016ac f   LIBCMT:utility.obj
 0001:00000738       __scrt_is_nonwritable_in_current_image 0000000140001738 f   LIBCMT:utility.obj
 0001:000007d0       __scrt_release_startup_lock 00000001400017d0 f   LIBCMT:utility.obj
 0001:000007f4       __scrt_uninitialize_crt    00000001400017f4 f   LIBCMT:utility.obj
 0001:00000820       _onexit                    0000000140001820 f   LIBCMT:utility.obj
 0001:0000085c       at_quick_exit              000000014000185c f   LIBCMT:utility.obj
 0001:0000087c       atexit                     000000014000187c f   LIBCMT:utility.obj
 0001:00000900       __security_init_cookie     0000000140001900 f   LIBCMT:gs_support.obj
 0001:000009ac       _matherr                   00000001400019ac f   LIBCMT:matherr.obj
 0001:000009b0       _get_startup_argv_mode     00000001400019b0 f   LIBCMT:argv_mode.obj
 0001:000009b8       _get_startup_commit_mode   00000001400019b8 f   LIBCMT:commit_mode.obj
 0001:000009bc       _get_startup_file_mode     00000001400019bc f   LIBCMT:file_mode.obj
 0001:000009c4       _get_startup_new_mode      00000001400019c4 f   LIBCMT:new_mode.obj
 0001:000009c8       _get_startup_thread_locale_mode 00000001400019c8 f   LIBCMT:thread_locale.obj
 0001:000009cc       ?__scrt_initialize_type_info@@YAXXZ 00000001400019cc f   LIBCMT:tncleanup.obj
 0001:000009dc       ?__scrt_uninitialize_type_info@@YAXXZ 00000001400019dc f   LIBCMT:tncleanup.obj
 0001:000009e8       _should_initialize_environment 00000001400019e8 f   LIBCMT:env_mode.obj
 0001:000009ec       _initialize_invalid_parameter_handler 00000001400019ec f   LIBCMT:invalid_parameter_handler.obj
 0001:000009f0       _initialize_denormal_control 00000001400019f0 f   LIBCMT:denormal_control.obj
 0001:000009f4       __local_stdio_scanf_options 00000001400019f4 f i LIBCMT:default_local_stdio_options.obj
 0001:000009fc       __scrt_initialize_default_local_stdio_options 00000001400019fc f   LIBCMT:default_local_stdio_options.obj
 0001:00000a18       __scrt_is_user_matherr_present 0000000140001a18 f   LIBCMT:matherr_detection.obj
 0001:00000a24       __scrt_get_dyn_tls_init_callback 0000000140001a24 f   LIBCMT:dyn_tls_init.obj
 0001:00000a2c       __scrt_get_dyn_tls_dtor_callback 0000000140001a2c f   LIBCMT:dyn_tls_dtor.obj
 0001:00000a34       __crt_debugger_hook        0000000140001a34 f   LIBCMT:utility_desktop.obj
 0001:00000a3c       __scrt_fastfail            0000000140001a3c f   LIBCMT:utility_desktop.obj
 0001:00000b88       __scrt_get_show_window_mode 0000000140001b88 f   LIBCMT:utility_desktop.obj
 0001:00000bc4       __scrt_initialize_mta      0000000140001bc4 f   LIBCMT:utility_desktop.obj
 0001:00000bcc       __scrt_initialize_winrt    0000000140001bcc f   LIBCMT:utility_desktop.obj
 0001:00000bd0       __scrt_is_managed_app      0000000140001bd0 f   LIBCMT:utility_desktop.obj
 0001:00000c24       __scrt_set_unhandled_exception_filter 0000000140001c24 f   LIBCMT:utility_desktop.obj
 0001:00000c34       __scrt_exe_initialize_mta  0000000140001c34 f   LIBCMT:utility_desktop.obj
 0001:00000c34       __scrt_stub_for_initialize_mta 0000000140001c34 f   LIBCMT:utility_desktop.obj
 0001:00000c38       __scrt_unhandled_exception_filter 0000000140001c38 f   LIBCMT:utility_desktop.obj
 0001:00000c94       _RTC_Initialize            0000000140001c94 f   LIBCMT:initsect.obj
 0001:00000cd0       _RTC_Terminate             0000000140001cd0 f   LIBCMT:initsect.obj
 0001:00000d0c       _guard_check_icall_nop     0000000140001d0c f i LIBCMT:guard_support.obj
 0001:00000d10       ReadNoFence64              0000000140001d10 f i LIBCMT:guard_support.obj
 0001:00000d14       ReadPointerNoFence         0000000140001d14 f i LIBCMT:guard_support.obj
 0001:00000d18       __castguard_check_failure_debugbreak 0000000140001d18 f i LIBCMT:guard_support.obj
 0001:00000d34       __castguard_check_failure_fastfail 0000000140001d34 f i LIBCMT:guard_support.obj
 0001:00000d58       __castguard_check_failure_nop 0000000140001d58 f i LIBCMT:guard_support.obj
 0001:00000d5c       __castguard_check_failure_os_handled 0000000140001d5c f i LIBCMT:guard_support.obj
 0001:00000dd8       __castguard_slow_path_check_debugbreak 0000000140001dd8 f i LIBCMT:guard_support.obj
 0001:00000e0c       __castguard_slow_path_check_fastfail 0000000140001e0c f i LIBCMT:guard_support.obj
 0001:00000e48       __castguard_slow_path_check_nop 0000000140001e48 f i LIBCMT:guard_support.obj
 0001:00000e4c       __castguard_slow_path_check_os_handled 0000000140001e4c f i LIBCMT:guard_support.obj
 0001:00000ebc       _guard_icall_checks_enforced 0000000140001ebc f i LIBCMT:guard_support.obj
 0001:00000ed4       _guard_rf_checks_enforced  0000000140001ed4 f i LIBCMT:guard_support.obj
 0001:00000ed8       ??3@YAXPEAX@Z              0000000140001ed8 f   LIBCMT:delete_scalar.obj
 0001:00000ee0       __isa_available_init       0000000140001ee0 f   LIBCMT:cpu_disp.obj
 0001:0000108c       __scrt_is_ucrt_dll_in_use  000000014000208c f   LIBCMT:ucrt_detection.obj
 0001:000010a0       _CxxThrowException         00000001400020a0 f   libvcruntime:throw.obj
 0001:00001140       __C_specific_handler       0000000140002140 f   libvcruntime:riscchandler.obj
 0001:00001338       ??$?0AEAViterator@TryBlockMap4@FH4@@AEAV012@$0A@@?$pair@Viterator@TryBlockMap4@FH4@@V123@@std@@QEAA@AEAViterator@TryBlockMap4@FH4@@0@Z 0000000140002338 f i libvcruntime:risctrnsctrl.obj
 0001:0000134c       ??$?0AEAViterator@TryBlockMap@__FrameHandler3@@AEAV012@$0A@@?$pair@Viterator@TryBlockMap@__FrameHandler3@@V123@@std@@QEAA@AEAViterator@TryBlockMap@__FrameHandler3@@0@Z 000000014000234c f i libvcruntime:risctrnsctrl.obj
 0001:000014d0       ??$_CallSETranslator@V__FrameHandler3@@@@YAHPEAUEHExceptionRecord@@PEA_KPEAU_CONTEXT@@PEAU_xDISPATCHER_CONTEXT@@PEBU_s_FuncInfo@@K1H@Z 00000001400024d0 f i libvcruntime:risctrnsctrl.obj
 0001:00001524       ??$_CallSETranslator@V__FrameHandler4@@@@YAHPEAUEHExceptionRecord@@PEA_KPEAU_CONTEXT@@PEAU_xDISPATCHER_CONTEXT@@PEAUFuncInfo4@FH4@@K1H@Z 0000000140002524 f i libvcruntime:risctrnsctrl.obj
 0001:00001578       ??$forward@AEAViterator@TryBlockMap4@FH4@@@std@@YAAEAViterator@TryBlockMap4@FH4@@AEAV123@@Z 0000000140002578 f i libvcruntime:risctrnsctrl.obj
 0001:0000157c       ??$forward@AEAViterator@TryBlockMap@__FrameHandler3@@@std@@YAAEAViterator@TryBlockMap@__FrameHandler3@@AEAV123@@Z 000000014000257c f i libvcruntime:risctrnsctrl.obj
 0001:00001580       ??0FuncInfo4@FH4@@QEAA@XZ  0000000140002580 f i libvcruntime:risctrnsctrl.obj
 0001:00001594       ??0FuncInfoHeader@FH4@@QEAA@XZ 0000000140002594 f i libvcruntime:risctrnsctrl.obj
 0001:0000159c       ??0iterator@TryBlockMap4@FH4@@QEAA@AEAV12@I@Z 000000014000259c f i libvcruntime:risctrnsctrl.obj
 0001:000015a8       ??0iterator@TryBlockMap@__FrameHandler3@@QEAA@AEAV12@I@Z 00000001400025a8 f i libvcruntime:risctrnsctrl.obj
 0001:000015b4       ??4iterator@TryBlockMap4@FH4@@QEAAAEAV012@AEBV012@@Z 00000001400025b4 f i libvcruntime:risctrnsctrl.obj
 0001:000015c0       ??9iterator@TryBlockMap4@FH4@@QEBA_NAEBV012@@Z 00000001400025c0 f i libvcruntime:risctrnsctrl.obj
 0001:000015cc       ??Diterator@TryBlockMap4@FH4@@QEAA?AUTryBlockMapEntry4@2@XZ 00000001400025cc f i libvcruntime:risctrnsctrl.obj
 0001:000015dc       ??Eiterator@TryBlockMap4@FH4@@QEAAAEAV012@XZ 00000001400025dc f i libvcruntime:risctrnsctrl.obj
 0001:00001678       ?CatchTryBlock@__FrameHandler3@@SAPEBU_s_TryBlockMapEntry@@PEBU_s_FuncInfo@@H@Z 0000000140002678 f   libvcruntime:risctrnsctrl.obj
 0001:000016dc       ?DecompFuncInfo@FH4@@YA_JPEAEAEAUFuncInfo4@1@_KH@Z 00000001400026dc f i libvcruntime:risctrnsctrl.obj
 0001:000016f0       ?DecompFuncInfo@FH4@@YA_JPEAEAEAUFuncInfo4@1@_KH_N@Z 00000001400026f0 f i libvcruntime:risctrnsctrl.obj
 0001:00001814       ?DecompTryBlock@TryBlockMap4@FH4@@AEAAXXZ 0000000140002814 f i libvcruntime:risctrnsctrl.obj
 0001:000018a8       ?ExecutionInCatch@__FrameHandler3@@SA_NPEAU_xDISPATCHER_CONTEXT@@PEBU_s_FuncInfo@@@Z 00000001400028a8 f   libvcruntime:risctrnsctrl.obj
 0001:000018d4       ?ExecutionInCatch@__FrameHandler4@@SA_NPEAU_xDISPATCHER_CONTEXT@@PEAUFuncInfo4@FH4@@@Z 00000001400028d4 f   libvcruntime:risctrnsctrl.obj
 0001:000018dc       ?FrameUnwindToEmptyState@__FrameHandler3@@SAXPEA_KPEAU_xDISPATCHER_CONTEXT@@PEBU_s_FuncInfo@@@Z 00000001400028dc f   libvcruntime:risctrnsctrl.obj
 0001:00001940       ?FrameUnwindToEmptyState@__FrameHandler4@@SAXPEA_KPEAU_xDISPATCHER_CONTEXT@@PEAUFuncInfo4@FH4@@@Z 0000000140002940 f   libvcruntime:risctrnsctrl.obj
 0001:00001974       ?GetEstablisherFrame@__FrameHandler3@@SAPEA_KPEA_KPEAU_xDISPATCHER_CONTEXT@@PEBU_s_FuncInfo@@0@Z 0000000140002974 f   libvcruntime:risctrnsctrl.obj
 0001:00001a40       ?GetEstablisherFrame@__FrameHandler4@@SAPEA_KPEA_KPEAU_xDISPATCHER_CONTEXT@@PEAUFuncInfo4@FH4@@0@Z 0000000140002a40 f   libvcruntime:risctrnsctrl.obj
 0001:00001a64       ?GetRangeOfTrysToCheck@__FrameHandler3@@SA?AU?$pair@Viterator@TryBlockMap@__FrameHandler3@@V123@@std@@AEAVTryBlockMap@1@HPEAU_xDISPATCHER_CONTEXT@@PEBU_s_FuncInfo@@H@Z 0000000140002a64 f   libvcruntime:risctrnsctrl.obj
 0001:00001ba4       ?GetRangeOfTrysToCheck@__FrameHandler4@@SA?AU?$pair@Viterator@TryBlockMap4@FH4@@V123@@std@@AEAVTryBlockMap4@FH4@@HPEAU_xDISPATCHER_CONTEXT@@PEAUFuncInfo4@5@H@Z 0000000140002ba4 f   libvcruntime:risctrnsctrl.obj
 0001:00001d10       ?ReadInt@FH4@@YAHPEAPEAE@Z 0000000140002d10 f i libvcruntime:risctrnsctrl.obj
 0001:00001d20       ?ReadUnsigned@FH4@@YAIPEAPEAE@Z 0000000140002d20 f i libvcruntime:risctrnsctrl.obj
 0001:00001d50       ?UnwindNestedFrames@__FrameHandler3@@SAXPEA_KPEAUEHExceptionRecord@@PEAU_CONTEXT@@0PEAXPEBU_s_FuncInfo@@HHPEBU_s_HandlerType@@PEAU_xDISPATCHER_CONTEXT@@E@Z 0000000140002d50 f   libvcruntime:risctrnsctrl.obj
 0001:00001e54       ?UnwindNestedFrames@__FrameHandler4@@SAXPEA_KPEAUEHExceptionRecord@@PEAU_CONTEXT@@0PEAXPEAUFuncInfo4@FH4@@HHPEAUHandlerType4@5@PEAU_xDISPATCHER_CONTEXT@@E@Z 0000000140002e54 f   libvcruntime:risctrnsctrl.obj
 0001:00001f74       ?begin@TryBlockMap4@FH4@@QEAA?AViterator@12@XZ 0000000140002f74 f i libvcruntime:risctrnsctrl.obj
 0001:00001f80       ?end@TryBlockMap4@FH4@@QEAA?AViterator@12@XZ 0000000140002f80 f i libvcruntime:risctrnsctrl.obj
 0001:00001f8c       ?imageRelToByteBuffer@FH4@@YAPEAE_KH@Z 0000000140002f8c f i libvcruntime:risctrnsctrl.obj
 0001:00001f94       ?incrementToSentinel@iterator@TryBlockMap4@FH4@@QEAAXXZ 0000000140002f94 f i libvcruntime:risctrnsctrl.obj
 0001:00001f98       ?setBuffer@TryBlockMap4@FH4@@QEAAXViterator@12@@Z 0000000140002f98 f i libvcruntime:risctrnsctrl.obj
 0001:0000215c       _CreateFrameInfo           000000014000315c f   libvcruntime:risctrnsctrl.obj
 0001:00002198       _FindAndUnlinkFrame        0000000140003198 f   libvcruntime:risctrnsctrl.obj
 0001:000021ec       _GetImageBase              00000001400031ec f   libvcruntime:risctrnsctrl.obj
 0001:00002200       _GetThrowImageBase         0000000140003200 f   libvcruntime:risctrnsctrl.obj
 0001:00002214       _SetImageBase              0000000140003214 f   libvcruntime:risctrnsctrl.obj
 0001:0000222c       _SetThrowImageBase         000000014000322c f   libvcruntime:risctrnsctrl.obj
 0001:00002244       __CxxFrameHandler          0000000140003244 f   libvcruntime:risctrnsctrl.obj
 0001:0000224c       __CxxFrameHandler2         000000014000324c f   libvcruntime:risctrnsctrl.obj
 0001:00002254       __CxxFrameHandler3         0000000140003254 f   libvcruntime:risctrnsctrl.obj
 0001:000022dc       __CxxFrameHandler4         00000001400032dc f   libvcruntime:risctrnsctrl.obj
 0001:0000239c       __vcrt_initialize          000000014000339c f   libvcruntime:initialization.obj
 0001:000023c4       __vcrt_thread_attach       00000001400033c4 f   libvcruntime:initialization.obj
 0001:000023d8       __vcrt_thread_detach       00000001400033d8 f   libvcruntime:initialization.obj
 0001:000023ec       __vcrt_uninitialize        00000001400033ec f   libvcruntime:initialization.obj
 0001:00002408       __vcrt_uninitialize_critical 0000000140003408 f   libvcruntime:initialization.obj
 0001:0000242c       ??$?RD@__crt_internal_free_policy@@QEBAXQEBD@Z 000000014000342c f i libvcruntime:std_type_info.obj
 0001:00002434       ??$?RX@__crt_internal_free_policy@@QEBAXQEBX@Z 0000000140003434 f i libvcruntime:std_type_info.obj
 0001:0000243c       ??$__crt_interlocked_compare_exchange_pointer@$$CBDPEAD$$T@@YAPEBDPEDSEBDQEAD$$T@Z 000000014000343c f i libvcruntime:std_type_info.obj
 0001:00002448       ??$__crt_interlocked_read_pointer@$$CBD@@YAPEBDPEDSEBD@Z 0000000140003448 f i libvcruntime:std_type_info.obj
 0001:00002450       ??0?$__crt_unique_heap_ptr@DU__crt_internal_free_policy@@@@QEAA@QEAD@Z 0000000140003450 f i libvcruntime:std_type_info.obj
 0001:00002458       ??0?$__crt_unique_heap_ptr@XU__crt_internal_free_policy@@@@QEAA@QEAX@Z 0000000140003458 f i libvcruntime:std_type_info.obj
 0001:00002460       ??1?$__crt_unique_heap_ptr@DU__crt_internal_free_policy@@@@QEAA@XZ 0000000140003460 f i libvcruntime:std_type_info.obj
 0001:0000247c       ??1?$__crt_unique_heap_ptr@XU__crt_internal_free_policy@@@@QEAA@XZ 000000014000347c f i libvcruntime:std_type_info.obj
 0001:00002498       ??B?$__crt_unique_heap_ptr@DU__crt_internal_free_policy@@@@QEBA_NXZ 0000000140003498 f i libvcruntime:std_type_info.obj
 0001:000024a0       ??B?$__crt_unique_heap_ptr@XU__crt_internal_free_policy@@@@QEBA_NXZ 00000001400034a0 f i libvcruntime:std_type_info.obj
 0001:000024b8       ?__crt_interlocked_read_64@@YA_JPED_J@Z 00000001400034b8 f i libvcruntime:std_type_info.obj
 0001:000024c0       ?detach@?$__crt_unique_heap_ptr@XU__crt_internal_free_policy@@@@QEAAPEAXXZ 00000001400034c0 f i libvcruntime:std_type_info.obj
 0001:000024c8       ?get@?$__crt_unique_heap_ptr@DU__crt_internal_free_policy@@@@QEBAPEADXZ 00000001400034c8 f i libvcruntime:std_type_info.obj
 0001:000024cc       ?get@?$__crt_unique_heap_ptr@XU__crt_internal_free_policy@@@@QEBAPEAXXZ 00000001400034cc f i libvcruntime:std_type_info.obj
 0001:000024d0       ?is_valid@?$__crt_unique_heap_ptr@DU__crt_internal_free_policy@@@@QEBA_NXZ 00000001400034d0 f i libvcruntime:std_type_info.obj
 0001:000024d8       ?is_valid@?$__crt_unique_heap_ptr@XU__crt_internal_free_policy@@@@QEBA_NXZ 00000001400034d8 f i libvcruntime:std_type_info.obj
 0001:000024e0       ?release@?$__crt_unique_heap_ptr@DU__crt_internal_free_policy@@@@QEAAXXZ 00000001400034e0 f i libvcruntime:std_type_info.obj
 0001:000024fc       ?release@?$__crt_unique_heap_ptr@XU__crt_internal_free_policy@@@@QEAAXXZ 00000001400034fc f i libvcruntime:std_type_info.obj
 0001:00002518       __std_type_info_compare    0000000140003518 f   libvcruntime:std_type_info.obj
 0001:00002540       __std_type_info_destroy_list 0000000140003540 f   libvcruntime:std_type_info.obj
 0001:0000256c       __std_type_info_hash       000000014000356c f   libvcruntime:std_type_info.obj
 0001:000025a4       __std_type_info_name       00000001400035a4 f   libvcruntime:std_type_info.obj
 0001:000026bc       __DestructExceptionObject  00000001400036bc f   libvcruntime:ehhelpers.obj
 0001:0000272c       ?_CallMemberFunction0@@YAXQEAX0@Z 000000014000372c f i libvcruntime:ehhelpers.obj
 0001:00002788       ?raw_name@type_info@@QEBAPEBDXZ 0000000140003788 f i libvcruntime:ehhelpers.obj
 0001:00002790       _IsExceptionObjectToBeDestroyed 0000000140003790 f   libvcruntime:ehhelpers.obj
 0001:000027c0       _SetWinRTOutOfMemoryExceptionCallback 00000001400037c0 f   libvcruntime:ehhelpers.obj
 0001:000027c8       __AdjustPointer            00000001400037c8 f   libvcruntime:ehhelpers.obj
 0001:000027ec       __FrameUnwindFilter        00000001400037ec f   libvcruntime:ehhelpers.obj
 0001:00002854       __GetPlatformExceptionInfo 0000000140003854 f   libvcruntime:ehhelpers.obj
 0001:000028b0       __current_exception        00000001400038b0 f   libvcruntime:ehhelpers.obj
 0001:000028c4       __current_exception_context 00000001400038c4 f   libvcruntime:ehhelpers.obj
 0001:000028d8       __processing_throw         00000001400038d8 f   libvcruntime:ehhelpers.obj
 0001:000028ec       __std_terminate            00000001400038ec f   libvcruntime:ehhelpers.obj
 0001:000028f8       _is_exception_typeof       00000001400038f8 f   libvcruntime:ehhelpers.obj
 0001:000029b0       memset_repstos             00000001400039b0 f   libvcruntime:memset.obj
 0001:000029d0       memset                     00000001400039d0 f   libvcruntime:memset.obj
 0001:00002d70       _NLG_Notify                0000000140003d70 f   libvcruntime:notify.obj
 0001:00002d90       __NLG_Dispatch2            0000000140003d90 f   libvcruntime:notify.obj
 0001:00002da0       __NLG_Return2              0000000140003da0 f   libvcruntime:notify.obj
 0001:00002dac       __except_validate_context_record 0000000140003dac f   libvcruntime:jbcxrval.obj
 0001:00002de4       __except_validate_jump_buffer 0000000140003de4 f   libvcruntime:jbcxrval.obj
 0001:00002e24       __except_validate_jump_buffer_common 0000000140003e24 f i libvcruntime:jbcxrval.obj
 0001:00002e80       ??$?RU__vcrt_ptd@@@__crt_internal_free_policy@@QEBAXQEBU__vcrt_ptd@@@Z 0000000140003e80 f i libvcruntime:per_thread_data.obj
 0001:00002e88       ??0?$__crt_unique_heap_ptr@U__vcrt_ptd@@U__crt_internal_free_policy@@@@QEAA@QEAU__vcrt_ptd@@@Z 0000000140003e88 f i libvcruntime:per_thread_data.obj
 0001:00002eac       ??1?$__crt_unique_heap_ptr@U__vcrt_ptd@@U__crt_internal_free_policy@@@@QEAA@XZ 0000000140003eac f i libvcruntime:per_thread_data.obj
 0001:00002ed4       ??B?$__crt_unique_heap_ptr@U__vcrt_ptd@@U__crt_internal_free_policy@@@@QEBA_NXZ 0000000140003ed4 f i libvcruntime:per_thread_data.obj
 0001:00002edc       ?detach@?$__crt_unique_heap_ptr@U__vcrt_ptd@@U__crt_internal_free_policy@@@@QEAAPEAU__vcrt_ptd@@XZ 0000000140003edc f i libvcruntime:per_thread_data.obj
 0001:00002ee4       ?get@?$__crt_unique_heap_ptr@U__vcrt_ptd@@U__crt_internal_free_policy@@@@QEBAPEAU__vcrt_ptd@@XZ 0000000140003ee4 f i libvcruntime:per_thread_data.obj
 0001:00002ee8       ?is_valid@?$__crt_unique_heap_ptr@U__vcrt_ptd@@U__crt_internal_free_policy@@@@QEBA_NXZ 0000000140003ee8 f i libvcruntime:per_thread_data.obj
 0001:00002ef0       ?release@?$__crt_unique_heap_ptr@U__vcrt_ptd@@U__crt_internal_free_policy@@@@QEAAXXZ 0000000140003ef0 f i libvcruntime:per_thread_data.obj
 0001:00002f38       __vcrt_freefls             0000000140003f38 f   libvcruntime:per_thread_data.obj
 0001:00002f58       __vcrt_freeptd             0000000140003f58 f   libvcruntime:per_thread_data.obj
 0001:00002fa8       __vcrt_getptd              0000000140003fa8 f   libvcruntime:per_thread_data.obj
 0001:00002fc4       __vcrt_getptd_noexit       0000000140003fc4 f   libvcruntime:per_thread_data.obj
 0001:00003084       __vcrt_getptd_noinit       0000000140004084 f   libvcruntime:per_thread_data.obj
 0001:000030d4       __vcrt_initialize_ptd      00000001400040d4 f   libvcruntime:per_thread_data.obj
 0001:0000311c       __vcrt_uninitialize_ptd    000000014000411c f   libvcruntime:per_thread_data.obj
 0001:00003140       ?GetCurrentState@__FrameHandler3@@SAHPEA_KPEAU_xDISPATCHER_CONTEXT@@PEBU_s_FuncInfo@@@Z 0000000140004140 f   libvcruntime:ehstate.obj
 0001:00003168       ?GetUnwindTryBlock@__FrameHandler3@@SAHPEA_KPEAU_xDISPATCHER_CONTEXT@@PEBU_s_FuncInfo@@@Z 0000000140004168 f   libvcruntime:ehstate.obj
 0001:00003194       ?SetState@__FrameHandler3@@SAXPEA_KPEBU_s_FuncInfo@@H@Z 0000000140004194 f   libvcruntime:ehstate.obj
 0001:000031a0       ?SetUnwindTryBlock@__FrameHandler3@@SAXPEA_KPEAU_xDISPATCHER_CONTEXT@@PEBU_s_FuncInfo@@H@Z 00000001400041a0 f   libvcruntime:ehstate.obj
 0001:000031dc       ?StateFromControlPc@__FrameHandler3@@SAHPEBU_s_FuncInfo@@PEAU_xDISPATCHER_CONTEXT@@@Z 00000001400041dc f   libvcruntime:ehstate.obj
 0001:000031e4       ?StateFromControlPc@__FrameHandler4@@SAHPEAUFuncInfo4@FH4@@PEAU_xDISPATCHER_CONTEXT@@@Z 00000001400041e4 f   libvcruntime:ehstate.obj
 0001:000031ec       ?StateFromIp@__FrameHandler3@@SAHPEBU_s_FuncInfo@@PEAU_xDISPATCHER_CONTEXT@@_K@Z 00000001400041ec f   libvcruntime:ehstate.obj
 0001:00003254       ?StateFromIp@__FrameHandler4@@SAHPEAUFuncInfo4@FH4@@PEAU_xDISPATCHER_CONTEXT@@_K@Z 0000000140004254 f   libvcruntime:ehstate.obj
 0001:00003344       ?__FuncRelToRealOffset@@YA_KPEAU_xDISPATCHER_CONTEXT@@I@Z 0000000140004344 f i libvcruntime:ehstate.obj
 0001:00003354       ?__RVAtoRealOffset@@YA_KPEAU_xDISPATCHER_CONTEXT@@H@Z 0000000140004354 f i libvcruntime:ehstate.obj
 0001:00004970       ??$TypeMatchHelper@V__FrameHandler3@@@@YAHPEBU_s_HandlerType@@PEBU_s_CatchableType@@PEBU_s_ThrowInfo@@@Z 0000000140005970 f i libvcruntime:frame.obj
 0001:00004ab0       ??$TypeMatchHelper@V__FrameHandler4@@@@YAHPEAUHandlerType4@FH4@@PEBU_s_CatchableType@@PEBU_s_ThrowInfo@@@Z 0000000140005ab0 f i libvcruntime:frame.obj
 0001:00004bf4       ??$__InternalCxxFrameHandler@V__FrameHandler3@@@@YA?AW4_EXCEPTION_DISPOSITION@@PEAUEHExceptionRecord@@PEA_KPEAU_CONTEXT@@PEAU_xDISPATCHER_CONTEXT@@PEBU_s_FuncInfo@@H1E@Z 0000000140005bf4 f i libvcruntime:frame.obj
 0001:00004e2c       ??$__InternalCxxFrameHandler@V__FrameHandler4@@@@YA?AW4_EXCEPTION_DISPOSITION@@PEAUEHExceptionRecord@@PEA_KPEAU_CONTEXT@@PEAU_xDISPATCHER_CONTEXT@@PEAUFuncInfo4@FH4@@H1E@Z 0000000140005e2c f i libvcruntime:frame.obj
 0001:000050c0       ??$__InternalCxxFrameHandlerWrapper@V__FrameHandler3@@@@YA?AW4_EXCEPTION_DISPOSITION@@PEAUEHExceptionRecord@@PEA_KPEAU_CONTEXT@@PEAU_xDISPATCHER_CONTEXT@@PEBU_s_FuncInfo@@H1E@Z 00000001400060c0 f i libvcruntime:frame.obj
 0001:000050c8       ??$__InternalCxxFrameHandlerWrapper@V__FrameHandler4@@@@YA?AW4_EXCEPTION_DISPOSITION@@PEAUEHExceptionRecord@@PEA_KPEAU_CONTEXT@@PEAU_xDISPATCHER_CONTEXT@@PEAUFuncInfo4@FH4@@H1E@Z 00000001400060c8 f i libvcruntime:frame.obj
 0001:00005124       ??0HandlerMap4@FH4@@QEAA@PEBUTryBlockMapEntry4@1@_KH@Z 0000000140006124 f i libvcruntime:frame.obj
 0001:000051a0       ??0HandlerMap@__FrameHandler3@@QEAA@PEBU_s_TryBlockMapEntry@@_KI@Z 00000001400061a0 f i libvcruntime:frame.obj
 0001:000051b4       ??0HandlerType4@FH4@@QEAA@XZ 00000001400061b4 f i libvcruntime:frame.obj
 0001:000051cc       ??0TryBlockMap4@FH4@@QEAA@PEBUFuncInfo4@1@_K@Z 00000001400061cc f i libvcruntime:frame.obj
 0001:000052a4       ??0TryBlockMap@__FrameHandler3@@QEAA@PEBU_s_FuncInfo@@_K@Z 00000001400062a4 f i libvcruntime:frame.obj
 0001:000052b0       ??0UWMap4@FH4@@QEAA@PEBUFuncInfo4@1@_K@Z 00000001400062b0 f i libvcruntime:frame.obj
 0001:000052f4       ??0bad_exception@std@@QEAA@AEBV01@@Z 00000001400062f4 f i libvcruntime:frame.obj
 0001:00005330       ??0bad_exception@std@@QEAA@XZ 0000000140006330 f i libvcruntime:frame.obj
 0001:00005350       ??0exception@std@@QEAA@AEBV01@@Z 0000000140006350 f i libvcruntime:frame.obj
 0001:00005384       ??0exception@std@@QEAA@QEBDH@Z 0000000140006384 f i libvcruntime:frame.obj
 0001:0000539c       ??0iterator@HandlerMap4@FH4@@QEAA@AEAV12@I@Z 000000014000639c f i libvcruntime:frame.obj
 0001:000053a8       ??0iterator@HandlerMap@__FrameHandler3@@QEAA@AEAV12@I@Z 00000001400063a8 f i libvcruntime:frame.obj
 0001:000053b4       ??0iterator@UWMap4@FH4@@QEAA@AEAV12@PEAE@Z 00000001400063b4 f i libvcruntime:frame.obj
 0001:000053c0       ??1bad_exception@std@@UEAA@XZ 00000001400063c0 f i libvcruntime:frame.obj
 0001:000053d4       ??1exception@std@@UEAA@XZ  00000001400063d4 f i libvcruntime:frame.obj
 0001:000053e8       ??4iterator@UWMap4@FH4@@QEAAAEAV012@AEBV012@@Z 00000001400063e8 f i libvcruntime:frame.obj
 0001:00005408       ??8iterator@HandlerMap4@FH4@@QEBA_NAEBV012@@Z 0000000140006408 f i libvcruntime:frame.obj
 0001:00005414       ??8iterator@HandlerMap@__FrameHandler3@@QEBA_NAEBV012@@Z 0000000140006414 f i libvcruntime:frame.obj
 0001:00005420       ??8type_info@@QEBA_NAEBV0@@Z 0000000140006420 f i libvcruntime:frame.obj
 0001:0000543c       ??9iterator@HandlerMap4@FH4@@QEBA_NAEBV012@@Z 000000014000643c f i libvcruntime:frame.obj
 0001:00005448       ??9iterator@HandlerMap@__FrameHandler3@@QEBA_NAEBV012@@Z 0000000140006448 f i libvcruntime:frame.obj
 0001:00005454       ??Diterator@HandlerMap4@FH4@@QEAA?AUHandlerType4@2@XZ 0000000140006454 f i libvcruntime:frame.obj
 0001:00005474       ??Diterator@HandlerMap@__FrameHandler3@@QEAA?BU_s_HandlerType@@XZ 0000000140006474 f i libvcruntime:frame.obj
 0001:00005498       ??Diterator@TryBlockMap@__FrameHandler3@@QEAA?BU_s_TryBlockMapEntry@@XZ 0000000140006498 f i libvcruntime:frame.obj
 0001:000054c8       ??Diterator@UWMap4@FH4@@QEAA?AUUnwindMapEntry4@2@XZ 00000001400064c8 f i libvcruntime:frame.obj
 0001:0000551c       ??Eiterator@HandlerMap4@FH4@@QEAAAEAV012@XZ 000000014000651c f i libvcruntime:frame.obj
 0001:0000553c       ??Eiterator@HandlerMap@__FrameHandler3@@QEAAAEAV012@XZ 000000014000653c f i libvcruntime:frame.obj
 0001:00005544       ??Eiterator@TryBlockMap@__FrameHandler3@@QEAAAEAV012@XZ 0000000140006544 f i libvcruntime:frame.obj
 0001:0000554c       ??Eiterator@UWMap4@FH4@@QEAAAEAV012@XZ 000000014000654c f i libvcruntime:frame.obj
 0001:0000556c       ??Giterator@UWMap4@FH4@@QEBA_JAEBV012@@Z 000000014000656c f i libvcruntime:frame.obj
 0001:00005578       ??Miterator@TryBlockMap4@FH4@@QEBA_NAEBV012@@Z 0000000140006578 f i libvcruntime:frame.obj
 0001:00005584       ??Miterator@TryBlockMap@__FrameHandler3@@QEBA_NAEBV012@@Z 0000000140006584 f i libvcruntime:frame.obj
 0001:00005590       ??Oiterator@UWMap4@FH4@@QEBA_NAEBV012@@Z 0000000140006590 f i libvcruntime:frame.obj
 0001:0000559c       ??Piterator@UWMap4@FH4@@QEBA_NAEBV012@@Z 000000014000659c f i libvcruntime:frame.obj
 0001:000055a8       ??_Ebad_exception@std@@UEAAPEAXI@Z 00000001400065a8 f i libvcruntime:frame.obj
 0001:000055a8       ??_Gbad_exception@std@@UEAAPEAXI@Z 00000001400065a8 f i libvcruntime:frame.obj
 0001:000055ec       ??_Eexception@std@@UEAAPEAXI@Z 00000001400065ec f i libvcruntime:frame.obj
 0001:000055ec       ??_Gexception@std@@UEAAPEAXI@Z 00000001400065ec f i libvcruntime:frame.obj
 0001:00005630       ?BuildCatchObject@__FrameHandler3@@SAXPEAUEHExceptionRecord@@PEAXPEBU_s_HandlerType@@PEBU_s_CatchableType@@@Z 0000000140006630 f   libvcruntime:frame.obj
 0001:00005638       ?BuildCatchObject@__FrameHandler4@@SAXPEAUEHExceptionRecord@@PEAXPEAUHandlerType4@FH4@@PEBU_s_CatchableType@@@Z 0000000140006638 f   libvcruntime:frame.obj
 0001:00005640       ?BuildCatchObjectHelper@__FrameHandler3@@SAHPEAUEHExceptionRecord@@PEAXPEBU_s_HandlerType@@PEBU_s_CatchableType@@@Z 0000000140006640 f   libvcruntime:frame.obj
 0001:00005648       ?BuildCatchObjectHelper@__FrameHandler4@@SAHPEAUEHExceptionRecord@@PEAXPEAUHandlerType4@FH4@@PEBU_s_CatchableType@@@Z 0000000140006648 f   libvcruntime:frame.obj
 0001:00005650       ?CxxCallCatchBlock@__FrameHandler3@@SAPEAXPEAU_EXCEPTION_RECORD@@@Z 0000000140006650 f   libvcruntime:frame.obj
 0001:0000583c       ?CxxCallCatchBlock@__FrameHandler4@@SAPEAXPEAU_EXCEPTION_RECORD@@@Z 000000014000683c f   libvcruntime:frame.obj
 0001:00005a8c       ?DecompHandler@HandlerMap4@FH4@@AEAAXXZ 0000000140006a8c f i libvcruntime:frame.obj
 0001:00005cd8       ?FrameUnwindToState@__FrameHandler3@@SAXPEA_KPEAU_xDISPATCHER_CONTEXT@@PEBU_s_FuncInfo@@H@Z 0000000140006cd8 f   libvcruntime:frame.obj
 0001:00005e64       ?FrameUnwindToState@__FrameHandler4@@SAXPEA_KPEAU_xDISPATCHER_CONTEXT@@PEAUFuncInfo4@FH4@@H@Z 0000000140006e64 f   libvcruntime:frame.obj
 0001:00006160       ?GetHandlerSearchState@__FrameHandler3@@SAHPEA_KPEAU_xDISPATCHER_CONTEXT@@PEBU_s_FuncInfo@@@Z 0000000140007160 f i libvcruntime:frame.obj
 0001:000061f8       ?GetHandlerSearchState@__FrameHandler4@@SAHPEA_KPEAU_xDISPATCHER_CONTEXT@@PEAUFuncInfo4@FH4@@@Z 00000001400071f8 f i libvcruntime:frame.obj
 0001:0000625c       ?GetMaxState@__FrameHandler3@@SAHPEAU_xDISPATCHER_CONTEXT@@PEBU_s_FuncInfo@@@Z 000000014000725c f i libvcruntime:frame.obj
 0001:00006260       ?GetMaxState@__FrameHandler4@@SAHPEAU_xDISPATCHER_CONTEXT@@PEAUFuncInfo4@FH4@@@Z 0000000140007260 f i libvcruntime:frame.obj
 0001:00006410       ?ReadEntry@UWMap4@FH4@@AEAAXPEAPEAE@Z 0000000140007410 f i libvcruntime:frame.obj
 0001:000064ac       ?TypeMatch@__FrameHandler3@@SAHPEBU_s_HandlerType@@PEBU_s_CatchableType@@PEBU_s_ThrowInfo@@@Z 00000001400074ac f   libvcruntime:frame.obj
 0001:000064b4       ?TypeMatch@__FrameHandler4@@SAHPEAUHandlerType4@FH4@@PEBU_s_CatchableType@@PEBU_s_ThrowInfo@@@Z 00000001400074b4 f   libvcruntime:frame.obj
 0001:000064bc       ?WalkBack@UWMap4@FH4@@AEAAXPEAPEAE@Z 00000001400074bc f i libvcruntime:frame.obj
 0001:000064f4       ?WalkBack@iterator@UWMap4@FH4@@QEAAXXZ 00000001400074f4 f i libvcruntime:frame.obj
 0001:00006534       ?WalkForward@UWMap4@FH4@@AEAAXPEAPEAE@Z 0000000140007534 f i libvcruntime:frame.obj
 0001:0000653c       ?_CallMemberFunction1@@YAXQEAX00@Z 000000014000753c f i libvcruntime:frame.obj
 0001:00006548       ?_CallMemberFunction2@@YAXQEAX00H@Z 0000000140007548 f i libvcruntime:frame.obj
 0001:0000656c       ?begin@HandlerMap4@FH4@@QEAA?AViterator@12@XZ 000000014000756c f i libvcruntime:frame.obj
 0001:00006578       ?begin@HandlerMap@__FrameHandler3@@QEAA?AViterator@12@XZ 0000000140007578 f i libvcruntime:frame.obj
 0001:00006584       ?begin@UWMap4@FH4@@QEAA?AViterator@12@XZ 0000000140007584 f i libvcruntime:frame.obj
 0001:00006594       ?end@HandlerMap4@FH4@@QEAA?AViterator@12@XZ 0000000140007594 f i libvcruntime:frame.obj
 0001:000065a0       ?end@HandlerMap@__FrameHandler3@@QEAA?AViterator@12@XZ 00000001400075a0 f i libvcruntime:frame.obj
 0001:000065ac       ?getESTypes@__FrameHandler3@@SAPEBU_s_ESTypeList@@PEBU_s_FuncInfo@@@Z 00000001400075ac f i libvcruntime:frame.obj
 0001:000065d4       ?getESTypes@__FrameHandler4@@SAPEBU_s_ESTypeList@@PEAUFuncInfo4@FH4@@@Z 00000001400075d4 f i libvcruntime:frame.obj
 0001:000065d8       ?getLastEntry@HandlerMap4@FH4@@QEAAPEAUHandlerType4@2@XZ 00000001400075d8 f i libvcruntime:frame.obj
 0001:00006628       ?getLastEntry@HandlerMap@__FrameHandler3@@QEAAPEBU_s_HandlerType@@XZ 0000000140007628 f i libvcruntime:frame.obj
 0001:0000663c       ?getMagicNum@__FrameHandler3@@SAIPEBU_s_FuncInfo@@@Z 000000014000763c f i libvcruntime:frame.obj
 0001:00006644       ?getMagicNum@__FrameHandler4@@SAIPEAUFuncInfo4@FH4@@@Z 0000000140007644 f i libvcruntime:frame.obj
 0001:0000664c       ?getNumTryBlocks@TryBlockMap4@FH4@@QEAAIXZ 000000014000764c f i libvcruntime:frame.obj
 0001:00006650       ?getNumTryBlocks@TryBlockMap@__FrameHandler3@@QEAAIXZ 0000000140007650 f i libvcruntime:frame.obj
 0001:00006658       ?getStartStop@UWMap4@FH4@@QEAAXHHAEAViterator@12@0@Z 0000000140007658 f i libvcruntime:frame.obj
 0001:00006728       ?getStateFromIterators@UWMap4@FH4@@SAHAEBViterator@12@H0H0@Z 0000000140007728 f i libvcruntime:frame.obj
 0001:000067d8       ?isEHs@__FrameHandler3@@SA_NPEBU_s_FuncInfo@@@Z 00000001400077d8 f i libvcruntime:frame.obj
 0001:000067e0       ?isEHs@__FrameHandler4@@SA_NPEAUFuncInfo4@FH4@@@Z 00000001400077e0 f i libvcruntime:frame.obj
 0001:000067e8       ?isNoExcept@__FrameHandler3@@SA_NPEBU_s_FuncInfo@@@Z 00000001400077e8 f i libvcruntime:frame.obj
 0001:000067f4       ?isNoExcept@__FrameHandler4@@SA_NPEAUFuncInfo4@FH4@@@Z 00000001400077f4 f i libvcruntime:frame.obj
 0001:000067fc       ?reset@HandlerType4@FH4@@QEAAXXZ 00000001400077fc f i libvcruntime:frame.obj
 0001:00006810       ?resetBuffer@HandlerMap4@FH4@@QEAAXXZ 0000000140007810 f i libvcruntime:frame.obj
 0001:00006820       ?setBuffer@HandlerMap4@FH4@@QEAAXI@Z 0000000140007820 f i libvcruntime:frame.obj
 0001:0000685c       ?what@exception@std@@UEBAPEBDXZ 000000014000785c f i libvcruntime:frame.obj
 0001:00006870       __BuildCatchObject         0000000140007870 f   libvcruntime:frame.obj
 0001:00006878       __BuildCatchObjectHelper   0000000140007878 f   libvcruntime:frame.obj
 0001:00006880       __TypeMatch                0000000140007880 f   libvcruntime:frame.obj
 0001:00006888       __vcrt_EncodePointer       0000000140007888 f i libvcruntime:frame.obj
 0001:00006890       __vcrt_initialize_locks    0000000140007890 f   libvcruntime:locks.obj
 0001:000068d8       __vcrt_lock                00000001400078d8 f   libvcruntime:locks.obj
 0001:000068f4       __vcrt_uninitialize_locks  00000001400078f4 f   libvcruntime:locks.obj
 0001:0000692c       __vcrt_unlock              000000014000792c f   libvcruntime:locks.obj
 0001:00006948       ??$?0$00@DName@@QEAA@PEBDU?$StringLifeSelector@$00@@@Z 0000000140007948 f i libvcruntime:undname.obj
 0001:00006988       ??$?0$00@pcharNode@@QEAA@PEBDHU?$StringLifeSelector@$00@@@Z 0000000140007988 f i libvcruntime:undname.obj
 0001:000069a0       ??$?0$01@DName@@QEAA@PEBDU?$StringLifeSelector@$01@@@Z 00000001400079a0 f i libvcruntime:undname.obj
 0001:000069e0       ??$?0$01@pcharNode@@QEAA@PEBDHU?$StringLifeSelector@$01@@@Z 00000001400079e0 f i libvcruntime:undname.obj
 0001:00006a54       ??$?0$0A@@DName@@QEAA@PEBDU?$StringLifeSelector@$0A@@@@Z 0000000140007a54 f i libvcruntime:undname.obj
 0001:00006a94       ??$?0$0A@@pcharNode@@QEAA@PEBDHU?$StringLifeSelector@$0A@@@@Z 0000000140007a94 f i libvcruntime:undname.obj
 0001:00006b08       ??$?0_K$0A@@?$optional@_K@std@@QEAA@$$QEA_K@Z 0000000140007b08 f i libvcruntime:undname.obj
 0001:00006b18       ??$?0_K@?$_Optional_construct_base@_K@std@@QEAA@Uin_place_t@1@$$QEA_K@Z 0000000140007b18 f i libvcruntime:undname.obj
 0001:00006b28       ??$?0_K@?$_Optional_destruct_base@_K$00@std@@QEAA@Uin_place_t@1@$$QEA_K@Z 0000000140007b28 f i libvcruntime:undname.obj
 0001:00006b38       ??$append@VDNameNode@@@DName@@AEAAXPEBVDNameNode@@@Z 0000000140007b38 f i libvcruntime:undname.obj
 0001:00006b9c       ??$append@VDNameStatusNode@@@DName@@AEAAXPEBVDNameStatusNode@@@Z 0000000140007b9c f i libvcruntime:undname.obj
 0001:00006c00       ??$append@VcharNode@@@DName@@AEAAXPEBVcharNode@@@Z 0000000140007c00 f i libvcruntime:undname.obj
 0001:00006c64       ??$append@VpDNameNode@@@DName@@AEAAXPEBVpDNameNode@@@Z 0000000140007c64 f i libvcruntime:undname.obj
 0001:00006cc8       ??$append@VpcharNode@@@DName@@AEAAXPEBVpcharNode@@@Z 0000000140007cc8 f i libvcruntime:undname.obj
 0001:00006d2c       ??$doPchar@$00@DName@@AEAAXPEBDH@Z 0000000140007d2c f i libvcruntime:undname.obj
 0001:00006dd0       ??$doPchar@$01@DName@@AEAAXPEBDH@Z 0000000140007dd0 f i libvcruntime:undname.obj
 0001:00006e68       ??$doPchar@$0A@@DName@@AEAAXPEBDH@Z 0000000140007e68 f i libvcruntime:undname.obj
 0001:00006f00       ??$forward@_K@std@@YA$$QEA_KAEA_K@Z 0000000140007f00 f i libvcruntime:undname.obj
 0001:00007020       ??$size@D$04@std@@YA_KAEAY04$$CBD@Z 0000000140008020 f i libvcruntime:undname.obj
 0001:00007028       ??0?$_Optional_construct_base@_K@std@@QEAA@XZ 0000000140008028 f i libvcruntime:undname.obj
 0001:00007030       ??0?$_Optional_destruct_base@_K$00@std@@QEAA@XZ 0000000140008030 f i libvcruntime:undname.obj
 0001:00007038       ??0?$optional@_K@std@@QEAA@XZ 0000000140008038 f i libvcruntime:undname.obj
 0001:00007040       ??0Block@_HeapManager@@QEAA@XZ 0000000140008040 f i libvcruntime:undname.obj
 0001:00007048       ??0DName@@QEAA@AEAPEBDD@Z  0000000140008048 f   libvcruntime:undname.obj
 0001:000070f8       ??0DName@@QEAA@AEBUStringLiteral@@@Z 00000001400080f8 f   libvcruntime:undname.obj
 0001:00007124       ??0DName@@QEAA@AEBV0@@Z    0000000140008124 f i libvcruntime:undname.obj
 0001:00007134       ??0DName@@QEAA@D@Z         0000000140008134 f   libvcruntime:undname.obj
 0001:00007154       ??0DName@@QEAA@PEAV0@@Z    0000000140008154 f   libvcruntime:undname.obj
 0001:000071d8       ??0DName@@QEAA@W4DNameStatus@@@Z 00000001400081d8 f   libvcruntime:undname.obj
 0001:00007208       ??0DName@@QEAA@XZ          0000000140008208 f i libvcruntime:undname.obj
 0001:00007214       ??0DName@@QEAA@_J@Z        0000000140008214 f   libvcruntime:undname.obj
 0001:000072bc       ??0DName@@QEAA@_K@Z        00000001400082bc f   libvcruntime:undname.obj
 0001:00007344       ??0DNameNode@@IEAA@XZ      0000000140008344 f i libvcruntime:undname.obj
 0001:00007354       ??0Replicator@@QEAA@XZ     0000000140008354 f i libvcruntime:undname.obj
 0001:00007368       ??0UnDecorator@@QEAA@PEBDP6APEADJ@ZK@Z 0000000140008368 f i libvcruntime:undname.obj
 0001:000073b8       ??0_Nontrivial_dummy_type@std@@QEAA@XZ 00000001400083b8 f i libvcruntime:undname.obj
 0001:000073bc       ??0charNode@@QEAA@D@Z      00000001400083bc f i libvcruntime:undname.obj
 0001:000073d0       ??0pDNameNode@@QEAA@PEAVDName@@@Z 00000001400083d0 f   libvcruntime:undname.obj
 0001:000073f8       ??0pairNode@@QEAA@PEBVDNameNode@@0@Z 00000001400083f8 f i libvcruntime:undname.obj
 0001:0000741c       ??2@YAPEAX_KAEAV_HeapManager@@H@Z 000000014000841c f   libvcruntime:undname.obj
 0001:00007448       ??4DName@@QEAAAEAV0@AEBUStringLiteral@@@Z 0000000140008448 f   libvcruntime:undname.obj
 0001:00007470       ??4DName@@QEAAAEAV0@AEBV0@@Z 0000000140008470 f   libvcruntime:undname.obj
 0001:00007480       ??4DName@@QEAAAEAV0@D@Z    0000000140008480 f i libvcruntime:undname.obj
 0001:000074a0       ??4DName@@QEAAAEAV0@PEAV0@@Z 00000001400084a0 f   libvcruntime:undname.obj
 0001:00007518       ??4DName@@QEAAAEAV0@W4DNameStatus@@@Z 0000000140008518 f   libvcruntime:undname.obj
 0001:00007548       ??AReplicator@@QEBA?AVDName@@H@Z 0000000140008548 f   libvcruntime:undname.obj
 0001:00007588       ??B?$optional@_K@std@@QEBA_NXZ 0000000140008588 f i libvcruntime:undname.obj
 0001:0000758c       ??D?$_Optional_construct_base@_K@std@@QEGAAAEA_KXZ 000000014000858c f i libvcruntime:undname.obj
 0001:00007590       ??H@YA?AVDName@@AEBUStringLiteral@@AEBV0@@Z 0000000140008590 f i libvcruntime:undname.obj
 0001:000075c8       ??H@YA?AVDName@@DAEBV0@@Z  00000001400085c8 f i libvcruntime:undname.obj
 0001:0000760c       ??H@YA?AVDName@@W4DNameStatus@@AEBV0@@Z 000000014000860c f i libvcruntime:undname.obj
 0001:00007658       ??HDName@@QEBA?AV0@AEBUStringLiteral@@@Z 0000000140008658 f   libvcruntime:undname.obj
 0001:00007684       ??HDName@@QEBA?AV0@AEBV0@@Z 0000000140008684 f   libvcruntime:undname.obj
 0001:000076b0       ??HDName@@QEBA?AV0@D@Z     00000001400086b0 f   libvcruntime:undname.obj
 0001:000076dc       ??HDName@@QEBA?AV0@PEAV0@@Z 00000001400086dc f   libvcruntime:undname.obj
 0001:00007708       ??HDName@@QEBA?AV0@W4DNameStatus@@@Z 0000000140008708 f   libvcruntime:undname.obj
 0001:00007734       ??HStringLiteral@@QEBA?AU0@H@Z 0000000140008734 f i libvcruntime:undname.obj
 0001:0000774c       ??YDName@@QEAAAEAV0@AEBUStringLiteral@@@Z 000000014000874c f   libvcruntime:undname.obj
 0001:000077cc       ??YDName@@QEAAAEAV0@AEBV0@@Z 00000001400087cc f   libvcruntime:undname.obj
 0001:00007824       ??YDName@@QEAAAEAV0@D@Z    0000000140008824 f   libvcruntime:undname.obj
 0001:00007890       ??YDName@@QEAAAEAV0@PEAV0@@Z 0000000140008890 f   libvcruntime:undname.obj
 0001:00007924       ??YDName@@QEAAAEAV0@W4DNameStatus@@@Z 0000000140008924 f   libvcruntime:undname.obj
 0001:0000797c       ??YReplicator@@QEAAAEAV0@AEBVDName@@@Z 000000014000897c f   libvcruntime:undname.obj
 0001:000079d4       ??_5DName@@QEAAAEAV0@AEBV0@@Z 00000001400089d4 f   libvcruntime:undname.obj
 0001:000079ec       ??__K_l@@YA?AUStringLiteral@@PEBD_K@Z 00000001400089ec f i libvcruntime:undname.obj
 0001:000079f8       ?Constructor@_HeapManager@@QEAAXP6APEAX_K@ZP6AXPEAX@Z@Z 00000001400089f8 f i libvcruntime:undname.obj
 0001:00007a10       ?Destructor@_HeapManager@@QEAAXXZ 0000000140008a10 f i libvcruntime:undname.obj
 0001:00007a5c       ?UScore@UnDecorator@@SA?AUStringLiteral@@W4Tokens@@@Z 0000000140008a5c f   libvcruntime:undname.obj
 0001:00007aa8       ?composeDeclaration@UnDecorator@@CA?AVDName@@AEBV2@@Z 0000000140008aa8 f i libvcruntime:undname.obj
 0001:0000899c       ?doAccessSpecifiers@UnDecorator@@SAHXZ 000000014000999c f i libvcruntime:undname.obj
 0001:000089ac       ?doAllocationLanguage@UnDecorator@@SAHXZ 00000001400099ac f i libvcruntime:undname.obj
 0001:000089bc       ?doAllocationModel@UnDecorator@@SAHXZ 00000001400099bc f i libvcruntime:undname.obj
 0001:000089cc       ?doEcsu@UnDecorator@@SAHXZ 00000001400099cc f i libvcruntime:undname.obj
 0001:000089dc       ?doEllipsis@UnDecorator@@SAHXZ 00000001400099dc f i libvcruntime:undname.obj
 0001:000089ec       ?doFunctionReturns@UnDecorator@@SAHXZ 00000001400099ec f i libvcruntime:undname.obj
 0001:000089fc       ?doMSKeywords@UnDecorator@@SAHXZ 00000001400099fc f i libvcruntime:undname.obj
 0001:00008a0c       ?doMemberTypes@UnDecorator@@SAHXZ 0000000140009a0c f i libvcruntime:undname.obj
 0001:00008a1c       ?doNameOnly@UnDecorator@@SAHXZ 0000000140009a1c f i libvcruntime:undname.obj
 0001:00008a28       ?doNoIdentCharCheck@UnDecorator@@SAHXZ 0000000140009a28 f i libvcruntime:undname.obj
 0001:00008a34       ?doPchar@DName@@AEAAXD@Z   0000000140009a34 f   libvcruntime:undname.obj
 0001:00008a84       ?doPtr64@UnDecorator@@SAHXZ 0000000140009a84 f i libvcruntime:undname.obj
 0001:00008a94       ?doRestrictionSpec@UnDecorator@@SAHXZ 0000000140009a94 f i libvcruntime:undname.obj
 0001:00008aa4       ?doThisTypes@UnDecorator@@SAHXZ 0000000140009aa4 f i libvcruntime:undname.obj
 0001:00008ab8       ?doThrowTypes@UnDecorator@@SAHXZ 0000000140009ab8 f i libvcruntime:undname.obj
 0001:00008ac8       ?doTypeOnly@UnDecorator@@SAHXZ 0000000140009ac8 f i libvcruntime:undname.obj
 0001:00008ad4       ?doUnderScore@UnDecorator@@SAHXZ 0000000140009ad4 f i libvcruntime:undname.obj
 0001:00008ae0       ?getAddressOf@UnDecorator@@CA?AVDName@@XZ 0000000140009ae0 f   libvcruntime:undname.obj
 0001:00008b70       ?getArgumentList@UnDecorator@@CA?AVDName@@XZ 0000000140009b70 f   libvcruntime:undname.obj
 0001:00008d24       ?getArgumentTypes@UnDecorator@@CA?AVDName@@XZ 0000000140009d24 f   libvcruntime:undname.obj
 0001:00008e70       ?getArrayAccess@UnDecorator@@CA?AVDName@@XZ 0000000140009e70 f   libvcruntime:undname.obj
 0001:00008f0c       ?getArrayObject@UnDecorator@@CA?AVDName@@XZ 0000000140009f0c f   libvcruntime:undname.obj
 0001:00008fc8       ?getArrayType@UnDecorator@@CA?AVDName@@AEBV2@@Z 0000000140009fc8 f i libvcruntime:undname.obj
 0001:00009210       ?getBasedType@UnDecorator@@CA?AVDName@@XZ 000000014000a210 f   libvcruntime:undname.obj
 0001:00009308       ?getBasicDataType@UnDecorator@@CA?AVDName@@AEBV2@@Z 000000014000a308 f   libvcruntime:undname.obj
 0001:0000990c       ?getCHPEName@UnDecorator@@QEAAPEADPEADH@Z 000000014000a90c f i libvcruntime:undname.obj
 0001:00009a2c       ?getCallIndex@UnDecorator@@CA?AVDName@@XZ 000000014000aa2c f i libvcruntime:undname.obj
 0001:00009a48       ?getCallingConvention@UnDecorator@@CA?AVDName@@XZ 000000014000aa48 f   libvcruntime:undname.obj
 0001:00009b80       ?getDataIndirectType@UnDecorator@@CA?AVDName@@AEBV2@W4IndirectionKind@@0H@Z 000000014000ab80 f   libvcruntime:undname.obj
 0001:0000a4a4       ?getDataIndirectType@UnDecorator@@CA?AVDName@@XZ 000000014000b4a4 f i libvcruntime:undname.obj
 0001:0000a4e0       ?getDataType@UnDecorator@@CA?AVDName@@PEAV2@@Z 000000014000b4e0 f   libvcruntime:undname.obj
 0001:0000a5f4       ?getDecoratedName@UnDecorator@@CA?AVDName@@XZ 000000014000b5f4 f   libvcruntime:undname.obj
 0001:0000a8dc       ?getDimension@UnDecorator@@CA?AVDName@@_N@Z 000000014000b8dc f   libvcruntime:undname.obj
 0001:0000aa24       ?getDispatchTarget@UnDecorator@@CA?AVDName@@XZ 000000014000ba24 f   libvcruntime:undname.obj
 0001:0000aa84       ?getDisplacement@UnDecorator@@CA?AVDName@@XZ 000000014000ba84 f i libvcruntime:undname.obj
 0001:0000aaa0       ?getECSUDataType@UnDecorator@@CA?AVDName@@XZ 000000014000baa0 f   libvcruntime:undname.obj
 0001:0000ac9c       ?getECSUName@UnDecorator@@CA?AVDName@@XZ 000000014000bc9c f i libvcruntime:undname.obj
 0001:0000acb4       ?getEnumType@UnDecorator@@CA?AVDName@@XZ 000000014000bcb4 f i libvcruntime:undname.obj
 0001:0000ade4       ?getExtendedDataIndirectType@UnDecorator@@CA?AVDName@@AEAW4IndirectionKind@@AEA_NH@Z 000000014000bde4 f   libvcruntime:undname.obj
 0001:0000afe8       ?getExternalDataType@UnDecorator@@CA?AVDName@@AEBV2@@Z 000000014000bfe8 f i libvcruntime:undname.obj
 0001:0000b0a8       ?getFloatingPoint@UnDecorator@@CA?AVDName@@H@Z 000000014000c0a8 f   libvcruntime:undname.obj
 0001:0000b210       ?getFunctionIndirectType@UnDecorator@@CA?AVDName@@AEBV2@@Z 000000014000c210 f   libvcruntime:undname.obj
 0001:0000b744       ?getGuardNumber@UnDecorator@@CA?AVDName@@XZ 000000014000c744 f i libvcruntime:undname.obj
 0001:0000b760       ?getLastChar@DName@@QEBADXZ 000000014000c760 f i libvcruntime:undname.obj
 0001:0000b77c       ?getLastChar@DNameStatusNode@@UEBADXZ 000000014000c77c f i libvcruntime:undname.obj
 0001:0000b788       ?getLastChar@charNode@@UEBADXZ 000000014000c788 f i libvcruntime:undname.obj
 0001:0000b78c       ?getLastChar@pDNameNode@@UEBADXZ 000000014000c78c f i libvcruntime:undname.obj
 0001:0000b7b8       ?getLastChar@pairNode@@UEBADXZ 000000014000c7b8 f i libvcruntime:undname.obj
 0001:0000b7f0       ?getLastChar@pcharNode@@UEBADXZ 000000014000c7f0 f i libvcruntime:undname.obj
 0001:0000b804       ?getLexicalFrame@UnDecorator@@CA?AVDName@@XZ 000000014000c804 f i libvcruntime:undname.obj
 0001:0000b868       ?getMemberAccess@UnDecorator@@CA?AVDName@@XZ 000000014000c868 f   libvcruntime:undname.obj
 0001:0000b8fc       ?getMemoryWithBuffer@_HeapManager@@QEAAPEAX_K@Z 000000014000c8fc f   libvcruntime:undname.obj
 0001:0000b98c       ?getMemoryWithoutBuffer@_HeapManager@@QEAAPEAX_K@Z 000000014000c98c f   libvcruntime:undname.obj
 0001:0000b9a0       ?getNoexcept@UnDecorator@@CA?AVDName@@XZ 000000014000c9a0 f   libvcruntime:undname.obj
 0001:0000ba04       ?getNumberOfDimensions@UnDecorator@@CAHXZ 000000014000ca04 f   libvcruntime:undname.obj
 0001:0000ba6c       ?getOperatorName@UnDecorator@@CA?AVDName@@_NPEA_N@Z 000000014000ca6c f i libvcruntime:undname.obj
 0001:0000c41c       ?getPointerToMember@UnDecorator@@CA?AVDName@@XZ 000000014000d41c f   libvcruntime:undname.obj
 0001:0000c514       ?getPointerType@UnDecorator@@CA?AVDName@@AEBV2@0@Z 000000014000d514 f i libvcruntime:undname.obj
 0001:0000c534       ?getPointerTypeArray@UnDecorator@@CA?AVDName@@AEBV2@0@Z 000000014000d534 f i libvcruntime:undname.obj
 0001:0000c550       ?getPrimaryDataType@UnDecorator@@CA?AVDName@@AEBV2@@Z 000000014000d550 f   libvcruntime:undname.obj
 0001:0000c808       ?getPtrRefDataType@UnDecorator@@CA?AVDName@@AEBV2@H@Z 000000014000d808 f   libvcruntime:undname.obj
 0001:0000c9d4       ?getPtrRefType@UnDecorator@@CA?AVDName@@AEBV2@0W4IndirectionKind@@@Z 000000014000d9d4 f   libvcruntime:undname.obj
 0001:0000cbac       ?getReferenceType@UnDecorator@@CA?AVDName@@AEBV2@0W4IndirectionKind@@@Z 000000014000dbac f i libvcruntime:undname.obj
 0001:0000cbc4       ?getRestrictionSpec@UnDecorator@@CA?AVDName@@XZ 000000014000dbc4 f   libvcruntime:undname.obj
 0001:0000cda0       ?getReturnType@UnDecorator@@CA?AVDName@@PEAV2@@Z 000000014000dda0 f   libvcruntime:undname.obj
 0001:0000cdd4       ?getScope@UnDecorator@@CA?AVDName@@XZ 000000014000ddd4 f   libvcruntime:undname.obj
 0001:0000d290       ?getScopedName@UnDecorator@@CA?AVDName@@XZ 000000014000e290 f   libvcruntime:undname.obj
 0001:0000d3d0       ?getSignedDimension@UnDecorator@@CA?AVDName@@XZ 000000014000e3d0 f   libvcruntime:undname.obj
 0001:0000d458       ?getStorageConvention@UnDecorator@@CA?AVDName@@XZ 000000014000e458 f i libvcruntime:undname.obj
 0001:0000d494       ?getString@DName@@QEBAPEADPEAD0@Z 000000014000e494 f i libvcruntime:undname.obj
 0001:0000d4b0       ?getString@DName@@QEBAPEADPEADH@Z 000000014000e4b0 f i libvcruntime:undname.obj
 0001:0000d544       ?getString@DNameStatusNode@@UEBAPEADPEAD0@Z 000000014000e544 f i libvcruntime:undname.obj
 0001:0000d58c       ?getString@charNode@@UEBAPEADPEAD0@Z 000000014000e58c f i libvcruntime:undname.obj
 0001:0000d5a0       ?getString@pDNameNode@@UEBAPEADPEAD0@Z 000000014000e5a0 f i libvcruntime:undname.obj
 0001:0000d5d0       ?getString@pairNode@@UEBAPEADPEAD0@Z 000000014000e5d0 f i libvcruntime:undname.obj
 0001:0000d61c       ?getString@pcharNode@@UEBAPEADPEAD0@Z 000000014000e61c f i libvcruntime:undname.obj
 0001:0000d654       ?getStringEncoding@UnDecorator@@CA?AVDName@@W4PrefixKind@@H@Z 000000014000e654 f   libvcruntime:undname.obj
 0001:0000d764       ?getStringHelper@@YAPEADPEADPEBD1H@Z 000000014000e764 f i libvcruntime:undname.obj
 0001:0000d794       ?getStringObject@UnDecorator@@CA?AVDName@@XZ 000000014000e794 f   libvcruntime:undname.obj
 0001:0000d7fc       ?getSymbolName@UnDecorator@@CA?AVDName@@XZ 000000014000e7fc f i libvcruntime:undname.obj
 0001:0000d848       ?getTemplateArgumentList@UnDecorator@@CA?AVDName@@XZ 000000014000e848 f   libvcruntime:undname.obj
 0001:0000da64       ?getTemplateName@UnDecorator@@CA?AVDName@@_N@Z 000000014000ea64 f   libvcruntime:undname.obj
 0001:0000dcf8       ?getTemplateNonTypeArgument@UnDecorator@@CA?AVDName@@XZ 000000014000ecf8 f   libvcruntime:undname.obj
 0001:0000e248       ?getTemplateTypeArgument@UnDecorator@@CA?AVDName@@XZ 000000014000f248 f   libvcruntime:undname.obj
 0001:0000e3b0       ?getThisType@UnDecorator@@CA?AVDName@@XZ 000000014000f3b0 f i libvcruntime:undname.obj
 0001:0000e3f0       ?getThrowTypes@UnDecorator@@CA?AVDName@@XZ 000000014000f3f0 f   libvcruntime:undname.obj
 0001:0000e414       ?getTypeEncoding@UnDecorator@@CAHXZ 000000014000f414 f i libvcruntime:undname.obj
 0001:0000e7d0       ?getUndecoratedName@UnDecorator@@QEAAPEADPEADH@Z 000000014000f7d0 f i libvcruntime:undname.obj
 0001:0000e924       ?getUnionObject@UnDecorator@@CA?AVDName@@XZ 000000014000f924 f   libvcruntime:undname.obj
 0001:0000e9fc       ?getVCallThunkType@UnDecorator@@CA?AVDName@@XZ 000000014000f9fc f i libvcruntime:undname.obj
 0001:0000ea74       ?getValue@UnDecorator@@CA?AV?$optional@_K@std@@XZ 000000014000fa74 f   libvcruntime:undname.obj
 0001:0000eae8       ?getValueObject@UnDecorator@@CA?AVDName@@XZ 000000014000fae8 f   libvcruntime:undname.obj
 0001:0000ec28       ?getVbTableType@UnDecorator@@CA?AVDName@@AEBV2@@Z 000000014000fc28 f i libvcruntime:undname.obj
 0001:0000ec40       ?getVdispMapType@UnDecorator@@CA?AVDName@@AEBV2@@Z 000000014000fc40 f i libvcruntime:undname.obj
 0001:0000ecbc       ?getVfTableType@UnDecorator@@CA?AVDName@@AEBV2@@Z 000000014000fcbc f i libvcruntime:undname.obj
 0001:0000eec8       ?getZName@UnDecorator@@CA?AVDName@@_N0@Z 000000014000fec8 f   libvcruntime:undname.obj
 0001:0000f19c       ?get_current_character_and_increment_buffer@UnDecorator@@CADXZ 000000014001019c f i libvcruntime:undname.obj
 0001:0000f1b4       ?haveTemplateParameters@UnDecorator@@SAHXZ 00000001400101b4 f i libvcruntime:undname.obj
 0001:0000f1c0       ?increment_buffer@UnDecorator@@CA_N_K@Z 00000001400101c0 f i libvcruntime:undname.obj
 0001:0000f1ec       ?increment_buffer_no_check@UnDecorator@@CAXXZ 00000001400101ec f i libvcruntime:undname.obj
 0001:0000f1f4       ?increment_buffer_no_check@UnDecorator@@CAX_K@Z 00000001400101f4 f i libvcruntime:undname.obj
 0001:0000f1fc       ?isArray@DName@@QEBAHXZ    00000001400101fc f i libvcruntime:undname.obj
 0001:0000f208       ?isComArray@DName@@QEBAHXZ 0000000140010208 f i libvcruntime:undname.obj
 0001:0000f214       ?isEmpty@DName@@QEBAHXZ    0000000140010214 f i libvcruntime:undname.obj
 0001:0000f220       ?isFull@Replicator@@QEBAHXZ 0000000140010220 f i libvcruntime:undname.obj
 0001:0000f22c       ?isNoTE@DName@@QEBAHXZ     000000014001022c f i libvcruntime:undname.obj
 0001:0000f238       ?isPinPtr@DName@@QEBAHXZ   0000000140010238 f i libvcruntime:undname.obj
 0001:0000f244       ?isPtrRef@DName@@QEBAHXZ   0000000140010244 f i libvcruntime:undname.obj
 0001:0000f250       ?isUDC@DName@@QEBAHXZ      0000000140010250 f i libvcruntime:undname.obj
 0001:0000f268       ?isUDTThunk@DName@@QEBAHXZ 0000000140010268 f i libvcruntime:undname.obj
 0001:0000f280       ?isVCallThunk@DName@@QEBAHXZ 0000000140010280 f i libvcruntime:undname.obj
 0001:0000f28c       ?isValid@DName@@QEBAHXZ    000000014001028c f i libvcruntime:undname.obj
 0001:0000f298       ?length@DName@@QEBAHXZ     0000000140010298 f i libvcruntime:undname.obj
 0001:0000f2b0       ?length@DNameStatusNode@@UEBAHXZ 00000001400102b0 f i libvcruntime:undname.obj
 0001:0000f2b4       ?length@charNode@@UEBAHXZ  00000001400102b4 f i libvcruntime:undname.obj
 0001:0000f2bc       ?length@pDNameNode@@UEBAHXZ 00000001400102bc f i libvcruntime:undname.obj
 0001:0000f2e4       ?length@pairNode@@UEBAHXZ  00000001400102e4 f i libvcruntime:undname.obj
 0001:0000f32c       ?length@pcharNode@@UEBAHXZ 000000014001032c f i libvcruntime:undname.obj
 0001:0000f330       ?make@DNameStatusNode@@SAPEBV1@W4DNameStatus@@@Z 0000000140010330 f i libvcruntime:undname.obj
 0001:0000f350       ?parseDecoratedName@UnDecorator@@CA?AVDName@@XZ 0000000140010350 f   libvcruntime:undname.obj
 0001:0000f468       ?raw_length@DNameStatusNode@@UEBAHXZ 0000000140010468 f i libvcruntime:undname.obj
 0001:0000f46c       ?raw_length@charNode@@UEBAHXZ 000000014001046c f i libvcruntime:undname.obj
 0001:0000f474       ?raw_length@pDNameNode@@UEBAHXZ 0000000140010474 f i libvcruntime:undname.obj
 0001:0000f478       ?raw_length@pairNode@@UEBAHXZ 0000000140010478 f i libvcruntime:undname.obj
 0001:0000f47c       ?raw_length@pcharNode@@UEBAHXZ 000000014001047c f i libvcruntime:undname.obj
 0001:0000f480       ?setIsArray@DName@@QEAAXXZ 0000000140010480 f i libvcruntime:undname.obj
 0001:0000f488       ?setIsComArray@DName@@QEAAXXZ 0000000140010488 f i libvcruntime:undname.obj
 0001:0000f490       ?setIsNoTE@DName@@QEAAXXZ  0000000140010490 f i libvcruntime:undname.obj
 0001:0000f498       ?setIsPinPtr@DName@@QEAAXXZ 0000000140010498 f i libvcruntime:undname.obj
 0001:0000f4a0       ?setIsUDC@DName@@QEAAXXZ   00000001400104a0 f i libvcruntime:undname.obj
 0001:0000f4ac       ?setIsVCallThunk@DName@@QEAAXXZ 00000001400104ac f i libvcruntime:undname.obj
 0001:0000f4b4       ?setPtrRef@DName@@QEAAAEAV1@XZ 00000001400104b4 f i libvcruntime:undname.obj
 0001:0000f4c0       ?status@DName@@QEBA?AW4DNameStatus@@XZ 00000001400104c0 f i libvcruntime:undname.obj
 0001:0000f524       __unDName                  0000000140010524 f   libvcruntime:undname.obj
 0001:0000f54c       __unDNameEx                000000014001054c f   libvcruntime:undname.obj
 0001:0000f680       _vsprintf_s_l              0000000140010680 f i libvcruntime:undname.obj
 0001:0000f6e4       snprintf                   00000001400106e4 f i libvcruntime:undname.obj
 0001:0000f73c       sprintf_s                  000000014001073c f i libvcruntime:undname.obj
 0001:0000f790       unDNameGenerateCHPE        0000000140010790 f   libvcruntime:undname.obj
 0001:0000f898       vsnprintf                  0000000140010898 f i libvcruntime:undname.obj
 0001:0000f8fc       ??$__crt_interlocked_exchange_pointer@UHINSTANCE__@@PEAU1@@@YAPEAUHINSTANCE__@@PEDSEAU0@QEAU0@@Z 00000001400108fc f i libvcruntime:winapi_downlevel.obj
 0001:0000f904       ??$__crt_interlocked_exchange_pointer@UHINSTANCE__@@PEAX@@YAPEAUHINSTANCE__@@PEDSEAU0@QEAX@Z 0000000140010904 f i libvcruntime:winapi_downlevel.obj
 0001:0000f90c       ??$__crt_interlocked_exchange_pointer@XPEAX@@YAPEAXPEDSEAXQEAX@Z 000000014001090c f i libvcruntime:winapi_downlevel.obj
 0001:0000f914       ??$__crt_interlocked_read_pointer@UHINSTANCE__@@@@YAPEAUHINSTANCE__@@PEDSEAU0@@Z 0000000140010914 f i libvcruntime:winapi_downlevel.obj
 0001:0000f91c       ??$__crt_interlocked_read_pointer@X@@YAPEAXPEDSEAX@Z 000000014001091c f i libvcruntime:winapi_downlevel.obj
 0001:0000fe5c       __vcrt_FlsAlloc            0000000140010e5c f   libvcruntime:winapi_downlevel.obj
 0001:0000fea4       __vcrt_FlsFree             0000000140010ea4 f   libvcruntime:winapi_downlevel.obj
 0001:0000feec       __vcrt_FlsGetValue         0000000140010eec f   libvcruntime:winapi_downlevel.obj
 0001:0000ff34       __vcrt_FlsSetValue         0000000140010f34 f   libvcruntime:winapi_downlevel.obj
 0001:0000ff88       __vcrt_InitializeCriticalSectionEx 0000000140010f88 f   libvcruntime:winapi_downlevel.obj
 0001:00010000       _CallSettingFrame          0000000140011000 f   libvcruntime:handlers.obj
 0001:00010050       _CallSettingFrame_LookupContinuationIndex 0000000140011050 f   libvcruntime:handlers.obj
 0001:00010080       _CallSettingFrame_NotifyContinuationAddr 0000000140011080 f   libvcruntime:handlers.obj
 0001:000100b0       _CallSettingFrameEncoded   00000001400110b0 f   libvcruntime:handlers.obj
 0001:000100f8       ??$?RD@__crt_public_free_policy@@QEBAXQEBD@Z 00000001400110f8 f i libvcruntime:std_exception.obj
 0001:00010100       ??0?$__crt_unique_heap_ptr@DU__crt_public_free_policy@@@@QEAA@QEAD@Z 0000000140011100 f i libvcruntime:std_exception.obj
 0001:00010108       ??1?$__crt_unique_heap_ptr@DU__crt_public_free_policy@@@@QEAA@XZ 0000000140011108 f i libvcruntime:std_exception.obj
 0001:00010124       ??B?$__crt_unique_heap_ptr@DU__crt_public_free_policy@@@@QEBA_NXZ 0000000140011124 f i libvcruntime:std_exception.obj
 0001:0001012c       ?detach@?$__crt_unique_heap_ptr@DU__crt_public_free_policy@@@@QEAAPEADXZ 000000014001112c f i libvcruntime:std_exception.obj
 0001:00010134       ?get@?$__crt_unique_heap_ptr@DU__crt_public_free_policy@@@@QEBAPEADXZ 0000000140011134 f i libvcruntime:std_exception.obj
 0001:00010138       ?is_valid@?$__crt_unique_heap_ptr@DU__crt_public_free_policy@@@@QEBA_NXZ 0000000140011138 f i libvcruntime:std_exception.obj
 0001:00010140       ?release@?$__crt_unique_heap_ptr@DU__crt_public_free_policy@@@@QEAAXXZ 0000000140011140 f i libvcruntime:std_exception.obj
 0001:0001015c       __std_exception_copy       000000014001115c f   libvcruntime:std_exception.obj
 0001:000101ec       __std_exception_destroy    00000001400111ec f   libvcruntime:std_exception.obj
 0001:00010214       _local_unwind              0000000140011214 f   libvcruntime:jmpuwind.obj
 0001:00010250       memcpy_repmovs             0000000140011250 f   libvcruntime:memcpy.obj
 0001:00010270       memcpy                     0000000140011270 f   libvcruntime:memcpy.obj
 0001:00010270       memmove                    0000000140011270 f   libvcruntime:memcpy.obj
 0001:000108e8       ??$__crt_interlocked_exchange_pointer@$$A6AXXZP6AXXZ@@YAP6AXXZPEDS6AXXZQ6AXXZ@Z 00000001400118e8 f i libvcruntime:purevirt.obj
 0001:000108f0       ??$__crt_interlocked_read_pointer@$$A6AXXZ@@YAP6AXXZPEDS6AXXZ@Z 00000001400118f0 f i libvcruntime:purevirt.obj
 0001:000108f8       _get_purecall_handler      00000001400118f8 f   libvcruntime:purevirt.obj
 0001:00010904       _purecall                  0000000140011904 f   libvcruntime:purevirt.obj
 0001:00010920       _set_purecall_handler      0000000140011920 f   libvcruntime:purevirt.obj
 0001:0001092c       ??$?RPEAU__crt_stdio_stream_data@@@__crt_internal_free_policy@@QEBAXQEBQEAU__crt_stdio_stream_data@@@Z 000000014001192c f i libucrt:_file.obj
 0001:00010934       ??0?$__crt_unique_heap_ptr@PEAU__crt_stdio_stream_data@@U__crt_internal_free_policy@@@@QEAA@QEAPEAU__crt_stdio_stream_data@@@Z 0000000140011934 f i libucrt:_file.obj
 0001:0001093c       ??0__crt_stdio_stream@@QEAA@QEAU_iobuf@@@Z 000000014001193c f i libucrt:_file.obj
 0001:00010944       ??1?$__crt_unique_heap_ptr@PEAU__crt_stdio_stream_data@@U__crt_internal_free_policy@@@@QEAA@XZ 0000000140011944 f i libucrt:_file.obj
 0001:00010960       ??C__crt_stdio_stream@@QEBAPEAU__crt_stdio_stream_data@@XZ 0000000140011960 f i libucrt:_file.obj
 0001:00010964       ?detach@?$__crt_unique_heap_ptr@PEAU__crt_stdio_stream_data@@U__crt_internal_free_policy@@@@QEAAPEAPEAU__crt_stdio_stream_data@@XZ 0000000140011964 f i libucrt:_file.obj
 0001:0001096c       ?release@?$__crt_unique_heap_ptr@PEAU__crt_stdio_stream_data@@U__crt_internal_free_policy@@@@QEAAXXZ 000000014001196c f i libucrt:_file.obj
 0001:00010988       __acrt_initialize_stdio    0000000140011988 f   libucrt:_file.obj
 0001:00010aa8       __acrt_iob_func            0000000140011aa8 f   libucrt:_file.obj
 0001:00010abc       __acrt_uninitialize_stdio  0000000140011abc f   libucrt:_file.obj
 0001:00010b18       _get_stream_buffer_pointers 0000000140011b18 f   libucrt:_file.obj
 0001:00010b60       _lock_file                 0000000140011b60 f   libucrt:_file.obj
 0001:00010b6c       _unlock_file               0000000140011b6c f   libucrt:_file.obj
 0001:00010b78       ??$?0AEBV?$stream_output_adapter@D@__crt_stdio_output@@AEB_KAEBQEBDAEAV__crt_cached_ptd_host@@AEBQEAD@?$format_validation_base@DV?$stream_output_adapter@D@__crt_stdio_output@@@__crt_stdio_output@@IEAA@AEBV?$stream_output_adapter@D@1@AEB_KAEBQEBDAEAV__crt_cached_ptd_host@@AEBQEAD@Z 0000000140011b78 f i libucrt:output.obj
 0001:00010be8       ??$?0AEBV?$stream_output_adapter@D@__crt_stdio_output@@AEB_KAEBQEBDAEAV__crt_cached_ptd_host@@AEBQEAD@?$positional_parameter_base@DV?$stream_output_adapter@D@__crt_stdio_output@@@__crt_stdio_output@@IEAA@AEBV?$stream_output_adapter@D@1@AEB_KAEBQEBDAEAV__crt_cached_ptd_host@@AEBQEAD@Z 0000000140011be8 f i libucrt:output.obj
 0001:00010c78       ??$?0AEBV?$stream_output_adapter@D@__crt_stdio_output@@AEB_KAEBQEBDAEAV__crt_cached_ptd_host@@AEBQEAD@?$standard_base@DV?$stream_output_adapter@D@__crt_stdio_output@@@__crt_stdio_output@@IEAA@AEBV?$stream_output_adapter@D@1@AEB_KAEBQEBDAEAV__crt_cached_ptd_host@@AEBQEAD@Z 0000000140011c78 f i libucrt:output.obj
 0001:00010ce8       ??$?0AEBV?$stream_output_adapter@_W@__crt_stdio_output@@AEB_KAEBQEB_WAEAV__crt_cached_ptd_host@@AEBQEAD@?$format_validation_base@_WV?$stream_output_adapter@_W@__crt_stdio_output@@@__crt_stdio_output@@IEAA@AEBV?$stream_output_adapter@_W@1@AEB_KAEBQEB_WAEAV__crt_cached_ptd_host@@AEBQEAD@Z 0000000140011ce8 f i libucrt:output.obj
 0001:00010d5c       ??$?0AEBV?$stream_output_adapter@_W@__crt_stdio_output@@AEB_KAEBQEB_WAEAV__crt_cached_ptd_host@@AEBQEAD@?$positional_parameter_base@_WV?$stream_output_adapter@_W@__crt_stdio_output@@@__crt_stdio_output@@IEAA@AEBV?$stream_output_adapter@_W@1@AEB_KAEBQEB_WAEAV__crt_cached_ptd_host@@AEBQEAD@Z 0000000140011d5c f i libucrt:output.obj
 0001:00010df0       ??$?0AEBV?$stream_output_adapter@_W@__crt_stdio_output@@AEB_KAEBQEB_WAEAV__crt_cached_ptd_host@@AEBQEAD@?$standard_base@_WV?$stream_output_adapter@_W@__crt_stdio_output@@@__crt_stdio_output@@IEAA@AEBV?$stream_output_adapter@_W@1@AEB_KAEBQEB_WAEAV__crt_cached_ptd_host@@AEBQEAD@Z 0000000140011df0 f i libucrt:output.obj
 0001:00010e64       ??$?0AEBV?$string_output_adapter@D@__crt_stdio_output@@AEB_KAEBQEBDAEAV__crt_cached_ptd_host@@AEBQEAD@?$format_validation_base@DV?$string_output_adapter@D@__crt_stdio_output@@@__crt_stdio_output@@IEAA@AEBV?$string_output_adapter@D@1@AEB_KAEBQEBDAEAV__crt_cached_ptd_host@@AEBQEAD@Z 0000000140011e64 f i libucrt:output.obj
 0001:00010ed4       ??$?0AEBV?$string_output_adapter@D@__crt_stdio_output@@AEB_KAEBQEBDAEAV__crt_cached_ptd_host@@AEBQEAD@?$positional_parameter_base@DV?$string_output_adapter@D@__crt_stdio_output@@@__crt_stdio_output@@IEAA@AEBV?$string_output_adapter@D@1@AEB_KAEBQEBDAEAV__crt_cached_ptd_host@@AEBQEAD@Z 0000000140011ed4 f i libucrt:output.obj
 0001:00010f64       ??$?0AEBV?$string_output_adapter@D@__crt_stdio_output@@AEB_KAEBQEBDAEAV__crt_cached_ptd_host@@AEBQEAD@?$standard_base@DV?$string_output_adapter@D@__crt_stdio_output@@@__crt_stdio_output@@IEAA@AEBV?$string_output_adapter@D@1@AEB_KAEBQEBDAEAV__crt_cached_ptd_host@@AEBQEAD@Z 0000000140011f64 f i libucrt:output.obj
 0001:00010fd4       ??$?0AEBV?$string_output_adapter@_W@__crt_stdio_output@@AEB_KAEBQEB_WAEAV__crt_cached_ptd_host@@AEBQEAD@?$format_validation_base@_WV?$string_output_adapter@_W@__crt_stdio_output@@@__crt_stdio_output@@IEAA@AEBV?$string_output_adapter@_W@1@AEB_KAEBQEB_WAEAV__crt_cached_ptd_host@@AEBQEAD@Z 0000000140011fd4 f i libucrt:output.obj
 0001:00011048       ??$?0AEBV?$string_output_adapter@_W@__crt_stdio_output@@AEB_KAEBQEB_WAEAV__crt_cached_ptd_host@@AEBQEAD@?$positional_parameter_base@_WV?$string_output_adapter@_W@__crt_stdio_output@@@__crt_stdio_output@@IEAA@AEBV?$string_output_adapter@_W@1@AEB_KAEBQEB_WAEAV__crt_cached_ptd_host@@AEBQEAD@Z 0000000140012048 f i libucrt:output.obj
 0001:000110dc       ??$?0AEBV?$string_output_adapter@_W@__crt_stdio_output@@AEB_KAEBQEB_WAEAV__crt_cached_ptd_host@@AEBQEAD@?$standard_base@_WV?$string_output_adapter@_W@__crt_stdio_output@@@__crt_stdio_output@@IEAA@AEBV?$string_output_adapter@_W@1@AEB_KAEBQEB_WAEAV__crt_cached_ptd_host@@AEBQEAD@Z 00000001400120dc f i libucrt:output.obj
 0001:000113c0       ??$__crt_interlocked_read@J@@YAJPEDJ@Z 00000001400123c0 f i libucrt:output.obj
 0001:000113c4       ??$_tcstol_internal@DPEAPEAD$0A@@@YAJAEAV__crt_cached_ptd_host@@QEBDQEAPEADH@Z 00000001400123c4 f i libucrt:output.obj
 0001:000113f4       ??$_tcstol_internal@_WPEAPEA_W$0A@@@YAJAEAV__crt_cached_ptd_host@@QEB_WQEAPEA_WH@Z 00000001400123f4 f i libucrt:output.obj
 0001:00012534       ??$count@D@formatting_buffer@__crt_stdio_output@@QEBA_KXZ 0000000140013534 f i libucrt:output.obj
 0001:00012550       ??$count@_W@formatting_buffer@__crt_stdio_output@@QEBA_KXZ 0000000140013550 f i libucrt:output.obj
 0001:0001256c       ??$data@D@formatting_buffer@__crt_stdio_output@@QEAAPEADXZ 000000014001356c f i libucrt:output.obj
 0001:0001257c       ??$data@_W@formatting_buffer@__crt_stdio_output@@QEAAPEA_WXZ 000000014001357c f i libucrt:output.obj
 0001:0001258c       ??$ensure_buffer_is_big_enough@D@formatting_buffer@__crt_stdio_output@@QEAA_N_KAEAV__crt_cached_ptd_host@@@Z 000000014001358c f i libucrt:output.obj
 0001:00012634       ??$ensure_buffer_is_big_enough@_W@formatting_buffer@__crt_stdio_output@@QEAA_N_KAEAV__crt_cached_ptd_host@@@Z 0000000140013634 f i libucrt:output.obj
 0001:000126e0       ??$extract_argument_from_va_list@C_J@?$positional_parameter_base@DV?$stream_output_adapter@D@__crt_stdio_output@@@__crt_stdio_output@@IEAA_NAEA_J@Z 00000001400136e0 f i libucrt:output.obj
 0001:000127ec       ??$extract_argument_from_va_list@C_J@?$positional_parameter_base@DV?$string_output_adapter@D@__crt_stdio_output@@@__crt_stdio_output@@IEAA_NAEA_J@Z 00000001400137ec f i libucrt:output.obj
 0001:000128f8       ??$extract_argument_from_va_list@C_J@?$positional_parameter_base@_WV?$stream_output_adapter@_W@__crt_stdio_output@@@__crt_stdio_output@@IEAA_NAEA_J@Z 00000001400138f8 f i libucrt:output.obj
 0001:00012a04       ??$extract_argument_from_va_list@C_J@?$positional_parameter_base@_WV?$string_output_adapter@_W@__crt_stdio_output@@@__crt_stdio_output@@IEAA_NAEA_J@Z 0000000140013a04 f i libucrt:output.obj
 0001:00012b10       ??$extract_argument_from_va_list@C_J@?$standard_base@DV?$stream_output_adapter@D@__crt_stdio_output@@@__crt_stdio_output@@IEAA_NAEA_J@Z 0000000140013b10 f i libucrt:output.obj
 0001:00012b28       ??$extract_argument_from_va_list@C_J@?$standard_base@DV?$string_output_adapter@D@__crt_stdio_output@@@__crt_stdio_output@@IEAA_NAEA_J@Z 0000000140013b28 f i libucrt:output.obj
 0001:00012b40       ??$extract_argument_from_va_list@C_J@?$standard_base@_WV?$stream_output_adapter@_W@__crt_stdio_output@@@__crt_stdio_output@@IEAA_NAEA_J@Z 0000000140013b40 f i libucrt:output.obj
 0001:00012b58       ??$extract_argument_from_va_list@C_J@?$standard_base@_WV?$string_output_adapter@_W@__crt_stdio_output@@@__crt_stdio_output@@IEAA_NAEA_J@Z 0000000140013b58 f i libucrt:output.obj
 0001:00012b70       ??$extract_argument_from_va_list@E_J@?$positional_parameter_base@DV?$stream_output_adapter@D@__crt_stdio_output@@@__crt_stdio_output@@IEAA_NAEA_J@Z 0000000140013b70 f i libucrt:output.obj
 0001:00012c78       ??$extract_argument_from_va_list@E_J@?$positional_parameter_base@DV?$string_output_adapter@D@__crt_stdio_output@@@__crt_stdio_output@@IEAA_NAEA_J@Z 0000000140013c78 f i libucrt:output.obj
 0001:00012d80       ??$extract_argument_from_va_list@E_J@?$positional_parameter_base@_WV?$stream_output_adapter@_W@__crt_stdio_output@@@__crt_stdio_output@@IEAA_NAEA_J@Z 0000000140013d80 f i libucrt:output.obj
 0001:00012e8c       ??$extract_argument_from_va_list@E_J@?$positional_parameter_base@_WV?$string_output_adapter@_W@__crt_stdio_output@@@__crt_stdio_output@@IEAA_NAEA_J@Z 0000000140013e8c f i libucrt:output.obj
 0001:00012f98       ??$extract_argument_from_va_list@E_J@?$standard_base@DV?$stream_output_adapter@D@__crt_stdio_output@@@__crt_stdio_output@@IEAA_NAEA_J@Z 0000000140013f98 f i libucrt:output.obj
 0001:00012fb0       ??$extract_argument_from_va_list@E_J@?$standard_base@DV?$string_output_adapter@D@__crt_stdio_output@@@__crt_stdio_output@@IEAA_NAEA_J@Z 0000000140013fb0 f i libucrt:output.obj
 0001:00012fc8       ??$extract_argument_from_va_list@E_J@?$standard_base@_WV?$stream_output_adapter@_W@__crt_stdio_output@@@__crt_stdio_output@@IEAA_NAEA_J@Z 0000000140013fc8 f i libucrt:output.obj
 0001:00012fe0       ??$extract_argument_from_va_list@E_J@?$standard_base@_WV?$string_output_adapter@_W@__crt_stdio_output@@@__crt_stdio_output@@IEAA_NAEA_J@Z 0000000140013fe0 f i libucrt:output.obj
 0001:00012ff8       ??$extract_argument_from_va_list@F_J@?$positional_parameter_base@DV?$stream_output_adapter@D@__crt_stdio_output@@@__crt_stdio_output@@IEAA_NAEA_J@Z 0000000140013ff8 f i libucrt:output.obj
 0001:00013104       ??$extract_argument_from_va_list@F_J@?$positional_parameter_base@DV?$string_output_adapter@D@__crt_stdio_output@@@__crt_stdio_output@@IEAA_NAEA_J@Z 0000000140014104 f i libucrt:output.obj
 0001:00013210       ??$extract_argument_from_va_list@F_J@?$positional_parameter_base@_WV?$stream_output_adapter@_W@__crt_stdio_output@@@__crt_stdio_output@@IEAA_NAEA_J@Z 0000000140014210 f i libucrt:output.obj
 0001:0001331c       ??$extract_argument_from_va_list@F_J@?$positional_parameter_base@_WV?$string_output_adapter@_W@__crt_stdio_output@@@__crt_stdio_output@@IEAA_NAEA_J@Z 000000014001431c f i libucrt:output.obj
 0001:00013428       ??$extract_argument_from_va_list@F_J@?$standard_base@DV?$stream_output_adapter@D@__crt_stdio_output@@@__crt_stdio_output@@IEAA_NAEA_J@Z 0000000140014428 f i libucrt:output.obj
 0001:00013440       ??$extract_argument_from_va_list@F_J@?$standard_base@DV?$string_output_adapter@D@__crt_stdio_output@@@__crt_stdio_output@@IEAA_NAEA_J@Z 0000000140014440 f i libucrt:output.obj
 0001:00013458       ??$extract_argument_from_va_list@F_J@?$standard_base@_WV?$stream_output_adapter@_W@__crt_stdio_output@@@__crt_stdio_output@@IEAA_NAEA_J@Z 0000000140014458 f i libucrt:output.obj
 0001:00013470       ??$extract_argument_from_va_list@F_J@?$standard_base@_WV?$string_output_adapter@_W@__crt_stdio_output@@@__crt_stdio_output@@IEAA_NAEA_J@Z 0000000140014470 f i libucrt:output.obj
 0001:00013488       ??$extract_argument_from_va_list@GD@?$positional_parameter_base@DV?$stream_output_adapter@D@__crt_stdio_output@@@__crt_stdio_output@@IEAA_NAEAD@Z 0000000140014488 f i libucrt:output.obj
 0001:0001358c       ??$extract_argument_from_va_list@GD@?$positional_parameter_base@DV?$string_output_adapter@D@__crt_stdio_output@@@__crt_stdio_output@@IEAA_NAEAD@Z 000000014001458c f i libucrt:output.obj
 0001:00013690       ??$extract_argument_from_va_list@GD@?$standard_base@DV?$stream_output_adapter@D@__crt_stdio_output@@@__crt_stdio_output@@IEAA_NAEAD@Z 0000000140014690 f i libucrt:output.obj
 0001:000136a4       ??$extract_argument_from_va_list@GD@?$standard_base@DV?$string_output_adapter@D@__crt_stdio_output@@@__crt_stdio_output@@IEAA_NAEAD@Z 00000001400146a4 f i libucrt:output.obj
 0001:000136b8       ??$extract_argument_from_va_list@G_J@?$positional_parameter_base@DV?$stream_output_adapter@D@__crt_stdio_output@@@__crt_stdio_output@@IEAA_NAEA_J@Z 00000001400146b8 f i libucrt:output.obj
 0001:000137c0       ??$extract_argument_from_va_list@G_J@?$positional_parameter_base@DV?$string_output_adapter@D@__crt_stdio_output@@@__crt_stdio_output@@IEAA_NAEA_J@Z 00000001400147c0 f i libucrt:output.obj
 0001:000138c8       ??$extract_argument_from_va_list@G_J@?$positional_parameter_base@_WV?$stream_output_adapter@_W@__crt_stdio_output@@@__crt_stdio_output@@IEAA_NAEA_J@Z 00000001400148c8 f i libucrt:output.obj
 0001:000139d4       ??$extract_argument_from_va_list@G_J@?$positional_parameter_base@_WV?$string_output_adapter@_W@__crt_stdio_output@@@__crt_stdio_output@@IEAA_NAEA_J@Z 00000001400149d4 f i libucrt:output.obj
 0001:00013ae0       ??$extract_argument_from_va_list@G_J@?$standard_base@DV?$stream_output_adapter@D@__crt_stdio_output@@@__crt_stdio_output@@IEAA_NAEA_J@Z 0000000140014ae0 f i libucrt:output.obj
 0001:00013af8       ??$extract_argument_from_va_list@G_J@?$standard_base@DV?$string_output_adapter@D@__crt_stdio_output@@@__crt_stdio_output@@IEAA_NAEA_J@Z 0000000140014af8 f i libucrt:output.obj
 0001:00013b10       ??$extract_argument_from_va_list@G_J@?$standard_base@_WV?$stream_output_adapter@_W@__crt_stdio_output@@@__crt_stdio_output@@IEAA_NAEA_J@Z 0000000140014b10 f i libucrt:output.obj
 0001:00013b28       ??$extract_argument_from_va_list@G_J@?$standard_base@_WV?$string_output_adapter@_W@__crt_stdio_output@@@__crt_stdio_output@@IEAA_NAEA_J@Z 0000000140014b28 f i libucrt:output.obj
 0001:00013b40       ??$extract_argument_from_va_list@H_J@?$positional_parameter_base@DV?$stream_output_adapter@D@__crt_stdio_output@@@__crt_stdio_output@@IEAA_NAEA_J@Z 0000000140014b40 f i libucrt:output.obj
 0001:00013c48       ??$extract_argument_from_va_list@H_J@?$positional_parameter_base@DV?$string_output_adapter@D@__crt_stdio_output@@@__crt_stdio_output@@IEAA_NAEA_J@Z 0000000140014c48 f i libucrt:output.obj
 0001:00013d50       ??$extract_argument_from_va_list@H_J@?$positional_parameter_base@_WV?$stream_output_adapter@_W@__crt_stdio_output@@@__crt_stdio_output@@IEAA_NAEA_J@Z 0000000140014d50 f i libucrt:output.obj
 0001:00013e5c       ??$extract_argument_from_va_list@H_J@?$positional_parameter_base@_WV?$string_output_adapter@_W@__crt_stdio_output@@@__crt_stdio_output@@IEAA_NAEA_J@Z 0000000140014e5c f i libucrt:output.obj
 0001:00013f68       ??$extract_argument_from_va_list@H_J@?$standard_base@DV?$stream_output_adapter@D@__crt_stdio_output@@@__crt_stdio_output@@IEAA_NAEA_J@Z 0000000140014f68 f i libucrt:output.obj
 0001:00013f80       ??$extract_argument_from_va_list@H_J@?$standard_base@DV?$string_output_adapter@D@__crt_stdio_output@@@__crt_stdio_output@@IEAA_NAEA_J@Z 0000000140014f80 f i libucrt:output.obj
 0001:00013f98       ??$extract_argument_from_va_list@H_J@?$standard_base@_WV?$stream_output_adapter@_W@__crt_stdio_output@@@__crt_stdio_output@@IEAA_NAEA_J@Z 0000000140014f98 f i libucrt:output.obj
 0001:00013fb0       ??$extract_argument_from_va_list@H_J@?$standard_base@_WV?$string_output_adapter@_W@__crt_stdio_output@@@__crt_stdio_output@@IEAA_NAEA_J@Z 0000000140014fb0 f i libucrt:output.obj
 0001:00013fc8       ??$extract_argument_from_va_list@I_J@?$positional_parameter_base@DV?$stream_output_adapter@D@__crt_stdio_output@@@__crt_stdio_output@@IEAA_NAEA_J@Z 0000000140014fc8 f i libucrt:output.obj
 0001:000140d0       ??$extract_argument_from_va_list@I_J@?$positional_parameter_base@DV?$string_output_adapter@D@__crt_stdio_output@@@__crt_stdio_output@@IEAA_NAEA_J@Z 00000001400150d0 f i libucrt:output.obj
 0001:000141d8       ??$extract_argument_from_va_list@I_J@?$positional_parameter_base@_WV?$stream_output_adapter@_W@__crt_stdio_output@@@__crt_stdio_output@@IEAA_NAEA_J@Z 00000001400151d8 f i libucrt:output.obj
 0001:000142e0       ??$extract_argument_from_va_list@I_J@?$positional_parameter_base@_WV?$string_output_adapter@_W@__crt_stdio_output@@@__crt_stdio_output@@IEAA_NAEA_J@Z 00000001400152e0 f i libucrt:output.obj
 0001:000143e8       ??$extract_argument_from_va_list@I_J@?$standard_base@DV?$stream_output_adapter@D@__crt_stdio_output@@@__crt_stdio_output@@IEAA_NAEA_J@Z 00000001400153e8 f i libucrt:output.obj
 0001:00014400       ??$extract_argument_from_va_list@I_J@?$standard_base@DV?$string_output_adapter@D@__crt_stdio_output@@@__crt_stdio_output@@IEAA_NAEA_J@Z 0000000140015400 f i libucrt:output.obj
 0001:00014418       ??$extract_argument_from_va_list@I_J@?$standard_base@_WV?$stream_output_adapter@_W@__crt_stdio_output@@@__crt_stdio_output@@IEAA_NAEA_J@Z 0000000140015418 f i libucrt:output.obj
 0001:00014430       ??$extract_argument_from_va_list@I_J@?$standard_base@_WV?$string_output_adapter@_W@__crt_stdio_output@@@__crt_stdio_output@@IEAA_NAEA_J@Z 0000000140015430 f i libucrt:output.obj
 0001:00014448       ??$extract_argument_from_va_list@PEADPEAD@?$positional_parameter_base@DV?$stream_output_adapter@D@__crt_stdio_output@@@__crt_stdio_output@@IEAA_NAEAPEAD@Z 0000000140015448 f i libucrt:output.obj
 0001:00014550       ??$extract_argument_from_va_list@PEADPEAD@?$positional_parameter_base@DV?$string_output_adapter@D@__crt_stdio_output@@@__crt_stdio_output@@IEAA_NAEAPEAD@Z 0000000140015550 f i libucrt:output.obj
 0001:00014658       ??$extract_argument_from_va_list@PEADPEAD@?$positional_parameter_base@_WV?$stream_output_adapter@_W@__crt_stdio_output@@@__crt_stdio_output@@IEAA_NAEAPEAD@Z 0000000140015658 f i libucrt:output.obj
 0001:00014764       ??$extract_argument_from_va_list@PEADPEAD@?$positional_parameter_base@_WV?$string_output_adapter@_W@__crt_stdio_output@@@__crt_stdio_output@@IEAA_NAEAPEAD@Z 0000000140015764 f i libucrt:output.obj
 0001:00014870       ??$extract_argument_from_va_list@PEADPEAD@?$standard_base@DV?$stream_output_adapter@D@__crt_stdio_output@@@__crt_stdio_output@@IEAA_NAEAPEAD@Z 0000000140015870 f i libucrt:output.obj
 0001:00014888       ??$extract_argument_from_va_list@PEADPEAD@?$standard_base@DV?$string_output_adapter@D@__crt_stdio_output@@@__crt_stdio_output@@IEAA_NAEAPEAD@Z 0000000140015888 f i libucrt:output.obj
 0001:000148a0       ??$extract_argument_from_va_list@PEADPEAD@?$standard_base@_WV?$stream_output_adapter@_W@__crt_stdio_output@@@__crt_stdio_output@@IEAA_NAEAPEAD@Z 00000001400158a0 f i libucrt:output.obj
 0001:000148b8       ??$extract_argument_from_va_list@PEADPEAD@?$standard_base@_WV?$string_output_adapter@_W@__crt_stdio_output@@@__crt_stdio_output@@IEAA_NAEAPEAD@Z 00000001400158b8 f i libucrt:output.obj
 0001:000148d0       ??$extract_argument_from_va_list@PEAUansi_string@?1??type_case_Z@?$output_processor@DV?$stream_output_adapter@D@__crt_stdio_output@@V?$format_validation_base@DV?$stream_output_adapter@D@__crt_stdio_output@@@2@@__crt_stdio_output@@AEAA_NXZ@PEAU1?1??234@AEAA_NXZ@@?$standard_base@DV?$stream_output_adapter@D@__crt_stdio_output@@@__crt_stdio_output@@IEAA_NAEAPEAUansi_string@?1??type_case_Z@?$output_processor@DV?$stream_output_adapter@D@__crt_stdio_output@@V?$format_validation_base@DV?$stream_output_adapter@D@__crt_stdio_output@@@2@@1@AEAA_NXZ@@Z 00000001400158d0 f i libucrt:output.obj
 0001:000148e8       ??$extract_argument_from_va_list@PEAUansi_string@?1??type_case_Z@?$output_processor@DV?$stream_output_adapter@D@__crt_stdio_output@@V?$positional_parameter_base@DV?$stream_output_adapter@D@__crt_stdio_output@@@2@@__crt_stdio_output@@AEAA_NXZ@PEAU1?1??234@AEAA_NXZ@@?$positional_parameter_base@DV?$stream_output_adapter@D@__crt_stdio_output@@@__crt_stdio_output@@IEAA_NAEAPEAUansi_string@?1??type_case_Z@?$output_processor@DV?$stream_output_adapter@D@__crt_stdio_output@@V?$positional_parameter_base@DV?$stream_output_adapter@D@__crt_stdio_output@@@2@@1@AEAA_NXZ@@Z 00000001400158e8 f i libucrt:output.obj
 0001:000149f0       ??$extract_argument_from_va_list@PEAUansi_string@?1??type_case_Z@?$output_processor@DV?$stream_output_adapter@D@__crt_stdio_output@@V?$positional_parameter_base@DV?$stream_output_adapter@D@__crt_stdio_output@@@2@@__crt_stdio_output@@AEAA_NXZ@PEAU1?1??234@AEAA_NXZ@@?$standard_base@DV?$stream_output_adapter@D@__crt_stdio_output@@@__crt_stdio_output@@IEAA_NAEAPEAUansi_string@?1??type_case_Z@?$output_processor@DV?$stream_output_adapter@D@__crt_stdio_output@@V?$positional_parameter_base@DV?$stream_output_adapter@D@__crt_stdio_output@@@2@@1@AEAA_NXZ@@Z 00000001400159f0 f i libucrt:output.obj
 0001:00014a08       ??$extract_argument_from_va_list@PEAUansi_string@?1??type_case_Z@?$output_processor@DV?$stream_output_adapter@D@__crt_stdio_output@@V?$standard_base@DV?$stream_output_adapter@D@__crt_stdio_output@@@2@@__crt_stdio_output@@AEAA_NXZ@PEAU1?1??234@AEAA_NXZ@@?$standard_base@DV?$stream_output_adapter@D@__crt_stdio_output@@@__crt_stdio_output@@IEAA_NAEAPEAUansi_string@?1??type_case_Z@?$output_processor@DV?$stream_output_adapter@D@__crt_stdio_output@@V?$standard_base@DV?$stream_output_adapter@D@__crt_stdio_output@@@2@@1@AEAA_NXZ@@Z 0000000140015a08 f i libucrt:output.obj
 0001:00014a20       ??$extract_argument_from_va_list@PEAUansi_string@?1??type_case_Z@?$output_processor@DV?$string_output_adapter@D@__crt_stdio_output@@V?$format_validation_base@DV?$string_output_adapter@D@__crt_stdio_output@@@2@@__crt_stdio_output@@AEAA_NXZ@PEAU1?1??234@AEAA_NXZ@@?$standard_base@DV?$string_output_adapter@D@__crt_stdio_output@@@__crt_stdio_output@@IEAA_NAEAPEAUansi_string@?1??type_case_Z@?$output_processor@DV?$string_output_adapter@D@__crt_stdio_output@@V?$format_validation_base@DV?$string_output_adapter@D@__crt_stdio_output@@@2@@1@AEAA_NXZ@@Z 0000000140015a20 f i libucrt:output.obj
 0001:00014a38       ??$extract_argument_from_va_list@PEAUansi_string@?1??type_case_Z@?$output_processor@DV?$string_output_adapter@D@__crt_stdio_output@@V?$positional_parameter_base@DV?$string_output_adapter@D@__crt_stdio_output@@@2@@__crt_stdio_output@@AEAA_NXZ@PEAU1?1??234@AEAA_NXZ@@?$positional_parameter_base@DV?$string_output_adapter@D@__crt_stdio_output@@@__crt_stdio_output@@IEAA_NAEAPEAUansi_string@?1??type_case_Z@?$output_processor@DV?$string_output_adapter@D@__crt_stdio_output@@V?$positional_parameter_base@DV?$string_output_adapter@D@__crt_stdio_output@@@2@@1@AEAA_NXZ@@Z 0000000140015a38 f i libucrt:output.obj
 0001:00014b40       ??$extract_argument_from_va_list@PEAUansi_string@?1??type_case_Z@?$output_processor@DV?$string_output_adapter@D@__crt_stdio_output@@V?$positional_parameter_base@DV?$string_output_adapter@D@__crt_stdio_output@@@2@@__crt_stdio_output@@AEAA_NXZ@PEAU1?1??234@AEAA_NXZ@@?$standard_base@DV?$string_output_adapter@D@__crt_stdio_output@@@__crt_stdio_output@@IEAA_NAEAPEAUansi_string@?1??type_case_Z@?$output_processor@DV?$string_output_adapter@D@__crt_stdio_output@@V?$positional_parameter_base@DV?$string_output_adapter@D@__crt_stdio_output@@@2@@1@AEAA_NXZ@@Z 0000000140015b40 f i libucrt:output.obj
 0001:00014b58       ??$extract_argument_from_va_list@PEAUansi_string@?1??type_case_Z@?$output_processor@DV?$string_output_adapter@D@__crt_stdio_output@@V?$standard_base@DV?$string_output_adapter@D@__crt_stdio_output@@@2@@__crt_stdio_output@@AEAA_NXZ@PEAU1?1??234@AEAA_NXZ@@?$standard_base@DV?$string_output_adapter@D@__crt_stdio_output@@@__crt_stdio_output@@IEAA_NAEAPEAUansi_string@?1??type_case_Z@?$output_processor@DV?$string_output_adapter@D@__crt_stdio_output@@V?$standard_base@DV?$string_output_adapter@D@__crt_stdio_output@@@2@@1@AEAA_NXZ@@Z 0000000140015b58 f i libucrt:output.obj
 0001:00014b70       ??$extract_argument_from_va_list@PEAUansi_string@?1??type_case_Z@?$output_processor@_WV?$stream_output_adapter@_W@__crt_stdio_output@@V?$format_validation_base@_WV?$stream_output_adapter@_W@__crt_stdio_output@@@2@@__crt_stdio_output@@AEAA_NXZ@PEAU1?1??234@AEAA_NXZ@@?$standard_base@_WV?$stream_output_adapter@_W@__crt_stdio_output@@@__crt_stdio_output@@IEAA_NAEAPEAUansi_string@?1??type_case_Z@?$output_processor@_WV?$stream_output_adapter@_W@__crt_stdio_output@@V?$format_validation_base@_WV?$stream_output_adapter@_W@__crt_stdio_output@@@2@@1@AEAA_NXZ@@Z 0000000140015b70 f i libucrt:output.obj
 0001:00014b88       ??$extract_argument_from_va_list@PEAUansi_string@?1??type_case_Z@?$output_processor@_WV?$stream_output_adapter@_W@__crt_stdio_output@@V?$positional_parameter_base@_WV?$stream_output_adapter@_W@__crt_stdio_output@@@2@@__crt_stdio_output@@AEAA_NXZ@PEAU1?1??234@AEAA_NXZ@@?$positional_parameter_base@_WV?$stream_output_adapter@_W@__crt_stdio_output@@@__crt_stdio_output@@IEAA_NAEAPEAUansi_string@?1??type_case_Z@?$output_processor@_WV?$stream_output_adapter@_W@__crt_stdio_output@@V?$positional_parameter_base@_WV?$stream_output_adapter@_W@__crt_stdio_output@@@2@@1@AEAA_NXZ@@Z 0000000140015b88 f i libucrt:output.obj
 0001:00014c94       ??$extract_argument_from_va_list@PEAUansi_string@?1??type_case_Z@?$output_processor@_WV?$stream_output_adapter@_W@__crt_stdio_output@@V?$positional_parameter_base@_WV?$stream_output_adapter@_W@__crt_stdio_output@@@2@@__crt_stdio_output@@AEAA_NXZ@PEAU1?1??234@AEAA_NXZ@@?$standard_base@_WV?$stream_output_adapter@_W@__crt_stdio_output@@@__crt_stdio_output@@IEAA_NAEAPEAUansi_string@?1??type_case_Z@?$output_processor@_WV?$stream_output_adapter@_W@__crt_stdio_output@@V?$positional_parameter_base@_WV?$stream_output_adapter@_W@__crt_stdio_output@@@2@@1@AEAA_NXZ@@Z 0000000140015c94 f i libucrt:output.obj
 0001:00014cac       ??$extract_argument_from_va_list@PEAUansi_string@?1??type_case_Z@?$output_processor@_WV?$stream_output_adapter@_W@__crt_stdio_output@@V?$standard_base@_WV?$stream_output_adapter@_W@__crt_stdio_output@@@2@@__crt_stdio_output@@AEAA_NXZ@PEAU1?1??234@AEAA_NXZ@@?$standard_base@_WV?$stream_output_adapter@_W@__crt_stdio_output@@@__crt_stdio_output@@IEAA_NAEAPEAUansi_string@?1??type_case_Z@?$output_processor@_WV?$stream_output_adapter@_W@__crt_stdio_output@@V?$standard_base@_WV?$stream_output_adapter@_W@__crt_stdio_output@@@2@@1@AEAA_NXZ@@Z 0000000140015cac f i libucrt:output.obj
 0001:00014cc4       ??$extract_argument_from_va_list@PEAUansi_string@?1??type_case_Z@?$output_processor@_WV?$string_output_adapter@_W@__crt_stdio_output@@V?$format_validation_base@_WV?$string_output_adapter@_W@__crt_stdio_output@@@2@@__crt_stdio_output@@AEAA_NXZ@PEAU1?1??234@AEAA_NXZ@@?$standard_base@_WV?$string_output_adapter@_W@__crt_stdio_output@@@__crt_stdio_output@@IEAA_NAEAPEAUansi_string@?1??type_case_Z@?$output_processor@_WV?$string_output_adapter@_W@__crt_stdio_output@@V?$format_validation_base@_WV?$string_output_adapter@_W@__crt_stdio_output@@@2@@1@AEAA_NXZ@@Z 0000000140015cc4 f i libucrt:output.obj
 0001:00014cdc       ??$extract_argument_from_va_list@PEAUansi_string@?1??type_case_Z@?$output_processor@_WV?$string_output_adapter@_W@__crt_stdio_output@@V?$positional_parameter_base@_WV?$string_output_adapter@_W@__crt_stdio_output@@@2@@__crt_stdio_output@@AEAA_NXZ@PEAU1?1??234@AEAA_NXZ@@?$positional_parameter_base@_WV?$string_output_adapter@_W@__crt_stdio_output@@@__crt_stdio_output@@IEAA_NAEAPEAUansi_string@?1??type_case_Z@?$output_processor@_WV?$string_output_adapter@_W@__crt_stdio_output@@V?$positional_parameter_base@_WV?$string_output_adapter@_W@__crt_stdio_output@@@2@@1@AEAA_NXZ@@Z 0000000140015cdc f i libucrt:output.obj
 0001:00014de8       ??$extract_argument_from_va_list@PEAUansi_string@?1??type_case_Z@?$output_processor@_WV?$string_output_adapter@_W@__crt_stdio_output@@V?$positional_parameter_base@_WV?$string_output_adapter@_W@__crt_stdio_output@@@2@@__crt_stdio_output@@AEAA_NXZ@PEAU1?1??234@AEAA_NXZ@@?$standard_base@_WV?$string_output_adapter@_W@__crt_stdio_output@@@__crt_stdio_output@@IEAA_NAEAPEAUansi_string@?1??type_case_Z@?$output_processor@_WV?$string_output_adapter@_W@__crt_stdio_output@@V?$positional_parameter_base@_WV?$string_output_adapter@_W@__crt_stdio_output@@@2@@1@AEAA_NXZ@@Z 0000000140015de8 f i libucrt:output.obj
 0001:00014e00       ??$extract_argument_from_va_list@PEAUansi_string@?1??type_case_Z@?$output_processor@_WV?$string_output_adapter@_W@__crt_stdio_output@@V?$standard_base@_WV?$string_output_adapter@_W@__crt_stdio_output@@@2@@__crt_stdio_output@@AEAA_NXZ@PEAU1?1??234@AEAA_NXZ@@?$standard_base@_WV?$string_output_adapter@_W@__crt_stdio_output@@@__crt_stdio_output@@IEAA_NAEAPEAUansi_string@?1??type_case_Z@?$output_processor@_WV?$string_output_adapter@_W@__crt_stdio_output@@V?$standard_base@_WV?$string_output_adapter@_W@__crt_stdio_output@@@2@@1@AEAA_NXZ@@Z 0000000140015e00 f i libucrt:output.obj
 0001:00014e18       ??$extract_argument_from_va_list@PEAXPEAX@?$positional_parameter_base@DV?$stream_output_adapter@D@__crt_stdio_output@@@__crt_stdio_output@@IEAA_NAEAPEAX@Z 0000000140015e18 f i libucrt:output.obj
 0001:00014f20       ??$extract_argument_from_va_list@PEAXPEAX@?$positional_parameter_base@DV?$string_output_adapter@D@__crt_stdio_output@@@__crt_stdio_output@@IEAA_NAEAPEAX@Z 0000000140015f20 f i libucrt:output.obj
 0001:00015028       ??$extract_argument_from_va_list@PEAXPEAX@?$positional_parameter_base@_WV?$stream_output_adapter@_W@__crt_stdio_output@@@__crt_stdio_output@@IEAA_NAEAPEAX@Z 0000000140016028 f i libucrt:output.obj
 0001:00015134       ??$extract_argument_from_va_list@PEAXPEAX@?$positional_parameter_base@_WV?$string_output_adapter@_W@__crt_stdio_output@@@__crt_stdio_output@@IEAA_NAEAPEAX@Z 0000000140016134 f i libucrt:output.obj
 0001:00015240       ??$extract_argument_from_va_list@PEAXPEAX@?$standard_base@DV?$stream_output_adapter@D@__crt_stdio_output@@@__crt_stdio_output@@IEAA_NAEAPEAX@Z 0000000140016240 f i libucrt:output.obj
 0001:00015258       ??$extract_argument_from_va_list@PEAXPEAX@?$standard_base@DV?$string_output_adapter@D@__crt_stdio_output@@@__crt_stdio_output@@IEAA_NAEAPEAX@Z 0000000140016258 f i libucrt:output.obj
 0001:00015270       ??$extract_argument_from_va_list@PEAXPEAX@?$standard_base@_WV?$stream_output_adapter@_W@__crt_stdio_output@@@__crt_stdio_output@@IEAA_NAEAPEAX@Z 0000000140016270 f i libucrt:output.obj
 0001:00015288       ??$extract_argument_from_va_list@PEAXPEAX@?$standard_base@_WV?$string_output_adapter@_W@__crt_stdio_output@@@__crt_stdio_output@@IEAA_NAEAPEAX@Z 0000000140016288 f i libucrt:output.obj
 0001:000152a0       ??$extract_argument_from_va_list@U_CRT_DOUBLE@@U1@@?$positional_parameter_base@DV?$stream_output_adapter@D@__crt_stdio_output@@@__crt_stdio_output@@IEAA_NAEAU_CRT_DOUBLE@@@Z 00000001400162a0 f i libucrt:output.obj
 0001:000153a8       ??$extract_argument_from_va_list@U_CRT_DOUBLE@@U1@@?$positional_parameter_base@DV?$string_output_adapter@D@__crt_stdio_output@@@__crt_stdio_output@@IEAA_NAEAU_CRT_DOUBLE@@@Z 00000001400163a8 f i libucrt:output.obj
 0001:000154b0       ??$extract_argument_from_va_list@U_CRT_DOUBLE@@U1@@?$positional_parameter_base@_WV?$stream_output_adapter@_W@__crt_stdio_output@@@__crt_stdio_output@@IEAA_NAEAU_CRT_DOUBLE@@@Z 00000001400164b0 f i libucrt:output.obj
 0001:000155bc       ??$extract_argument_from_va_list@U_CRT_DOUBLE@@U1@@?$positional_parameter_base@_WV?$string_output_adapter@_W@__crt_stdio_output@@@__crt_stdio_output@@IEAA_NAEAU_CRT_DOUBLE@@@Z 00000001400165bc f i libucrt:output.obj
 0001:000156c8       ??$extract_argument_from_va_list@U_CRT_DOUBLE@@U1@@?$standard_base@DV?$stream_output_adapter@D@__crt_stdio_output@@@__crt_stdio_output@@IEAA_NAEAU_CRT_DOUBLE@@@Z 00000001400166c8 f i libucrt:output.obj
 0001:000156e0       ??$extract_argument_from_va_list@U_CRT_DOUBLE@@U1@@?$standard_base@DV?$string_output_adapter@D@__crt_stdio_output@@@__crt_stdio_output@@IEAA_NAEAU_CRT_DOUBLE@@@Z 00000001400166e0 f i libucrt:output.obj
 0001:000156f8       ??$extract_argument_from_va_list@U_CRT_DOUBLE@@U1@@?$standard_base@_WV?$stream_output_adapter@_W@__crt_stdio_output@@@__crt_stdio_output@@IEAA_NAEAU_CRT_DOUBLE@@@Z 00000001400166f8 f i libucrt:output.obj
 0001:00015710       ??$extract_argument_from_va_list@U_CRT_DOUBLE@@U1@@?$standard_base@_WV?$string_output_adapter@_W@__crt_stdio_output@@@__crt_stdio_output@@IEAA_NAEAU_CRT_DOUBLE@@@Z 0000000140016710 f i libucrt:output.obj
 0001:00015728       ??$extract_argument_from_va_list@_J_J@?$positional_parameter_base@DV?$stream_output_adapter@D@__crt_stdio_output@@@__crt_stdio_output@@IEAA_NAEA_J@Z 0000000140016728 f i libucrt:output.obj
 0001:00015830       ??$extract_argument_from_va_list@_J_J@?$positional_parameter_base@DV?$string_output_adapter@D@__crt_stdio_output@@@__crt_stdio_output@@IEAA_NAEA_J@Z 0000000140016830 f i libucrt:output.obj
 0001:00015938       ??$extract_argument_from_va_list@_J_J@?$positional_parameter_base@_WV?$stream_output_adapter@_W@__crt_stdio_output@@@__crt_stdio_output@@IEAA_NAEA_J@Z 0000000140016938 f i libucrt:output.obj
 0001:00015a44       ??$extract_argument_from_va_list@_J_J@?$positional_parameter_base@_WV?$string_output_adapter@_W@__crt_stdio_output@@@__crt_stdio_output@@IEAA_NAEA_J@Z 0000000140016a44 f i libucrt:output.obj
 0001:00015b50       ??$extract_argument_from_va_list@_J_J@?$standard_base@DV?$stream_output_adapter@D@__crt_stdio_output@@@__crt_stdio_output@@IEAA_NAEA_J@Z 0000000140016b50 f i libucrt:output.obj
 0001:00015b68       ??$extract_argument_from_va_list@_J_J@?$standard_base@DV?$string_output_adapter@D@__crt_stdio_output@@@__crt_stdio_output@@IEAA_NAEA_J@Z 0000000140016b68 f i libucrt:output.obj
 0001:00015b80       ??$extract_argument_from_va_list@_J_J@?$standard_base@_WV?$stream_output_adapter@_W@__crt_stdio_output@@@__crt_stdio_output@@IEAA_NAEA_J@Z 0000000140016b80 f i libucrt:output.obj
 0001:00015b98       ??$extract_argument_from_va_list@_J_J@?$standard_base@_WV?$string_output_adapter@_W@__crt_stdio_output@@@__crt_stdio_output@@IEAA_NAEA_J@Z 0000000140016b98 f i libucrt:output.obj
 0001:00015bb0       ??$extract_argument_from_va_list@_K_J@?$positional_parameter_base@DV?$stream_output_adapter@D@__crt_stdio_output@@@__crt_stdio_output@@IEAA_NAEA_J@Z 0000000140016bb0 f i libucrt:output.obj
 0001:00015cb8       ??$extract_argument_from_va_list@_K_J@?$positional_parameter_base@DV?$string_output_adapter@D@__crt_stdio_output@@@__crt_stdio_output@@IEAA_NAEA_J@Z 0000000140016cb8 f i libucrt:output.obj
 0001:00015dc0       ??$extract_argument_from_va_list@_K_J@?$positional_parameter_base@_WV?$stream_output_adapter@_W@__crt_stdio_output@@@__crt_stdio_output@@IEAA_NAEA_J@Z 0000000140016dc0 f i libucrt:output.obj
 0001:00015ecc       ??$extract_argument_from_va_list@_K_J@?$positional_parameter_base@_WV?$string_output_adapter@_W@__crt_stdio_output@@@__crt_stdio_output@@IEAA_NAEA_J@Z 0000000140016ecc f i libucrt:output.obj
 0001:00015fd8       ??$extract_argument_from_va_list@_K_J@?$standard_base@DV?$stream_output_adapter@D@__crt_stdio_output@@@__crt_stdio_output@@IEAA_NAEA_J@Z 0000000140016fd8 f i libucrt:output.obj
 0001:00015ff0       ??$extract_argument_from_va_list@_K_J@?$standard_base@DV?$string_output_adapter@D@__crt_stdio_output@@@__crt_stdio_output@@IEAA_NAEA_J@Z 0000000140016ff0 f i libucrt:output.obj
 0001:00016008       ??$extract_argument_from_va_list@_K_J@?$standard_base@_WV?$stream_output_adapter@_W@__crt_stdio_output@@@__crt_stdio_output@@IEAA_NAEA_J@Z 0000000140017008 f i libucrt:output.obj
 0001:00016020       ??$extract_argument_from_va_list@_K_J@?$standard_base@_WV?$string_output_adapter@_W@__crt_stdio_output@@@__crt_stdio_output@@IEAA_NAEA_J@Z 0000000140017020 f i libucrt:output.obj
 0001:00016038       ??$extract_argument_from_va_list@_W_W@?$positional_parameter_base@DV?$stream_output_adapter@D@__crt_stdio_output@@@__crt_stdio_output@@IEAA_NAEA_W@Z 0000000140017038 f i libucrt:output.obj
 0001:00016140       ??$extract_argument_from_va_list@_W_W@?$positional_parameter_base@DV?$string_output_adapter@D@__crt_stdio_output@@@__crt_stdio_output@@IEAA_NAEA_W@Z 0000000140017140 f i libucrt:output.obj
 0001:00016248       ??$extract_argument_from_va_list@_W_W@?$positional_parameter_base@_WV?$stream_output_adapter@_W@__crt_stdio_output@@@__crt_stdio_output@@IEAA_NAEA_W@Z 0000000140017248 f i libucrt:output.obj
 0001:00016354       ??$extract_argument_from_va_list@_W_W@?$positional_parameter_base@_WV?$string_output_adapter@_W@__crt_stdio_output@@@__crt_stdio_output@@IEAA_NAEA_W@Z 0000000140017354 f i libucrt:output.obj
 0001:00016460       ??$extract_argument_from_va_list@_W_W@?$standard_base@DV?$stream_output_adapter@D@__crt_stdio_output@@@__crt_stdio_output@@IEAA_NAEA_W@Z 0000000140017460 f i libucrt:output.obj
 0001:00016478       ??$extract_argument_from_va_list@_W_W@?$standard_base@DV?$string_output_adapter@D@__crt_stdio_output@@@__crt_stdio_output@@IEAA_NAEA_W@Z 0000000140017478 f i libucrt:output.obj
 0001:00016490       ??$extract_argument_from_va_list@_W_W@?$standard_base@_WV?$stream_output_adapter@_W@__crt_stdio_output@@@__crt_stdio_output@@IEAA_NAEA_W@Z 0000000140017490 f i libucrt:output.obj
 0001:000164a8       ??$extract_argument_from_va_list@_W_W@?$standard_base@_WV?$string_output_adapter@_W@__crt_stdio_output@@@__crt_stdio_output@@IEAA_NAEA_W@Z 00000001400174a8 f i libucrt:output.obj
 0001:000164c0       ??$get_parameter_type@D@?$positional_parameter_base@DV?$stream_output_adapter@D@__crt_stdio_output@@@__crt_stdio_output@@CA?AW4parameter_type@01@PEAD@Z 00000001400174c0 f i libucrt:output.obj
 0001:000164c8       ??$get_parameter_type@D@?$positional_parameter_base@DV?$string_output_adapter@D@__crt_stdio_output@@@__crt_stdio_output@@CA?AW4parameter_type@01@PEAD@Z 00000001400174c8 f i libucrt:output.obj
 0001:000164d0       ??$get_parameter_type@D@?$positional_parameter_base@_WV?$stream_output_adapter@_W@__crt_stdio_output@@@__crt_stdio_output@@CA?AW4parameter_type@01@PEAD@Z 00000001400174d0 f i libucrt:output.obj
 0001:000164d8       ??$get_parameter_type@D@?$positional_parameter_base@_WV?$string_output_adapter@_W@__crt_stdio_output@@@__crt_stdio_output@@CA?AW4parameter_type@01@PEAD@Z 00000001400174d8 f i libucrt:output.obj
 0001:000164e0       ??$get_parameter_type@Uansi_string@?1??type_case_Z@?$output_processor@DV?$stream_output_adapter@D@__crt_stdio_output@@V?$positional_parameter_base@DV?$stream_output_adapter@D@__crt_stdio_output@@@2@@__crt_stdio_output@@AEAA_NXZ@@?$positional_parameter_base@DV?$stream_output_adapter@D@__crt_stdio_output@@@__crt_stdio_output@@CA?AW4parameter_type@01@PEAUansi_string@?1??type_case_Z@?$output_processor@DV?$stream_output_adapter@D@__crt_stdio_output@@V?$positional_parameter_base@DV?$stream_output_adapter@D@__crt_stdio_output@@@2@@1@AEAA_NXZ@@Z 00000001400174e0 f i libucrt:output.obj
 0001:000164e8       ??$get_parameter_type@Uansi_string@?1??type_case_Z@?$output_processor@DV?$string_output_adapter@D@__crt_stdio_output@@V?$positional_parameter_base@DV?$string_output_adapter@D@__crt_stdio_output@@@2@@__crt_stdio_output@@AEAA_NXZ@@?$positional_parameter_base@DV?$string_output_adapter@D@__crt_stdio_output@@@__crt_stdio_output@@CA?AW4parameter_type@01@PEAUansi_string@?1??type_case_Z@?$output_processor@DV?$string_output_adapter@D@__crt_stdio_output@@V?$positional_parameter_base@DV?$string_output_adapter@D@__crt_stdio_output@@@2@@1@AEAA_NXZ@@Z 00000001400174e8 f i libucrt:output.obj
 0001:000164f0       ??$get_parameter_type@Uansi_string@?1??type_case_Z@?$output_processor@_WV?$stream_output_adapter@_W@__crt_stdio_output@@V?$positional_parameter_base@_WV?$stream_output_adapter@_W@__crt_stdio_output@@@2@@__crt_stdio_output@@AEAA_NXZ@@?$positional_parameter_base@_WV?$stream_output_adapter@_W@__crt_stdio_output@@@__crt_stdio_output@@CA?AW4parameter_type@01@PEAUansi_string@?1??type_case_Z@?$output_processor@_WV?$stream_output_adapter@_W@__crt_stdio_output@@V?$positional_parameter_base@_WV?$stream_output_adapter@_W@__crt_stdio_output@@@2@@1@AEAA_NXZ@@Z 00000001400174f0 f i libucrt:output.obj
 0001:000164f8       ??$get_parameter_type@Uansi_string@?1??type_case_Z@?$output_processor@_WV?$string_output_adapter@_W@__crt_stdio_output@@V?$positional_parameter_base@_WV?$string_output_adapter@_W@__crt_stdio_output@@@2@@__crt_stdio_output@@AEAA_NXZ@@?$positional_parameter_base@_WV?$string_output_adapter@_W@__crt_stdio_output@@@__crt_stdio_output@@CA?AW4parameter_type@01@PEAUansi_string@?1??type_case_Z@?$output_processor@_WV?$string_output_adapter@_W@__crt_stdio_output@@V?$positional_parameter_base@_WV?$string_output_adapter@_W@__crt_stdio_output@@@2@@1@AEAA_NXZ@@Z 00000001400174f8 f i libucrt:output.obj
 0001:00016500       ??$get_parameter_type@X@?$positional_parameter_base@DV?$stream_output_adapter@D@__crt_stdio_output@@@__crt_stdio_output@@CA?AW4parameter_type@01@PEAX@Z 0000000140017500 f i libucrt:output.obj
 0001:00016508       ??$get_parameter_type@X@?$positional_parameter_base@DV?$string_output_adapter@D@__crt_stdio_output@@@__crt_stdio_output@@CA?AW4parameter_type@01@PEAX@Z 0000000140017508 f i libucrt:output.obj
 0001:00016510       ??$get_parameter_type@X@?$positional_parameter_base@_WV?$stream_output_adapter@_W@__crt_stdio_output@@@__crt_stdio_output@@CA?AW4parameter_type@01@PEAX@Z 0000000140017510 f i libucrt:output.obj
 0001:00016518       ??$get_parameter_type@X@?$positional_parameter_base@_WV?$string_output_adapter@_W@__crt_stdio_output@@@__crt_stdio_output@@CA?AW4parameter_type@01@PEAX@Z 0000000140017518 f i libucrt:output.obj
 0001:00016520       ??$is_character_specifier@D@?$positional_parameter_base@DV?$stream_output_adapter@D@__crt_stdio_output@@@__crt_stdio_output@@CA_ND@Z 0000000140017520 f i libucrt:output.obj
 0001:0001652c       ??$is_character_specifier@D@?$positional_parameter_base@DV?$string_output_adapter@D@__crt_stdio_output@@@__crt_stdio_output@@CA_ND@Z 000000014001752c f i libucrt:output.obj
 0001:00016538       ??$is_character_specifier@_W@?$positional_parameter_base@_WV?$stream_output_adapter@_W@__crt_stdio_output@@@__crt_stdio_output@@CA_N_W@Z 0000000140017538 f i libucrt:output.obj
 0001:00016548       ??$is_character_specifier@_W@?$positional_parameter_base@_WV?$string_output_adapter@_W@__crt_stdio_output@@@__crt_stdio_output@@CA_N_W@Z 0000000140017548 f i libucrt:output.obj
 0001:00016558       ??$is_integral_specifier@D@?$positional_parameter_base@DV?$stream_output_adapter@D@__crt_stdio_output@@@__crt_stdio_output@@CA_ND@Z 0000000140017558 f i libucrt:output.obj
 0001:0001657c       ??$is_integral_specifier@D@?$positional_parameter_base@DV?$string_output_adapter@D@__crt_stdio_output@@@__crt_stdio_output@@CA_ND@Z 000000014001757c f i libucrt:output.obj
 0001:000165a0       ??$is_integral_specifier@_W@?$positional_parameter_base@_WV?$stream_output_adapter@_W@__crt_stdio_output@@@__crt_stdio_output@@CA_N_W@Z 00000001400175a0 f i libucrt:output.obj
 0001:000165c8       ??$is_integral_specifier@_W@?$positional_parameter_base@_WV?$string_output_adapter@_W@__crt_stdio_output@@@__crt_stdio_output@@CA_N_W@Z 00000001400175c8 f i libucrt:output.obj
 0001:000165f0       ??$is_overflow_condition@K@__crt_strtox@@YA_NIK@Z 00000001400175f0 f i libucrt:output.obj
 0001:00016618       ??$is_pointer_specifier@D@?$positional_parameter_base@DV?$stream_output_adapter@D@__crt_stdio_output@@@__crt_stdio_output@@CA_ND@Z 0000000140017618 f i libucrt:output.obj
 0001:00016620       ??$is_pointer_specifier@D@?$positional_parameter_base@DV?$string_output_adapter@D@__crt_stdio_output@@@__crt_stdio_output@@CA_ND@Z 0000000140017620 f i libucrt:output.obj
 0001:00016628       ??$is_pointer_specifier@_W@?$positional_parameter_base@_WV?$stream_output_adapter@_W@__crt_stdio_output@@@__crt_stdio_output@@CA_N_W@Z 0000000140017628 f i libucrt:output.obj
 0001:00016630       ??$is_pointer_specifier@_W@?$positional_parameter_base@_WV?$string_output_adapter@_W@__crt_stdio_output@@@__crt_stdio_output@@CA_N_W@Z 0000000140017630 f i libucrt:output.obj
 0001:00016638       ??$is_string_specifier@D@?$positional_parameter_base@DV?$stream_output_adapter@D@__crt_stdio_output@@@__crt_stdio_output@@CA_ND@Z 0000000140017638 f i libucrt:output.obj
 0001:00016644       ??$is_string_specifier@D@?$positional_parameter_base@DV?$string_output_adapter@D@__crt_stdio_output@@@__crt_stdio_output@@CA_ND@Z 0000000140017644 f i libucrt:output.obj
 0001:00016650       ??$is_string_specifier@_W@?$positional_parameter_base@_WV?$stream_output_adapter@_W@__crt_stdio_output@@@__crt_stdio_output@@CA_N_W@Z 0000000140017650 f i libucrt:output.obj
 0001:00016660       ??$is_string_specifier@_W@?$positional_parameter_base@_WV?$string_output_adapter@_W@__crt_stdio_output@@@__crt_stdio_output@@CA_N_W@Z 0000000140017660 f i libucrt:output.obj
 0001:00016670       ??$is_wide_character_specifier@D@__crt_stdio_output@@YA_N_KDW4length_modifier@0@@Z 0000000140017670 f i libucrt:output.obj
 0001:00016698       ??$is_wide_character_specifier@_W@__crt_stdio_output@@YA_N_K_WW4length_modifier@0@@Z 0000000140017698 f i libucrt:output.obj
 0001:000166d8       ??$make_c_string_character_source@DPEAPEAD@__crt_strtox@@YA?AV?$c_string_character_source@D@0@QEBDQEAPEAD@Z 00000001400176d8 f i libucrt:output.obj
 0001:000166ec       ??$make_c_string_character_source@_WPEAPEA_W@__crt_strtox@@YA?AV?$c_string_character_source@_W@0@QEB_WQEAPEA_W@Z 00000001400176ec f i libucrt:output.obj
 0001:00016700       ??$parse_integer@KV?$c_string_character_source@D@__crt_strtox@@$0A@@__crt_strtox@@YAKAEAV__crt_cached_ptd_host@@V?$c_string_character_source@D@0@H_N@Z 0000000140017700 f i libucrt:output.obj
 0001:000169b4       ??$parse_integer@KV?$c_string_character_source@_W@__crt_strtox@@$0A@@__crt_strtox@@YAKAEAV__crt_cached_ptd_host@@V?$c_string_character_source@_W@0@H_N@Z 00000001400179b4 f i libucrt:output.obj
 0001:0001712c       ??$peek_va_arg@C@__crt_stdio_output@@YACPEAD@Z 000000014001812c f i libucrt:output.obj
 0001:00017130       ??$peek_va_arg@E@__crt_stdio_output@@YAEPEAD@Z 0000000140018130 f i libucrt:output.obj
 0001:00017134       ??$peek_va_arg@F@__crt_stdio_output@@YAFPEAD@Z 0000000140018134 f i libucrt:output.obj
 0001:00017138       ??$peek_va_arg@G@__crt_stdio_output@@YAGPEAD@Z 0000000140018138 f i libucrt:output.obj
 0001:0001713c       ??$peek_va_arg@H@__crt_stdio_output@@YAHPEAD@Z 000000014001813c f i libucrt:output.obj
 0001:00017140       ??$peek_va_arg@I@__crt_stdio_output@@YAIPEAD@Z 0000000140018140 f i libucrt:output.obj
 0001:00017144       ??$peek_va_arg@PEAD@__crt_stdio_output@@YAPEADPEAD@Z 0000000140018144 f i libucrt:output.obj
 0001:00017148       ??$peek_va_arg@PEAUansi_string@?1??type_case_Z@?$output_processor@DV?$stream_output_adapter@D@__crt_stdio_output@@V?$positional_parameter_base@DV?$stream_output_adapter@D@__crt_stdio_output@@@2@@__crt_stdio_output@@AEAA_NXZ@@__crt_stdio_output@@YAPEAUansi_string@?1??type_case_Z@?$output_processor@DV?$stream_output_adapter@D@__crt_stdio_output@@V?$positional_parameter_base@DV?$stream_output_adapter@D@__crt_stdio_output@@@2@@0@AEAA_NXZ@PEAD@Z 0000000140018148 f i libucrt:output.obj
 0001:0001714c       ??$peek_va_arg@PEAUansi_string@?1??type_case_Z@?$output_processor@DV?$string_output_adapter@D@__crt_stdio_output@@V?$positional_parameter_base@DV?$string_output_adapter@D@__crt_stdio_output@@@2@@__crt_stdio_output@@AEAA_NXZ@@__crt_stdio_output@@YAPEAUansi_string@?1??type_case_Z@?$output_processor@DV?$string_output_adapter@D@__crt_stdio_output@@V?$positional_parameter_base@DV?$string_output_adapter@D@__crt_stdio_output@@@2@@0@AEAA_NXZ@PEAD@Z 000000014001814c f i libucrt:output.obj
 0001:00017150       ??$peek_va_arg@PEAUansi_string@?1??type_case_Z@?$output_processor@_WV?$stream_output_adapter@_W@__crt_stdio_output@@V?$positional_parameter_base@_WV?$stream_output_adapter@_W@__crt_stdio_output@@@2@@__crt_stdio_output@@AEAA_NXZ@@__crt_stdio_output@@YAPEAUansi_string@?1??type_case_Z@?$output_processor@_WV?$stream_output_adapter@_W@__crt_stdio_output@@V?$positional_parameter_base@_WV?$stream_output_adapter@_W@__crt_stdio_output@@@2@@0@AEAA_NXZ@PEAD@Z 0000000140018150 f i libucrt:output.obj
 0001:00017154       ??$peek_va_arg@PEAUansi_string@?1??type_case_Z@?$output_processor@_WV?$string_output_adapter@_W@__crt_stdio_output@@V?$positional_parameter_base@_WV?$string_output_adapter@_W@__crt_stdio_output@@@2@@__crt_stdio_output@@AEAA_NXZ@@__crt_stdio_output@@YAPEAUansi_string@?1??type_case_Z@?$output_processor@_WV?$string_output_adapter@_W@__crt_stdio_output@@V?$positional_parameter_base@_WV?$string_output_adapter@_W@__crt_stdio_output@@@2@@0@AEAA_NXZ@PEAD@Z 0000000140018154 f i libucrt:output.obj
 0001:00017158       ??$peek_va_arg@PEAX@__crt_stdio_output@@YAPEAXPEAD@Z 0000000140018158 f i libucrt:output.obj
 0001:0001715c       ??$peek_va_arg@U_CRT_DOUBLE@@@__crt_stdio_output@@YA?AU_CRT_DOUBLE@@PEAD@Z 000000014001815c f i libucrt:output.obj
 0001:00017160       ??$peek_va_arg@_J@__crt_stdio_output@@YA_JPEAD@Z 0000000140018160 f i libucrt:output.obj
 0001:00017164       ??$peek_va_arg@_K@__crt_stdio_output@@YA_KPEAD@Z 0000000140018164 f i libucrt:output.obj
 0001:00017168       ??$peek_va_arg@_W@__crt_stdio_output@@YA_WPEAD@Z 0000000140018168 f i libucrt:output.obj
 0001:0001716c       ??$puttc_nolock_internal@AEBDPEAU_iobuf@@AEAV__crt_cached_ptd_host@@@?$__crt_char_traits@D@@SAHAEBD$$QEAPEAU_iobuf@@AEAV__crt_cached_ptd_host@@@Z 000000014001816c f i libucrt:output.obj
 0001:00017178       ??$puttc_nolock_internal@AEB_WPEAU_iobuf@@AEAV__crt_cached_ptd_host@@@?$__crt_char_traits@_W@@SAGAEB_W$$QEAPEAU_iobuf@@AEAV__crt_cached_ptd_host@@@Z 0000000140018178 f i libucrt:output.obj
 0001:00017184       ??$read_va_arg@C@__crt_stdio_output@@YACAEAPEAD@Z 0000000140018184 f i libucrt:output.obj
 0001:00017194       ??$read_va_arg@E@__crt_stdio_output@@YAEAEAPEAD@Z 0000000140018194 f i libucrt:output.obj
 0001:000171a4       ??$read_va_arg@F@__crt_stdio_output@@YAFAEAPEAD@Z 00000001400181a4 f i libucrt:output.obj
 0001:000171b4       ??$read_va_arg@G@__crt_stdio_output@@YAGAEAPEAD@Z 00000001400181b4 f i libucrt:output.obj
 0001:000171c4       ??$read_va_arg@H@__crt_stdio_output@@YAHAEAPEAD@Z 00000001400181c4 f i libucrt:output.obj
 0001:000171d4       ??$read_va_arg@I@__crt_stdio_output@@YAIAEAPEAD@Z 00000001400181d4 f i libucrt:output.obj
 0001:000171e4       ??$read_va_arg@PEAD@__crt_stdio_output@@YAPEADAEAPEAD@Z 00000001400181e4 f i libucrt:output.obj
 0001:000171f4       ??$read_va_arg@PEAUansi_string@?1??type_case_Z@?$output_processor@DV?$stream_output_adapter@D@__crt_stdio_output@@V?$format_validation_base@DV?$stream_output_adapter@D@__crt_stdio_output@@@2@@__crt_stdio_output@@AEAA_NXZ@@__crt_stdio_output@@YAPEAUansi_string@?1??type_case_Z@?$output_processor@DV?$stream_output_adapter@D@__crt_stdio_output@@V?$format_validation_base@DV?$stream_output_adapter@D@__crt_stdio_output@@@2@@0@AEAA_NXZ@AEAPEAD@Z 00000001400181f4 f i libucrt:output.obj
 0001:00017204       ??$read_va_arg@PEAUansi_string@?1??type_case_Z@?$output_processor@DV?$stream_output_adapter@D@__crt_stdio_output@@V?$positional_parameter_base@DV?$stream_output_adapter@D@__crt_stdio_output@@@2@@__crt_stdio_output@@AEAA_NXZ@@__crt_stdio_output@@YAPEAUansi_string@?1??type_case_Z@?$output_processor@DV?$stream_output_adapter@D@__crt_stdio_output@@V?$positional_parameter_base@DV?$stream_output_adapter@D@__crt_stdio_output@@@2@@0@AEAA_NXZ@AEAPEAD@Z 0000000140018204 f i libucrt:output.obj
 0001:00017214       ??$read_va_arg@PEAUansi_string@?1??type_case_Z@?$output_processor@DV?$stream_output_adapter@D@__crt_stdio_output@@V?$standard_base@DV?$stream_output_adapter@D@__crt_stdio_output@@@2@@__crt_stdio_output@@AEAA_NXZ@@__crt_stdio_output@@YAPEAUansi_string@?1??type_case_Z@?$output_processor@DV?$stream_output_adapter@D@__crt_stdio_output@@V?$standard_base@DV?$stream_output_adapter@D@__crt_stdio_output@@@2@@0@AEAA_NXZ@AEAPEAD@Z 0000000140018214 f i libucrt:output.obj
 0001:00017224       ??$read_va_arg@PEAUansi_string@?1??type_case_Z@?$output_processor@DV?$string_output_adapter@D@__crt_stdio_output@@V?$format_validation_base@DV?$string_output_adapter@D@__crt_stdio_output@@@2@@__crt_stdio_output@@AEAA_NXZ@@__crt_stdio_output@@YAPEAUansi_string@?1??type_case_Z@?$output_processor@DV?$string_output_adapter@D@__crt_stdio_output@@V?$format_validation_base@DV?$string_output_adapter@D@__crt_stdio_output@@@2@@0@AEAA_NXZ@AEAPEAD@Z 0000000140018224 f i libucrt:output.obj
 0001:00017234       ??$read_va_arg@PEAUansi_string@?1??type_case_Z@?$output_processor@DV?$string_output_adapter@D@__crt_stdio_output@@V?$positional_parameter_base@DV?$string_output_adapter@D@__crt_stdio_output@@@2@@__crt_stdio_output@@AEAA_NXZ@@__crt_stdio_output@@YAPEAUansi_string@?1??type_case_Z@?$output_processor@DV?$string_output_adapter@D@__crt_stdio_output@@V?$positional_parameter_base@DV?$string_output_adapter@D@__crt_stdio_output@@@2@@0@AEAA_NXZ@AEAPEAD@Z 0000000140018234 f i libucrt:output.obj
 0001:00017244       ??$read_va_arg@PEAUansi_string@?1??type_case_Z@?$output_processor@DV?$string_output_adapter@D@__crt_stdio_output@@V?$standard_base@DV?$string_output_adapter@D@__crt_stdio_output@@@2@@__crt_stdio_output@@AEAA_NXZ@@__crt_stdio_output@@YAPEAUansi_string@?1??type_case_Z@?$output_processor@DV?$string_output_adapter@D@__crt_stdio_output@@V?$standard_base@DV?$string_output_adapter@D@__crt_stdio_output@@@2@@0@AEAA_NXZ@AEAPEAD@Z 0000000140018244 f i libucrt:output.obj
 0001:00017254       ??$read_va_arg@PEAUansi_string@?1??type_case_Z@?$output_processor@_WV?$stream_output_adapter@_W@__crt_stdio_output@@V?$format_validation_base@_WV?$stream_output_adapter@_W@__crt_stdio_output@@@2@@__crt_stdio_output@@AEAA_NXZ@@__crt_stdio_output@@YAPEAUansi_string@?1??type_case_Z@?$output_processor@_WV?$stream_output_adapter@_W@__crt_stdio_output@@V?$format_validation_base@_WV?$stream_output_adapter@_W@__crt_stdio_output@@@2@@0@AEAA_NXZ@AEAPEAD@Z 0000000140018254 f i libucrt:output.obj
 0001:00017264       ??$read_va_arg@PEAUansi_string@?1??type_case_Z@?$output_processor@_WV?$stream_output_adapter@_W@__crt_stdio_output@@V?$positional_parameter_base@_WV?$stream_output_adapter@_W@__crt_stdio_output@@@2@@__crt_stdio_output@@AEAA_NXZ@@__crt_stdio_output@@YAPEAUansi_string@?1??type_case_Z@?$output_processor@_WV?$stream_output_adapter@_W@__crt_stdio_output@@V?$positional_parameter_base@_WV?$stream_output_adapter@_W@__crt_stdio_output@@@2@@0@AEAA_NXZ@AEAPEAD@Z 0000000140018264 f i libucrt:output.obj
 0001:00017274       ??$read_va_arg@PEAUansi_string@?1??type_case_Z@?$output_processor@_WV?$stream_output_adapter@_W@__crt_stdio_output@@V?$standard_base@_WV?$stream_output_adapter@_W@__crt_stdio_output@@@2@@__crt_stdio_output@@AEAA_NXZ@@__crt_stdio_output@@YAPEAUansi_string@?1??type_case_Z@?$output_processor@_WV?$stream_output_adapter@_W@__crt_stdio_output@@V?$standard_base@_WV?$stream_output_adapter@_W@__crt_stdio_output@@@2@@0@AEAA_NXZ@AEAPEAD@Z 0000000140018274 f i libucrt:output.obj
 0001:00017284       ??$read_va_arg@PEAUansi_string@?1??type_case_Z@?$output_processor@_WV?$string_output_adapter@_W@__crt_stdio_output@@V?$format_validation_base@_WV?$string_output_adapter@_W@__crt_stdio_output@@@2@@__crt_stdio_output@@AEAA_NXZ@@__crt_stdio_output@@YAPEAUansi_string@?1??type_case_Z@?$output_processor@_WV?$string_output_adapter@_W@__crt_stdio_output@@V?$format_validation_base@_WV?$string_output_adapter@_W@__crt_stdio_output@@@2@@0@AEAA_NXZ@AEAPEAD@Z 0000000140018284 f i libucrt:output.obj
 0001:00017294       ??$read_va_arg@PEAUansi_string@?1??type_case_Z@?$output_processor@_WV?$string_output_adapter@_W@__crt_stdio_output@@V?$positional_parameter_base@_WV?$string_output_adapter@_W@__crt_stdio_output@@@2@@__crt_stdio_output@@AEAA_NXZ@@__crt_stdio_output@@YAPEAUansi_string@?1??type_case_Z@?$output_processor@_WV?$string_output_adapter@_W@__crt_stdio_output@@V?$positional_parameter_base@_WV?$string_output_adapter@_W@__crt_stdio_output@@@2@@0@AEAA_NXZ@AEAPEAD@Z 0000000140018294 f i libucrt:output.obj
 0001:000172a4       ??$read_va_arg@PEAUansi_string@?1??type_case_Z@?$output_processor@_WV?$string_output_adapter@_W@__crt_stdio_output@@V?$standard_base@_WV?$string_output_adapter@_W@__crt_stdio_output@@@2@@__crt_stdio_output@@AEAA_NXZ@@__crt_stdio_output@@YAPEAUansi_string@?1??type_case_Z@?$output_processor@_WV?$string_output_adapter@_W@__crt_stdio_output@@V?$standard_base@_WV?$string_output_adapter@_W@__crt_stdio_output@@@2@@0@AEAA_NXZ@AEAPEAD@Z 00000001400182a4 f i libucrt:output.obj
 0001:000172b4       ??$read_va_arg@PEAX@__crt_stdio_output@@YAPEAXAEAPEAD@Z 00000001400182b4 f i libucrt:output.obj
 0001:000172c4       ??$read_va_arg@U_CRT_DOUBLE@@@__crt_stdio_output@@YA?AU_CRT_DOUBLE@@AEAPEAD@Z 00000001400182c4 f i libucrt:output.obj
 0001:000172d4       ??$read_va_arg@_J@__crt_stdio_output@@YA_JAEAPEAD@Z 00000001400182d4 f i libucrt:output.obj
 0001:000172e4       ??$read_va_arg@_K@__crt_stdio_output@@YA_KAEAPEAD@Z 00000001400182e4 f i libucrt:output.obj
 0001:000172f4       ??$read_va_arg@_W@__crt_stdio_output@@YA_WAEAPEAD@Z 00000001400182f4 f i libucrt:output.obj
 0001:00017304       ??$scratch_count@D@formatting_buffer@__crt_stdio_output@@QEBA_KXZ 0000000140018304 f i libucrt:output.obj
 0001:00017320       ??$scratch_data@D@formatting_buffer@__crt_stdio_output@@QEAAPEADXZ 0000000140018320 f i libucrt:output.obj
 0001:00017344       ??$type_case_integer@$07@?$output_processor@DV?$stream_output_adapter@D@__crt_stdio_output@@V?$format_validation_base@DV?$stream_output_adapter@D@__crt_stdio_output@@@2@@__crt_stdio_output@@AEAA_N_N@Z 0000000140018344 f i libucrt:output.obj
 0001:00017548       ??$type_case_integer@$07@?$output_processor@DV?$stream_output_adapter@D@__crt_stdio_output@@V?$positional_parameter_base@DV?$stream_output_adapter@D@__crt_stdio_output@@@2@@__crt_stdio_output@@AEAA_N_N@Z 0000000140018548 f i libucrt:output.obj
 0001:00017774       ??$type_case_integer@$07@?$output_processor@DV?$stream_output_adapter@D@__crt_stdio_output@@V?$standard_base@DV?$stream_output_adapter@D@__crt_stdio_output@@@2@@__crt_stdio_output@@AEAA_N_N@Z 0000000140018774 f i libucrt:output.obj
 0001:00017978       ??$type_case_integer@$07@?$output_processor@DV?$string_output_adapter@D@__crt_stdio_output@@V?$format_validation_base@DV?$string_output_adapter@D@__crt_stdio_output@@@2@@__crt_stdio_output@@AEAA_N_N@Z 0000000140018978 f i libucrt:output.obj
 0001:00017b7c       ??$type_case_integer@$07@?$output_processor@DV?$string_output_adapter@D@__crt_stdio_output@@V?$positional_parameter_base@DV?$string_output_adapter@D@__crt_stdio_output@@@2@@__crt_stdio_output@@AEAA_N_N@Z 0000000140018b7c f i libucrt:output.obj
 0001:00017da8       ??$type_case_integer@$07@?$output_processor@DV?$string_output_adapter@D@__crt_stdio_output@@V?$standard_base@DV?$string_output_adapter@D@__crt_stdio_output@@@2@@__crt_stdio_output@@AEAA_N_N@Z 0000000140018da8 f i libucrt:output.obj
 0001:00017fac       ??$type_case_integer@$07@?$output_processor@_WV?$stream_output_adapter@_W@__crt_stdio_output@@V?$format_validation_base@_WV?$stream_output_adapter@_W@__crt_stdio_output@@@2@@__crt_stdio_output@@AEAA_N_N@Z 0000000140018fac f i libucrt:output.obj
 0001:000181b8       ??$type_case_integer@$07@?$output_processor@_WV?$stream_output_adapter@_W@__crt_stdio_output@@V?$positional_parameter_base@_WV?$stream_output_adapter@_W@__crt_stdio_output@@@2@@__crt_stdio_output@@AEAA_N_N@Z 00000001400191b8 f i libucrt:output.obj
 0001:000183ec       ??$type_case_integer@$07@?$output_processor@_WV?$stream_output_adapter@_W@__crt_stdio_output@@V?$standard_base@_WV?$stream_output_adapter@_W@__crt_stdio_output@@@2@@__crt_stdio_output@@AEAA_N_N@Z 00000001400193ec f i libucrt:output.obj
 0001:000185f8       ??$type_case_integer@$07@?$output_processor@_WV?$string_output_adapter@_W@__crt_stdio_output@@V?$format_validation_base@_WV?$string_output_adapter@_W@__crt_stdio_output@@@2@@__crt_stdio_output@@AEAA_N_N@Z 00000001400195f8 f i libucrt:output.obj
 0001:00018804       ??$type_case_integer@$07@?$output_processor@_WV?$string_output_adapter@_W@__crt_stdio_output@@V?$positional_parameter_base@_WV?$string_output_adapter@_W@__crt_stdio_output@@@2@@__crt_stdio_output@@AEAA_N_N@Z 0000000140019804 f i libucrt:output.obj
 0001:00018a38       ??$type_case_integer@$07@?$output_processor@_WV?$string_output_adapter@_W@__crt_stdio_output@@V?$standard_base@_WV?$string_output_adapter@_W@__crt_stdio_output@@@2@@__crt_stdio_output@@AEAA_N_N@Z 0000000140019a38 f i libucrt:output.obj
 0001:00018c44       ??$type_case_integer@$09@?$output_processor@DV?$stream_output_adapter@D@__crt_stdio_output@@V?$format_validation_base@DV?$stream_output_adapter@D@__crt_stdio_output@@@2@@__crt_stdio_output@@AEAA_N_N@Z 0000000140019c44 f i libucrt:output.obj
 0001:00018e48       ??$type_case_integer@$09@?$output_processor@DV?$stream_output_adapter@D@__crt_stdio_output@@V?$positional_parameter_base@DV?$stream_output_adapter@D@__crt_stdio_output@@@2@@__crt_stdio_output@@AEAA_N_N@Z 0000000140019e48 f i libucrt:output.obj
 0001:00019074       ??$type_case_integer@$09@?$output_processor@DV?$stream_output_adapter@D@__crt_stdio_output@@V?$standard_base@DV?$stream_output_adapter@D@__crt_stdio_output@@@2@@__crt_stdio_output@@AEAA_N_N@Z 000000014001a074 f i libucrt:output.obj
 0001:00019278       ??$type_case_integer@$09@?$output_processor@DV?$string_output_adapter@D@__crt_stdio_output@@V?$format_validation_base@DV?$string_output_adapter@D@__crt_stdio_output@@@2@@__crt_stdio_output@@AEAA_N_N@Z 000000014001a278 f i libucrt:output.obj
 0001:0001947c       ??$type_case_integer@$09@?$output_processor@DV?$string_output_adapter@D@__crt_stdio_output@@V?$positional_parameter_base@DV?$string_output_adapter@D@__crt_stdio_output@@@2@@__crt_stdio_output@@AEAA_N_N@Z 000000014001a47c f i libucrt:output.obj
 0001:000196a8       ??$type_case_integer@$09@?$output_processor@DV?$string_output_adapter@D@__crt_stdio_output@@V?$standard_base@DV?$string_output_adapter@D@__crt_stdio_output@@@2@@__crt_stdio_output@@AEAA_N_N@Z 000000014001a6a8 f i libucrt:output.obj
 0001:000198ac       ??$type_case_integer@$09@?$output_processor@_WV?$stream_output_adapter@_W@__crt_stdio_output@@V?$format_validation_base@_WV?$stream_output_adapter@_W@__crt_stdio_output@@@2@@__crt_stdio_output@@AEAA_N_N@Z 000000014001a8ac f i libucrt:output.obj
 0001:00019ab8       ??$type_case_integer@$09@?$output_processor@_WV?$stream_output_adapter@_W@__crt_stdio_output@@V?$positional_parameter_base@_WV?$stream_output_adapter@_W@__crt_stdio_output@@@2@@__crt_stdio_output@@AEAA_N_N@Z 000000014001aab8 f i libucrt:output.obj
 0001:00019cec       ??$type_case_integer@$09@?$output_processor@_WV?$stream_output_adapter@_W@__crt_stdio_output@@V?$standard_base@_WV?$stream_output_adapter@_W@__crt_stdio_output@@@2@@__crt_stdio_output@@AEAA_N_N@Z 000000014001acec f i libucrt:output.obj
 0001:00019ef8       ??$type_case_integer@$09@?$output_processor@_WV?$string_output_adapter@_W@__crt_stdio_output@@V?$format_validation_base@_WV?$string_output_adapter@_W@__crt_stdio_output@@@2@@__crt_stdio_output@@AEAA_N_N@Z 000000014001aef8 f i libucrt:output.obj
 0001:0001a104       ??$type_case_integer@$09@?$output_processor@_WV?$string_output_adapter@_W@__crt_stdio_output@@V?$positional_parameter_base@_WV?$string_output_adapter@_W@__crt_stdio_output@@@2@@__crt_stdio_output@@AEAA_N_N@Z 000000014001b104 f i libucrt:output.obj
 0001:0001a338       ??$type_case_integer@$09@?$output_processor@_WV?$string_output_adapter@_W@__crt_stdio_output@@V?$standard_base@_WV?$string_output_adapter@_W@__crt_stdio_output@@@2@@__crt_stdio_output@@AEAA_N_N@Z 000000014001b338 f i libucrt:output.obj
 0001:0001a544       ??$type_case_integer@$0BA@@?$output_processor@DV?$stream_output_adapter@D@__crt_stdio_output@@V?$format_validation_base@DV?$stream_output_adapter@D@__crt_stdio_output@@@2@@__crt_stdio_output@@AEAA_N_N@Z 000000014001b544 f i libucrt:output.obj
 0001:0001a748       ??$type_case_integer@$0BA@@?$output_processor@DV?$stream_output_adapter@D@__crt_stdio_output@@V?$positional_parameter_base@DV?$stream_output_adapter@D@__crt_stdio_output@@@2@@__crt_stdio_output@@AEAA_N_N@Z 000000014001b748 f i libucrt:output.obj
 0001:0001a974       ??$type_case_integer@$0BA@@?$output_processor@DV?$stream_output_adapter@D@__crt_stdio_output@@V?$standard_base@DV?$stream_output_adapter@D@__crt_stdio_output@@@2@@__crt_stdio_output@@AEAA_N_N@Z 000000014001b974 f i libucrt:output.obj
 0001:0001ab78       ??$type_case_integer@$0BA@@?$output_processor@DV?$string_output_adapter@D@__crt_stdio_output@@V?$format_validation_base@DV?$string_output_adapter@D@__crt_stdio_output@@@2@@__crt_stdio_output@@AEAA_N_N@Z 000000014001bb78 f i libucrt:output.obj
 0001:0001ad7c       ??$type_case_integer@$0BA@@?$output_processor@DV?$string_output_adapter@D@__crt_stdio_output@@V?$positional_parameter_base@DV?$string_output_adapter@D@__crt_stdio_output@@@2@@__crt_stdio_output@@AEAA_N_N@Z 000000014001bd7c f i libucrt:output.obj
 0001:0001afa8       ??$type_case_integer@$0BA@@?$output_processor@DV?$string_output_adapter@D@__crt_stdio_output@@V?$standard_base@DV?$string_output_adapter@D@__crt_stdio_output@@@2@@__crt_stdio_output@@AEAA_N_N@Z 000000014001bfa8 f i libucrt:output.obj
 0001:0001b1ac       ??$type_case_integer@$0BA@@?$output_processor@_WV?$stream_output_adapter@_W@__crt_stdio_output@@V?$format_validation_base@_WV?$stream_output_adapter@_W@__crt_stdio_output@@@2@@__crt_stdio_output@@AEAA_N_N@Z 000000014001c1ac f i libucrt:output.obj
 0001:0001b3b8       ??$type_case_integer@$0BA@@?$output_processor@_WV?$stream_output_adapter@_W@__crt_stdio_output@@V?$positional_parameter_base@_WV?$stream_output_adapter@_W@__crt_stdio_output@@@2@@__crt_stdio_output@@AEAA_N_N@Z 000000014001c3b8 f i libucrt:output.obj
 0001:0001b5ec       ??$type_case_integer@$0BA@@?$output_processor@_WV?$stream_output_adapter@_W@__crt_stdio_output@@V?$standard_base@_WV?$stream_output_adapter@_W@__crt_stdio_output@@@2@@__crt_stdio_output@@AEAA_N_N@Z 000000014001c5ec f i libucrt:output.obj
 0001:0001b7f8       ??$type_case_integer@$0BA@@?$output_processor@_WV?$string_output_adapter@_W@__crt_stdio_output@@V?$format_validation_base@_WV?$string_output_adapter@_W@__crt_stdio_output@@@2@@__crt_stdio_output@@AEAA_N_N@Z 000000014001c7f8 f i libucrt:output.obj
 0001:0001ba04       ??$type_case_integer@$0BA@@?$output_processor@_WV?$string_output_adapter@_W@__crt_stdio_output@@V?$positional_parameter_base@_WV?$string_output_adapter@_W@__crt_stdio_output@@@2@@__crt_stdio_output@@AEAA_N_N@Z 000000014001ca04 f i libucrt:output.obj
 0001:0001bc38       ??$type_case_integer@$0BA@@?$output_processor@_WV?$string_output_adapter@_W@__crt_stdio_output@@V?$standard_base@_WV?$string_output_adapter@_W@__crt_stdio_output@@@2@@__crt_stdio_output@@AEAA_N_N@Z 000000014001cc38 f i libucrt:output.obj
 0001:0001be44       ??$type_case_integer_parse_into_buffer@I$07@?$output_processor@DV?$stream_output_adapter@D@__crt_stdio_output@@V?$format_validation_base@DV?$stream_output_adapter@D@__crt_stdio_output@@@2@@__crt_stdio_output@@AEAAXI_N@Z 000000014001ce44 f i libucrt:output.obj
 0001:0001beb4       ??$type_case_integer_parse_into_buffer@I$07@?$output_processor@DV?$stream_output_adapter@D@__crt_stdio_output@@V?$positional_parameter_base@DV?$stream_output_adapter@D@__crt_stdio_output@@@2@@__crt_stdio_output@@AEAAXI_N@Z 000000014001ceb4 f i libucrt:output.obj
 0001:0001bf24       ??$type_case_integer_parse_into_buffer@I$07@?$output_processor@DV?$stream_output_adapter@D@__crt_stdio_output@@V?$standard_base@DV?$stream_output_adapter@D@__crt_stdio_output@@@2@@__crt_stdio_output@@AEAAXI_N@Z 000000014001cf24 f i libucrt:output.obj
 0001:0001bf94       ??$type_case_integer_parse_into_buffer@I$07@?$output_processor@DV?$string_output_adapter@D@__crt_stdio_output@@V?$format_validation_base@DV?$string_output_adapter@D@__crt_stdio_output@@@2@@__crt_stdio_output@@AEAAXI_N@Z 000000014001cf94 f i libucrt:output.obj
 0001:0001c004       ??$type_case_integer_parse_into_buffer@I$07@?$output_processor@DV?$string_output_adapter@D@__crt_stdio_output@@V?$positional_parameter_base@DV?$string_output_adapter@D@__crt_stdio_output@@@2@@__crt_stdio_output@@AEAAXI_N@Z 000000014001d004 f i libucrt:output.obj
 0001:0001c074       ??$type_case_integer_parse_into_buffer@I$07@?$output_processor@DV?$string_output_adapter@D@__crt_stdio_output@@V?$standard_base@DV?$string_output_adapter@D@__crt_stdio_output@@@2@@__crt_stdio_output@@AEAAXI_N@Z 000000014001d074 f i libucrt:output.obj
 0001:0001c0e4       ??$type_case_integer_parse_into_buffer@I$07@?$output_processor@_WV?$stream_output_adapter@_W@__crt_stdio_output@@V?$format_validation_base@_WV?$stream_output_adapter@_W@__crt_stdio_output@@@2@@__crt_stdio_output@@AEAAXI_N@Z 000000014001d0e4 f i libucrt:output.obj
 0001:0001c168       ??$type_case_integer_parse_into_buffer@I$07@?$output_processor@_WV?$stream_output_adapter@_W@__crt_stdio_output@@V?$positional_parameter_base@_WV?$stream_output_adapter@_W@__crt_stdio_output@@@2@@__crt_stdio_output@@AEAAXI_N@Z 000000014001d168 f i libucrt:output.obj
 0001:0001c1ec       ??$type_case_integer_parse_into_buffer@I$07@?$output_processor@_WV?$stream_output_adapter@_W@__crt_stdio_output@@V?$standard_base@_WV?$stream_output_adapter@_W@__crt_stdio_output@@@2@@__crt_stdio_output@@AEAAXI_N@Z 000000014001d1ec f i libucrt:output.obj
 0001:0001c270       ??$type_case_integer_parse_into_buffer@I$07@?$output_processor@_WV?$string_output_adapter@_W@__crt_stdio_output@@V?$format_validation_base@_WV?$string_output_adapter@_W@__crt_stdio_output@@@2@@__crt_stdio_output@@AEAAXI_N@Z 000000014001d270 f i libucrt:output.obj
 0001:0001c2f4       ??$type_case_integer_parse_into_buffer@I$07@?$output_processor@_WV?$string_output_adapter@_W@__crt_stdio_output@@V?$positional_parameter_base@_WV?$string_output_adapter@_W@__crt_stdio_output@@@2@@__crt_stdio_output@@AEAAXI_N@Z 000000014001d2f4 f i libucrt:output.obj
 0001:0001c378       ??$type_case_integer_parse_into_buffer@I$07@?$output_processor@_WV?$string_output_adapter@_W@__crt_stdio_output@@V?$standard_base@_WV?$string_output_adapter@_W@__crt_stdio_output@@@2@@__crt_stdio_output@@AEAAXI_N@Z 000000014001d378 f i libucrt:output.obj
 0001:0001c3fc       ??$type_case_integer_parse_into_buffer@I$09@?$output_processor@DV?$stream_output_adapter@D@__crt_stdio_output@@V?$format_validation_base@DV?$stream_output_adapter@D@__crt_stdio_output@@@2@@__crt_stdio_output@@AEAAXI_N@Z 000000014001d3fc f i libucrt:output.obj
 0001:0001c4a8       ??$type_case_integer_parse_into_buffer@I$09@?$output_processor@DV?$stream_output_adapter@D@__crt_stdio_output@@V?$positional_parameter_base@DV?$stream_output_adapter@D@__crt_stdio_output@@@2@@__crt_stdio_output@@AEAAXI_N@Z 000000014001d4a8 f i libucrt:output.obj
 0001:0001c554       ??$type_case_integer_parse_into_buffer@I$09@?$output_processor@DV?$stream_output_adapter@D@__crt_stdio_output@@V?$standard_base@DV?$stream_output_adapter@D@__crt_stdio_output@@@2@@__crt_stdio_output@@AEAAXI_N@Z 000000014001d554 f i libucrt:output.obj
 0001:0001c600       ??$type_case_integer_parse_into_buffer@I$09@?$output_processor@DV?$string_output_adapter@D@__crt_stdio_output@@V?$format_validation_base@DV?$string_output_adapter@D@__crt_stdio_output@@@2@@__crt_stdio_output@@AEAAXI_N@Z 000000014001d600 f i libucrt:output.obj
 0001:0001c6ac       ??$type_case_integer_parse_into_buffer@I$09@?$output_processor@DV?$string_output_adapter@D@__crt_stdio_output@@V?$positional_parameter_base@DV?$string_output_adapter@D@__crt_stdio_output@@@2@@__crt_stdio_output@@AEAAXI_N@Z 000000014001d6ac f i libucrt:output.obj
 0001:0001c758       ??$type_case_integer_parse_into_buffer@I$09@?$output_processor@DV?$string_output_adapter@D@__crt_stdio_output@@V?$standard_base@DV?$string_output_adapter@D@__crt_stdio_output@@@2@@__crt_stdio_output@@AEAAXI_N@Z 000000014001d758 f i libucrt:output.obj
 0001:0001c804       ??$type_case_integer_parse_into_buffer@I$09@?$output_processor@_WV?$stream_output_adapter@_W@__crt_stdio_output@@V?$format_validation_base@_WV?$stream_output_adapter@_W@__crt_stdio_output@@@2@@__crt_stdio_output@@AEAAXI_N@Z 000000014001d804 f i libucrt:output.obj
 0001:0001c8c4       ??$type_case_integer_parse_into_buffer@I$09@?$output_processor@_WV?$stream_output_adapter@_W@__crt_stdio_output@@V?$positional_parameter_base@_WV?$stream_output_adapter@_W@__crt_stdio_output@@@2@@__crt_stdio_output@@AEAAXI_N@Z 000000014001d8c4 f i libucrt:output.obj
 0001:0001c984       ??$type_case_integer_parse_into_buffer@I$09@?$output_processor@_WV?$stream_output_adapter@_W@__crt_stdio_output@@V?$standard_base@_WV?$stream_output_adapter@_W@__crt_stdio_output@@@2@@__crt_stdio_output@@AEAAXI_N@Z 000000014001d984 f i libucrt:output.obj
 0001:0001ca44       ??$type_case_integer_parse_into_buffer@I$09@?$output_processor@_WV?$string_output_adapter@_W@__crt_stdio_output@@V?$format_validation_base@_WV?$string_output_adapter@_W@__crt_stdio_output@@@2@@__crt_stdio_output@@AEAAXI_N@Z 000000014001da44 f i libucrt:output.obj
 0001:0001cb04       ??$type_case_integer_parse_into_buffer@I$09@?$output_processor@_WV?$string_output_adapter@_W@__crt_stdio_output@@V?$positional_parameter_base@_WV?$string_output_adapter@_W@__crt_stdio_output@@@2@@__crt_stdio_output@@AEAAXI_N@Z 000000014001db04 f i libucrt:output.obj
 0001:0001cbc4       ??$type_case_integer_parse_into_buffer@I$09@?$output_processor@_WV?$string_output_adapter@_W@__crt_stdio_output@@V?$standard_base@_WV?$string_output_adapter@_W@__crt_stdio_output@@@2@@__crt_stdio_output@@AEAAXI_N@Z 000000014001dbc4 f i libucrt:output.obj
 0001:0001cc84       ??$type_case_integer_parse_into_buffer@I$0BA@@?$output_processor@DV?$stream_output_adapter@D@__crt_stdio_output@@V?$format_validation_base@DV?$stream_output_adapter@D@__crt_stdio_output@@@2@@__crt_stdio_output@@AEAAXI_N@Z 000000014001dc84 f i libucrt:output.obj
 0001:0001cd08       ??$type_case_integer_parse_into_buffer@I$0BA@@?$output_processor@DV?$stream_output_adapter@D@__crt_stdio_output@@V?$positional_parameter_base@DV?$stream_output_adapter@D@__crt_stdio_output@@@2@@__crt_stdio_output@@AEAAXI_N@Z 000000014001dd08 f i libucrt:output.obj
 0001:0001cd8c       ??$type_case_integer_parse_into_buffer@I$0BA@@?$output_processor@DV?$stream_output_adapter@D@__crt_stdio_output@@V?$standard_base@DV?$stream_output_adapter@D@__crt_stdio_output@@@2@@__crt_stdio_output@@AEAAXI_N@Z 000000014001dd8c f i libucrt:output.obj
 0001:0001ce10       ??$type_case_integer_parse_into_buffer@I$0BA@@?$output_processor@DV?$string_output_adapter@D@__crt_stdio_output@@V?$format_validation_base@DV?$string_output_adapter@D@__crt_stdio_output@@@2@@__crt_stdio_output@@AEAAXI_N@Z 000000014001de10 f i libucrt:output.obj
 0001:0001ce94       ??$type_case_integer_parse_into_buffer@I$0BA@@?$output_processor@DV?$string_output_adapter@D@__crt_stdio_output@@V?$positional_parameter_base@DV?$string_output_adapter@D@__crt_stdio_output@@@2@@__crt_stdio_output@@AEAAXI_N@Z 000000014001de94 f i libucrt:output.obj
 0001:0001cf18       ??$type_case_integer_parse_into_buffer@I$0BA@@?$output_processor@DV?$string_output_adapter@D@__crt_stdio_output@@V?$standard_base@DV?$string_output_adapter@D@__crt_stdio_output@@@2@@__crt_stdio_output@@AEAAXI_N@Z 000000014001df18 f i libucrt:output.obj
 0001:0001cf9c       ??$type_case_integer_parse_into_buffer@I$0BA@@?$output_processor@_WV?$stream_output_adapter@_W@__crt_stdio_output@@V?$format_validation_base@_WV?$stream_output_adapter@_W@__crt_stdio_output@@@2@@__crt_stdio_output@@AEAAXI_N@Z 000000014001df9c f i libucrt:output.obj
 0001:0001d03c       ??$type_case_integer_parse_into_buffer@I$0BA@@?$output_processor@_WV?$stream_output_adapter@_W@__crt_stdio_output@@V?$positional_parameter_base@_WV?$stream_output_adapter@_W@__crt_stdio_output@@@2@@__crt_stdio_output@@AEAAXI_N@Z 000000014001e03c f i libucrt:output.obj
 0001:0001d0dc       ??$type_case_integer_parse_into_buffer@I$0BA@@?$output_processor@_WV?$stream_output_adapter@_W@__crt_stdio_output@@V?$standard_base@_WV?$stream_output_adapter@_W@__crt_stdio_output@@@2@@__crt_stdio_output@@AEAAXI_N@Z 000000014001e0dc f i libucrt:output.obj
 0001:0001d17c       ??$type_case_integer_parse_into_buffer@I$0BA@@?$output_processor@_WV?$string_output_adapter@_W@__crt_stdio_output@@V?$format_validation_base@_WV?$string_output_adapter@_W@__crt_stdio_output@@@2@@__crt_stdio_output@@AEAAXI_N@Z 000000014001e17c f i libucrt:output.obj
 0001:0001d21c       ??$type_case_integer_parse_into_buffer@I$0BA@@?$output_processor@_WV?$string_output_adapter@_W@__crt_stdio_output@@V?$positional_parameter_base@_WV?$string_output_adapter@_W@__crt_stdio_output@@@2@@__crt_stdio_output@@AEAAXI_N@Z 000000014001e21c f i libucrt:output.obj
 0001:0001d2bc       ??$type_case_integer_parse_into_buffer@I$0BA@@?$output_processor@_WV?$string_output_adapter@_W@__crt_stdio_output@@V?$standard_base@_WV?$string_output_adapter@_W@__crt_stdio_output@@@2@@__crt_stdio_output@@AEAAXI_N@Z 000000014001e2bc f i libucrt:output.obj
 0001:0001d35c       ??$type_case_integer_parse_into_buffer@_K$07@?$output_processor@DV?$stream_output_adapter@D@__crt_stdio_output@@V?$format_validation_base@DV?$stream_output_adapter@D@__crt_stdio_output@@@2@@__crt_stdio_output@@AEAAX_K_N@Z 000000014001e35c f i libucrt:output.obj
 0001:0001d3cc       ??$type_case_integer_parse_into_buffer@_K$07@?$output_processor@DV?$stream_output_adapter@D@__crt_stdio_output@@V?$positional_parameter_base@DV?$stream_output_adapter@D@__crt_stdio_output@@@2@@__crt_stdio_output@@AEAAX_K_N@Z 000000014001e3cc f i libucrt:output.obj
 0001:0001d43c       ??$type_case_integer_parse_into_buffer@_K$07@?$output_processor@DV?$stream_output_adapter@D@__crt_stdio_output@@V?$standard_base@DV?$stream_output_adapter@D@__crt_stdio_output@@@2@@__crt_stdio_output@@AEAAX_K_N@Z 000000014001e43c f i libucrt:output.obj
 0001:0001d4ac       ??$type_case_integer_parse_into_buffer@_K$07@?$output_processor@DV?$string_output_adapter@D@__crt_stdio_output@@V?$format_validation_base@DV?$string_output_adapter@D@__crt_stdio_output@@@2@@__crt_stdio_output@@AEAAX_K_N@Z 000000014001e4ac f i libucrt:output.obj
 0001:0001d51c       ??$type_case_integer_parse_into_buffer@_K$07@?$output_processor@DV?$string_output_adapter@D@__crt_stdio_output@@V?$positional_parameter_base@DV?$string_output_adapter@D@__crt_stdio_output@@@2@@__crt_stdio_output@@AEAAX_K_N@Z 000000014001e51c f i libucrt:output.obj
 0001:0001d58c       ??$type_case_integer_parse_into_buffer@_K$07@?$output_processor@DV?$string_output_adapter@D@__crt_stdio_output@@V?$standard_base@DV?$string_output_adapter@D@__crt_stdio_output@@@2@@__crt_stdio_output@@AEAAX_K_N@Z 000000014001e58c f i libucrt:output.obj
 0001:0001d5fc       ??$type_case_integer_parse_into_buffer@_K$07@?$output_processor@_WV?$stream_output_adapter@_W@__crt_stdio_output@@V?$format_validation_base@_WV?$stream_output_adapter@_W@__crt_stdio_output@@@2@@__crt_stdio_output@@AEAAX_K_N@Z 000000014001e5fc f i libucrt:output.obj
 0001:0001d684       ??$type_case_integer_parse_into_buffer@_K$07@?$output_processor@_WV?$stream_output_adapter@_W@__crt_stdio_output@@V?$positional_parameter_base@_WV?$stream_output_adapter@_W@__crt_stdio_output@@@2@@__crt_stdio_output@@AEAAX_K_N@Z 000000014001e684 f i libucrt:output.obj
 0001:0001d70c       ??$type_case_integer_parse_into_buffer@_K$07@?$output_processor@_WV?$stream_output_adapter@_W@__crt_stdio_output@@V?$standard_base@_WV?$stream_output_adapter@_W@__crt_stdio_output@@@2@@__crt_stdio_output@@AEAAX_K_N@Z 000000014001e70c f i libucrt:output.obj
 0001:0001d794       ??$type_case_integer_parse_into_buffer@_K$07@?$output_processor@_WV?$string_output_adapter@_W@__crt_stdio_output@@V?$format_validation_base@_WV?$string_output_adapter@_W@__crt_stdio_output@@@2@@__crt_stdio_output@@AEAAX_K_N@Z 000000014001e794 f i libucrt:output.obj
 0001:0001d81c       ??$type_case_integer_parse_into_buffer@_K$07@?$output_processor@_WV?$string_output_adapter@_W@__crt_stdio_output@@V?$positional_parameter_base@_WV?$string_output_adapter@_W@__crt_stdio_output@@@2@@__crt_stdio_output@@AEAAX_K_N@Z 000000014001e81c f i libucrt:output.obj
 0001:0001d8a4       ??$type_case_integer_parse_into_buffer@_K$07@?$output_processor@_WV?$string_output_adapter@_W@__crt_stdio_output@@V?$standard_base@_WV?$string_output_adapter@_W@__crt_stdio_output@@@2@@__crt_stdio_output@@AEAAX_K_N@Z 000000014001e8a4 f i libucrt:output.obj
 0001:0001d92c       ??$type_case_integer_parse_into_buffer@_K$09@?$output_processor@DV?$stream_output_adapter@D@__crt_stdio_output@@V?$format_validation_base@DV?$stream_output_adapter@D@__crt_stdio_output@@@2@@__crt_stdio_output@@AEAAX_K_N@Z 000000014001e92c f i libucrt:output.obj
 0001:0001d9dc       ??$type_case_integer_parse_into_buffer@_K$09@?$output_processor@DV?$stream_output_adapter@D@__crt_stdio_output@@V?$positional_parameter_base@DV?$stream_output_adapter@D@__crt_stdio_output@@@2@@__crt_stdio_output@@AEAAX_K_N@Z 000000014001e9dc f i libucrt:output.obj
 0001:0001da8c       ??$type_case_integer_parse_into_buffer@_K$09@?$output_processor@DV?$stream_output_adapter@D@__crt_stdio_output@@V?$standard_base@DV?$stream_output_adapter@D@__crt_stdio_output@@@2@@__crt_stdio_output@@AEAAX_K_N@Z 000000014001ea8c f i libucrt:output.obj
 0001:0001db3c       ??$type_case_integer_parse_into_buffer@_K$09@?$output_processor@DV?$string_output_adapter@D@__crt_stdio_output@@V?$format_validation_base@DV?$string_output_adapter@D@__crt_stdio_output@@@2@@__crt_stdio_output@@AEAAX_K_N@Z 000000014001eb3c f i libucrt:output.obj
 0001:0001dbec       ??$type_case_integer_parse_into_buffer@_K$09@?$output_processor@DV?$string_output_adapter@D@__crt_stdio_output@@V?$positional_parameter_base@DV?$string_output_adapter@D@__crt_stdio_output@@@2@@__crt_stdio_output@@AEAAX_K_N@Z 000000014001ebec f i libucrt:output.obj
 0001:0001dc9c       ??$type_case_integer_parse_into_buffer@_K$09@?$output_processor@DV?$string_output_adapter@D@__crt_stdio_output@@V?$standard_base@DV?$string_output_adapter@D@__crt_stdio_output@@@2@@__crt_stdio_output@@AEAAX_K_N@Z 000000014001ec9c f i libucrt:output.obj
 0001:0001dd4c       ??$type_case_integer_parse_into_buffer@_K$09@?$output_processor@_WV?$stream_output_adapter@_W@__crt_stdio_output@@V?$format_validation_base@_WV?$stream_output_adapter@_W@__crt_stdio_output@@@2@@__crt_stdio_output@@AEAAX_K_N@Z 000000014001ed4c f i libucrt:output.obj
 0001:0001de10       ??$type_case_integer_parse_into_buffer@_K$09@?$output_processor@_WV?$stream_output_adapter@_W@__crt_stdio_output@@V?$positional_parameter_base@_WV?$stream_output_adapter@_W@__crt_stdio_output@@@2@@__crt_stdio_output@@AEAAX_K_N@Z 000000014001ee10 f i libucrt:output.obj
 0001:0001ded4       ??$type_case_integer_parse_into_buffer@_K$09@?$output_processor@_WV?$stream_output_adapter@_W@__crt_stdio_output@@V?$standard_base@_WV?$stream_output_adapter@_W@__crt_stdio_output@@@2@@__crt_stdio_output@@AEAAX_K_N@Z 000000014001eed4 f i libucrt:output.obj
 0001:0001df98       ??$type_case_integer_parse_into_buffer@_K$09@?$output_processor@_WV?$string_output_adapter@_W@__crt_stdio_output@@V?$format_validation_base@_WV?$string_output_adapter@_W@__crt_stdio_output@@@2@@__crt_stdio_output@@AEAAX_K_N@Z 000000014001ef98 f i libucrt:output.obj
 0001:0001e05c       ??$type_case_integer_parse_into_buffer@_K$09@?$output_processor@_WV?$string_output_adapter@_W@__crt_stdio_output@@V?$positional_parameter_base@_WV?$string_output_adapter@_W@__crt_stdio_output@@@2@@__crt_stdio_output@@AEAAX_K_N@Z 000000014001f05c f i libucrt:output.obj
 0001:0001e120       ??$type_case_integer_parse_into_buffer@_K$09@?$output_processor@_WV?$string_output_adapter@_W@__crt_stdio_output@@V?$standard_base@_WV?$string_output_adapter@_W@__crt_stdio_output@@@2@@__crt_stdio_output@@AEAAX_K_N@Z 000000014001f120 f i libucrt:output.obj
 0001:0001e1e4       ??$type_case_integer_parse_into_buffer@_K$0BA@@?$output_processor@DV?$stream_output_adapter@D@__crt_stdio_output@@V?$format_validation_base@DV?$stream_output_adapter@D@__crt_stdio_output@@@2@@__crt_stdio_output@@AEAAX_K_N@Z 000000014001f1e4 f i libucrt:output.obj
 0001:0001e268       ??$type_case_integer_parse_into_buffer@_K$0BA@@?$output_processor@DV?$stream_output_adapter@D@__crt_stdio_output@@V?$positional_parameter_base@DV?$stream_output_adapter@D@__crt_stdio_output@@@2@@__crt_stdio_output@@AEAAX_K_N@Z 000000014001f268 f i libucrt:output.obj
 0001:0001e2ec       ??$type_case_integer_parse_into_buffer@_K$0BA@@?$output_processor@DV?$stream_output_adapter@D@__crt_stdio_output@@V?$standard_base@DV?$stream_output_adapter@D@__crt_stdio_output@@@2@@__crt_stdio_output@@AEAAX_K_N@Z 000000014001f2ec f i libucrt:output.obj
 0001:0001e370       ??$type_case_integer_parse_into_buffer@_K$0BA@@?$output_processor@DV?$string_output_adapter@D@__crt_stdio_output@@V?$format_validation_base@DV?$string_output_adapter@D@__crt_stdio_output@@@2@@__crt_stdio_output@@AEAAX_K_N@Z 000000014001f370 f i libucrt:output.obj
 0001:0001e3f4       ??$type_case_integer_parse_into_buffer@_K$0BA@@?$output_processor@DV?$string_output_adapter@D@__crt_stdio_output@@V?$positional_parameter_base@DV?$string_output_adapter@D@__crt_stdio_output@@@2@@__crt_stdio_output@@AEAAX_K_N@Z 000000014001f3f4 f i libucrt:output.obj
 0001:0001e478       ??$type_case_integer_parse_into_buffer@_K$0BA@@?$output_processor@DV?$string_output_adapter@D@__crt_stdio_output@@V?$standard_base@DV?$string_output_adapter@D@__crt_stdio_output@@@2@@__crt_stdio_output@@AEAAX_K_N@Z 000000014001f478 f i libucrt:output.obj
 0001:0001e4fc       ??$type_case_integer_parse_into_buffer@_K$0BA@@?$output_processor@_WV?$stream_output_adapter@_W@__crt_stdio_output@@V?$format_validation_base@_WV?$stream_output_adapter@_W@__crt_stdio_output@@@2@@__crt_stdio_output@@AEAAX_K_N@Z 000000014001f4fc f i libucrt:output.obj
 0001:0001e59c       ??$type_case_integer_parse_into_buffer@_K$0BA@@?$output_processor@_WV?$stream_output_adapter@_W@__crt_stdio_output@@V?$positional_parameter_base@_WV?$stream_output_adapter@_W@__crt_stdio_output@@@2@@__crt_stdio_output@@AEAAX_K_N@Z 000000014001f59c f i libucrt:output.obj
 0001:0001e63c       ??$type_case_integer_parse_into_buffer@_K$0BA@@?$output_processor@_WV?$stream_output_adapter@_W@__crt_stdio_output@@V?$standard_base@_WV?$stream_output_adapter@_W@__crt_stdio_output@@@2@@__crt_stdio_output@@AEAAX_K_N@Z 000000014001f63c f i libucrt:output.obj
 0001:0001e6dc       ??$type_case_integer_parse_into_buffer@_K$0BA@@?$output_processor@_WV?$string_output_adapter@_W@__crt_stdio_output@@V?$format_validation_base@_WV?$string_output_adapter@_W@__crt_stdio_output@@@2@@__crt_stdio_output@@AEAAX_K_N@Z 000000014001f6dc f i libucrt:output.obj
 0001:0001e77c       ??$type_case_integer_parse_into_buffer@_K$0BA@@?$output_processor@_WV?$string_output_adapter@_W@__crt_stdio_output@@V?$positional_parameter_base@_WV?$string_output_adapter@_W@__crt_stdio_output@@@2@@__crt_stdio_output@@AEAAX_K_N@Z 000000014001f77c f i libucrt:output.obj
 0001:0001e81c       ??$type_case_integer_parse_into_buffer@_K$0BA@@?$output_processor@_WV?$string_output_adapter@_W@__crt_stdio_output@@V?$standard_base@_WV?$string_output_adapter@_W@__crt_stdio_output@@@2@@__crt_stdio_output@@AEAAX_K_N@Z 000000014001f81c f i libucrt:output.obj
 0001:0001e8bc       ??$write_multiple_characters@V?$stream_output_adapter@D@__crt_stdio_output@@D@__crt_stdio_output@@YAXAEBV?$stream_output_adapter@D@0@DHQEAHAEAV__crt_cached_ptd_host@@@Z 000000014001f8bc f i libucrt:output.obj
 0001:0001e950       ??$write_multiple_characters@V?$stream_output_adapter@_W@__crt_stdio_output@@D@__crt_stdio_output@@YAXAEBV?$stream_output_adapter@_W@0@DHQEAHAEAV__crt_cached_ptd_host@@@Z 000000014001f950 f i libucrt:output.obj
 0001:0001e9e8       ??$write_multiple_characters@V?$string_output_adapter@D@__crt_stdio_output@@D@__crt_stdio_output@@YAXAEBV?$string_output_adapter@D@0@DHQEAHAEAV__crt_cached_ptd_host@@@Z 000000014001f9e8 f i libucrt:output.obj
 0001:0001ea60       ??$write_multiple_characters@V?$string_output_adapter@_W@__crt_stdio_output@@D@__crt_stdio_output@@YAXAEBV?$string_output_adapter@_W@0@DHQEAHAEAV__crt_cached_ptd_host@@@Z 000000014001fa60 f i libucrt:output.obj
 0001:0001ec40       ??0?$c_string_character_source@D@__crt_strtox@@QEAA@QEBDQEAPEBD@Z 000000014001fc40 f i libucrt:output.obj
 0001:0001ec54       ??0?$c_string_character_source@_W@__crt_strtox@@QEAA@QEB_WQEAPEB_W@Z 000000014001fc54 f i libucrt:output.obj
 0001:0001ec68       ??0?$cached@H@__crt_cached_ptd_host@@QEAA@XZ 000000014001fc68 f i libucrt:output.obj
 0001:0001ec70       ??0?$cached@K@__crt_cached_ptd_host@@QEAA@XZ 000000014001fc70 f i libucrt:output.obj
 0001:0001ec78       ??0?$common_data@D@__crt_stdio_output@@IEAA@AEAV__crt_cached_ptd_host@@@Z 000000014001fc78 f i libucrt:output.obj
 0001:0001ecb4       ??0?$common_data@_W@__crt_stdio_output@@IEAA@AEAV__crt_cached_ptd_host@@@Z 000000014001fcb4 f i libucrt:output.obj
 0001:0001ecf4       ??0?$output_adapter_data@DV?$stream_output_adapter@D@__crt_stdio_output@@@__crt_stdio_output@@IEAA@AEBV?$stream_output_adapter@D@1@_KQEBDAEAV__crt_cached_ptd_host@@QEAD@Z 000000014001fcf4 f i libucrt:output.obj
 0001:0001ed54       ??0?$output_adapter_data@DV?$string_output_adapter@D@__crt_stdio_output@@@__crt_stdio_output@@IEAA@AEBV?$string_output_adapter@D@1@_KQEBDAEAV__crt_cached_ptd_host@@QEAD@Z 000000014001fd54 f i libucrt:output.obj
 0001:0001edb4       ??0?$output_adapter_data@_WV?$stream_output_adapter@_W@__crt_stdio_output@@@__crt_stdio_output@@IEAA@AEBV?$stream_output_adapter@_W@1@_KQEB_WAEAV__crt_cached_ptd_host@@QEAD@Z 000000014001fdb4 f i libucrt:output.obj
 0001:0001ee18       ??0?$output_adapter_data@_WV?$string_output_adapter@_W@__crt_stdio_output@@@__crt_stdio_output@@IEAA@AEBV?$string_output_adapter@_W@1@_KQEB_WAEAV__crt_cached_ptd_host@@QEAD@Z 000000014001fe18 f i libucrt:output.obj
 0001:0001ee7c       ??0?$output_processor@DV?$stream_output_adapter@D@__crt_stdio_output@@V?$format_validation_base@DV?$stream_output_adapter@D@__crt_stdio_output@@@2@@__crt_stdio_output@@QEAA@AEBV?$stream_output_adapter@D@1@_KQEBDAEAV__crt_cached_ptd_host@@QEAD@Z 000000014001fe7c f i libucrt:output.obj
 0001:0001eee4       ??0?$output_processor@DV?$stream_output_adapter@D@__crt_stdio_output@@V?$positional_parameter_base@DV?$stream_output_adapter@D@__crt_stdio_output@@@2@@__crt_stdio_output@@QEAA@AEBV?$stream_output_adapter@D@1@_KQEBDAEAV__crt_cached_ptd_host@@QEAD@Z 000000014001fee4 f i libucrt:output.obj
 0001:0001ef68       ??0?$output_processor@DV?$stream_output_adapter@D@__crt_stdio_output@@V?$standard_base@DV?$stream_output_adapter@D@__crt_stdio_output@@@2@@__crt_stdio_output@@QEAA@AEBV?$stream_output_adapter@D@1@_KQEBDAEAV__crt_cached_ptd_host@@QEAD@Z 000000014001ff68 f i libucrt:output.obj
 0001:0001efd0       ??0?$output_processor@DV?$string_output_adapter@D@__crt_stdio_output@@V?$format_validation_base@DV?$string_output_adapter@D@__crt_stdio_output@@@2@@__crt_stdio_output@@QEAA@AEBV?$string_output_adapter@D@1@_KQEBDAEAV__crt_cached_ptd_host@@QEAD@Z 000000014001ffd0 f i libucrt:output.obj
 0001:0001f038       ??0?$output_processor@DV?$string_output_adapter@D@__crt_stdio_output@@V?$positional_parameter_base@DV?$string_output_adapter@D@__crt_stdio_output@@@2@@__crt_stdio_output@@QEAA@AEBV?$string_output_adapter@D@1@_KQEBDAEAV__crt_cached_ptd_host@@QEAD@Z 0000000140020038 f i libucrt:output.obj
 0001:0001f0bc       ??0?$output_processor@DV?$string_output_adapter@D@__crt_stdio_output@@V?$standard_base@DV?$string_output_adapter@D@__crt_stdio_output@@@2@@__crt_stdio_output@@QEAA@AEBV?$string_output_adapter@D@1@_KQEBDAEAV__crt_cached_ptd_host@@QEAD@Z 00000001400200bc f i libucrt:output.obj
 0001:0001f124       ??0?$output_processor@_WV?$stream_output_adapter@_W@__crt_stdio_output@@V?$format_validation_base@_WV?$stream_output_adapter@_W@__crt_stdio_output@@@2@@__crt_stdio_output@@QEAA@AEBV?$stream_output_adapter@_W@1@_KQEB_WAEAV__crt_cached_ptd_host@@QEAD@Z 0000000140020124 f i libucrt:output.obj
 0001:0001f190       ??0?$output_processor@_WV?$stream_output_adapter@_W@__crt_stdio_output@@V?$positional_parameter_base@_WV?$stream_output_adapter@_W@__crt_stdio_output@@@2@@__crt_stdio_output@@QEAA@AEBV?$stream_output_adapter@_W@1@_KQEB_WAEAV__crt_cached_ptd_host@@QEAD@Z 0000000140020190 f i libucrt:output.obj
 0001:0001f218       ??0?$output_processor@_WV?$stream_output_adapter@_W@__crt_stdio_output@@V?$standard_base@_WV?$stream_output_adapter@_W@__crt_stdio_output@@@2@@__crt_stdio_output@@QEAA@AEBV?$stream_output_adapter@_W@1@_KQEB_WAEAV__crt_cached_ptd_host@@QEAD@Z 0000000140020218 f i libucrt:output.obj
 0001:0001f284       ??0?$output_processor@_WV?$string_output_adapter@_W@__crt_stdio_output@@V?$format_validation_base@_WV?$string_output_adapter@_W@__crt_stdio_output@@@2@@__crt_stdio_output@@QEAA@AEBV?$string_output_adapter@_W@1@_KQEB_WAEAV__crt_cached_ptd_host@@QEAD@Z 0000000140020284 f i libucrt:output.obj
 0001:0001f2f0       ??0?$output_processor@_WV?$string_output_adapter@_W@__crt_stdio_output@@V?$positional_parameter_base@_WV?$string_output_adapter@_W@__crt_stdio_output@@@2@@__crt_stdio_output@@QEAA@AEBV?$string_output_adapter@_W@1@_KQEB_WAEAV__crt_cached_ptd_host@@QEAD@Z 00000001400202f0 f i libucrt:output.obj
 0001:0001f378       ??0?$output_processor@_WV?$string_output_adapter@_W@__crt_stdio_output@@V?$standard_base@_WV?$string_output_adapter@_W@__crt_stdio_output@@@2@@__crt_stdio_output@@QEAA@AEBV?$string_output_adapter@_W@1@_KQEB_WAEAV__crt_cached_ptd_host@@QEAD@Z 0000000140020378 f i libucrt:output.obj
 0001:0001f3e4       ??0?$stream_output_adapter@D@__crt_stdio_output@@QEAA@QEAU_iobuf@@@Z 00000001400203e4 f i libucrt:output.obj
 0001:0001f3ec       ??0?$stream_output_adapter@_W@__crt_stdio_output@@QEAA@QEAU_iobuf@@@Z 00000001400203ec f i libucrt:output.obj
 0001:0001f3f4       ??0?$string_output_adapter@D@__crt_stdio_output@@QEAA@QEAU?$string_output_adapter_context@D@1@@Z 00000001400203f4 f i libucrt:output.obj
 0001:0001f3fc       ??0?$string_output_adapter@_W@__crt_stdio_output@@QEAA@QEAU?$string_output_adapter_context@_W@1@@Z 00000001400203fc f i libucrt:output.obj
 0001:0001f404       ??0__acrt_stdio_temporary_buffering_guard@@QEAA@QEAU_iobuf@@AEAV__crt_cached_ptd_host@@@Z 0000000140020404 f i libucrt:output.obj
 0001:0001f430       ??0__crt_cached_ptd_host@@QEAA@QEAU__crt_locale_pointers@@@Z 0000000140020430 f i libucrt:output.obj
 0001:0001f478       ??0__crt_scoped_get_last_error_reset@@QEAA@XZ 0000000140020478 f i libucrt:output.obj
 0001:0001f494       ??0formatting_buffer@__crt_stdio_output@@QEAA@XZ 0000000140020494 f i libucrt:output.obj
 0001:0001f4a8       ??0guard@?$cached@H@__crt_cached_ptd_host@@QEAA@AEAU12@@Z 00000001400204a8 f i libucrt:output.obj
 0001:0001f4bc       ??1?$c_string_character_source@D@__crt_strtox@@QEAA@XZ 00000001400204bc f i libucrt:output.obj
 0001:0001f4cc       ??1?$c_string_character_source@_W@__crt_strtox@@QEAA@XZ 00000001400204cc f i libucrt:output.obj
 0001:0001f4dc       ??1?$common_data@D@__crt_stdio_output@@QEAA@XZ 00000001400204dc f i libucrt:output.obj
 0001:0001f500       ??1?$common_data@_W@__crt_stdio_output@@QEAA@XZ 0000000140020500 f i libucrt:output.obj
 0001:0001f524       ??1?$format_validation_base@DV?$stream_output_adapter@D@__crt_stdio_output@@@__crt_stdio_output@@QEAA@XZ 0000000140020524 f i libucrt:output.obj
 0001:0001f548       ??1?$format_validation_base@DV?$string_output_adapter@D@__crt_stdio_output@@@__crt_stdio_output@@QEAA@XZ 0000000140020548 f i libucrt:output.obj
 0001:0001f56c       ??1?$format_validation_base@_WV?$stream_output_adapter@_W@__crt_stdio_output@@@__crt_stdio_output@@QEAA@XZ 000000014002056c f i libucrt:output.obj
 0001:0001f590       ??1?$format_validation_base@_WV?$string_output_adapter@_W@__crt_stdio_output@@@__crt_stdio_output@@QEAA@XZ 0000000140020590 f i libucrt:output.obj
 0001:0001f5b4       ??1?$output_adapter_data@DV?$stream_output_adapter@D@__crt_stdio_output@@@__crt_stdio_output@@QEAA@XZ 00000001400205b4 f i libucrt:output.obj
 0001:0001f5d8       ??1?$output_adapter_data@DV?$string_output_adapter@D@__crt_stdio_output@@@__crt_stdio_output@@QEAA@XZ 00000001400205d8 f i libucrt:output.obj
 0001:0001f5fc       ??1?$output_adapter_data@_WV?$stream_output_adapter@_W@__crt_stdio_output@@@__crt_stdio_output@@QEAA@XZ 00000001400205fc f i libucrt:output.obj
 0001:0001f620       ??1?$output_adapter_data@_WV?$string_output_adapter@_W@__crt_stdio_output@@@__crt_stdio_output@@QEAA@XZ 0000000140020620 f i libucrt:output.obj
 0001:0001f644       ??1?$output_processor@DV?$stream_output_adapter@D@__crt_stdio_output@@V?$format_validation_base@DV?$stream_output_adapter@D@__crt_stdio_output@@@2@@__crt_stdio_output@@QEAA@XZ 0000000140020644 f i libucrt:output.obj
 0001:0001f668       ??1?$output_processor@DV?$stream_output_adapter@D@__crt_stdio_output@@V?$positional_parameter_base@DV?$stream_output_adapter@D@__crt_stdio_output@@@2@@__crt_stdio_output@@QEAA@XZ 0000000140020668 f i libucrt:output.obj
 0001:0001f68c       ??1?$output_processor@DV?$stream_output_adapter@D@__crt_stdio_output@@V?$standard_base@DV?$stream_output_adapter@D@__crt_stdio_output@@@2@@__crt_stdio_output@@QEAA@XZ 000000014002068c f i libucrt:output.obj
 0001:0001f6b0       ??1?$output_processor@DV?$string_output_adapter@D@__crt_stdio_output@@V?$format_validation_base@DV?$string_output_adapter@D@__crt_stdio_output@@@2@@__crt_stdio_output@@QEAA@XZ 00000001400206b0 f i libucrt:output.obj
 0001:0001f6d4       ??1?$output_processor@DV?$string_output_adapter@D@__crt_stdio_output@@V?$positional_parameter_base@DV?$string_output_adapter@D@__crt_stdio_output@@@2@@__crt_stdio_output@@QEAA@XZ 00000001400206d4 f i libucrt:output.obj
 0001:0001f6f8       ??1?$output_processor@DV?$string_output_adapter@D@__crt_stdio_output@@V?$standard_base@DV?$string_output_adapter@D@__crt_stdio_output@@@2@@__crt_stdio_output@@QEAA@XZ 00000001400206f8 f i libucrt:output.obj
 0001:0001f71c       ??1?$output_processor@_WV?$stream_output_adapter@_W@__crt_stdio_output@@V?$format_validation_base@_WV?$stream_output_adapter@_W@__crt_stdio_output@@@2@@__crt_stdio_output@@QEAA@XZ 000000014002071c f i libucrt:output.obj
 0001:0001f740       ??1?$output_processor@_WV?$stream_output_adapter@_W@__crt_stdio_output@@V?$positional_parameter_base@_WV?$stream_output_adapter@_W@__crt_stdio_output@@@2@@__crt_stdio_output@@QEAA@XZ 0000000140020740 f i libucrt:output.obj
 0001:0001f764       ??1?$output_processor@_WV?$stream_output_adapter@_W@__crt_stdio_output@@V?$standard_base@_WV?$stream_output_adapter@_W@__crt_stdio_output@@@2@@__crt_stdio_output@@QEAA@XZ 0000000140020764 f i libucrt:output.obj
 0001:0001f788       ??1?$output_processor@_WV?$string_output_adapter@_W@__crt_stdio_output@@V?$format_validation_base@_WV?$string_output_adapter@_W@__crt_stdio_output@@@2@@__crt_stdio_output@@QEAA@XZ 0000000140020788 f i libucrt:output.obj
 0001:0001f7ac       ??1?$output_processor@_WV?$string_output_adapter@_W@__crt_stdio_output@@V?$positional_parameter_base@_WV?$string_output_adapter@_W@__crt_stdio_output@@@2@@__crt_stdio_output@@QEAA@XZ 00000001400207ac f i libucrt:output.obj
 0001:0001f7d0       ??1?$output_processor@_WV?$string_output_adapter@_W@__crt_stdio_output@@V?$standard_base@_WV?$string_output_adapter@_W@__crt_stdio_output@@@2@@__crt_stdio_output@@QEAA@XZ 00000001400207d0 f i libucrt:output.obj
 0001:0001f7f4       ??1?$positional_parameter_base@DV?$stream_output_adapter@D@__crt_stdio_output@@@__crt_stdio_output@@QEAA@XZ 00000001400207f4 f i libucrt:output.obj
 0001:0001f818       ??1?$positional_parameter_base@DV?$string_output_adapter@D@__crt_stdio_output@@@__crt_stdio_output@@QEAA@XZ 0000000140020818 f i libucrt:output.obj
 0001:0001f83c       ??1?$positional_parameter_base@_WV?$stream_output_adapter@_W@__crt_stdio_output@@@__crt_stdio_output@@QEAA@XZ 000000014002083c f i libucrt:output.obj
 0001:0001f860       ??1?$positional_parameter_base@_WV?$string_output_adapter@_W@__crt_stdio_output@@@__crt_stdio_output@@QEAA@XZ 0000000140020860 f i libucrt:output.obj
 0001:0001f884       ??1?$standard_base@DV?$stream_output_adapter@D@__crt_stdio_output@@@__crt_stdio_output@@QEAA@XZ 0000000140020884 f i libucrt:output.obj
 0001:0001f8a8       ??1?$standard_base@DV?$string_output_adapter@D@__crt_stdio_output@@@__crt_stdio_output@@QEAA@XZ 00000001400208a8 f i libucrt:output.obj
 0001:0001f8cc       ??1?$standard_base@_WV?$stream_output_adapter@_W@__crt_stdio_output@@@__crt_stdio_output@@QEAA@XZ 00000001400208cc f i libucrt:output.obj
 0001:0001f8f0       ??1?$standard_base@_WV?$string_output_adapter@_W@__crt_stdio_output@@@__crt_stdio_output@@QEAA@XZ 00000001400208f0 f i libucrt:output.obj
 0001:0001f914       ??1__acrt_stdio_temporary_buffering_guard@@QEAA@XZ 0000000140020914 f i libucrt:output.obj
 0001:0001f930       ??1__crt_cached_ptd_host@@QEAA@XZ 0000000140020930 f i libucrt:output.obj
 0001:0001f980       ??1__crt_scoped_get_last_error_reset@@QEAA@XZ 0000000140020980 f i libucrt:output.obj
 0001:0001f98c       ??1formatting_buffer@__crt_stdio_output@@QEAA@XZ 000000014002098c f i libucrt:output.obj
 0001:0001f9b0       ??1guard@?$cached@H@__crt_cached_ptd_host@@QEAA@XZ 00000001400209b0 f i libucrt:output.obj
 0001:0001f9c4       ??4?$__crt_unique_heap_ptr@DU__crt_internal_free_policy@@@@QEAAAEAV0@$$QEAV0@@Z 00000001400209c4 f i libucrt:output.obj
 0001:0001f9f8       ??A?$spectre_mitigated_lookup_table@Ustate_transition_pair@__crt_stdio_output@@$0IA@@__crt_stdio_output@@QEBAAEBUstate_transition_pair@1@_K@Z 00000001400209f8 f i libucrt:output.obj
 0001:00020144       ?__crt_interlocked_read_32@@YAHPEDH@Z 0000000140021144 f i libucrt:output.obj
 0001:00020148       ?adjust_hexit@?$output_processor@DV?$stream_output_adapter@D@__crt_stdio_output@@V?$format_validation_base@DV?$stream_output_adapter@D@__crt_stdio_output@@@2@@__crt_stdio_output@@CADH_N@Z 0000000140021148 f i libucrt:output.obj
 0001:00020154       ?adjust_hexit@?$output_processor@DV?$stream_output_adapter@D@__crt_stdio_output@@V?$positional_parameter_base@DV?$stream_output_adapter@D@__crt_stdio_output@@@2@@__crt_stdio_output@@CADH_N@Z 0000000140021154 f i libucrt:output.obj
 0001:00020160       ?adjust_hexit@?$output_processor@DV?$stream_output_adapter@D@__crt_stdio_output@@V?$standard_base@DV?$stream_output_adapter@D@__crt_stdio_output@@@2@@__crt_stdio_output@@CADH_N@Z 0000000140021160 f i libucrt:output.obj
 0001:0002016c       ?adjust_hexit@?$output_processor@DV?$string_output_adapter@D@__crt_stdio_output@@V?$format_validation_base@DV?$string_output_adapter@D@__crt_stdio_output@@@2@@__crt_stdio_output@@CADH_N@Z 000000014002116c f i libucrt:output.obj
 0001:00020178       ?adjust_hexit@?$output_processor@DV?$string_output_adapter@D@__crt_stdio_output@@V?$positional_parameter_base@DV?$string_output_adapter@D@__crt_stdio_output@@@2@@__crt_stdio_output@@CADH_N@Z 0000000140021178 f i libucrt:output.obj
 0001:00020184       ?adjust_hexit@?$output_processor@DV?$string_output_adapter@D@__crt_stdio_output@@V?$standard_base@DV?$string_output_adapter@D@__crt_stdio_output@@@2@@__crt_stdio_output@@CADH_N@Z 0000000140021184 f i libucrt:output.obj
 0001:00020190       ?adjust_hexit@?$output_processor@_WV?$stream_output_adapter@_W@__crt_stdio_output@@V?$format_validation_base@_WV?$stream_output_adapter@_W@__crt_stdio_output@@@2@@__crt_stdio_output@@CADH_N@Z 0000000140021190 f i libucrt:output.obj
 0001:0002019c       ?adjust_hexit@?$output_processor@_WV?$stream_output_adapter@_W@__crt_stdio_output@@V?$positional_parameter_base@_WV?$stream_output_adapter@_W@__crt_stdio_output@@@2@@__crt_stdio_output@@CADH_N@Z 000000014002119c f i libucrt:output.obj
 0001:000201a8       ?adjust_hexit@?$output_processor@_WV?$stream_output_adapter@_W@__crt_stdio_output@@V?$standard_base@_WV?$stream_output_adapter@_W@__crt_stdio_output@@@2@@__crt_stdio_output@@CADH_N@Z 00000001400211a8 f i libucrt:output.obj
 0001:000201b4       ?adjust_hexit@?$output_processor@_WV?$string_output_adapter@_W@__crt_stdio_output@@V?$format_validation_base@_WV?$string_output_adapter@_W@__crt_stdio_output@@@2@@__crt_stdio_output@@CADH_N@Z 00000001400211b4 f i libucrt:output.obj
 0001:000201c0       ?adjust_hexit@?$output_processor@_WV?$string_output_adapter@_W@__crt_stdio_output@@V?$positional_parameter_base@_WV?$string_output_adapter@_W@__crt_stdio_output@@@2@@__crt_stdio_output@@CADH_N@Z 00000001400211c0 f i libucrt:output.obj
 0001:000201cc       ?adjust_hexit@?$output_processor@_WV?$string_output_adapter@_W@__crt_stdio_output@@V?$standard_base@_WV?$string_output_adapter@_W@__crt_stdio_output@@@2@@__crt_stdio_output@@CADH_N@Z 00000001400211cc f i libucrt:output.obj
 0001:000201d8       ?advance_to_next_pass@?$positional_parameter_base@DV?$stream_output_adapter@D@__crt_stdio_output@@@__crt_stdio_output@@IEAA_NXZ 00000001400211d8 f i libucrt:output.obj
 0001:0002022c       ?advance_to_next_pass@?$positional_parameter_base@DV?$string_output_adapter@D@__crt_stdio_output@@@__crt_stdio_output@@IEAA_NXZ 000000014002122c f i libucrt:output.obj
 0001:00020280       ?advance_to_next_pass@?$positional_parameter_base@_WV?$stream_output_adapter@_W@__crt_stdio_output@@@__crt_stdio_output@@IEAA_NXZ 0000000140021280 f i libucrt:output.obj
 0001:000202d4       ?advance_to_next_pass@?$positional_parameter_base@_WV?$string_output_adapter@_W@__crt_stdio_output@@@__crt_stdio_output@@IEAA_NXZ 00000001400212d4 f i libucrt:output.obj
 0001:00020328       ?advance_to_next_pass@?$standard_base@DV?$stream_output_adapter@D@__crt_stdio_output@@@__crt_stdio_output@@IEAA_NXZ 0000000140021328 f i libucrt:output.obj
 0001:0002033c       ?advance_to_next_pass@?$standard_base@DV?$string_output_adapter@D@__crt_stdio_output@@@__crt_stdio_output@@IEAA_NXZ 000000014002133c f i libucrt:output.obj
 0001:00020350       ?advance_to_next_pass@?$standard_base@_WV?$stream_output_adapter@_W@__crt_stdio_output@@@__crt_stdio_output@@IEAA_NXZ 0000000140021350 f i libucrt:output.obj
 0001:00020364       ?advance_to_next_pass@?$standard_base@_WV?$string_output_adapter@_W@__crt_stdio_output@@@__crt_stdio_output@@IEAA_NXZ 0000000140021364 f i libucrt:output.obj
 0001:00020378       ?check@?$cached@H@__crt_cached_ptd_host@@QEBA_NH@Z 0000000140021378 f i libucrt:output.obj
 0001:00020390       ?check_synchronize_global_state_index@__crt_cached_ptd_host@@AEAA_KAEBV__crt_scoped_get_last_error_reset@@@Z 0000000140021390 f i libucrt:output.obj
 0001:000203b0       ?check_synchronize_per_thread_data@__crt_cached_ptd_host@@AEAAPEAU__acrt_ptd@@XZ 00000001400213b0 f i libucrt:output.obj
 0001:00020418       ?create_guard@?$cached@H@__crt_cached_ptd_host@@QEAA?AVguard@12@XZ 0000000140021418 f i libucrt:output.obj
 0001:0002042c       ?crop_zeroes@__crt_stdio_output@@YAXPEADQEAU__crt_locale_pointers@@@Z 000000014002142c f i libucrt:output.obj
 0001:00020498       ?disable@guard@?$cached@H@__crt_cached_ptd_host@@QEAAXXZ 0000000140021498 f i libucrt:output.obj
 0001:000204a0       ?enable@guard@?$cached@H@__crt_cached_ptd_host@@QEAAXXZ 00000001400214a0 f i libucrt:output.obj
 0001:000204a8       ?find_next_state@?$output_processor@DV?$stream_output_adapter@D@__crt_stdio_output@@V?$format_validation_base@DV?$stream_output_adapter@D@__crt_stdio_output@@@2@@__crt_stdio_output@@AEBA?AW4state@2@DW432@@Z 00000001400214a8 f i libucrt:output.obj
 0001:000204e0       ?find_next_state@?$output_processor@DV?$stream_output_adapter@D@__crt_stdio_output@@V?$positional_parameter_base@DV?$stream_output_adapter@D@__crt_stdio_output@@@2@@__crt_stdio_output@@AEBA?AW4state@2@DW432@@Z 00000001400214e0 f i libucrt:output.obj
 0001:00020518       ?find_next_state@?$output_processor@DV?$stream_output_adapter@D@__crt_stdio_output@@V?$standard_base@DV?$stream_output_adapter@D@__crt_stdio_output@@@2@@__crt_stdio_output@@AEBA?AW4state@2@DW432@@Z 0000000140021518 f i libucrt:output.obj
 0001:0002054c       ?find_next_state@?$output_processor@DV?$string_output_adapter@D@__crt_stdio_output@@V?$format_validation_base@DV?$string_output_adapter@D@__crt_stdio_output@@@2@@__crt_stdio_output@@AEBA?AW4state@2@DW432@@Z 000000014002154c f i libucrt:output.obj
 0001:00020584       ?find_next_state@?$output_processor@DV?$string_output_adapter@D@__crt_stdio_output@@V?$positional_parameter_base@DV?$string_output_adapter@D@__crt_stdio_output@@@2@@__crt_stdio_output@@AEBA?AW4state@2@DW432@@Z 0000000140021584 f i libucrt:output.obj
 0001:000205bc       ?find_next_state@?$output_processor@DV?$string_output_adapter@D@__crt_stdio_output@@V?$standard_base@DV?$string_output_adapter@D@__crt_stdio_output@@@2@@__crt_stdio_output@@AEBA?AW4state@2@DW432@@Z 00000001400215bc f i libucrt:output.obj
 0001:000205f0       ?find_next_state@?$output_processor@_WV?$stream_output_adapter@_W@__crt_stdio_output@@V?$format_validation_base@_WV?$stream_output_adapter@_W@__crt_stdio_output@@@2@@__crt_stdio_output@@AEBA?AW4state@2@_WW432@@Z 00000001400215f0 f i libucrt:output.obj
 0001:00020630       ?find_next_state@?$output_processor@_WV?$stream_output_adapter@_W@__crt_stdio_output@@V?$positional_parameter_base@_WV?$stream_output_adapter@_W@__crt_stdio_output@@@2@@__crt_stdio_output@@AEBA?AW4state@2@_WW432@@Z 0000000140021630 f i libucrt:output.obj
 0001:00020670       ?find_next_state@?$output_processor@_WV?$stream_output_adapter@_W@__crt_stdio_output@@V?$standard_base@_WV?$stream_output_adapter@_W@__crt_stdio_output@@@2@@__crt_stdio_output@@AEBA?AW4state@2@_WW432@@Z 0000000140021670 f i libucrt:output.obj
 0001:000206ac       ?find_next_state@?$output_processor@_WV?$string_output_adapter@_W@__crt_stdio_output@@V?$format_validation_base@_WV?$string_output_adapter@_W@__crt_stdio_output@@@2@@__crt_stdio_output@@AEBA?AW4state@2@_WW432@@Z 00000001400216ac f i libucrt:output.obj
 0001:000206ec       ?find_next_state@?$output_processor@_WV?$string_output_adapter@_W@__crt_stdio_output@@V?$positional_parameter_base@_WV?$string_output_adapter@_W@__crt_stdio_output@@@2@@__crt_stdio_output@@AEBA?AW4state@2@_WW432@@Z 00000001400216ec f i libucrt:output.obj
 0001:0002072c       ?find_next_state@?$output_processor@_WV?$string_output_adapter@_W@__crt_stdio_output@@V?$standard_base@_WV?$string_output_adapter@_W@__crt_stdio_output@@@2@@__crt_stdio_output@@AEBA?AW4state@2@_WW432@@Z 000000014002172c f i libucrt:output.obj
 0001:00020768       ?force_decimal_point@__crt_stdio_output@@YAXPEADQEAU__crt_locale_pointers@@@Z 0000000140021768 f i libucrt:output.obj
 0001:000207d0       ?force_synchronize_global_state_index@__crt_cached_ptd_host@@AEAA_KAEBV__crt_scoped_get_last_error_reset@@@Z 00000001400217d0 f i libucrt:output.obj
 0001:000207e0       ?force_synchronize_per_thread_data@__crt_cached_ptd_host@@AEAAPEAU__acrt_ptd@@XZ 00000001400217e0 f i libucrt:output.obj
 0001:00020838       ?get@?$c_string_character_source@D@__crt_strtox@@QEAADXZ 0000000140021838 f i libucrt:output.obj
 0001:00020844       ?get@?$c_string_character_source@_W@__crt_strtox@@QEAA_WXZ 0000000140021844 f i libucrt:output.obj
 0001:00020854       ?get_current_state_index@__crt_state_management@@YA_KAEBV__crt_scoped_get_last_error_reset@@@Z 0000000140021854 f i libucrt:output.obj
 0001:00020860       ?get_errno@__crt_cached_ptd_host@@QEAA@XZ 0000000140021860 f i libucrt:output.obj
 0001:00020868       ?get_flags@__crt_stdio_stream@@QEBAJXZ 0000000140021868 f i libucrt:output.obj
 0001:00020870       ?get_locale@__crt_cached_ptd_host@@QEAAPEAU__crt_locale_pointers@@XZ 0000000140021870 f i libucrt:output.obj
 0001:00020898       ?get_parameter_type@?$positional_parameter_base@DV?$stream_output_adapter@D@__crt_stdio_output@@@__crt_stdio_output@@CA?AW4parameter_type@12@F@Z 0000000140021898 f i libucrt:output.obj
 0001:000208a0       ?get_parameter_type@?$positional_parameter_base@DV?$stream_output_adapter@D@__crt_stdio_output@@@__crt_stdio_output@@CA?AW4parameter_type@12@G@Z 00000001400218a0 f i libucrt:output.obj
 0001:000208a8       ?get_parameter_type@?$positional_parameter_base@DV?$stream_output_adapter@D@__crt_stdio_output@@@__crt_stdio_output@@CA?AW4parameter_type@12@H@Z 00000001400218a8 f i libucrt:output.obj
 0001:000208b0       ?get_parameter_type@?$positional_parameter_base@DV?$stream_output_adapter@D@__crt_stdio_output@@@__crt_stdio_output@@CA?AW4parameter_type@12@I@Z 00000001400218b0 f i libucrt:output.obj
 0001:000208b8       ?get_parameter_type@?$positional_parameter_base@DV?$stream_output_adapter@D@__crt_stdio_output@@@__crt_stdio_output@@CA?AW4parameter_type@12@U_CRT_DOUBLE@@@Z 00000001400218b8 f i libucrt:output.obj
 0001:000208c0       ?get_parameter_type@?$positional_parameter_base@DV?$stream_output_adapter@D@__crt_stdio_output@@@__crt_stdio_output@@CA?AW4parameter_type@12@_J@Z 00000001400218c0 f i libucrt:output.obj
 0001:000208c8       ?get_parameter_type@?$positional_parameter_base@DV?$stream_output_adapter@D@__crt_stdio_output@@@__crt_stdio_output@@CA?AW4parameter_type@12@_K@Z 00000001400218c8 f i libucrt:output.obj
 0001:000208d0       ?get_parameter_type@?$positional_parameter_base@DV?$stream_output_adapter@D@__crt_stdio_output@@@__crt_stdio_output@@CA?AW4parameter_type@12@_W@Z 00000001400218d0 f i libucrt:output.obj
 0001:000208d8       ?get_parameter_type@?$positional_parameter_base@DV?$string_output_adapter@D@__crt_stdio_output@@@__crt_stdio_output@@CA?AW4parameter_type@12@F@Z 00000001400218d8 f i libucrt:output.obj
 0001:000208e0       ?get_parameter_type@?$positional_parameter_base@DV?$string_output_adapter@D@__crt_stdio_output@@@__crt_stdio_output@@CA?AW4parameter_type@12@G@Z 00000001400218e0 f i libucrt:output.obj
 0001:000208e8       ?get_parameter_type@?$positional_parameter_base@DV?$string_output_adapter@D@__crt_stdio_output@@@__crt_stdio_output@@CA?AW4parameter_type@12@H@Z 00000001400218e8 f i libucrt:output.obj
 0001:000208f0       ?get_parameter_type@?$positional_parameter_base@DV?$string_output_adapter@D@__crt_stdio_output@@@__crt_stdio_output@@CA?AW4parameter_type@12@I@Z 00000001400218f0 f i libucrt:output.obj
 0001:000208f8       ?get_parameter_type@?$positional_parameter_base@DV?$string_output_adapter@D@__crt_stdio_output@@@__crt_stdio_output@@CA?AW4parameter_type@12@U_CRT_DOUBLE@@@Z 00000001400218f8 f i libucrt:output.obj
 0001:00020900       ?get_parameter_type@?$positional_parameter_base@DV?$string_output_adapter@D@__crt_stdio_output@@@__crt_stdio_output@@CA?AW4parameter_type@12@_J@Z 0000000140021900 f i libucrt:output.obj
 0001:00020908       ?get_parameter_type@?$positional_parameter_base@DV?$string_output_adapter@D@__crt_stdio_output@@@__crt_stdio_output@@CA?AW4parameter_type@12@_K@Z 0000000140021908 f i libucrt:output.obj
 0001:00020910       ?get_parameter_type@?$positional_parameter_base@DV?$string_output_adapter@D@__crt_stdio_output@@@__crt_stdio_output@@CA?AW4parameter_type@12@_W@Z 0000000140021910 f i libucrt:output.obj
 0001:00020918       ?get_parameter_type@?$positional_parameter_base@_WV?$stream_output_adapter@_W@__crt_stdio_output@@@__crt_stdio_output@@CA?AW4parameter_type@12@F@Z 0000000140021918 f i libucrt:output.obj
 0001:00020920       ?get_parameter_type@?$positional_parameter_base@_WV?$stream_output_adapter@_W@__crt_stdio_output@@@__crt_stdio_output@@CA?AW4parameter_type@12@G@Z 0000000140021920 f i libucrt:output.obj
 0001:00020928       ?get_parameter_type@?$positional_parameter_base@_WV?$stream_output_adapter@_W@__crt_stdio_output@@@__crt_stdio_output@@CA?AW4parameter_type@12@H@Z 0000000140021928 f i libucrt:output.obj
 0001:00020930       ?get_parameter_type@?$positional_parameter_base@_WV?$stream_output_adapter@_W@__crt_stdio_output@@@__crt_stdio_output@@CA?AW4parameter_type@12@I@Z 0000000140021930 f i libucrt:output.obj
 0001:00020938       ?get_parameter_type@?$positional_parameter_base@_WV?$stream_output_adapter@_W@__crt_stdio_output@@@__crt_stdio_output@@CA?AW4parameter_type@12@U_CRT_DOUBLE@@@Z 0000000140021938 f i libucrt:output.obj
 0001:00020940       ?get_parameter_type@?$positional_parameter_base@_WV?$stream_output_adapter@_W@__crt_stdio_output@@@__crt_stdio_output@@CA?AW4parameter_type@12@_J@Z 0000000140021940 f i libucrt:output.obj
 0001:00020948       ?get_parameter_type@?$positional_parameter_base@_WV?$stream_output_adapter@_W@__crt_stdio_output@@@__crt_stdio_output@@CA?AW4parameter_type@12@_K@Z 0000000140021948 f i libucrt:output.obj
 0001:00020950       ?get_parameter_type@?$positional_parameter_base@_WV?$stream_output_adapter@_W@__crt_stdio_output@@@__crt_stdio_output@@CA?AW4parameter_type@12@_W@Z 0000000140021950 f i libucrt:output.obj
 0001:00020958       ?get_parameter_type@?$positional_parameter_base@_WV?$string_output_adapter@_W@__crt_stdio_output@@@__crt_stdio_output@@CA?AW4parameter_type@12@F@Z 0000000140021958 f i libucrt:output.obj
 0001:00020960       ?get_parameter_type@?$positional_parameter_base@_WV?$string_output_adapter@_W@__crt_stdio_output@@@__crt_stdio_output@@CA?AW4parameter_type@12@G@Z 0000000140021960 f i libucrt:output.obj
 0001:00020968       ?get_parameter_type@?$positional_parameter_base@_WV?$string_output_adapter@_W@__crt_stdio_output@@@__crt_stdio_output@@CA?AW4parameter_type@12@H@Z 0000000140021968 f i libucrt:output.obj
 0001:00020970       ?get_parameter_type@?$positional_parameter_base@_WV?$string_output_adapter@_W@__crt_stdio_output@@@__crt_stdio_output@@CA?AW4parameter_type@12@I@Z 0000000140021970 f i libucrt:output.obj
 0001:00020978       ?get_parameter_type@?$positional_parameter_base@_WV?$string_output_adapter@_W@__crt_stdio_output@@@__crt_stdio_output@@CA?AW4parameter_type@12@U_CRT_DOUBLE@@@Z 0000000140021978 f i libucrt:output.obj
 0001:00020980       ?get_parameter_type@?$positional_parameter_base@_WV?$string_output_adapter@_W@__crt_stdio_output@@@__crt_stdio_output@@CA?AW4parameter_type@12@_J@Z 0000000140021980 f i libucrt:output.obj
 0001:00020988       ?get_parameter_type@?$positional_parameter_base@_WV?$string_output_adapter@_W@__crt_stdio_output@@@__crt_stdio_output@@CA?AW4parameter_type@12@_K@Z 0000000140021988 f i libucrt:output.obj
 0001:00020990       ?get_parameter_type@?$positional_parameter_base@_WV?$string_output_adapter@_W@__crt_stdio_output@@@__crt_stdio_output@@CA?AW4parameter_type@12@_W@Z 0000000140021990 f i libucrt:output.obj
 0001:000209a0       ?get_raw_ptd@__crt_cached_ptd_host@@QEAAPEAU__acrt_ptd@@XZ 00000001400219a0 f i libucrt:output.obj
 0001:00020a08       ?has_flag@?$output_processor@DV?$stream_output_adapter@D@__crt_stdio_output@@V?$format_validation_base@DV?$stream_output_adapter@D@__crt_stdio_output@@@2@@__crt_stdio_output@@AEBA_NI@Z 0000000140021a08 f i libucrt:output.obj
 0001:00020a10       ?has_flag@?$output_processor@DV?$stream_output_adapter@D@__crt_stdio_output@@V?$positional_parameter_base@DV?$stream_output_adapter@D@__crt_stdio_output@@@2@@__crt_stdio_output@@AEBA_NI@Z 0000000140021a10 f i libucrt:output.obj
 0001:00020a18       ?has_flag@?$output_processor@DV?$stream_output_adapter@D@__crt_stdio_output@@V?$standard_base@DV?$stream_output_adapter@D@__crt_stdio_output@@@2@@__crt_stdio_output@@AEBA_NI@Z 0000000140021a18 f i libucrt:output.obj
 0001:00020a20       ?has_flag@?$output_processor@DV?$string_output_adapter@D@__crt_stdio_output@@V?$format_validation_base@DV?$string_output_adapter@D@__crt_stdio_output@@@2@@__crt_stdio_output@@AEBA_NI@Z 0000000140021a20 f i libucrt:output.obj
 0001:00020a28       ?has_flag@?$output_processor@DV?$string_output_adapter@D@__crt_stdio_output@@V?$positional_parameter_base@DV?$string_output_adapter@D@__crt_stdio_output@@@2@@__crt_stdio_output@@AEBA_NI@Z 0000000140021a28 f i libucrt:output.obj
 0001:00020a30       ?has_flag@?$output_processor@DV?$string_output_adapter@D@__crt_stdio_output@@V?$standard_base@DV?$string_output_adapter@D@__crt_stdio_output@@@2@@__crt_stdio_output@@AEBA_NI@Z 0000000140021a30 f i libucrt:output.obj
 0001:00020a38       ?has_flag@?$output_processor@_WV?$stream_output_adapter@_W@__crt_stdio_output@@V?$format_validation_base@_WV?$stream_output_adapter@_W@__crt_stdio_output@@@2@@__crt_stdio_output@@AEBA_NI@Z 0000000140021a38 f i libucrt:output.obj
 0001:00020a40       ?has_flag@?$output_processor@_WV?$stream_output_adapter@_W@__crt_stdio_output@@V?$positional_parameter_base@_WV?$stream_output_adapter@_W@__crt_stdio_output@@@2@@__crt_stdio_output@@AEBA_NI@Z 0000000140021a40 f i libucrt:output.obj
 0001:00020a48       ?has_flag@?$output_processor@_WV?$stream_output_adapter@_W@__crt_stdio_output@@V?$standard_base@_WV?$stream_output_adapter@_W@__crt_stdio_output@@@2@@__crt_stdio_output@@AEBA_NI@Z 0000000140021a48 f i libucrt:output.obj
 0001:00020a50       ?has_flag@?$output_processor@_WV?$string_output_adapter@_W@__crt_stdio_output@@V?$format_validation_base@_WV?$string_output_adapter@_W@__crt_stdio_output@@@2@@__crt_stdio_output@@AEBA_NI@Z 0000000140021a50 f i libucrt:output.obj
 0001:00020a58       ?has_flag@?$output_processor@_WV?$string_output_adapter@_W@__crt_stdio_output@@V?$positional_parameter_base@_WV?$string_output_adapter@_W@__crt_stdio_output@@@2@@__crt_stdio_output@@AEBA_NI@Z 0000000140021a58 f i libucrt:output.obj
 0001:00020a60       ?has_flag@?$output_processor@_WV?$string_output_adapter@_W@__crt_stdio_output@@V?$standard_base@_WV?$string_output_adapter@_W@__crt_stdio_output@@@2@@__crt_stdio_output@@AEBA_NI@Z 0000000140021a60 f i libucrt:output.obj
 0001:00020a68       ?is_positional_parameter_reappearance_consistent@?$positional_parameter_base@DV?$stream_output_adapter@D@__crt_stdio_output@@@__crt_stdio_output@@AEAA_NAEBUparameter_data@12@W4parameter_type@12@DW4length_modifier@2@@Z 0000000140021a68 f i libucrt:output.obj
 0001:00020c9c       ?is_positional_parameter_reappearance_consistent@?$positional_parameter_base@DV?$string_output_adapter@D@__crt_stdio_output@@@__crt_stdio_output@@AEAA_NAEBUparameter_data@12@W4parameter_type@12@DW4length_modifier@2@@Z 0000000140021c9c f i libucrt:output.obj
 0001:00020ed0       ?is_positional_parameter_reappearance_consistent@?$positional_parameter_base@_WV?$stream_output_adapter@_W@__crt_stdio_output@@@__crt_stdio_output@@AEAA_NAEBUparameter_data@12@W4parameter_type@12@_WW4length_modifier@2@@Z 0000000140021ed0 f i libucrt:output.obj
 0001:000210d4       ?is_positional_parameter_reappearance_consistent@?$positional_parameter_base@_WV?$string_output_adapter@_W@__crt_stdio_output@@@__crt_stdio_output@@AEAA_NAEBUparameter_data@12@W4parameter_type@12@_WW4length_modifier@2@@Z 00000001400220d4 f i libucrt:output.obj
 0001:000212d8       ?is_string_backed@__crt_stdio_stream@@QEBA_NXZ 00000001400222d8 f i libucrt:output.obj
 0001:000212e8       ?maximum_signed_value@__crt_strtox@@YAJK@Z 00000001400222e8 f i libucrt:output.obj
 0001:000212f0       ?minimum_signed_value@__crt_strtox@@YAJK@Z 00000001400222f0 f i libucrt:output.obj
 0001:000212f8       ?narrow_null_string@?$output_processor@DV?$stream_output_adapter@D@__crt_stdio_output@@V?$format_validation_base@DV?$stream_output_adapter@D@__crt_stdio_output@@@2@@__crt_stdio_output@@CAPEADXZ 00000001400222f8 f i libucrt:output.obj
 0001:00021300       ?narrow_null_string@?$output_processor@DV?$stream_output_adapter@D@__crt_stdio_output@@V?$positional_parameter_base@DV?$stream_output_adapter@D@__crt_stdio_output@@@2@@__crt_stdio_output@@CAPEADXZ 0000000140022300 f i libucrt:output.obj
 0001:00021308       ?narrow_null_string@?$output_processor@DV?$stream_output_adapter@D@__crt_stdio_output@@V?$standard_base@DV?$stream_output_adapter@D@__crt_stdio_output@@@2@@__crt_stdio_output@@CAPEADXZ 0000000140022308 f i libucrt:output.obj
 0001:00021310       ?narrow_null_string@?$output_processor@DV?$string_output_adapter@D@__crt_stdio_output@@V?$format_validation_base@DV?$string_output_adapter@D@__crt_stdio_output@@@2@@__crt_stdio_output@@CAPEADXZ 0000000140022310 f i libucrt:output.obj
 0001:00021318       ?narrow_null_string@?$output_processor@DV?$string_output_adapter@D@__crt_stdio_output@@V?$positional_parameter_base@DV?$string_output_adapter@D@__crt_stdio_output@@@2@@__crt_stdio_output@@CAPEADXZ 0000000140022318 f i libucrt:output.obj
 0001:00021320       ?narrow_null_string@?$output_processor@DV?$string_output_adapter@D@__crt_stdio_output@@V?$standard_base@DV?$string_output_adapter@D@__crt_stdio_output@@@2@@__crt_stdio_output@@CAPEADXZ 0000000140022320 f i libucrt:output.obj
 0001:00021328       ?narrow_null_string@?$output_processor@_WV?$stream_output_adapter@_W@__crt_stdio_output@@V?$format_validation_base@_WV?$stream_output_adapter@_W@__crt_stdio_output@@@2@@__crt_stdio_output@@CAPEADXZ 0000000140022328 f i libucrt:output.obj
 0001:00021330       ?narrow_null_string@?$output_processor@_WV?$stream_output_adapter@_W@__crt_stdio_output@@V?$positional_parameter_base@_WV?$stream_output_adapter@_W@__crt_stdio_output@@@2@@__crt_stdio_output@@CAPEADXZ 0000000140022330 f i libucrt:output.obj
 0001:00021338       ?narrow_null_string@?$output_processor@_WV?$stream_output_adapter@_W@__crt_stdio_output@@V?$standard_base@_WV?$stream_output_adapter@_W@__crt_stdio_output@@@2@@__crt_stdio_output@@CAPEADXZ 0000000140022338 f i libucrt:output.obj
 0001:00021340       ?narrow_null_string@?$output_processor@_WV?$string_output_adapter@_W@__crt_stdio_output@@V?$format_validation_base@_WV?$string_output_adapter@_W@__crt_stdio_output@@@2@@__crt_stdio_output@@CAPEADXZ 0000000140022340 f i libucrt:output.obj
 0001:00021348       ?narrow_null_string@?$output_processor@_WV?$string_output_adapter@_W@__crt_stdio_output@@V?$positional_parameter_base@_WV?$string_output_adapter@_W@__crt_stdio_output@@@2@@__crt_stdio_output@@CAPEADXZ 0000000140022348 f i libucrt:output.obj
 0001:00021350       ?narrow_null_string@?$output_processor@_WV?$string_output_adapter@_W@__crt_stdio_output@@V?$standard_base@_WV?$string_output_adapter@_W@__crt_stdio_output@@@2@@__crt_stdio_output@@CAPEADXZ 0000000140022350 f i libucrt:output.obj
 0001:00021358       ?parse_digit@__crt_strtox@@YAID@Z 0000000140022358 f i libucrt:output.obj
 0001:00021388       ?parse_digit@__crt_strtox@@YAI_W@Z 0000000140022388 f i libucrt:output.obj
 0001:00021544       ?parse_int_from_format_string@?$output_processor@DV?$stream_output_adapter@D@__crt_stdio_output@@V?$format_validation_base@DV?$stream_output_adapter@D@__crt_stdio_output@@@2@@__crt_stdio_output@@AEAA_NQEAH@Z 0000000140022544 f i libucrt:output.obj
 0001:000215d4       ?parse_int_from_format_string@?$output_processor@DV?$stream_output_adapter@D@__crt_stdio_output@@V?$positional_parameter_base@DV?$stream_output_adapter@D@__crt_stdio_output@@@2@@__crt_stdio_output@@AEAA_NQEAH@Z 00000001400225d4 f i libucrt:output.obj
 0001:00021664       ?parse_int_from_format_string@?$output_processor@DV?$stream_output_adapter@D@__crt_stdio_output@@V?$standard_base@DV?$stream_output_adapter@D@__crt_stdio_output@@@2@@__crt_stdio_output@@AEAA_NQEAH@Z 0000000140022664 f i libucrt:output.obj
 0001:000216f4       ?parse_int_from_format_string@?$output_processor@DV?$string_output_adapter@D@__crt_stdio_output@@V?$format_validation_base@DV?$string_output_adapter@D@__crt_stdio_output@@@2@@__crt_stdio_output@@AEAA_NQEAH@Z 00000001400226f4 f i libucrt:output.obj
 0001:00021784       ?parse_int_from_format_string@?$output_processor@DV?$string_output_adapter@D@__crt_stdio_output@@V?$positional_parameter_base@DV?$string_output_adapter@D@__crt_stdio_output@@@2@@__crt_stdio_output@@AEAA_NQEAH@Z 0000000140022784 f i libucrt:output.obj
 0001:00021814       ?parse_int_from_format_string@?$output_processor@DV?$string_output_adapter@D@__crt_stdio_output@@V?$standard_base@DV?$string_output_adapter@D@__crt_stdio_output@@@2@@__crt_stdio_output@@AEAA_NQEAH@Z 0000000140022814 f i libucrt:output.obj
 0001:000218a4       ?parse_int_from_format_string@?$output_processor@_WV?$stream_output_adapter@_W@__crt_stdio_output@@V?$format_validation_base@_WV?$stream_output_adapter@_W@__crt_stdio_output@@@2@@__crt_stdio_output@@AEAA_NQEAH@Z 00000001400228a4 f i libucrt:output.obj
 0001:00021934       ?parse_int_from_format_string@?$output_processor@_WV?$stream_output_adapter@_W@__crt_stdio_output@@V?$positional_parameter_base@_WV?$stream_output_adapter@_W@__crt_stdio_output@@@2@@__crt_stdio_output@@AEAA_NQEAH@Z 0000000140022934 f i libucrt:output.obj
 0001:000219c4       ?parse_int_from_format_string@?$output_processor@_WV?$stream_output_adapter@_W@__crt_stdio_output@@V?$standard_base@_WV?$stream_output_adapter@_W@__crt_stdio_output@@@2@@__crt_stdio_output@@AEAA_NQEAH@Z 00000001400229c4 f i libucrt:output.obj
 0001:00021a54       ?parse_int_from_format_string@?$output_processor@_WV?$string_output_adapter@_W@__crt_stdio_output@@V?$format_validation_base@_WV?$string_output_adapter@_W@__crt_stdio_output@@@2@@__crt_stdio_output@@AEAA_NQEAH@Z 0000000140022a54 f i libucrt:output.obj
 0001:00021ae4       ?parse_int_from_format_string@?$output_processor@_WV?$string_output_adapter@_W@__crt_stdio_output@@V?$positional_parameter_base@_WV?$string_output_adapter@_W@__crt_stdio_output@@@2@@__crt_stdio_output@@AEAA_NQEAH@Z 0000000140022ae4 f i libucrt:output.obj
 0001:00021b74       ?parse_int_from_format_string@?$output_processor@_WV?$string_output_adapter@_W@__crt_stdio_output@@V?$standard_base@_WV?$string_output_adapter@_W@__crt_stdio_output@@@2@@__crt_stdio_output@@AEAA_NQEAH@Z 0000000140022b74 f i libucrt:output.obj
 0001:00021c04       ?process@?$output_processor@DV?$stream_output_adapter@D@__crt_stdio_output@@V?$format_validation_base@DV?$stream_output_adapter@D@__crt_stdio_output@@@2@@__crt_stdio_output@@QEAAHXZ 0000000140022c04 f i libucrt:output.obj
 0001:00021fa0       ?process@?$output_processor@DV?$stream_output_adapter@D@__crt_stdio_output@@V?$positional_parameter_base@DV?$stream_output_adapter@D@__crt_stdio_output@@@2@@__crt_stdio_output@@QEAAHXZ 0000000140022fa0 f i libucrt:output.obj
 0001:000223d4       ?process@?$output_processor@DV?$stream_output_adapter@D@__crt_stdio_output@@V?$standard_base@DV?$stream_output_adapter@D@__crt_stdio_output@@@2@@__crt_stdio_output@@QEAAHXZ 00000001400233d4 f i libucrt:output.obj
 0001:0002276c       ?process@?$output_processor@DV?$string_output_adapter@D@__crt_stdio_output@@V?$format_validation_base@DV?$string_output_adapter@D@__crt_stdio_output@@@2@@__crt_stdio_output@@QEAAHXZ 000000014002376c f i libucrt:output.obj
 0001:00022af0       ?process@?$output_processor@DV?$string_output_adapter@D@__crt_stdio_output@@V?$positional_parameter_base@DV?$string_output_adapter@D@__crt_stdio_output@@@2@@__crt_stdio_output@@QEAAHXZ 0000000140023af0 f i libucrt:output.obj
 0001:00022f08       ?process@?$output_processor@DV?$string_output_adapter@D@__crt_stdio_output@@V?$standard_base@DV?$string_output_adapter@D@__crt_stdio_output@@@2@@__crt_stdio_output@@QEAAHXZ 0000000140023f08 f i libucrt:output.obj
 0001:00023288       ?process@?$output_processor@_WV?$stream_output_adapter@_W@__crt_stdio_output@@V?$format_validation_base@_WV?$stream_output_adapter@_W@__crt_stdio_output@@@2@@__crt_stdio_output@@QEAAHXZ 0000000140024288 f i libucrt:output.obj
 0001:00023568       ?process@?$output_processor@_WV?$stream_output_adapter@_W@__crt_stdio_output@@V?$positional_parameter_base@_WV?$stream_output_adapter@_W@__crt_stdio_output@@@2@@__crt_stdio_output@@QEAAHXZ 0000000140024568 f i libucrt:output.obj
 0001:000238d8       ?process@?$output_processor@_WV?$stream_output_adapter@_W@__crt_stdio_output@@V?$standard_base@_WV?$stream_output_adapter@_W@__crt_stdio_output@@@2@@__crt_stdio_output@@QEAAHXZ 00000001400248d8 f i libucrt:output.obj
 0001:00023ba8       ?process@?$output_processor@_WV?$string_output_adapter@_W@__crt_stdio_output@@V?$format_validation_base@_WV?$string_output_adapter@_W@__crt_stdio_output@@@2@@__crt_stdio_output@@QEAAHXZ 0000000140024ba8 f i libucrt:output.obj
 0001:00023e80       ?process@?$output_processor@_WV?$string_output_adapter@_W@__crt_stdio_output@@V?$positional_parameter_base@_WV?$string_output_adapter@_W@__crt_stdio_output@@@2@@__crt_stdio_output@@QEAAHXZ 0000000140024e80 f i libucrt:output.obj
 0001:000241ec       ?process@?$output_processor@_WV?$string_output_adapter@_W@__crt_stdio_output@@V?$standard_base@_WV?$string_output_adapter@_W@__crt_stdio_output@@@2@@__crt_stdio_output@@QEAAHXZ 00000001400251ec f i libucrt:output.obj
 0001:000244c4       ?public_stream@__crt_stdio_stream@@QEBAPEAU_iobuf@@XZ 00000001400254c4 f i libucrt:output.obj
 0001:000244c8       ?restore_state@?$c_string_character_source@D@__crt_strtox@@QEAA_NQEBD@Z 00000001400254c8 f i libucrt:output.obj
 0001:000244d0       ?restore_state@?$c_string_character_source@_W@__crt_strtox@@QEAA_NQEB_W@Z 00000001400254d0 f i libucrt:output.obj
 0001:000244d8       ?save_state@?$c_string_character_source@D@__crt_strtox@@QEBAPEBDXZ 00000001400254d8 f i libucrt:output.obj
 0001:000244dc       ?save_state@?$c_string_character_source@_W@__crt_strtox@@QEBAPEB_WXZ 00000001400254dc f i libucrt:output.obj
 0001:000244e0       ?set@?$cached@H@__crt_cached_ptd_host@@QEAAHH@Z 00000001400254e0 f i libucrt:output.obj
 0001:000244ec       ?set_flag@?$output_processor@DV?$stream_output_adapter@D@__crt_stdio_output@@V?$format_validation_base@DV?$stream_output_adapter@D@__crt_stdio_output@@@2@@__crt_stdio_output@@AEAAXI@Z 00000001400254ec f i libucrt:output.obj
 0001:000244f0       ?set_flag@?$output_processor@DV?$stream_output_adapter@D@__crt_stdio_output@@V?$positional_parameter_base@DV?$stream_output_adapter@D@__crt_stdio_output@@@2@@__crt_stdio_output@@AEAAXI@Z 00000001400254f0 f i libucrt:output.obj
 0001:000244f4       ?set_flag@?$output_processor@DV?$stream_output_adapter@D@__crt_stdio_output@@V?$standard_base@DV?$stream_output_adapter@D@__crt_stdio_output@@@2@@__crt_stdio_output@@AEAAXI@Z 00000001400254f4 f i libucrt:output.obj
 0001:000244f8       ?set_flag@?$output_processor@DV?$string_output_adapter@D@__crt_stdio_output@@V?$format_validation_base@DV?$string_output_adapter@D@__crt_stdio_output@@@2@@__crt_stdio_output@@AEAAXI@Z 00000001400254f8 f i libucrt:output.obj
 0001:000244fc       ?set_flag@?$output_processor@DV?$string_output_adapter@D@__crt_stdio_output@@V?$positional_parameter_base@DV?$string_output_adapter@D@__crt_stdio_output@@@2@@__crt_stdio_output@@AEAAXI@Z 00000001400254fc f i libucrt:output.obj
 0001:00024500       ?set_flag@?$output_processor@DV?$string_output_adapter@D@__crt_stdio_output@@V?$standard_base@DV?$string_output_adapter@D@__crt_stdio_output@@@2@@__crt_stdio_output@@AEAAXI@Z 0000000140025500 f i libucrt:output.obj
 0001:00024504       ?set_flag@?$output_processor@_WV?$stream_output_adapter@_W@__crt_stdio_output@@V?$format_validation_base@_WV?$stream_output_adapter@_W@__crt_stdio_output@@@2@@__crt_stdio_output@@AEAAXI@Z 0000000140025504 f i libucrt:output.obj
 0001:00024508       ?set_flag@?$output_processor@_WV?$stream_output_adapter@_W@__crt_stdio_output@@V?$positional_parameter_base@_WV?$stream_output_adapter@_W@__crt_stdio_output@@@2@@__crt_stdio_output@@AEAAXI@Z 0000000140025508 f i libucrt:output.obj
 0001:0002450c       ?set_flag@?$output_processor@_WV?$stream_output_adapter@_W@__crt_stdio_output@@V?$standard_base@_WV?$stream_output_adapter@_W@__crt_stdio_output@@@2@@__crt_stdio_output@@AEAAXI@Z 000000014002550c f i libucrt:output.obj
 0001:00024510       ?set_flag@?$output_processor@_WV?$string_output_adapter@_W@__crt_stdio_output@@V?$format_validation_base@_WV?$string_output_adapter@_W@__crt_stdio_output@@@2@@__crt_stdio_output@@AEAAXI@Z 0000000140025510 f i libucrt:output.obj
 0001:00024514       ?set_flag@?$output_processor@_WV?$string_output_adapter@_W@__crt_stdio_output@@V?$positional_parameter_base@_WV?$string_output_adapter@_W@__crt_stdio_output@@@2@@__crt_stdio_output@@AEAAXI@Z 0000000140025514 f i libucrt:output.obj
 0001:00024518       ?set_flag@?$output_processor@_WV?$string_output_adapter@_W@__crt_stdio_output@@V?$standard_base@_WV?$string_output_adapter@_W@__crt_stdio_output@@@2@@__crt_stdio_output@@AEAAXI@Z 0000000140025518 f i libucrt:output.obj
 0001:0002451c       ?should_format@?$positional_parameter_base@DV?$stream_output_adapter@D@__crt_stdio_output@@@__crt_stdio_output@@IEAA_NXZ 000000014002551c f i libucrt:output.obj
 0001:00024534       ?should_format@?$positional_parameter_base@DV?$string_output_adapter@D@__crt_stdio_output@@@__crt_stdio_output@@IEAA_NXZ 0000000140025534 f i libucrt:output.obj
 0001:0002454c       ?should_format@?$positional_parameter_base@_WV?$stream_output_adapter@_W@__crt_stdio_output@@@__crt_stdio_output@@IEAA_NXZ 000000014002554c f i libucrt:output.obj
 0001:00024564       ?should_format@?$positional_parameter_base@_WV?$string_output_adapter@_W@__crt_stdio_output@@@__crt_stdio_output@@IEAA_NXZ 0000000140025564 f i libucrt:output.obj
 0001:0002457c       ?should_format@?$standard_base@DV?$stream_output_adapter@D@__crt_stdio_output@@@__crt_stdio_output@@IEAA_NXZ 000000014002557c f i libucrt:output.obj
 0001:00024580       ?should_format@?$standard_base@DV?$string_output_adapter@D@__crt_stdio_output@@@__crt_stdio_output@@IEAA_NXZ 0000000140025580 f i libucrt:output.obj
 0001:00024584       ?should_format@?$standard_base@_WV?$stream_output_adapter@_W@__crt_stdio_output@@@__crt_stdio_output@@IEAA_NXZ 0000000140025584 f i libucrt:output.obj
 0001:00024588       ?should_format@?$standard_base@_WV?$string_output_adapter@_W@__crt_stdio_output@@@__crt_stdio_output@@IEAA_NXZ 0000000140025588 f i libucrt:output.obj
 0001:0002458c       ?should_skip_normal_state_processing@?$positional_parameter_base@DV?$stream_output_adapter@D@__crt_stdio_output@@@__crt_stdio_output@@IEAA_NXZ 000000014002558c f i libucrt:output.obj
 0001:000245b8       ?should_skip_normal_state_processing@?$positional_parameter_base@DV?$string_output_adapter@D@__crt_stdio_output@@@__crt_stdio_output@@IEAA_NXZ 00000001400255b8 f i libucrt:output.obj
 0001:000245e4       ?should_skip_normal_state_processing@?$positional_parameter_base@_WV?$stream_output_adapter@_W@__crt_stdio_output@@@__crt_stdio_output@@IEAA_NXZ 00000001400255e4 f i libucrt:output.obj
 0001:00024610       ?should_skip_normal_state_processing@?$positional_parameter_base@_WV?$string_output_adapter@_W@__crt_stdio_output@@@__crt_stdio_output@@IEAA_NXZ 0000000140025610 f i libucrt:output.obj
 0001:0002463c       ?should_skip_normal_state_processing@?$standard_base@DV?$stream_output_adapter@D@__crt_stdio_output@@@__crt_stdio_output@@IEAA_NXZ 000000014002563c f i libucrt:output.obj
 0001:00024640       ?should_skip_normal_state_processing@?$standard_base@DV?$string_output_adapter@D@__crt_stdio_output@@@__crt_stdio_output@@IEAA_NXZ 0000000140025640 f i libucrt:output.obj
 0001:00024644       ?should_skip_normal_state_processing@?$standard_base@_WV?$stream_output_adapter@_W@__crt_stdio_output@@@__crt_stdio_output@@IEAA_NXZ 0000000140025644 f i libucrt:output.obj
 0001:00024648       ?should_skip_normal_state_processing@?$standard_base@_WV?$string_output_adapter@_W@__crt_stdio_output@@@__crt_stdio_output@@IEAA_NXZ 0000000140025648 f i libucrt:output.obj
 0001:0002464c       ?should_skip_type_state_output@?$positional_parameter_base@DV?$stream_output_adapter@D@__crt_stdio_output@@@__crt_stdio_output@@IEBA_NXZ 000000014002564c f i libucrt:output.obj
 0001:00024668       ?should_skip_type_state_output@?$positional_parameter_base@DV?$string_output_adapter@D@__crt_stdio_output@@@__crt_stdio_output@@IEBA_NXZ 0000000140025668 f i libucrt:output.obj
 0001:00024684       ?should_skip_type_state_output@?$positional_parameter_base@_WV?$stream_output_adapter@_W@__crt_stdio_output@@@__crt_stdio_output@@IEBA_NXZ 0000000140025684 f i libucrt:output.obj
 0001:000246a0       ?should_skip_type_state_output@?$positional_parameter_base@_WV?$string_output_adapter@_W@__crt_stdio_output@@@__crt_stdio_output@@IEBA_NXZ 00000001400256a0 f i libucrt:output.obj
 0001:000246bc       ?should_skip_type_state_output@?$standard_base@DV?$stream_output_adapter@D@__crt_stdio_output@@@__crt_stdio_output@@IEBA_NXZ 00000001400256bc f i libucrt:output.obj
 0001:000246c0       ?should_skip_type_state_output@?$standard_base@DV?$string_output_adapter@D@__crt_stdio_output@@@__crt_stdio_output@@IEBA_NXZ 00000001400256c0 f i libucrt:output.obj
 0001:000246c4       ?should_skip_type_state_output@?$standard_base@_WV?$stream_output_adapter@_W@__crt_stdio_output@@@__crt_stdio_output@@IEBA_NXZ 00000001400256c4 f i libucrt:output.obj
 0001:000246c8       ?should_skip_type_state_output@?$standard_base@_WV?$string_output_adapter@_W@__crt_stdio_output@@@__crt_stdio_output@@IEBA_NXZ 00000001400256c8 f i libucrt:output.obj
 0001:000246cc       ?state_case_dot@?$output_processor@DV?$stream_output_adapter@D@__crt_stdio_output@@V?$format_validation_base@DV?$stream_output_adapter@D@__crt_stdio_output@@@2@@__crt_stdio_output@@AEAA_NXZ 00000001400256cc f i libucrt:output.obj
 0001:000246d4       ?state_case_dot@?$output_processor@DV?$stream_output_adapter@D@__crt_stdio_output@@V?$positional_parameter_base@DV?$stream_output_adapter@D@__crt_stdio_output@@@2@@__crt_stdio_output@@AEAA_NXZ 00000001400256d4 f i libucrt:output.obj
 0001:000246dc       ?state_case_dot@?$output_processor@DV?$stream_output_adapter@D@__crt_stdio_output@@V?$standard_base@DV?$stream_output_adapter@D@__crt_stdio_output@@@2@@__crt_stdio_output@@AEAA_NXZ 00000001400256dc f i libucrt:output.obj
 0001:000246e4       ?state_case_dot@?$output_processor@DV?$string_output_adapter@D@__crt_stdio_output@@V?$format_validation_base@DV?$string_output_adapter@D@__crt_stdio_output@@@2@@__crt_stdio_output@@AEAA_NXZ 00000001400256e4 f i libucrt:output.obj
 0001:000246ec       ?state_case_dot@?$output_processor@DV?$string_output_adapter@D@__crt_stdio_output@@V?$positional_parameter_base@DV?$string_output_adapter@D@__crt_stdio_output@@@2@@__crt_stdio_output@@AEAA_NXZ 00000001400256ec f i libucrt:output.obj
 0001:000246f4       ?state_case_dot@?$output_processor@DV?$string_output_adapter@D@__crt_stdio_output@@V?$standard_base@DV?$string_output_adapter@D@__crt_stdio_output@@@2@@__crt_stdio_output@@AEAA_NXZ 00000001400256f4 f i libucrt:output.obj
 0001:000246fc       ?state_case_dot@?$output_processor@_WV?$stream_output_adapter@_W@__crt_stdio_output@@V?$format_validation_base@_WV?$stream_output_adapter@_W@__crt_stdio_output@@@2@@__crt_stdio_output@@AEAA_NXZ 00000001400256fc f i libucrt:output.obj
 0001:00024704       ?state_case_dot@?$output_processor@_WV?$stream_output_adapter@_W@__crt_stdio_output@@V?$positional_parameter_base@_WV?$stream_output_adapter@_W@__crt_stdio_output@@@2@@__crt_stdio_output@@AEAA_NXZ 0000000140025704 f i libucrt:output.obj
 0001:0002470c       ?state_case_dot@?$output_processor@_WV?$stream_output_adapter@_W@__crt_stdio_output@@V?$standard_base@_WV?$stream_output_adapter@_W@__crt_stdio_output@@@2@@__crt_stdio_output@@AEAA_NXZ 000000014002570c f i libucrt:output.obj
 0001:00024714       ?state_case_dot@?$output_processor@_WV?$string_output_adapter@_W@__crt_stdio_output@@V?$format_validation_base@_WV?$string_output_adapter@_W@__crt_stdio_output@@@2@@__crt_stdio_output@@AEAA_NXZ 0000000140025714 f i libucrt:output.obj
 0001:0002471c       ?state_case_dot@?$output_processor@_WV?$string_output_adapter@_W@__crt_stdio_output@@V?$positional_parameter_base@_WV?$string_output_adapter@_W@__crt_stdio_output@@@2@@__crt_stdio_output@@AEAA_NXZ 000000014002571c f i libucrt:output.obj
 0001:00024724       ?state_case_dot@?$output_processor@_WV?$string_output_adapter@_W@__crt_stdio_output@@V?$standard_base@_WV?$string_output_adapter@_W@__crt_stdio_output@@@2@@__crt_stdio_output@@AEAA_NXZ 0000000140025724 f i libucrt:output.obj
 0001:0002472c       ?state_case_flag@?$output_processor@DV?$stream_output_adapter@D@__crt_stdio_output@@V?$format_validation_base@DV?$stream_output_adapter@D@__crt_stdio_output@@@2@@__crt_stdio_output@@AEAA_NXZ 000000014002572c f i libucrt:output.obj
 0001:00024764       ?state_case_flag@?$output_processor@DV?$stream_output_adapter@D@__crt_stdio_output@@V?$positional_parameter_base@DV?$stream_output_adapter@D@__crt_stdio_output@@@2@@__crt_stdio_output@@AEAA_NXZ 0000000140025764 f i libucrt:output.obj
 0001:0002479c       ?state_case_flag@?$output_processor@DV?$stream_output_adapter@D@__crt_stdio_output@@V?$standard_base@DV?$stream_output_adapter@D@__crt_stdio_output@@@2@@__crt_stdio_output@@AEAA_NXZ 000000014002579c f i libucrt:output.obj
 0001:000247d4       ?state_case_flag@?$output_processor@DV?$string_output_adapter@D@__crt_stdio_output@@V?$format_validation_base@DV?$string_output_adapter@D@__crt_stdio_output@@@2@@__crt_stdio_output@@AEAA_NXZ 00000001400257d4 f i libucrt:output.obj
 0001:0002480c       ?state_case_flag@?$output_processor@DV?$string_output_adapter@D@__crt_stdio_output@@V?$positional_parameter_base@DV?$string_output_adapter@D@__crt_stdio_output@@@2@@__crt_stdio_output@@AEAA_NXZ 000000014002580c f i libucrt:output.obj
 0001:00024844       ?state_case_flag@?$output_processor@DV?$string_output_adapter@D@__crt_stdio_output@@V?$standard_base@DV?$string_output_adapter@D@__crt_stdio_output@@@2@@__crt_stdio_output@@AEAA_NXZ 0000000140025844 f i libucrt:output.obj
 0001:0002487c       ?state_case_flag@?$output_processor@_WV?$stream_output_adapter@_W@__crt_stdio_output@@V?$format_validation_base@_WV?$stream_output_adapter@_W@__crt_stdio_output@@@2@@__crt_stdio_output@@AEAA_NXZ 000000014002587c f i libucrt:output.obj
 0001:000248c0       ?state_case_flag@?$output_processor@_WV?$stream_output_adapter@_W@__crt_stdio_output@@V?$positional_parameter_base@_WV?$stream_output_adapter@_W@__crt_stdio_output@@@2@@__crt_stdio_output@@AEAA_NXZ 00000001400258c0 f i libucrt:output.obj
 0001:00024904       ?state_case_flag@?$output_processor@_WV?$stream_output_adapter@_W@__crt_stdio_output@@V?$standard_base@_WV?$stream_output_adapter@_W@__crt_stdio_output@@@2@@__crt_stdio_output@@AEAA_NXZ 0000000140025904 f i libucrt:output.obj
 0001:00024948       ?state_case_flag@?$output_processor@_WV?$string_output_adapter@_W@__crt_stdio_output@@V?$format_validation_base@_WV?$string_output_adapter@_W@__crt_stdio_output@@@2@@__crt_stdio_output@@AEAA_NXZ 0000000140025948 f i libucrt:output.obj
 0001:0002498c       ?state_case_flag@?$output_processor@_WV?$string_output_adapter@_W@__crt_stdio_output@@V?$positional_parameter_base@_WV?$string_output_adapter@_W@__crt_stdio_output@@@2@@__crt_stdio_output@@AEAA_NXZ 000000014002598c f i libucrt:output.obj
 0001:000249d0       ?state_case_flag@?$output_processor@_WV?$string_output_adapter@_W@__crt_stdio_output@@V?$standard_base@_WV?$string_output_adapter@_W@__crt_stdio_output@@@2@@__crt_stdio_output@@AEAA_NXZ 00000001400259d0 f i libucrt:output.obj
 0001:00024a14       ?state_case_normal@?$output_processor@DV?$stream_output_adapter@D@__crt_stdio_output@@V?$format_validation_base@DV?$stream_output_adapter@D@__crt_stdio_output@@@2@@__crt_stdio_output@@AEAA_NXZ 0000000140025a14 f i libucrt:output.obj
 0001:00024b68       ?state_case_normal@?$output_processor@DV?$stream_output_adapter@D@__crt_stdio_output@@V?$positional_parameter_base@DV?$stream_output_adapter@D@__crt_stdio_output@@@2@@__crt_stdio_output@@AEAA_NXZ 0000000140025b68 f i libucrt:output.obj
 0001:00024ce8       ?state_case_normal@?$output_processor@DV?$stream_output_adapter@D@__crt_stdio_output@@V?$standard_base@DV?$stream_output_adapter@D@__crt_stdio_output@@@2@@__crt_stdio_output@@AEAA_NXZ 0000000140025ce8 f i libucrt:output.obj
 0001:00024e3c       ?state_case_normal@?$output_processor@DV?$string_output_adapter@D@__crt_stdio_output@@V?$format_validation_base@DV?$string_output_adapter@D@__crt_stdio_output@@@2@@__crt_stdio_output@@AEAA_NXZ 0000000140025e3c f i libucrt:output.obj
 0001:00024f88       ?state_case_normal@?$output_processor@DV?$string_output_adapter@D@__crt_stdio_output@@V?$positional_parameter_base@DV?$string_output_adapter@D@__crt_stdio_output@@@2@@__crt_stdio_output@@AEAA_NXZ 0000000140025f88 f i libucrt:output.obj
 0001:00025100       ?state_case_normal@?$output_processor@DV?$string_output_adapter@D@__crt_stdio_output@@V?$standard_base@DV?$string_output_adapter@D@__crt_stdio_output@@@2@@__crt_stdio_output@@AEAA_NXZ 0000000140026100 f i libucrt:output.obj
 0001:0002524c       ?state_case_normal@?$output_processor@_WV?$stream_output_adapter@_W@__crt_stdio_output@@V?$format_validation_base@_WV?$stream_output_adapter@_W@__crt_stdio_output@@@2@@__crt_stdio_output@@AEAA_NXZ 000000014002624c f i libucrt:output.obj
 0001:000252ac       ?state_case_normal@?$output_processor@_WV?$stream_output_adapter@_W@__crt_stdio_output@@V?$positional_parameter_base@_WV?$stream_output_adapter@_W@__crt_stdio_output@@@2@@__crt_stdio_output@@AEAA_NXZ 00000001400262ac f i libucrt:output.obj
 0001:00025330       ?state_case_normal@?$output_processor@_WV?$stream_output_adapter@_W@__crt_stdio_output@@V?$standard_base@_WV?$stream_output_adapter@_W@__crt_stdio_output@@@2@@__crt_stdio_output@@AEAA_NXZ 0000000140026330 f i libucrt:output.obj
 0001:00025390       ?state_case_normal@?$output_processor@_WV?$string_output_adapter@_W@__crt_stdio_output@@V?$format_validation_base@_WV?$string_output_adapter@_W@__crt_stdio_output@@@2@@__crt_stdio_output@@AEAA_NXZ 0000000140026390 f i libucrt:output.obj
 0001:000253e4       ?state_case_normal@?$output_processor@_WV?$string_output_adapter@_W@__crt_stdio_output@@V?$positional_parameter_base@_WV?$string_output_adapter@_W@__crt_stdio_output@@@2@@__crt_stdio_output@@AEAA_NXZ 00000001400263e4 f i libucrt:output.obj
 0001:0002545c       ?state_case_normal@?$output_processor@_WV?$string_output_adapter@_W@__crt_stdio_output@@V?$standard_base@_WV?$string_output_adapter@_W@__crt_stdio_output@@@2@@__crt_stdio_output@@AEAA_NXZ 000000014002645c f i libucrt:output.obj
 0001:000254b0       ?state_case_normal_common@?$output_processor@DV?$stream_output_adapter@D@__crt_stdio_output@@V?$format_validation_base@DV?$stream_output_adapter@D@__crt_stdio_output@@@2@@__crt_stdio_output@@AEAA_NXZ 00000001400264b0 f i libucrt:output.obj
 0001:000255dc       ?state_case_normal_common@?$output_processor@DV?$stream_output_adapter@D@__crt_stdio_output@@V?$positional_parameter_base@DV?$stream_output_adapter@D@__crt_stdio_output@@@2@@__crt_stdio_output@@AEAA_NXZ 00000001400265dc f i libucrt:output.obj
 0001:00025708       ?state_case_normal_common@?$output_processor@DV?$stream_output_adapter@D@__crt_stdio_output@@V?$standard_base@DV?$stream_output_adapter@D@__crt_stdio_output@@@2@@__crt_stdio_output@@AEAA_NXZ 0000000140026708 f i libucrt:output.obj
 0001:00025834       ?state_case_normal_common@?$output_processor@DV?$string_output_adapter@D@__crt_stdio_output@@V?$format_validation_base@DV?$string_output_adapter@D@__crt_stdio_output@@@2@@__crt_stdio_output@@AEAA_NXZ 0000000140026834 f i libucrt:output.obj
 0001:00025958       ?state_case_normal_common@?$output_processor@DV?$string_output_adapter@D@__crt_stdio_output@@V?$positional_parameter_base@DV?$string_output_adapter@D@__crt_stdio_output@@@2@@__crt_stdio_output@@AEAA_NXZ 0000000140026958 f i libucrt:output.obj
 0001:00025a7c       ?state_case_normal_common@?$output_processor@DV?$string_output_adapter@D@__crt_stdio_output@@V?$standard_base@DV?$string_output_adapter@D@__crt_stdio_output@@@2@@__crt_stdio_output@@AEAA_NXZ 0000000140026a7c f i libucrt:output.obj
 0001:00025ba0       ?state_case_normal_common@?$output_processor@_WV?$stream_output_adapter@_W@__crt_stdio_output@@V?$format_validation_base@_WV?$stream_output_adapter@_W@__crt_stdio_output@@@2@@__crt_stdio_output@@AEAA_NXZ 0000000140026ba0 f i libucrt:output.obj
 0001:00025c00       ?state_case_normal_common@?$output_processor@_WV?$stream_output_adapter@_W@__crt_stdio_output@@V?$positional_parameter_base@_WV?$stream_output_adapter@_W@__crt_stdio_output@@@2@@__crt_stdio_output@@AEAA_NXZ 0000000140026c00 f i libucrt:output.obj
 0001:00025c60       ?state_case_normal_common@?$output_processor@_WV?$stream_output_adapter@_W@__crt_stdio_output@@V?$standard_base@_WV?$stream_output_adapter@_W@__crt_stdio_output@@@2@@__crt_stdio_output@@AEAA_NXZ 0000000140026c60 f i libucrt:output.obj
 0001:00025cc0       ?state_case_normal_common@?$output_processor@_WV?$string_output_adapter@_W@__crt_stdio_output@@V?$format_validation_base@_WV?$string_output_adapter@_W@__crt_stdio_output@@@2@@__crt_stdio_output@@AEAA_NXZ 0000000140026cc0 f i libucrt:output.obj
 0001:00025d14       ?state_case_normal_common@?$output_processor@_WV?$string_output_adapter@_W@__crt_stdio_output@@V?$positional_parameter_base@_WV?$string_output_adapter@_W@__crt_stdio_output@@@2@@__crt_stdio_output@@AEAA_NXZ 0000000140026d14 f i libucrt:output.obj
 0001:00025d68       ?state_case_normal_common@?$output_processor@_WV?$string_output_adapter@_W@__crt_stdio_output@@V?$standard_base@_WV?$string_output_adapter@_W@__crt_stdio_output@@@2@@__crt_stdio_output@@AEAA_NXZ 0000000140026d68 f i libucrt:output.obj
 0001:00025dbc       ?state_case_normal_tchar@?$output_processor@DV?$stream_output_adapter@D@__crt_stdio_output@@V?$format_validation_base@DV?$stream_output_adapter@D@__crt_stdio_output@@@2@@__crt_stdio_output@@AEAA_ND@Z 0000000140026dbc f i libucrt:output.obj
 0001:00025e9c       ?state_case_normal_tchar@?$output_processor@DV?$stream_output_adapter@D@__crt_stdio_output@@V?$positional_parameter_base@DV?$stream_output_adapter@D@__crt_stdio_output@@@2@@__crt_stdio_output@@AEAA_ND@Z 0000000140026e9c f i libucrt:output.obj
 0001:00025f7c       ?state_case_normal_tchar@?$output_processor@DV?$stream_output_adapter@D@__crt_stdio_output@@V?$standard_base@DV?$stream_output_adapter@D@__crt_stdio_output@@@2@@__crt_stdio_output@@AEAA_ND@Z 0000000140026f7c f i libucrt:output.obj
 0001:0002605c       ?state_case_normal_tchar@?$output_processor@DV?$string_output_adapter@D@__crt_stdio_output@@V?$format_validation_base@DV?$string_output_adapter@D@__crt_stdio_output@@@2@@__crt_stdio_output@@AEAA_ND@Z 000000014002705c f i libucrt:output.obj
 0001:00026138       ?state_case_normal_tchar@?$output_processor@DV?$string_output_adapter@D@__crt_stdio_output@@V?$positional_parameter_base@DV?$string_output_adapter@D@__crt_stdio_output@@@2@@__crt_stdio_output@@AEAA_ND@Z 0000000140027138 f i libucrt:output.obj
 0001:00026214       ?state_case_normal_tchar@?$output_processor@DV?$string_output_adapter@D@__crt_stdio_output@@V?$standard_base@DV?$string_output_adapter@D@__crt_stdio_output@@@2@@__crt_stdio_output@@AEAA_ND@Z 0000000140027214 f i libucrt:output.obj
 0001:000262f0       ?state_case_normal_tchar@?$output_processor@_WV?$stream_output_adapter@_W@__crt_stdio_output@@V?$format_validation_base@_WV?$stream_output_adapter@_W@__crt_stdio_output@@@2@@__crt_stdio_output@@AEAA_N_W@Z 00000001400272f0 f i libucrt:output.obj
 0001:000262f8       ?state_case_normal_tchar@?$output_processor@_WV?$stream_output_adapter@_W@__crt_stdio_output@@V?$positional_parameter_base@_WV?$stream_output_adapter@_W@__crt_stdio_output@@@2@@__crt_stdio_output@@AEAA_N_W@Z 00000001400272f8 f i libucrt:output.obj
 0001:00026300       ?state_case_normal_tchar@?$output_processor@_WV?$stream_output_adapter@_W@__crt_stdio_output@@V?$standard_base@_WV?$stream_output_adapter@_W@__crt_stdio_output@@@2@@__crt_stdio_output@@AEAA_N_W@Z 0000000140027300 f i libucrt:output.obj
 0001:00026308       ?state_case_normal_tchar@?$output_processor@_WV?$string_output_adapter@_W@__crt_stdio_output@@V?$format_validation_base@_WV?$string_output_adapter@_W@__crt_stdio_output@@@2@@__crt_stdio_output@@AEAA_N_W@Z 0000000140027308 f i libucrt:output.obj
 0001:00026310       ?state_case_normal_tchar@?$output_processor@_WV?$string_output_adapter@_W@__crt_stdio_output@@V?$positional_parameter_base@_WV?$string_output_adapter@_W@__crt_stdio_output@@@2@@__crt_stdio_output@@AEAA_N_W@Z 0000000140027310 f i libucrt:output.obj
 0001:00026318       ?state_case_normal_tchar@?$output_processor@_WV?$string_output_adapter@_W@__crt_stdio_output@@V?$standard_base@_WV?$string_output_adapter@_W@__crt_stdio_output@@@2@@__crt_stdio_output@@AEAA_N_W@Z 0000000140027318 f i libucrt:output.obj
 0001:00026320       ?state_case_percent@?$output_processor@DV?$stream_output_adapter@D@__crt_stdio_output@@V?$format_validation_base@DV?$stream_output_adapter@D@__crt_stdio_output@@@2@@__crt_stdio_output@@AEAA_NXZ 0000000140027320 f i libucrt:output.obj
 0001:00026338       ?state_case_percent@?$output_processor@DV?$stream_output_adapter@D@__crt_stdio_output@@V?$positional_parameter_base@DV?$stream_output_adapter@D@__crt_stdio_output@@@2@@__crt_stdio_output@@AEAA_NXZ 0000000140027338 f i libucrt:output.obj
 0001:00026350       ?state_case_percent@?$output_processor@DV?$stream_output_adapter@D@__crt_stdio_output@@V?$standard_base@DV?$stream_output_adapter@D@__crt_stdio_output@@@2@@__crt_stdio_output@@AEAA_NXZ 0000000140027350 f i libucrt:output.obj
 0001:00026368       ?state_case_percent@?$output_processor@DV?$string_output_adapter@D@__crt_stdio_output@@V?$format_validation_base@DV?$string_output_adapter@D@__crt_stdio_output@@@2@@__crt_stdio_output@@AEAA_NXZ 0000000140027368 f i libucrt:output.obj
 0001:00026380       ?state_case_percent@?$output_processor@DV?$string_output_adapter@D@__crt_stdio_output@@V?$positional_parameter_base@DV?$string_output_adapter@D@__crt_stdio_output@@@2@@__crt_stdio_output@@AEAA_NXZ 0000000140027380 f i libucrt:output.obj
 0001:00026398       ?state_case_percent@?$output_processor@DV?$string_output_adapter@D@__crt_stdio_output@@V?$standard_base@DV?$string_output_adapter@D@__crt_stdio_output@@@2@@__crt_stdio_output@@AEAA_NXZ 0000000140027398 f i libucrt:output.obj
 0001:000263b0       ?state_case_percent@?$output_processor@_WV?$stream_output_adapter@_W@__crt_stdio_output@@V?$format_validation_base@_WV?$stream_output_adapter@_W@__crt_stdio_output@@@2@@__crt_stdio_output@@AEAA_NXZ 00000001400273b0 f i libucrt:output.obj
 0001:000263c8       ?state_case_percent@?$output_processor@_WV?$stream_output_adapter@_W@__crt_stdio_output@@V?$positional_parameter_base@_WV?$stream_output_adapter@_W@__crt_stdio_output@@@2@@__crt_stdio_output@@AEAA_NXZ 00000001400273c8 f i libucrt:output.obj
 0001:000263e0       ?state_case_percent@?$output_processor@_WV?$stream_output_adapter@_W@__crt_stdio_output@@V?$standard_base@_WV?$stream_output_adapter@_W@__crt_stdio_output@@@2@@__crt_stdio_output@@AEAA_NXZ 00000001400273e0 f i libucrt:output.obj
 0001:000263f8       ?state_case_percent@?$output_processor@_WV?$string_output_adapter@_W@__crt_stdio_output@@V?$format_validation_base@_WV?$string_output_adapter@_W@__crt_stdio_output@@@2@@__crt_stdio_output@@AEAA_NXZ 00000001400273f8 f i libucrt:output.obj
 0001:00026410       ?state_case_percent@?$output_processor@_WV?$string_output_adapter@_W@__crt_stdio_output@@V?$positional_parameter_base@_WV?$string_output_adapter@_W@__crt_stdio_output@@@2@@__crt_stdio_output@@AEAA_NXZ 0000000140027410 f i libucrt:output.obj
 0001:00026428       ?state_case_percent@?$output_processor@_WV?$string_output_adapter@_W@__crt_stdio_output@@V?$standard_base@_WV?$string_output_adapter@_W@__crt_stdio_output@@@2@@__crt_stdio_output@@AEAA_NXZ 0000000140027428 f i libucrt:output.obj
 0001:00026440       ?state_case_precision@?$output_processor@DV?$stream_output_adapter@D@__crt_stdio_output@@V?$format_validation_base@DV?$stream_output_adapter@D@__crt_stdio_output@@@2@@__crt_stdio_output@@AEAA_NXZ 0000000140027440 f i libucrt:output.obj
 0001:00026470       ?state_case_precision@?$output_processor@DV?$stream_output_adapter@D@__crt_stdio_output@@V?$positional_parameter_base@DV?$stream_output_adapter@D@__crt_stdio_output@@@2@@__crt_stdio_output@@AEAA_NXZ 0000000140027470 f i libucrt:output.obj
 0001:000264bc       ?state_case_precision@?$output_processor@DV?$stream_output_adapter@D@__crt_stdio_output@@V?$standard_base@DV?$stream_output_adapter@D@__crt_stdio_output@@@2@@__crt_stdio_output@@AEAA_NXZ 00000001400274bc f i libucrt:output.obj
 0001:000264ec       ?state_case_precision@?$output_processor@DV?$string_output_adapter@D@__crt_stdio_output@@V?$format_validation_base@DV?$string_output_adapter@D@__crt_stdio_output@@@2@@__crt_stdio_output@@AEAA_NXZ 00000001400274ec f i libucrt:output.obj
 0001:0002651c       ?state_case_precision@?$output_processor@DV?$string_output_adapter@D@__crt_stdio_output@@V?$positional_parameter_base@DV?$string_output_adapter@D@__crt_stdio_output@@@2@@__crt_stdio_output@@AEAA_NXZ 000000014002751c f i libucrt:output.obj
 0001:00026568       ?state_case_precision@?$output_processor@DV?$string_output_adapter@D@__crt_stdio_output@@V?$standard_base@DV?$string_output_adapter@D@__crt_stdio_output@@@2@@__crt_stdio_output@@AEAA_NXZ 0000000140027568 f i libucrt:output.obj
 0001:00026598       ?state_case_precision@?$output_processor@_WV?$stream_output_adapter@_W@__crt_stdio_output@@V?$format_validation_base@_WV?$stream_output_adapter@_W@__crt_stdio_output@@@2@@__crt_stdio_output@@AEAA_NXZ 0000000140027598 f i libucrt:output.obj
 0001:000265cc       ?state_case_precision@?$output_processor@_WV?$stream_output_adapter@_W@__crt_stdio_output@@V?$positional_parameter_base@_WV?$stream_output_adapter@_W@__crt_stdio_output@@@2@@__crt_stdio_output@@AEAA_NXZ 00000001400275cc f i libucrt:output.obj
 0001:00026618       ?state_case_precision@?$output_processor@_WV?$stream_output_adapter@_W@__crt_stdio_output@@V?$standard_base@_WV?$stream_output_adapter@_W@__crt_stdio_output@@@2@@__crt_stdio_output@@AEAA_NXZ 0000000140027618 f i libucrt:output.obj
 0001:0002664c       ?state_case_precision@?$output_processor@_WV?$string_output_adapter@_W@__crt_stdio_output@@V?$format_validation_base@_WV?$string_output_adapter@_W@__crt_stdio_output@@@2@@__crt_stdio_output@@AEAA_NXZ 000000014002764c f i libucrt:output.obj
 0001:00026680       ?state_case_precision@?$output_processor@_WV?$string_output_adapter@_W@__crt_stdio_output@@V?$positional_parameter_base@_WV?$string_output_adapter@_W@__crt_stdio_output@@@2@@__crt_stdio_output@@AEAA_NXZ 0000000140027680 f i libucrt:output.obj
 0001:000266cc       ?state_case_precision@?$output_processor@_WV?$string_output_adapter@_W@__crt_stdio_output@@V?$standard_base@_WV?$string_output_adapter@_W@__crt_stdio_output@@@2@@__crt_stdio_output@@AEAA_NXZ 00000001400276cc f i libucrt:output.obj
 0001:00026700       ?state_case_size@?$output_processor@DV?$stream_output_adapter@D@__crt_stdio_output@@V?$format_validation_base@DV?$stream_output_adapter@D@__crt_stdio_output@@@2@@__crt_stdio_output@@AEAA_NXZ 0000000140027700 f i libucrt:output.obj
 0001:00026888       ?state_case_size@?$output_processor@DV?$stream_output_adapter@D@__crt_stdio_output@@V?$positional_parameter_base@DV?$stream_output_adapter@D@__crt_stdio_output@@@2@@__crt_stdio_output@@AEAA_NXZ 0000000140027888 f i libucrt:output.obj
 0001:00026a10       ?state_case_size@?$output_processor@DV?$stream_output_adapter@D@__crt_stdio_output@@V?$standard_base@DV?$stream_output_adapter@D@__crt_stdio_output@@@2@@__crt_stdio_output@@AEAA_NXZ 0000000140027a10 f i libucrt:output.obj
 0001:00026b98       ?state_case_size@?$output_processor@DV?$string_output_adapter@D@__crt_stdio_output@@V?$format_validation_base@DV?$string_output_adapter@D@__crt_stdio_output@@@2@@__crt_stdio_output@@AEAA_NXZ 0000000140027b98 f i libucrt:output.obj
 0001:00026d20       ?state_case_size@?$output_processor@DV?$string_output_adapter@D@__crt_stdio_output@@V?$positional_parameter_base@DV?$string_output_adapter@D@__crt_stdio_output@@@2@@__crt_stdio_output@@AEAA_NXZ 0000000140027d20 f i libucrt:output.obj
 0001:00026ea8       ?state_case_size@?$output_processor@DV?$string_output_adapter@D@__crt_stdio_output@@V?$standard_base@DV?$string_output_adapter@D@__crt_stdio_output@@@2@@__crt_stdio_output@@AEAA_NXZ 0000000140027ea8 f i libucrt:output.obj
 0001:00027030       ?state_case_size@?$output_processor@_WV?$stream_output_adapter@_W@__crt_stdio_output@@V?$format_validation_base@_WV?$stream_output_adapter@_W@__crt_stdio_output@@@2@@__crt_stdio_output@@AEAA_NXZ 0000000140028030 f i libucrt:output.obj
 0001:000271e0       ?state_case_size@?$output_processor@_WV?$stream_output_adapter@_W@__crt_stdio_output@@V?$positional_parameter_base@_WV?$stream_output_adapter@_W@__crt_stdio_output@@@2@@__crt_stdio_output@@AEAA_NXZ 00000001400281e0 f i libucrt:output.obj
 0001:00027390       ?state_case_size@?$output_processor@_WV?$stream_output_adapter@_W@__crt_stdio_output@@V?$standard_base@_WV?$stream_output_adapter@_W@__crt_stdio_output@@@2@@__crt_stdio_output@@AEAA_NXZ 0000000140028390 f i libucrt:output.obj
 0001:00027540       ?state_case_size@?$output_processor@_WV?$string_output_adapter@_W@__crt_stdio_output@@V?$format_validation_base@_WV?$string_output_adapter@_W@__crt_stdio_output@@@2@@__crt_stdio_output@@AEAA_NXZ 0000000140028540 f i libucrt:output.obj
 0001:000276f0       ?state_case_size@?$output_processor@_WV?$string_output_adapter@_W@__crt_stdio_output@@V?$positional_parameter_base@_WV?$string_output_adapter@_W@__crt_stdio_output@@@2@@__crt_stdio_output@@AEAA_NXZ 00000001400286f0 f i libucrt:output.obj
 0001:000278a0       ?state_case_size@?$output_processor@_WV?$string_output_adapter@_W@__crt_stdio_output@@V?$standard_base@_WV?$string_output_adapter@_W@__crt_stdio_output@@@2@@__crt_stdio_output@@AEAA_NXZ 00000001400288a0 f i libucrt:output.obj
 0001:00027a50       ?state_case_type@?$output_processor@DV?$stream_output_adapter@D@__crt_stdio_output@@V?$format_validation_base@DV?$stream_output_adapter@D@__crt_stdio_output@@@2@@__crt_stdio_output@@AEAA_NXZ 0000000140028a50 f i libucrt:output.obj
 0001:00027e88       ?state_case_type@?$output_processor@DV?$stream_output_adapter@D@__crt_stdio_output@@V?$positional_parameter_base@DV?$stream_output_adapter@D@__crt_stdio_output@@@2@@__crt_stdio_output@@AEAA_NXZ 0000000140028e88 f i libucrt:output.obj
 0001:000282f0       ?state_case_type@?$output_processor@DV?$stream_output_adapter@D@__crt_stdio_output@@V?$standard_base@DV?$stream_output_adapter@D@__crt_stdio_output@@@2@@__crt_stdio_output@@AEAA_NXZ 00000001400292f0 f i libucrt:output.obj
 0001:00028728       ?state_case_type@?$output_processor@DV?$string_output_adapter@D@__crt_stdio_output@@V?$format_validation_base@DV?$string_output_adapter@D@__crt_stdio_output@@@2@@__crt_stdio_output@@AEAA_NXZ 0000000140029728 f i libucrt:output.obj
 0001:00028b2c       ?state_case_type@?$output_processor@DV?$string_output_adapter@D@__crt_stdio_output@@V?$positional_parameter_base@DV?$string_output_adapter@D@__crt_stdio_output@@@2@@__crt_stdio_output@@AEAA_NXZ 0000000140029b2c f i libucrt:output.obj
 0001:00028f44       ?state_case_type@?$output_processor@DV?$string_output_adapter@D@__crt_stdio_output@@V?$standard_base@DV?$string_output_adapter@D@__crt_stdio_output@@@2@@__crt_stdio_output@@AEAA_NXZ 0000000140029f44 f i libucrt:output.obj
 0001:00029348       ?state_case_type@?$output_processor@_WV?$stream_output_adapter@_W@__crt_stdio_output@@V?$format_validation_base@_WV?$stream_output_adapter@_W@__crt_stdio_output@@@2@@__crt_stdio_output@@AEAA_NXZ 000000014002a348 f i libucrt:output.obj
 0001:0002980c       ?state_case_type@?$output_processor@_WV?$stream_output_adapter@_W@__crt_stdio_output@@V?$positional_parameter_base@_WV?$stream_output_adapter@_W@__crt_stdio_output@@@2@@__crt_stdio_output@@AEAA_NXZ 000000014002a80c f i libucrt:output.obj
 0001:00029ce8       ?state_case_type@?$output_processor@_WV?$stream_output_adapter@_W@__crt_stdio_output@@V?$standard_base@_WV?$stream_output_adapter@_W@__crt_stdio_output@@@2@@__crt_stdio_output@@AEAA_NXZ 000000014002ace8 f i libucrt:output.obj
 0001:0002a1ac       ?state_case_type@?$output_processor@_WV?$string_output_adapter@_W@__crt_stdio_output@@V?$format_validation_base@_WV?$string_output_adapter@_W@__crt_stdio_output@@@2@@__crt_stdio_output@@AEAA_NXZ 000000014002b1ac f i libucrt:output.obj
 0001:0002a610       ?state_case_type@?$output_processor@_WV?$string_output_adapter@_W@__crt_stdio_output@@V?$positional_parameter_base@_WV?$string_output_adapter@_W@__crt_stdio_output@@@2@@__crt_stdio_output@@AEAA_NXZ 000000014002b610 f i libucrt:output.obj
 0001:0002aaa0       ?state_case_type@?$output_processor@_WV?$string_output_adapter@_W@__crt_stdio_output@@V?$standard_base@_WV?$string_output_adapter@_W@__crt_stdio_output@@@2@@__crt_stdio_output@@AEAA_NXZ 000000014002baa0 f i libucrt:output.obj
 0001:0002af04       ?state_case_width@?$output_processor@DV?$stream_output_adapter@D@__crt_stdio_output@@V?$format_validation_base@DV?$stream_output_adapter@D@__crt_stdio_output@@@2@@__crt_stdio_output@@AEAA_NXZ 000000014002bf04 f i libucrt:output.obj
 0001:0002af38       ?state_case_width@?$output_processor@DV?$stream_output_adapter@D@__crt_stdio_output@@V?$positional_parameter_base@DV?$stream_output_adapter@D@__crt_stdio_output@@@2@@__crt_stdio_output@@AEAA_NXZ 000000014002bf38 f i libucrt:output.obj
 0001:0002af88       ?state_case_width@?$output_processor@DV?$stream_output_adapter@D@__crt_stdio_output@@V?$standard_base@DV?$stream_output_adapter@D@__crt_stdio_output@@@2@@__crt_stdio_output@@AEAA_NXZ 000000014002bf88 f i libucrt:output.obj
 0001:0002afbc       ?state_case_width@?$output_processor@DV?$string_output_adapter@D@__crt_stdio_output@@V?$format_validation_base@DV?$string_output_adapter@D@__crt_stdio_output@@@2@@__crt_stdio_output@@AEAA_NXZ 000000014002bfbc f i libucrt:output.obj
 0001:0002aff0       ?state_case_width@?$output_processor@DV?$string_output_adapter@D@__crt_stdio_output@@V?$positional_parameter_base@DV?$string_output_adapter@D@__crt_stdio_output@@@2@@__crt_stdio_output@@AEAA_NXZ 000000014002bff0 f i libucrt:output.obj
 0001:0002b040       ?state_case_width@?$output_processor@DV?$string_output_adapter@D@__crt_stdio_output@@V?$standard_base@DV?$string_output_adapter@D@__crt_stdio_output@@@2@@__crt_stdio_output@@AEAA_NXZ 000000014002c040 f i libucrt:output.obj
 0001:0002b074       ?state_case_width@?$output_processor@_WV?$stream_output_adapter@_W@__crt_stdio_output@@V?$format_validation_base@_WV?$stream_output_adapter@_W@__crt_stdio_output@@@2@@__crt_stdio_output@@AEAA_NXZ 000000014002c074 f i libucrt:output.obj
 0001:0002b0a8       ?state_case_width@?$output_processor@_WV?$stream_output_adapter@_W@__crt_stdio_output@@V?$positional_parameter_base@_WV?$stream_output_adapter@_W@__crt_stdio_output@@@2@@__crt_stdio_output@@AEAA_NXZ 000000014002c0a8 f i libucrt:output.obj
 0001:0002b0fc       ?state_case_width@?$output_processor@_WV?$stream_output_adapter@_W@__crt_stdio_output@@V?$standard_base@_WV?$stream_output_adapter@_W@__crt_stdio_output@@@2@@__crt_stdio_output@@AEAA_NXZ 000000014002c0fc f i libucrt:output.obj
 0001:0002b130       ?state_case_width@?$output_processor@_WV?$string_output_adapter@_W@__crt_stdio_output@@V?$format_validation_base@_WV?$string_output_adapter@_W@__crt_stdio_output@@@2@@__crt_stdio_output@@AEAA_NXZ 000000014002c130 f i libucrt:output.obj
 0001:0002b164       ?state_case_width@?$output_processor@_WV?$string_output_adapter@_W@__crt_stdio_output@@V?$positional_parameter_base@_WV?$string_output_adapter@_W@__crt_stdio_output@@@2@@__crt_stdio_output@@AEAA_NXZ 000000014002c164 f i libucrt:output.obj
 0001:0002b1b8       ?state_case_width@?$output_processor@_WV?$string_output_adapter@_W@__crt_stdio_output@@V?$standard_base@_WV?$string_output_adapter@_W@__crt_stdio_output@@@2@@__crt_stdio_output@@AEAA_NXZ 000000014002c1b8 f i libucrt:output.obj
 0001:0002b1ec       ?state_count@?$format_validation_base@DV?$stream_output_adapter@D@__crt_stdio_output@@@__crt_stdio_output@@KAIXZ 000000014002c1ec f i libucrt:output.obj
 0001:0002b1f4       ?state_count@?$format_validation_base@DV?$string_output_adapter@D@__crt_stdio_output@@@__crt_stdio_output@@KAIXZ 000000014002c1f4 f i libucrt:output.obj
 0001:0002b1fc       ?state_count@?$format_validation_base@_WV?$stream_output_adapter@_W@__crt_stdio_output@@@__crt_stdio_output@@KAIXZ 000000014002c1fc f i libucrt:output.obj
 0001:0002b204       ?state_count@?$format_validation_base@_WV?$string_output_adapter@_W@__crt_stdio_output@@@__crt_stdio_output@@KAIXZ 000000014002c204 f i libucrt:output.obj
 0001:0002b20c       ?state_count@?$standard_base@DV?$stream_output_adapter@D@__crt_stdio_output@@@__crt_stdio_output@@KAIXZ 000000014002c20c f i libucrt:output.obj
 0001:0002b214       ?state_count@?$standard_base@DV?$string_output_adapter@D@__crt_stdio_output@@@__crt_stdio_output@@KAIXZ 000000014002c214 f i libucrt:output.obj
 0001:0002b21c       ?state_count@?$standard_base@_WV?$stream_output_adapter@_W@__crt_stdio_output@@@__crt_stdio_output@@KAIXZ 000000014002c21c f i libucrt:output.obj
 0001:0002b224       ?state_count@?$standard_base@_WV?$string_output_adapter@_W@__crt_stdio_output@@@__crt_stdio_output@@KAIXZ 000000014002c224 f i libucrt:output.obj
 0001:0002b22c       ?state_transition_table@?$format_validation_base@DV?$stream_output_adapter@D@__crt_stdio_output@@@__crt_stdio_output@@KAAEBV?$spectre_mitigated_lookup_table@Ustate_transition_pair@__crt_stdio_output@@$0IA@@2@XZ 000000014002c22c f i libucrt:output.obj
 0001:0002b234       ?state_transition_table@?$format_validation_base@DV?$string_output_adapter@D@__crt_stdio_output@@@__crt_stdio_output@@KAAEBV?$spectre_mitigated_lookup_table@Ustate_transition_pair@__crt_stdio_output@@$0IA@@2@XZ 000000014002c234 f i libucrt:output.obj
 0001:0002b23c       ?state_transition_table@?$format_validation_base@_WV?$stream_output_adapter@_W@__crt_stdio_output@@@__crt_stdio_output@@KAAEBV?$spectre_mitigated_lookup_table@Ustate_transition_pair@__crt_stdio_output@@$0IA@@2@XZ 000000014002c23c f i libucrt:output.obj
 0001:0002b244       ?state_transition_table@?$format_validation_base@_WV?$string_output_adapter@_W@__crt_stdio_output@@@__crt_stdio_output@@KAAEBV?$spectre_mitigated_lookup_table@Ustate_transition_pair@__crt_stdio_output@@$0IA@@2@XZ 000000014002c244 f i libucrt:output.obj
 0001:0002b24c       ?state_transition_table@?$standard_base@DV?$stream_output_adapter@D@__crt_stdio_output@@@__crt_stdio_output@@KAAEBV?$spectre_mitigated_lookup_table@Ustate_transition_pair@__crt_stdio_output@@$0IA@@2@XZ 000000014002c24c f i libucrt:output.obj
 0001:0002b254       ?state_transition_table@?$standard_base@DV?$string_output_adapter@D@__crt_stdio_output@@@__crt_stdio_output@@KAAEBV?$spectre_mitigated_lookup_table@Ustate_transition_pair@__crt_stdio_output@@$0IA@@2@XZ 000000014002c254 f i libucrt:output.obj
 0001:0002b25c       ?state_transition_table@?$standard_base@_WV?$stream_output_adapter@_W@__crt_stdio_output@@@__crt_stdio_output@@KAAEBV?$spectre_mitigated_lookup_table@Ustate_transition_pair@__crt_stdio_output@@$0IA@@2@XZ 000000014002c25c f i libucrt:output.obj
 0001:0002b264       ?state_transition_table@?$standard_base@_WV?$string_output_adapter@_W@__crt_stdio_output@@@__crt_stdio_output@@KAAEBV?$spectre_mitigated_lookup_table@Ustate_transition_pair@__crt_stdio_output@@$0IA@@2@XZ 000000014002c264 f i libucrt:output.obj
 0001:0002b26c       ?tchar_string@?$common_data@D@__crt_stdio_output@@IEAAAEAPEADD@Z 000000014002c26c f i libucrt:output.obj
 0001:0002b274       ?tchar_string@?$common_data@D@__crt_stdio_output@@IEAAAEAPEADXZ 000000014002c274 f i libucrt:output.obj
 0001:0002b27c       ?tchar_string@?$common_data@_W@__crt_stdio_output@@IEAAAEAPEA_WXZ 000000014002c27c f i libucrt:output.obj
 0001:0002b284       ?tchar_string@?$common_data@_W@__crt_stdio_output@@IEAAAEAPEA_W_W@Z 000000014002c284 f i libucrt:output.obj
 0001:0002b28c       ?to_integer_size@__crt_stdio_output@@YA_KW4length_modifier@1@@Z 000000014002c28c f i libucrt:output.obj
 0001:0002b2d4       ?type_case_X@?$output_processor@DV?$stream_output_adapter@D@__crt_stdio_output@@V?$format_validation_base@DV?$stream_output_adapter@D@__crt_stdio_output@@@2@@__crt_stdio_output@@AEAA_NXZ 000000014002c2d4 f i libucrt:output.obj
 0001:0002b2dc       ?type_case_X@?$output_processor@DV?$stream_output_adapter@D@__crt_stdio_output@@V?$positional_parameter_base@DV?$stream_output_adapter@D@__crt_stdio_output@@@2@@__crt_stdio_output@@AEAA_NXZ 000000014002c2dc f i libucrt:output.obj
 0001:0002b2e4       ?type_case_X@?$output_processor@DV?$stream_output_adapter@D@__crt_stdio_output@@V?$standard_base@DV?$stream_output_adapter@D@__crt_stdio_output@@@2@@__crt_stdio_output@@AEAA_NXZ 000000014002c2e4 f i libucrt:output.obj
 0001:0002b2ec       ?type_case_X@?$output_processor@DV?$string_output_adapter@D@__crt_stdio_output@@V?$format_validation_base@DV?$string_output_adapter@D@__crt_stdio_output@@@2@@__crt_stdio_output@@AEAA_NXZ 000000014002c2ec f i libucrt:output.obj
 0001:0002b2f4       ?type_case_X@?$output_processor@DV?$string_output_adapter@D@__crt_stdio_output@@V?$positional_parameter_base@DV?$string_output_adapter@D@__crt_stdio_output@@@2@@__crt_stdio_output@@AEAA_NXZ 000000014002c2f4 f i libucrt:output.obj
 0001:0002b2fc       ?type_case_X@?$output_processor@DV?$string_output_adapter@D@__crt_stdio_output@@V?$standard_base@DV?$string_output_adapter@D@__crt_stdio_output@@@2@@__crt_stdio_output@@AEAA_NXZ 000000014002c2fc f i libucrt:output.obj
 0001:0002b304       ?type_case_X@?$output_processor@_WV?$stream_output_adapter@_W@__crt_stdio_output@@V?$format_validation_base@_WV?$stream_output_adapter@_W@__crt_stdio_output@@@2@@__crt_stdio_output@@AEAA_NXZ 000000014002c304 f i libucrt:output.obj
 0001:0002b30c       ?type_case_X@?$output_processor@_WV?$stream_output_adapter@_W@__crt_stdio_output@@V?$positional_parameter_base@_WV?$stream_output_adapter@_W@__crt_stdio_output@@@2@@__crt_stdio_output@@AEAA_NXZ 000000014002c30c f i libucrt:output.obj
 0001:0002b314       ?type_case_X@?$output_processor@_WV?$stream_output_adapter@_W@__crt_stdio_output@@V?$standard_base@_WV?$stream_output_adapter@_W@__crt_stdio_output@@@2@@__crt_stdio_output@@AEAA_NXZ 000000014002c314 f i libucrt:output.obj
 0001:0002b31c       ?type_case_X@?$output_processor@_WV?$string_output_adapter@_W@__crt_stdio_output@@V?$format_validation_base@_WV?$string_output_adapter@_W@__crt_stdio_output@@@2@@__crt_stdio_output@@AEAA_NXZ 000000014002c31c f i libucrt:output.obj
 0001:0002b324       ?type_case_X@?$output_processor@_WV?$string_output_adapter@_W@__crt_stdio_output@@V?$positional_parameter_base@_WV?$string_output_adapter@_W@__crt_stdio_output@@@2@@__crt_stdio_output@@AEAA_NXZ 000000014002c324 f i libucrt:output.obj
 0001:0002b32c       ?type_case_X@?$output_processor@_WV?$string_output_adapter@_W@__crt_stdio_output@@V?$standard_base@_WV?$string_output_adapter@_W@__crt_stdio_output@@@2@@__crt_stdio_output@@AEAA_NXZ 000000014002c32c f i libucrt:output.obj
 0001:0002b334       ?type_case_Z@?$output_processor@DV?$stream_output_adapter@D@__crt_stdio_output@@V?$format_validation_base@DV?$stream_output_adapter@D@__crt_stdio_output@@@2@@__crt_stdio_output@@AEAA_NXZ 000000014002c334 f i libucrt:output.obj
 0001:0002b3b0       ?type_case_Z@?$output_processor@DV?$stream_output_adapter@D@__crt_stdio_output@@V?$positional_parameter_base@DV?$stream_output_adapter@D@__crt_stdio_output@@@2@@__crt_stdio_output@@AEAA_NXZ 000000014002c3b0 f i libucrt:output.obj
 0001:0002b458       ?type_case_Z@?$output_processor@DV?$stream_output_adapter@D@__crt_stdio_output@@V?$standard_base@DV?$stream_output_adapter@D@__crt_stdio_output@@@2@@__crt_stdio_output@@AEAA_NXZ 000000014002c458 f i libucrt:output.obj
 0001:0002b4d4       ?type_case_Z@?$output_processor@DV?$string_output_adapter@D@__crt_stdio_output@@V?$format_validation_base@DV?$string_output_adapter@D@__crt_stdio_output@@@2@@__crt_stdio_output@@AEAA_NXZ 000000014002c4d4 f i libucrt:output.obj
 0001:0002b550       ?type_case_Z@?$output_processor@DV?$string_output_adapter@D@__crt_stdio_output@@V?$positional_parameter_base@DV?$string_output_adapter@D@__crt_stdio_output@@@2@@__crt_stdio_output@@AEAA_NXZ 000000014002c550 f i libucrt:output.obj
 0001:0002b5f8       ?type_case_Z@?$output_processor@DV?$string_output_adapter@D@__crt_stdio_output@@V?$standard_base@DV?$string_output_adapter@D@__crt_stdio_output@@@2@@__crt_stdio_output@@AEAA_NXZ 000000014002c5f8 f i libucrt:output.obj
 0001:0002b674       ?type_case_Z@?$output_processor@_WV?$stream_output_adapter@_W@__crt_stdio_output@@V?$format_validation_base@_WV?$stream_output_adapter@_W@__crt_stdio_output@@@2@@__crt_stdio_output@@AEAA_NXZ 000000014002c674 f i libucrt:output.obj
 0001:0002b6f4       ?type_case_Z@?$output_processor@_WV?$stream_output_adapter@_W@__crt_stdio_output@@V?$positional_parameter_base@_WV?$stream_output_adapter@_W@__crt_stdio_output@@@2@@__crt_stdio_output@@AEAA_NXZ 000000014002c6f4 f i libucrt:output.obj
 0001:0002b78c       ?type_case_Z@?$output_processor@_WV?$stream_output_adapter@_W@__crt_stdio_output@@V?$standard_base@_WV?$stream_output_adapter@_W@__crt_stdio_output@@@2@@__crt_stdio_output@@AEAA_NXZ 000000014002c78c f i libucrt:output.obj
 0001:0002b80c       ?type_case_Z@?$output_processor@_WV?$string_output_adapter@_W@__crt_stdio_output@@V?$format_validation_base@_WV?$string_output_adapter@_W@__crt_stdio_output@@@2@@__crt_stdio_output@@AEAA_NXZ 000000014002c80c f i libucrt:output.obj
 0001:0002b88c       ?type_case_Z@?$output_processor@_WV?$string_output_adapter@_W@__crt_stdio_output@@V?$positional_parameter_base@_WV?$string_output_adapter@_W@__crt_stdio_output@@@2@@__crt_stdio_output@@AEAA_NXZ 000000014002c88c f i libucrt:output.obj
 0001:0002b924       ?type_case_Z@?$output_processor@_WV?$string_output_adapter@_W@__crt_stdio_output@@V?$standard_base@_WV?$string_output_adapter@_W@__crt_stdio_output@@@2@@__crt_stdio_output@@AEAA_NXZ 000000014002c924 f i libucrt:output.obj
 0001:0002b9a4       ?type_case_a@?$output_processor@DV?$stream_output_adapter@D@__crt_stdio_output@@V?$format_validation_base@DV?$stream_output_adapter@D@__crt_stdio_output@@@2@@__crt_stdio_output@@AEAA_NXZ 000000014002c9a4 f i libucrt:output.obj
 0001:0002bbf8       ?type_case_a@?$output_processor@DV?$stream_output_adapter@D@__crt_stdio_output@@V?$positional_parameter_base@DV?$stream_output_adapter@D@__crt_stdio_output@@@2@@__crt_stdio_output@@AEAA_NXZ 000000014002cbf8 f i libucrt:output.obj
 0001:0002be74       ?type_case_a@?$output_processor@DV?$stream_output_adapter@D@__crt_stdio_output@@V?$standard_base@DV?$stream_output_adapter@D@__crt_stdio_output@@@2@@__crt_stdio_output@@AEAA_NXZ 000000014002ce74 f i libucrt:output.obj
 0001:0002c0c8       ?type_case_a@?$output_processor@DV?$string_output_adapter@D@__crt_stdio_output@@V?$format_validation_base@DV?$string_output_adapter@D@__crt_stdio_output@@@2@@__crt_stdio_output@@AEAA_NXZ 000000014002d0c8 f i libucrt:output.obj
 0001:0002c31c       ?type_case_a@?$output_processor@DV?$string_output_adapter@D@__crt_stdio_output@@V?$positional_parameter_base@DV?$string_output_adapter@D@__crt_stdio_output@@@2@@__crt_stdio_output@@AEAA_NXZ 000000014002d31c f i libucrt:output.obj
 0001:0002c598       ?type_case_a@?$output_processor@DV?$string_output_adapter@D@__crt_stdio_output@@V?$standard_base@DV?$string_output_adapter@D@__crt_stdio_output@@@2@@__crt_stdio_output@@AEAA_NXZ 000000014002d598 f i libucrt:output.obj
 0001:0002c7ec       ?type_case_a@?$output_processor@_WV?$stream_output_adapter@_W@__crt_stdio_output@@V?$format_validation_base@_WV?$stream_output_adapter@_W@__crt_stdio_output@@@2@@__crt_stdio_output@@AEAA_NXZ 000000014002d7ec f i libucrt:output.obj
 0001:0002ca54       ?type_case_a@?$output_processor@_WV?$stream_output_adapter@_W@__crt_stdio_output@@V?$positional_parameter_base@_WV?$stream_output_adapter@_W@__crt_stdio_output@@@2@@__crt_stdio_output@@AEAA_NXZ 000000014002da54 f i libucrt:output.obj
 0001:0002cce8       ?type_case_a@?$output_processor@_WV?$stream_output_adapter@_W@__crt_stdio_output@@V?$standard_base@_WV?$stream_output_adapter@_W@__crt_stdio_output@@@2@@__crt_stdio_output@@AEAA_NXZ 000000014002dce8 f i libucrt:output.obj
 0001:0002cf50       ?type_case_a@?$output_processor@_WV?$string_output_adapter@_W@__crt_stdio_output@@V?$format_validation_base@_WV?$string_output_adapter@_W@__crt_stdio_output@@@2@@__crt_stdio_output@@AEAA_NXZ 000000014002df50 f i libucrt:output.obj
 0001:0002d1b8       ?type_case_a@?$output_processor@_WV?$string_output_adapter@_W@__crt_stdio_output@@V?$positional_parameter_base@_WV?$string_output_adapter@_W@__crt_stdio_output@@@2@@__crt_stdio_output@@AEAA_NXZ 000000014002e1b8 f i libucrt:output.obj
 0001:0002d44c       ?type_case_a@?$output_processor@_WV?$string_output_adapter@_W@__crt_stdio_output@@V?$standard_base@_WV?$string_output_adapter@_W@__crt_stdio_output@@@2@@__crt_stdio_output@@AEAA_NXZ 000000014002e44c f i libucrt:output.obj
 0001:0002d6b4       ?type_case_c@?$output_processor@DV?$stream_output_adapter@D@__crt_stdio_output@@V?$format_validation_base@DV?$stream_output_adapter@D@__crt_stdio_output@@@2@@__crt_stdio_output@@AEAA_NXZ 000000014002e6b4 f i libucrt:output.obj
 0001:0002d6bc       ?type_case_c@?$output_processor@DV?$stream_output_adapter@D@__crt_stdio_output@@V?$positional_parameter_base@DV?$stream_output_adapter@D@__crt_stdio_output@@@2@@__crt_stdio_output@@AEAA_NXZ 000000014002e6bc f i libucrt:output.obj
 0001:0002d6c4       ?type_case_c@?$output_processor@DV?$stream_output_adapter@D@__crt_stdio_output@@V?$standard_base@DV?$stream_output_adapter@D@__crt_stdio_output@@@2@@__crt_stdio_output@@AEAA_NXZ 000000014002e6c4 f i libucrt:output.obj
 0001:0002d6cc       ?type_case_c@?$output_processor@DV?$string_output_adapter@D@__crt_stdio_output@@V?$format_validation_base@DV?$string_output_adapter@D@__crt_stdio_output@@@2@@__crt_stdio_output@@AEAA_NXZ 000000014002e6cc f i libucrt:output.obj
 0001:0002d6d4       ?type_case_c@?$output_processor@DV?$string_output_adapter@D@__crt_stdio_output@@V?$positional_parameter_base@DV?$string_output_adapter@D@__crt_stdio_output@@@2@@__crt_stdio_output@@AEAA_NXZ 000000014002e6d4 f i libucrt:output.obj
 0001:0002d6dc       ?type_case_c@?$output_processor@DV?$string_output_adapter@D@__crt_stdio_output@@V?$standard_base@DV?$string_output_adapter@D@__crt_stdio_output@@@2@@__crt_stdio_output@@AEAA_NXZ 000000014002e6dc f i libucrt:output.obj
 0001:0002d6e4       ?type_case_c@?$output_processor@_WV?$stream_output_adapter@_W@__crt_stdio_output@@V?$format_validation_base@_WV?$stream_output_adapter@_W@__crt_stdio_output@@@2@@__crt_stdio_output@@AEAA_NXZ 000000014002e6e4 f i libucrt:output.obj
 0001:0002d6ec       ?type_case_c@?$output_processor@_WV?$stream_output_adapter@_W@__crt_stdio_output@@V?$positional_parameter_base@_WV?$stream_output_adapter@_W@__crt_stdio_output@@@2@@__crt_stdio_output@@AEAA_NXZ 000000014002e6ec f i libucrt:output.obj
 0001:0002d6f4       ?type_case_c@?$output_processor@_WV?$stream_output_adapter@_W@__crt_stdio_output@@V?$standard_base@_WV?$stream_output_adapter@_W@__crt_stdio_output@@@2@@__crt_stdio_output@@AEAA_NXZ 000000014002e6f4 f i libucrt:output.obj
 0001:0002d6fc       ?type_case_c@?$output_processor@_WV?$string_output_adapter@_W@__crt_stdio_output@@V?$format_validation_base@_WV?$string_output_adapter@_W@__crt_stdio_output@@@2@@__crt_stdio_output@@AEAA_NXZ 000000014002e6fc f i libucrt:output.obj
 0001:0002d704       ?type_case_c@?$output_processor@_WV?$string_output_adapter@_W@__crt_stdio_output@@V?$positional_parameter_base@_WV?$string_output_adapter@_W@__crt_stdio_output@@@2@@__crt_stdio_output@@AEAA_NXZ 000000014002e704 f i libucrt:output.obj
 0001:0002d70c       ?type_case_c@?$output_processor@_WV?$string_output_adapter@_W@__crt_stdio_output@@V?$standard_base@_WV?$string_output_adapter@_W@__crt_stdio_output@@@2@@__crt_stdio_output@@AEAA_NXZ 000000014002e70c f i libucrt:output.obj
 0001:0002d714       ?type_case_c_tchar@?$output_processor@DV?$stream_output_adapter@D@__crt_stdio_output@@V?$format_validation_base@DV?$stream_output_adapter@D@__crt_stdio_output@@@2@@__crt_stdio_output@@AEAA_ND@Z 000000014002e714 f i libucrt:output.obj
 0001:0002d7e8       ?type_case_c_tchar@?$output_processor@DV?$stream_output_adapter@D@__crt_stdio_output@@V?$positional_parameter_base@DV?$stream_output_adapter@D@__crt_stdio_output@@@2@@__crt_stdio_output@@AEAA_ND@Z 000000014002e7e8 f i libucrt:output.obj
 0001:0002d904       ?type_case_c_tchar@?$output_processor@DV?$stream_output_adapter@D@__crt_stdio_output@@V?$standard_base@DV?$stream_output_adapter@D@__crt_stdio_output@@@2@@__crt_stdio_output@@AEAA_ND@Z 000000014002e904 f i libucrt:output.obj
 0001:0002d9d8       ?type_case_c_tchar@?$output_processor@DV?$string_output_adapter@D@__crt_stdio_output@@V?$format_validation_base@DV?$string_output_adapter@D@__crt_stdio_output@@@2@@__crt_stdio_output@@AEAA_ND@Z 000000014002e9d8 f i libucrt:output.obj
 0001:0002daac       ?type_case_c_tchar@?$output_processor@DV?$string_output_adapter@D@__crt_stdio_output@@V?$positional_parameter_base@DV?$string_output_adapter@D@__crt_stdio_output@@@2@@__crt_stdio_output@@AEAA_ND@Z 000000014002eaac f i libucrt:output.obj
 0001:0002dbc8       ?type_case_c_tchar@?$output_processor@DV?$string_output_adapter@D@__crt_stdio_output@@V?$standard_base@DV?$string_output_adapter@D@__crt_stdio_output@@@2@@__crt_stdio_output@@AEAA_ND@Z 000000014002ebc8 f i libucrt:output.obj
 0001:0002dc9c       ?type_case_c_tchar@?$output_processor@_WV?$stream_output_adapter@_W@__crt_stdio_output@@V?$format_validation_base@_WV?$stream_output_adapter@_W@__crt_stdio_output@@@2@@__crt_stdio_output@@AEAA_N_W@Z 000000014002ec9c f i libucrt:output.obj
 0001:0002dd60       ?type_case_c_tchar@?$output_processor@_WV?$stream_output_adapter@_W@__crt_stdio_output@@V?$positional_parameter_base@_WV?$stream_output_adapter@_W@__crt_stdio_output@@@2@@__crt_stdio_output@@AEAA_N_W@Z 000000014002ed60 f i libucrt:output.obj
 0001:0002de58       ?type_case_c_tchar@?$output_processor@_WV?$stream_output_adapter@_W@__crt_stdio_output@@V?$standard_base@_WV?$stream_output_adapter@_W@__crt_stdio_output@@@2@@__crt_stdio_output@@AEAA_N_W@Z 000000014002ee58 f i libucrt:output.obj
 0001:0002df1c       ?type_case_c_tchar@?$output_processor@_WV?$string_output_adapter@_W@__crt_stdio_output@@V?$format_validation_base@_WV?$string_output_adapter@_W@__crt_stdio_output@@@2@@__crt_stdio_output@@AEAA_N_W@Z 000000014002ef1c f i libucrt:output.obj
 0001:0002dfe0       ?type_case_c_tchar@?$output_processor@_WV?$string_output_adapter@_W@__crt_stdio_output@@V?$positional_parameter_base@_WV?$string_output_adapter@_W@__crt_stdio_output@@@2@@__crt_stdio_output@@AEAA_N_W@Z 000000014002efe0 f i libucrt:output.obj
 0001:0002e0d8       ?type_case_c_tchar@?$output_processor@_WV?$string_output_adapter@_W@__crt_stdio_output@@V?$standard_base@_WV?$string_output_adapter@_W@__crt_stdio_output@@@2@@__crt_stdio_output@@AEAA_N_W@Z 000000014002f0d8 f i libucrt:output.obj
 0001:0002e19c       ?type_case_d@?$output_processor@DV?$stream_output_adapter@D@__crt_stdio_output@@V?$format_validation_base@DV?$stream_output_adapter@D@__crt_stdio_output@@@2@@__crt_stdio_output@@AEAA_NXZ 000000014002f19c f i libucrt:output.obj
 0001:0002e1a8       ?type_case_d@?$output_processor@DV?$stream_output_adapter@D@__crt_stdio_output@@V?$positional_parameter_base@DV?$stream_output_adapter@D@__crt_stdio_output@@@2@@__crt_stdio_output@@AEAA_NXZ 000000014002f1a8 f i libucrt:output.obj
 0001:0002e1b4       ?type_case_d@?$output_processor@DV?$stream_output_adapter@D@__crt_stdio_output@@V?$standard_base@DV?$stream_output_adapter@D@__crt_stdio_output@@@2@@__crt_stdio_output@@AEAA_NXZ 000000014002f1b4 f i libucrt:output.obj
 0001:0002e1c0       ?type_case_d@?$output_processor@DV?$string_output_adapter@D@__crt_stdio_output@@V?$format_validation_base@DV?$string_output_adapter@D@__crt_stdio_output@@@2@@__crt_stdio_output@@AEAA_NXZ 000000014002f1c0 f i libucrt:output.obj
 0001:0002e1cc       ?type_case_d@?$output_processor@DV?$string_output_adapter@D@__crt_stdio_output@@V?$positional_parameter_base@DV?$string_output_adapter@D@__crt_stdio_output@@@2@@__crt_stdio_output@@AEAA_NXZ 000000014002f1cc f i libucrt:output.obj
 0001:0002e1d8       ?type_case_d@?$output_processor@DV?$string_output_adapter@D@__crt_stdio_output@@V?$standard_base@DV?$string_output_adapter@D@__crt_stdio_output@@@2@@__crt_stdio_output@@AEAA_NXZ 000000014002f1d8 f i libucrt:output.obj
 0001:0002e1e4       ?type_case_d@?$output_processor@_WV?$stream_output_adapter@_W@__crt_stdio_output@@V?$format_validation_base@_WV?$stream_output_adapter@_W@__crt_stdio_output@@@2@@__crt_stdio_output@@AEAA_NXZ 000000014002f1e4 f i libucrt:output.obj
 0001:0002e1f0       ?type_case_d@?$output_processor@_WV?$stream_output_adapter@_W@__crt_stdio_output@@V?$positional_parameter_base@_WV?$stream_output_adapter@_W@__crt_stdio_output@@@2@@__crt_stdio_output@@AEAA_NXZ 000000014002f1f0 f i libucrt:output.obj
 0001:0002e1fc       ?type_case_d@?$output_processor@_WV?$stream_output_adapter@_W@__crt_stdio_output@@V?$standard_base@_WV?$stream_output_adapter@_W@__crt_stdio_output@@@2@@__crt_stdio_output@@AEAA_NXZ 000000014002f1fc f i libucrt:output.obj
 0001:0002e208       ?type_case_d@?$output_processor@_WV?$string_output_adapter@_W@__crt_stdio_output@@V?$format_validation_base@_WV?$string_output_adapter@_W@__crt_stdio_output@@@2@@__crt_stdio_output@@AEAA_NXZ 000000014002f208 f i libucrt:output.obj
 0001:0002e214       ?type_case_d@?$output_processor@_WV?$string_output_adapter@_W@__crt_stdio_output@@V?$positional_parameter_base@_WV?$string_output_adapter@_W@__crt_stdio_output@@@2@@__crt_stdio_output@@AEAA_NXZ 000000014002f214 f i libucrt:output.obj
 0001:0002e220       ?type_case_d@?$output_processor@_WV?$string_output_adapter@_W@__crt_stdio_output@@V?$standard_base@_WV?$string_output_adapter@_W@__crt_stdio_output@@@2@@__crt_stdio_output@@AEAA_NXZ 000000014002f220 f i libucrt:output.obj
 0001:0002e22c       ?type_case_n@?$output_processor@DV?$stream_output_adapter@D@__crt_stdio_output@@V?$format_validation_base@DV?$stream_output_adapter@D@__crt_stdio_output@@@2@@__crt_stdio_output@@AEAA_NXZ 000000014002f22c f i libucrt:output.obj
 0001:0002e2e4       ?type_case_n@?$output_processor@DV?$stream_output_adapter@D@__crt_stdio_output@@V?$positional_parameter_base@DV?$stream_output_adapter@D@__crt_stdio_output@@@2@@__crt_stdio_output@@AEAA_NXZ 000000014002f2e4 f i libucrt:output.obj
 0001:0002e3c8       ?type_case_n@?$output_processor@DV?$stream_output_adapter@D@__crt_stdio_output@@V?$standard_base@DV?$stream_output_adapter@D@__crt_stdio_output@@@2@@__crt_stdio_output@@AEAA_NXZ 000000014002f3c8 f i libucrt:output.obj
 0001:0002e480       ?type_case_n@?$output_processor@DV?$string_output_adapter@D@__crt_stdio_output@@V?$format_validation_base@DV?$string_output_adapter@D@__crt_stdio_output@@@2@@__crt_stdio_output@@AEAA_NXZ 000000014002f480 f i libucrt:output.obj
 0001:0002e538       ?type_case_n@?$output_processor@DV?$string_output_adapter@D@__crt_stdio_output@@V?$positional_parameter_base@DV?$string_output_adapter@D@__crt_stdio_output@@@2@@__crt_stdio_output@@AEAA_NXZ 000000014002f538 f i libucrt:output.obj
 0001:0002e61c       ?type_case_n@?$output_processor@DV?$string_output_adapter@D@__crt_stdio_output@@V?$standard_base@DV?$string_output_adapter@D@__crt_stdio_output@@@2@@__crt_stdio_output@@AEAA_NXZ 000000014002f61c f i libucrt:output.obj
 0001:0002e6d4       ?type_case_n@?$output_processor@_WV?$stream_output_adapter@_W@__crt_stdio_output@@V?$format_validation_base@_WV?$stream_output_adapter@_W@__crt_stdio_output@@@2@@__crt_stdio_output@@AEAA_NXZ 000000014002f6d4 f i libucrt:output.obj
 0001:0002e78c       ?type_case_n@?$output_processor@_WV?$stream_output_adapter@_W@__crt_stdio_output@@V?$positional_parameter_base@_WV?$stream_output_adapter@_W@__crt_stdio_output@@@2@@__crt_stdio_output@@AEAA_NXZ 000000014002f78c f i libucrt:output.obj
 0001:0002e870       ?type_case_n@?$output_processor@_WV?$stream_output_adapter@_W@__crt_stdio_output@@V?$standard_base@_WV?$stream_output_adapter@_W@__crt_stdio_output@@@2@@__crt_stdio_output@@AEAA_NXZ 000000014002f870 f i libucrt:output.obj
 0001:0002e928       ?type_case_n@?$output_processor@_WV?$string_output_adapter@_W@__crt_stdio_output@@V?$format_validation_base@_WV?$string_output_adapter@_W@__crt_stdio_output@@@2@@__crt_stdio_output@@AEAA_NXZ 000000014002f928 f i libucrt:output.obj
 0001:0002e9e0       ?type_case_n@?$output_processor@_WV?$string_output_adapter@_W@__crt_stdio_output@@V?$positional_parameter_base@_WV?$string_output_adapter@_W@__crt_stdio_output@@@2@@__crt_stdio_output@@AEAA_NXZ 000000014002f9e0 f i libucrt:output.obj
 0001:0002eac4       ?type_case_n@?$output_processor@_WV?$string_output_adapter@_W@__crt_stdio_output@@V?$standard_base@_WV?$string_output_adapter@_W@__crt_stdio_output@@@2@@__crt_stdio_output@@AEAA_NXZ 000000014002fac4 f i libucrt:output.obj
 0001:0002eb7c       ?type_case_o@?$output_processor@DV?$stream_output_adapter@D@__crt_stdio_output@@V?$format_validation_base@DV?$stream_output_adapter@D@__crt_stdio_output@@@2@@__crt_stdio_output@@AEAA_NXZ 000000014002fb7c f i libucrt:output.obj
 0001:0002eb98       ?type_case_o@?$output_processor@DV?$stream_output_adapter@D@__crt_stdio_output@@V?$positional_parameter_base@DV?$stream_output_adapter@D@__crt_stdio_output@@@2@@__crt_stdio_output@@AEAA_NXZ 000000014002fb98 f i libucrt:output.obj
 0001:0002ebb4       ?type_case_o@?$output_processor@DV?$stream_output_adapter@D@__crt_stdio_output@@V?$standard_base@DV?$stream_output_adapter@D@__crt_stdio_output@@@2@@__crt_stdio_output@@AEAA_NXZ 000000014002fbb4 f i libucrt:output.obj
 0001:0002ebd0       ?type_case_o@?$output_processor@DV?$string_output_adapter@D@__crt_stdio_output@@V?$format_validation_base@DV?$string_output_adapter@D@__crt_stdio_output@@@2@@__crt_stdio_output@@AEAA_NXZ 000000014002fbd0 f i libucrt:output.obj
 0001:0002ebec       ?type_case_o@?$output_processor@DV?$string_output_adapter@D@__crt_stdio_output@@V?$positional_parameter_base@DV?$string_output_adapter@D@__crt_stdio_output@@@2@@__crt_stdio_output@@AEAA_NXZ 000000014002fbec f i libucrt:output.obj
 0001:0002ec08       ?type_case_o@?$output_processor@DV?$string_output_adapter@D@__crt_stdio_output@@V?$standard_base@DV?$string_output_adapter@D@__crt_stdio_output@@@2@@__crt_stdio_output@@AEAA_NXZ 000000014002fc08 f i libucrt:output.obj
 0001:0002ec24       ?type_case_o@?$output_processor@_WV?$stream_output_adapter@_W@__crt_stdio_output@@V?$format_validation_base@_WV?$stream_output_adapter@_W@__crt_stdio_output@@@2@@__crt_stdio_output@@AEAA_NXZ 000000014002fc24 f i libucrt:output.obj
 0001:0002ec40       ?type_case_o@?$output_processor@_WV?$stream_output_adapter@_W@__crt_stdio_output@@V?$positional_parameter_base@_WV?$stream_output_adapter@_W@__crt_stdio_output@@@2@@__crt_stdio_output@@AEAA_NXZ 000000014002fc40 f i libucrt:output.obj
 0001:0002ec5c       ?type_case_o@?$output_processor@_WV?$stream_output_adapter@_W@__crt_stdio_output@@V?$standard_base@_WV?$stream_output_adapter@_W@__crt_stdio_output@@@2@@__crt_stdio_output@@AEAA_NXZ 000000014002fc5c f i libucrt:output.obj
 0001:0002ec78       ?type_case_o@?$output_processor@_WV?$string_output_adapter@_W@__crt_stdio_output@@V?$format_validation_base@_WV?$string_output_adapter@_W@__crt_stdio_output@@@2@@__crt_stdio_output@@AEAA_NXZ 000000014002fc78 f i libucrt:output.obj
 0001:0002ec94       ?type_case_o@?$output_processor@_WV?$string_output_adapter@_W@__crt_stdio_output@@V?$positional_parameter_base@_WV?$string_output_adapter@_W@__crt_stdio_output@@@2@@__crt_stdio_output@@AEAA_NXZ 000000014002fc94 f i libucrt:output.obj
 0001:0002ecb0       ?type_case_o@?$output_processor@_WV?$string_output_adapter@_W@__crt_stdio_output@@V?$standard_base@_WV?$string_output_adapter@_W@__crt_stdio_output@@@2@@__crt_stdio_output@@AEAA_NXZ 000000014002fcb0 f i libucrt:output.obj
 0001:0002eccc       ?type_case_p@?$output_processor@DV?$stream_output_adapter@D@__crt_stdio_output@@V?$format_validation_base@DV?$stream_output_adapter@D@__crt_stdio_output@@@2@@__crt_stdio_output@@AEAA_NXZ 000000014002fccc f i libucrt:output.obj
 0001:0002ece4       ?type_case_p@?$output_processor@DV?$stream_output_adapter@D@__crt_stdio_output@@V?$positional_parameter_base@DV?$stream_output_adapter@D@__crt_stdio_output@@@2@@__crt_stdio_output@@AEAA_NXZ 000000014002fce4 f i libucrt:output.obj
 0001:0002ecfc       ?type_case_p@?$output_processor@DV?$stream_output_adapter@D@__crt_stdio_output@@V?$standard_base@DV?$stream_output_adapter@D@__crt_stdio_output@@@2@@__crt_stdio_output@@AEAA_NXZ 000000014002fcfc f i libucrt:output.obj
 0001:0002ed14       ?type_case_p@?$output_processor@DV?$string_output_adapter@D@__crt_stdio_output@@V?$format_validation_base@DV?$string_output_adapter@D@__crt_stdio_output@@@2@@__crt_stdio_output@@AEAA_NXZ 000000014002fd14 f i libucrt:output.obj
 0001:0002ed2c       ?type_case_p@?$output_processor@DV?$string_output_adapter@D@__crt_stdio_output@@V?$positional_parameter_base@DV?$string_output_adapter@D@__crt_stdio_output@@@2@@__crt_stdio_output@@AEAA_NXZ 000000014002fd2c f i libucrt:output.obj
 0001:0002ed44       ?type_case_p@?$output_processor@DV?$string_output_adapter@D@__crt_stdio_output@@V?$standard_base@DV?$string_output_adapter@D@__crt_stdio_output@@@2@@__crt_stdio_output@@AEAA_NXZ 000000014002fd44 f i libucrt:output.obj
 0001:0002ed5c       ?type_case_p@?$output_processor@_WV?$stream_output_adapter@_W@__crt_stdio_output@@V?$format_validation_base@_WV?$stream_output_adapter@_W@__crt_stdio_output@@@2@@__crt_stdio_output@@AEAA_NXZ 000000014002fd5c f i libucrt:output.obj
 0001:0002ed74       ?type_case_p@?$output_processor@_WV?$stream_output_adapter@_W@__crt_stdio_output@@V?$positional_parameter_base@_WV?$stream_output_adapter@_W@__crt_stdio_output@@@2@@__crt_stdio_output@@AEAA_NXZ 000000014002fd74 f i libucrt:output.obj
 0001:0002ed8c       ?type_case_p@?$output_processor@_WV?$stream_output_adapter@_W@__crt_stdio_output@@V?$standard_base@_WV?$stream_output_adapter@_W@__crt_stdio_output@@@2@@__crt_stdio_output@@AEAA_NXZ 000000014002fd8c f i libucrt:output.obj
 0001:0002eda4       ?type_case_p@?$output_processor@_WV?$string_output_adapter@_W@__crt_stdio_output@@V?$format_validation_base@_WV?$string_output_adapter@_W@__crt_stdio_output@@@2@@__crt_stdio_output@@AEAA_NXZ 000000014002fda4 f i libucrt:output.obj
 0001:0002edbc       ?type_case_p@?$output_processor@_WV?$string_output_adapter@_W@__crt_stdio_output@@V?$positional_parameter_base@_WV?$string_output_adapter@_W@__crt_stdio_output@@@2@@__crt_stdio_output@@AEAA_NXZ 000000014002fdbc f i libucrt:output.obj
 0001:0002edd4       ?type_case_p@?$output_processor@_WV?$string_output_adapter@_W@__crt_stdio_output@@V?$standard_base@_WV?$string_output_adapter@_W@__crt_stdio_output@@@2@@__crt_stdio_output@@AEAA_NXZ 000000014002fdd4 f i libucrt:output.obj
 0001:0002edec       ?type_case_s@?$output_processor@DV?$stream_output_adapter@D@__crt_stdio_output@@V?$format_validation_base@DV?$stream_output_adapter@D@__crt_stdio_output@@@2@@__crt_stdio_output@@AEAA_NXZ 000000014002fdec f i libucrt:output.obj
 0001:0002ee88       ?type_case_s@?$output_processor@DV?$stream_output_adapter@D@__crt_stdio_output@@V?$positional_parameter_base@DV?$stream_output_adapter@D@__crt_stdio_output@@@2@@__crt_stdio_output@@AEAA_NXZ 000000014002fe88 f i libucrt:output.obj
 0001:0002ef44       ?type_case_s@?$output_processor@DV?$stream_output_adapter@D@__crt_stdio_output@@V?$standard_base@DV?$stream_output_adapter@D@__crt_stdio_output@@@2@@__crt_stdio_output@@AEAA_NXZ 000000014002ff44 f i libucrt:output.obj
 0001:0002efe0       ?type_case_s@?$output_processor@DV?$string_output_adapter@D@__crt_stdio_output@@V?$format_validation_base@DV?$string_output_adapter@D@__crt_stdio_output@@@2@@__crt_stdio_output@@AEAA_NXZ 000000014002ffe0 f i libucrt:output.obj
 0001:0002f07c       ?type_case_s@?$output_processor@DV?$string_output_adapter@D@__crt_stdio_output@@V?$positional_parameter_base@DV?$string_output_adapter@D@__crt_stdio_output@@@2@@__crt_stdio_output@@AEAA_NXZ 000000014003007c f i libucrt:output.obj
 0001:0002f138       ?type_case_s@?$output_processor@DV?$string_output_adapter@D@__crt_stdio_output@@V?$standard_base@DV?$string_output_adapter@D@__crt_stdio_output@@@2@@__crt_stdio_output@@AEAA_NXZ 0000000140030138 f i libucrt:output.obj
 0001:0002f1d4       ?type_case_s@?$output_processor@_WV?$stream_output_adapter@_W@__crt_stdio_output@@V?$format_validation_base@_WV?$stream_output_adapter@_W@__crt_stdio_output@@@2@@__crt_stdio_output@@AEAA_NXZ 00000001400301d4 f i libucrt:output.obj
 0001:0002f270       ?type_case_s@?$output_processor@_WV?$stream_output_adapter@_W@__crt_stdio_output@@V?$positional_parameter_base@_WV?$stream_output_adapter@_W@__crt_stdio_output@@@2@@__crt_stdio_output@@AEAA_NXZ 0000000140030270 f i libucrt:output.obj
 0001:0002f324       ?type_case_s@?$output_processor@_WV?$stream_output_adapter@_W@__crt_stdio_output@@V?$standard_base@_WV?$stream_output_adapter@_W@__crt_stdio_output@@@2@@__crt_stdio_output@@AEAA_NXZ 0000000140030324 f i libucrt:output.obj
 0001:0002f3c0       ?type_case_s@?$output_processor@_WV?$string_output_adapter@_W@__crt_stdio_output@@V?$format_validation_base@_WV?$string_output_adapter@_W@__crt_stdio_output@@@2@@__crt_stdio_output@@AEAA_NXZ 00000001400303c0 f i libucrt:output.obj
 0001:0002f45c       ?type_case_s@?$output_processor@_WV?$string_output_adapter@_W@__crt_stdio_output@@V?$positional_parameter_base@_WV?$string_output_adapter@_W@__crt_stdio_output@@@2@@__crt_stdio_output@@AEAA_NXZ 000000014003045c f i libucrt:output.obj
 0001:0002f510       ?type_case_s@?$output_processor@_WV?$string_output_adapter@_W@__crt_stdio_output@@V?$standard_base@_WV?$string_output_adapter@_W@__crt_stdio_output@@@2@@__crt_stdio_output@@AEAA_NXZ 0000000140030510 f i libucrt:output.obj
 0001:0002f5ac       ?type_case_s_compute_narrow_string_length@?$output_processor@DV?$stream_output_adapter@D@__crt_stdio_output@@V?$format_validation_base@DV?$stream_output_adapter@D@__crt_stdio_output@@@2@@__crt_stdio_output@@AEAAHHD@Z 00000001400305ac f i libucrt:output.obj
 0001:0002f5b8       ?type_case_s_compute_narrow_string_length@?$output_processor@DV?$stream_output_adapter@D@__crt_stdio_output@@V?$positional_parameter_base@DV?$stream_output_adapter@D@__crt_stdio_output@@@2@@__crt_stdio_output@@AEAAHHD@Z 00000001400305b8 f i libucrt:output.obj
 0001:0002f5c4       ?type_case_s_compute_narrow_string_length@?$output_processor@DV?$stream_output_adapter@D@__crt_stdio_output@@V?$standard_base@DV?$stream_output_adapter@D@__crt_stdio_output@@@2@@__crt_stdio_output@@AEAAHHD@Z 00000001400305c4 f i libucrt:output.obj
 0001:0002f5d0       ?type_case_s_compute_narrow_string_length@?$output_processor@DV?$string_output_adapter@D@__crt_stdio_output@@V?$format_validation_base@DV?$string_output_adapter@D@__crt_stdio_output@@@2@@__crt_stdio_output@@AEAAHHD@Z 00000001400305d0 f i libucrt:output.obj
 0001:0002f5dc       ?type_case_s_compute_narrow_string_length@?$output_processor@DV?$string_output_adapter@D@__crt_stdio_output@@V?$positional_parameter_base@DV?$string_output_adapter@D@__crt_stdio_output@@@2@@__crt_stdio_output@@AEAAHHD@Z 00000001400305dc f i libucrt:output.obj
 0001:0002f5e8       ?type_case_s_compute_narrow_string_length@?$output_processor@DV?$string_output_adapter@D@__crt_stdio_output@@V?$standard_base@DV?$string_output_adapter@D@__crt_stdio_output@@@2@@__crt_stdio_output@@AEAAHHD@Z 00000001400305e8 f i libucrt:output.obj
 0001:0002f5f4       ?type_case_s_compute_narrow_string_length@?$output_processor@_WV?$stream_output_adapter@_W@__crt_stdio_output@@V?$format_validation_base@_WV?$stream_output_adapter@_W@__crt_stdio_output@@@2@@__crt_stdio_output@@AEAAHH_W@Z 00000001400305f4 f i libucrt:output.obj
 0001:0002f668       ?type_case_s_compute_narrow_string_length@?$output_processor@_WV?$stream_output_adapter@_W@__crt_stdio_output@@V?$positional_parameter_base@_WV?$stream_output_adapter@_W@__crt_stdio_output@@@2@@__crt_stdio_output@@AEAAHH_W@Z 0000000140030668 f i libucrt:output.obj
 0001:0002f6dc       ?type_case_s_compute_narrow_string_length@?$output_processor@_WV?$stream_output_adapter@_W@__crt_stdio_output@@V?$standard_base@_WV?$stream_output_adapter@_W@__crt_stdio_output@@@2@@__crt_stdio_output@@AEAAHH_W@Z 00000001400306dc f i libucrt:output.obj
 0001:0002f750       ?type_case_s_compute_narrow_string_length@?$output_processor@_WV?$string_output_adapter@_W@__crt_stdio_output@@V?$format_validation_base@_WV?$string_output_adapter@_W@__crt_stdio_output@@@2@@__crt_stdio_output@@AEAAHH_W@Z 0000000140030750 f i libucrt:output.obj
 0001:0002f7c4       ?type_case_s_compute_narrow_string_length@?$output_processor@_WV?$string_output_adapter@_W@__crt_stdio_output@@V?$positional_parameter_base@_WV?$string_output_adapter@_W@__crt_stdio_output@@@2@@__crt_stdio_output@@AEAAHH_W@Z 00000001400307c4 f i libucrt:output.obj
 0001:0002f838       ?type_case_s_compute_narrow_string_length@?$output_processor@_WV?$string_output_adapter@_W@__crt_stdio_output@@V?$standard_base@_WV?$string_output_adapter@_W@__crt_stdio_output@@@2@@__crt_stdio_output@@AEAAHH_W@Z 0000000140030838 f i libucrt:output.obj
 0001:0002f8ac       ?type_case_u@?$output_processor@DV?$stream_output_adapter@D@__crt_stdio_output@@V?$format_validation_base@DV?$stream_output_adapter@D@__crt_stdio_output@@@2@@__crt_stdio_output@@AEAA_NXZ 00000001400308ac f i libucrt:output.obj
 0001:0002f8b4       ?type_case_u@?$output_processor@DV?$stream_output_adapter@D@__crt_stdio_output@@V?$positional_parameter_base@DV?$stream_output_adapter@D@__crt_stdio_output@@@2@@__crt_stdio_output@@AEAA_NXZ 00000001400308b4 f i libucrt:output.obj
 0001:0002f8bc       ?type_case_u@?$output_processor@DV?$stream_output_adapter@D@__crt_stdio_output@@V?$standard_base@DV?$stream_output_adapter@D@__crt_stdio_output@@@2@@__crt_stdio_output@@AEAA_NXZ 00000001400308bc f i libucrt:output.obj
 0001:0002f8c4       ?type_case_u@?$output_processor@DV?$string_output_adapter@D@__crt_stdio_output@@V?$format_validation_base@DV?$string_output_adapter@D@__crt_stdio_output@@@2@@__crt_stdio_output@@AEAA_NXZ 00000001400308c4 f i libucrt:output.obj
 0001:0002f8cc       ?type_case_u@?$output_processor@DV?$string_output_adapter@D@__crt_stdio_output@@V?$positional_parameter_base@DV?$string_output_adapter@D@__crt_stdio_output@@@2@@__crt_stdio_output@@AEAA_NXZ 00000001400308cc f i libucrt:output.obj
 0001:0002f8d4       ?type_case_u@?$output_processor@DV?$string_output_adapter@D@__crt_stdio_output@@V?$standard_base@DV?$string_output_adapter@D@__crt_stdio_output@@@2@@__crt_stdio_output@@AEAA_NXZ 00000001400308d4 f i libucrt:output.obj
 0001:0002f8dc       ?type_case_u@?$output_processor@_WV?$stream_output_adapter@_W@__crt_stdio_output@@V?$format_validation_base@_WV?$stream_output_adapter@_W@__crt_stdio_output@@@2@@__crt_stdio_output@@AEAA_NXZ 00000001400308dc f i libucrt:output.obj
 0001:0002f8e4       ?type_case_u@?$output_processor@_WV?$stream_output_adapter@_W@__crt_stdio_output@@V?$positional_parameter_base@_WV?$stream_output_adapter@_W@__crt_stdio_output@@@2@@__crt_stdio_output@@AEAA_NXZ 00000001400308e4 f i libucrt:output.obj
 0001:0002f8ec       ?type_case_u@?$output_processor@_WV?$stream_output_adapter@_W@__crt_stdio_output@@V?$standard_base@_WV?$stream_output_adapter@_W@__crt_stdio_output@@@2@@__crt_stdio_output@@AEAA_NXZ 00000001400308ec f i libucrt:output.obj
 0001:0002f8f4       ?type_case_u@?$output_processor@_WV?$string_output_adapter@_W@__crt_stdio_output@@V?$format_validation_base@_WV?$string_output_adapter@_W@__crt_stdio_output@@@2@@__crt_stdio_output@@AEAA_NXZ 00000001400308f4 f i libucrt:output.obj
 0001:0002f8fc       ?type_case_u@?$output_processor@_WV?$string_output_adapter@_W@__crt_stdio_output@@V?$positional_parameter_base@_WV?$string_output_adapter@_W@__crt_stdio_output@@@2@@__crt_stdio_output@@AEAA_NXZ 00000001400308fc f i libucrt:output.obj
 0001:0002f904       ?type_case_u@?$output_processor@_WV?$string_output_adapter@_W@__crt_stdio_output@@V?$standard_base@_WV?$string_output_adapter@_W@__crt_stdio_output@@@2@@__crt_stdio_output@@AEAA_NXZ 0000000140030904 f i libucrt:output.obj
 0001:0002f90c       ?type_case_x@?$output_processor@DV?$stream_output_adapter@D@__crt_stdio_output@@V?$format_validation_base@DV?$stream_output_adapter@D@__crt_stdio_output@@@2@@__crt_stdio_output@@AEAA_NXZ 000000014003090c f i libucrt:output.obj
 0001:0002f914       ?type_case_x@?$output_processor@DV?$stream_output_adapter@D@__crt_stdio_output@@V?$positional_parameter_base@DV?$stream_output_adapter@D@__crt_stdio_output@@@2@@__crt_stdio_output@@AEAA_NXZ 0000000140030914 f i libucrt:output.obj
 0001:0002f91c       ?type_case_x@?$output_processor@DV?$stream_output_adapter@D@__crt_stdio_output@@V?$standard_base@DV?$stream_output_adapter@D@__crt_stdio_output@@@2@@__crt_stdio_output@@AEAA_NXZ 000000014003091c f i libucrt:output.obj
 0001:0002f924       ?type_case_x@?$output_processor@DV?$string_output_adapter@D@__crt_stdio_output@@V?$format_validation_base@DV?$string_output_adapter@D@__crt_stdio_output@@@2@@__crt_stdio_output@@AEAA_NXZ 0000000140030924 f i libucrt:output.obj
 0001:0002f92c       ?type_case_x@?$output_processor@DV?$string_output_adapter@D@__crt_stdio_output@@V?$positional_parameter_base@DV?$string_output_adapter@D@__crt_stdio_output@@@2@@__crt_stdio_output@@AEAA_NXZ 000000014003092c f i libucrt:output.obj
 0001:0002f934       ?type_case_x@?$output_processor@DV?$string_output_adapter@D@__crt_stdio_output@@V?$standard_base@DV?$string_output_adapter@D@__crt_stdio_output@@@2@@__crt_stdio_output@@AEAA_NXZ 0000000140030934 f i libucrt:output.obj
 0001:0002f93c       ?type_case_x@?$output_processor@_WV?$stream_output_adapter@_W@__crt_stdio_output@@V?$format_validation_base@_WV?$stream_output_adapter@_W@__crt_stdio_output@@@2@@__crt_stdio_output@@AEAA_NXZ 000000014003093c f i libucrt:output.obj
 0001:0002f944       ?type_case_x@?$output_processor@_WV?$stream_output_adapter@_W@__crt_stdio_output@@V?$positional_parameter_base@_WV?$stream_output_adapter@_W@__crt_stdio_output@@@2@@__crt_stdio_output@@AEAA_NXZ 0000000140030944 f i libucrt:output.obj
 0001:0002f94c       ?type_case_x@?$output_processor@_WV?$stream_output_adapter@_W@__crt_stdio_output@@V?$standard_base@_WV?$stream_output_adapter@_W@__crt_stdio_output@@@2@@__crt_stdio_output@@AEAA_NXZ 000000014003094c f i libucrt:output.obj
 0001:0002f954       ?type_case_x@?$output_processor@_WV?$string_output_adapter@_W@__crt_stdio_output@@V?$format_validation_base@_WV?$string_output_adapter@_W@__crt_stdio_output@@@2@@__crt_stdio_output@@AEAA_NXZ 0000000140030954 f i libucrt:output.obj
 0001:0002f95c       ?type_case_x@?$output_processor@_WV?$string_output_adapter@_W@__crt_stdio_output@@V?$positional_parameter_base@_WV?$string_output_adapter@_W@__crt_stdio_output@@@2@@__crt_stdio_output@@AEAA_NXZ 000000014003095c f i libucrt:output.obj
 0001:0002f964       ?type_case_x@?$output_processor@_WV?$string_output_adapter@_W@__crt_stdio_output@@V?$standard_base@_WV?$string_output_adapter@_W@__crt_stdio_output@@@2@@__crt_stdio_output@@AEAA_NXZ 0000000140030964 f i libucrt:output.obj
 0001:0002f96c       ?unget@?$c_string_character_source@D@__crt_strtox@@QEAAXD@Z 000000014003096c f i libucrt:output.obj
 0001:0002f998       ?unget@?$c_string_character_source@_W@__crt_strtox@@QEAAX_W@Z 0000000140030998 f i libucrt:output.obj
 0001:0002f9c8       ?unsafe_value@?$cached@H@__crt_cached_ptd_host@@QEAAHXZ 00000001400309c8 f i libucrt:output.obj
 0001:0002f9cc       ?unsafe_value@?$cached@K@__crt_cached_ptd_host@@QEAAKXZ 00000001400309cc f i libucrt:output.obj
 0001:0002f9d0       ?unset_flag@?$output_processor@DV?$stream_output_adapter@D@__crt_stdio_output@@V?$format_validation_base@DV?$stream_output_adapter@D@__crt_stdio_output@@@2@@__crt_stdio_output@@AEAAXI@Z 00000001400309d0 f i libucrt:output.obj
 0001:0002f9d8       ?unset_flag@?$output_processor@DV?$stream_output_adapter@D@__crt_stdio_output@@V?$positional_parameter_base@DV?$stream_output_adapter@D@__crt_stdio_output@@@2@@__crt_stdio_output@@AEAAXI@Z 00000001400309d8 f i libucrt:output.obj
 0001:0002f9e0       ?unset_flag@?$output_processor@DV?$stream_output_adapter@D@__crt_stdio_output@@V?$standard_base@DV?$stream_output_adapter@D@__crt_stdio_output@@@2@@__crt_stdio_output@@AEAAXI@Z 00000001400309e0 f i libucrt:output.obj
 0001:0002f9e8       ?unset_flag@?$output_processor@DV?$string_output_adapter@D@__crt_stdio_output@@V?$format_validation_base@DV?$string_output_adapter@D@__crt_stdio_output@@@2@@__crt_stdio_output@@AEAAXI@Z 00000001400309e8 f i libucrt:output.obj
 0001:0002f9f0       ?unset_flag@?$output_processor@DV?$string_output_adapter@D@__crt_stdio_output@@V?$positional_parameter_base@DV?$string_output_adapter@D@__crt_stdio_output@@@2@@__crt_stdio_output@@AEAAXI@Z 00000001400309f0 f i libucrt:output.obj
 0001:0002f9f8       ?unset_flag@?$output_processor@DV?$string_output_adapter@D@__crt_stdio_output@@V?$standard_base@DV?$string_output_adapter@D@__crt_stdio_output@@@2@@__crt_stdio_output@@AEAAXI@Z 00000001400309f8 f i libucrt:output.obj
 0001:0002fa00       ?unset_flag@?$output_processor@_WV?$stream_output_adapter@_W@__crt_stdio_output@@V?$format_validation_base@_WV?$stream_output_adapter@_W@__crt_stdio_output@@@2@@__crt_stdio_output@@AEAAXI@Z 0000000140030a00 f i libucrt:output.obj
 0001:0002fa08       ?unset_flag@?$output_processor@_WV?$stream_output_adapter@_W@__crt_stdio_output@@V?$positional_parameter_base@_WV?$stream_output_adapter@_W@__crt_stdio_output@@@2@@__crt_stdio_output@@AEAAXI@Z 0000000140030a08 f i libucrt:output.obj
 0001:0002fa10       ?unset_flag@?$output_processor@_WV?$stream_output_adapter@_W@__crt_stdio_output@@V?$standard_base@_WV?$stream_output_adapter@_W@__crt_stdio_output@@@2@@__crt_stdio_output@@AEAAXI@Z 0000000140030a10 f i libucrt:output.obj
 0001:0002fa18       ?unset_flag@?$output_processor@_WV?$string_output_adapter@_W@__crt_stdio_output@@V?$format_validation_base@_WV?$string_output_adapter@_W@__crt_stdio_output@@@2@@__crt_stdio_output@@AEAAXI@Z 0000000140030a18 f i libucrt:output.obj
 0001:0002fa20       ?unset_flag@?$output_processor@_WV?$string_output_adapter@_W@__crt_stdio_output@@V?$positional_parameter_base@_WV?$string_output_adapter@_W@__crt_stdio_output@@@2@@__crt_stdio_output@@AEAAXI@Z 0000000140030a20 f i libucrt:output.obj
 0001:0002fa28       ?unset_flag@?$output_processor@_WV?$string_output_adapter@_W@__crt_stdio_output@@V?$standard_base@_WV?$string_output_adapter@_W@__crt_stdio_output@@@2@@__crt_stdio_output@@AEAAXI@Z 0000000140030a28 f i libucrt:output.obj
 0001:0002fa30       ?update_field_width@?$positional_parameter_base@DV?$stream_output_adapter@D@__crt_stdio_output@@@__crt_stdio_output@@IEAA_NXZ 0000000140030a30 f i libucrt:output.obj
 0001:0002fba0       ?update_field_width@?$positional_parameter_base@DV?$string_output_adapter@D@__crt_stdio_output@@@__crt_stdio_output@@IEAA_NXZ 0000000140030ba0 f i libucrt:output.obj
 0001:0002fd10       ?update_field_width@?$positional_parameter_base@_WV?$stream_output_adapter@_W@__crt_stdio_output@@@__crt_stdio_output@@IEAA_NXZ 0000000140030d10 f i libucrt:output.obj
 0001:0002fe84       ?update_field_width@?$positional_parameter_base@_WV?$string_output_adapter@_W@__crt_stdio_output@@@__crt_stdio_output@@IEAA_NXZ 0000000140030e84 f i libucrt:output.obj
 0001:0002fff8       ?update_field_width@?$standard_base@DV?$stream_output_adapter@D@__crt_stdio_output@@@__crt_stdio_output@@IEAA_NXZ 0000000140030ff8 f i libucrt:output.obj
 0001:0003000c       ?update_field_width@?$standard_base@DV?$string_output_adapter@D@__crt_stdio_output@@@__crt_stdio_output@@IEAA_NXZ 000000014003100c f i libucrt:output.obj
 0001:00030020       ?update_field_width@?$standard_base@_WV?$stream_output_adapter@_W@__crt_stdio_output@@@__crt_stdio_output@@IEAA_NXZ 0000000140031020 f i libucrt:output.obj
 0001:00030034       ?update_field_width@?$standard_base@_WV?$string_output_adapter@_W@__crt_stdio_output@@@__crt_stdio_output@@IEAA_NXZ 0000000140031034 f i libucrt:output.obj
 0001:00030050       ?update_locale@__crt_cached_ptd_host@@AEAAXXZ 0000000140031050 f i libucrt:output.obj
 0001:00030060       ?update_locale_slow@__crt_cached_ptd_host@@AEAAXXZ 0000000140031060 f i libucrt:output.obj
 0001:000300d8       ?update_precision@?$positional_parameter_base@DV?$stream_output_adapter@D@__crt_stdio_output@@@__crt_stdio_output@@IEAA_NXZ 00000001400310d8 f i libucrt:output.obj
 0001:00030248       ?update_precision@?$positional_parameter_base@DV?$string_output_adapter@D@__crt_stdio_output@@@__crt_stdio_output@@IEAA_NXZ 0000000140031248 f i libucrt:output.obj
 0001:000303b8       ?update_precision@?$positional_parameter_base@_WV?$stream_output_adapter@_W@__crt_stdio_output@@@__crt_stdio_output@@IEAA_NXZ 00000001400313b8 f i libucrt:output.obj
 0001:0003052c       ?update_precision@?$positional_parameter_base@_WV?$string_output_adapter@_W@__crt_stdio_output@@@__crt_stdio_output@@IEAA_NXZ 000000014003152c f i libucrt:output.obj
 0001:000306a0       ?update_precision@?$standard_base@DV?$stream_output_adapter@D@__crt_stdio_output@@@__crt_stdio_output@@IEAA_NXZ 00000001400316a0 f i libucrt:output.obj
 0001:000306b4       ?update_precision@?$standard_base@DV?$string_output_adapter@D@__crt_stdio_output@@@__crt_stdio_output@@IEAA_NXZ 00000001400316b4 f i libucrt:output.obj
 0001:000306c8       ?update_precision@?$standard_base@_WV?$stream_output_adapter@_W@__crt_stdio_output@@@__crt_stdio_output@@IEAA_NXZ 00000001400316c8 f i libucrt:output.obj
 0001:000306dc       ?update_precision@?$standard_base@_WV?$string_output_adapter@_W@__crt_stdio_output@@@__crt_stdio_output@@IEAA_NXZ 00000001400316dc f i libucrt:output.obj
 0001:000306f0       ?valid@?$cached@H@__crt_cached_ptd_host@@QEBA_NXZ 00000001400316f0 f i libucrt:output.obj
 0001:000306f4       ?valid@?$cached@K@__crt_cached_ptd_host@@QEBA_NXZ 00000001400316f4 f i libucrt:output.obj
 0001:000306f8       ?valid@__crt_stdio_stream@@QEBA_NXZ 00000001400316f8 f i libucrt:output.obj
 0001:00030700       ?validate@?$c_string_character_source@D@__crt_strtox@@QEBA_NXZ 0000000140031700 f i libucrt:output.obj
 0001:00030728       ?validate@?$c_string_character_source@_W@__crt_strtox@@QEBA_NXZ 0000000140031728 f i libucrt:output.obj
 0001:00030750       ?validate@?$stream_output_adapter@D@__crt_stdio_output@@QEBA_NAEAV__crt_cached_ptd_host@@@Z 0000000140031750 f i libucrt:output.obj
 0001:00030790       ?validate@?$stream_output_adapter@_W@__crt_stdio_output@@QEBA_NAEAV__crt_cached_ptd_host@@@Z 0000000140031790 f i libucrt:output.obj
 0001:000307cc       ?validate@?$string_output_adapter@D@__crt_stdio_output@@QEBA_NAEAV__crt_cached_ptd_host@@@Z 00000001400317cc f i libucrt:output.obj
 0001:00030808       ?validate@?$string_output_adapter@_W@__crt_stdio_output@@QEBA_NAEAV__crt_cached_ptd_host@@@Z 0000000140031808 f i libucrt:output.obj
 0001:00030844       ?validate_and_store_parameter_data@?$positional_parameter_base@DV?$stream_output_adapter@D@__crt_stdio_output@@@__crt_stdio_output@@AEAA_NAEAUparameter_data@12@W4parameter_type@12@DW4length_modifier@2@@Z 0000000140031844 f i libucrt:output.obj
 0001:000308a8       ?validate_and_store_parameter_data@?$positional_parameter_base@DV?$string_output_adapter@D@__crt_stdio_output@@@__crt_stdio_output@@AEAA_NAEAUparameter_data@12@W4parameter_type@12@DW4length_modifier@2@@Z 00000001400318a8 f i libucrt:output.obj
 0001:0003090c       ?validate_and_store_parameter_data@?$positional_parameter_base@_WV?$stream_output_adapter@_W@__crt_stdio_output@@@__crt_stdio_output@@AEAA_NAEAUparameter_data@12@W4parameter_type@12@_WW4length_modifier@2@@Z 000000014003190c f i libucrt:output.obj
 0001:00030970       ?validate_and_store_parameter_data@?$positional_parameter_base@_WV?$string_output_adapter@_W@__crt_stdio_output@@@__crt_stdio_output@@AEAA_NAEAUparameter_data@12@W4parameter_type@12@_WW4length_modifier@2@@Z 0000000140031970 f i libucrt:output.obj
 0001:000309d4       ?validate_and_update_state_at_beginning_of_format_character@?$positional_parameter_base@DV?$stream_output_adapter@D@__crt_stdio_output@@@__crt_stdio_output@@IEAA_NXZ 00000001400319d4 f i libucrt:output.obj
 0001:00030b18       ?validate_and_update_state_at_beginning_of_format_character@?$positional_parameter_base@DV?$string_output_adapter@D@__crt_stdio_output@@@__crt_stdio_output@@IEAA_NXZ 0000000140031b18 f i libucrt:output.obj
 0001:00030c5c       ?validate_and_update_state_at_beginning_of_format_character@?$positional_parameter_base@_WV?$stream_output_adapter@_W@__crt_stdio_output@@@__crt_stdio_output@@IEAA_NXZ 0000000140031c5c f i libucrt:output.obj
 0001:00030dac       ?validate_and_update_state_at_beginning_of_format_character@?$positional_parameter_base@_WV?$string_output_adapter@_W@__crt_stdio_output@@@__crt_stdio_output@@IEAA_NXZ 0000000140031dac f i libucrt:output.obj
 0001:00030efc       ?validate_and_update_state_at_beginning_of_format_character@?$standard_base@DV?$stream_output_adapter@D@__crt_stdio_output@@@__crt_stdio_output@@IEAA_NXZ 0000000140031efc f i libucrt:output.obj
 0001:00030f00       ?validate_and_update_state_at_beginning_of_format_character@?$standard_base@DV?$string_output_adapter@D@__crt_stdio_output@@@__crt_stdio_output@@IEAA_NXZ 0000000140031f00 f i libucrt:output.obj
 0001:00030f04       ?validate_and_update_state_at_beginning_of_format_character@?$standard_base@_WV?$stream_output_adapter@_W@__crt_stdio_output@@@__crt_stdio_output@@IEAA_NXZ 0000000140031f04 f i libucrt:output.obj
 0001:00030f08       ?validate_and_update_state_at_beginning_of_format_character@?$standard_base@_WV?$string_output_adapter@_W@__crt_stdio_output@@@__crt_stdio_output@@IEAA_NXZ 0000000140031f08 f i libucrt:output.obj
 0001:00030f0c       ?validate_and_update_state_at_end_of_format_string@?$format_validation_base@DV?$stream_output_adapter@D@__crt_stdio_output@@@__crt_stdio_output@@IEAA_NXZ 0000000140031f0c f i libucrt:output.obj
 0001:00030f54       ?validate_and_update_state_at_end_of_format_string@?$format_validation_base@DV?$string_output_adapter@D@__crt_stdio_output@@@__crt_stdio_output@@IEAA_NXZ 0000000140031f54 f i libucrt:output.obj
 0001:00030f9c       ?validate_and_update_state_at_end_of_format_string@?$format_validation_base@_WV?$stream_output_adapter@_W@__crt_stdio_output@@@__crt_stdio_output@@IEAA_NXZ 0000000140031f9c f i libucrt:output.obj
 0001:00030fe4       ?validate_and_update_state_at_end_of_format_string@?$format_validation_base@_WV?$string_output_adapter@_W@__crt_stdio_output@@@__crt_stdio_output@@IEAA_NXZ 0000000140031fe4 f i libucrt:output.obj
 0001:0003102c       ?validate_and_update_state_at_end_of_format_string@?$positional_parameter_base@DV?$stream_output_adapter@D@__crt_stdio_output@@@__crt_stdio_output@@IEAA_NXZ 000000014003202c f i libucrt:output.obj
 0001:000310e4       ?validate_and_update_state_at_end_of_format_string@?$positional_parameter_base@DV?$string_output_adapter@D@__crt_stdio_output@@@__crt_stdio_output@@IEAA_NXZ 00000001400320e4 f i libucrt:output.obj
 0001:0003119c       ?validate_and_update_state_at_end_of_format_string@?$positional_parameter_base@_WV?$stream_output_adapter@_W@__crt_stdio_output@@@__crt_stdio_output@@IEAA_NXZ 000000014003219c f i libucrt:output.obj
 0001:00031254       ?validate_and_update_state_at_end_of_format_string@?$positional_parameter_base@_WV?$string_output_adapter@_W@__crt_stdio_output@@@__crt_stdio_output@@IEAA_NXZ 0000000140032254 f i libucrt:output.obj
 0001:0003130c       ?validate_and_update_state_at_end_of_format_string@?$standard_base@DV?$stream_output_adapter@D@__crt_stdio_output@@@__crt_stdio_output@@IEBA_NXZ 000000014003230c f i libucrt:output.obj
 0001:00031310       ?validate_and_update_state_at_end_of_format_string@?$standard_base@DV?$string_output_adapter@D@__crt_stdio_output@@@__crt_stdio_output@@IEBA_NXZ 0000000140032310 f i libucrt:output.obj
 0001:00031314       ?validate_and_update_state_at_end_of_format_string@?$standard_base@_WV?$stream_output_adapter@_W@__crt_stdio_output@@@__crt_stdio_output@@IEBA_NXZ 0000000140032314 f i libucrt:output.obj
 0001:00031318       ?validate_and_update_state_at_end_of_format_string@?$standard_base@_WV?$string_output_adapter@_W@__crt_stdio_output@@@__crt_stdio_output@@IEBA_NXZ 0000000140032318 f i libucrt:output.obj
 0001:0003131c       ?validate_state_for_type_case_a@?$positional_parameter_base@DV?$stream_output_adapter@D@__crt_stdio_output@@@__crt_stdio_output@@IEAA_NXZ 000000014003231c f i libucrt:output.obj
 0001:00031400       ?validate_state_for_type_case_a@?$positional_parameter_base@DV?$string_output_adapter@D@__crt_stdio_output@@@__crt_stdio_output@@IEAA_NXZ 0000000140032400 f i libucrt:output.obj
 0001:000314e4       ?validate_state_for_type_case_a@?$positional_parameter_base@_WV?$stream_output_adapter@_W@__crt_stdio_output@@@__crt_stdio_output@@IEAA_NXZ 00000001400324e4 f i libucrt:output.obj
 0001:000315c8       ?validate_state_for_type_case_a@?$positional_parameter_base@_WV?$string_output_adapter@_W@__crt_stdio_output@@@__crt_stdio_output@@IEAA_NXZ 00000001400325c8 f i libucrt:output.obj
 0001:000316ac       ?validate_state_for_type_case_a@?$standard_base@DV?$stream_output_adapter@D@__crt_stdio_output@@@__crt_stdio_output@@IEBA_NXZ 00000001400326ac f i libucrt:output.obj
 0001:000316b0       ?validate_state_for_type_case_a@?$standard_base@DV?$string_output_adapter@D@__crt_stdio_output@@@__crt_stdio_output@@IEBA_NXZ 00000001400326b0 f i libucrt:output.obj
 0001:000316b4       ?validate_state_for_type_case_a@?$standard_base@_WV?$stream_output_adapter@_W@__crt_stdio_output@@@__crt_stdio_output@@IEBA_NXZ 00000001400326b4 f i libucrt:output.obj
 0001:000316b8       ?validate_state_for_type_case_a@?$standard_base@_WV?$string_output_adapter@_W@__crt_stdio_output@@@__crt_stdio_output@@IEBA_NXZ 00000001400326b8 f i libucrt:output.obj
 0001:000316bc       ?validate_stream_is_ansi_if_required@?$__acrt_stdio_char_traits@D@@SA_NQEAU_iobuf@@@Z 00000001400326bc f i libucrt:output.obj
 0001:00031758       ?validate_stream_is_ansi_if_required@?$__acrt_stdio_char_traits@_W@@SA_NQEAU_iobuf@@@Z 0000000140032758 f i libucrt:output.obj
 0001:0003175c       ?wide_character_to_digit@__crt_strtox@@YAH_W@Z 000000014003275c f i libucrt:output.obj
 0001:000318fc       ?wide_null_string@?$output_processor@DV?$stream_output_adapter@D@__crt_stdio_output@@V?$format_validation_base@DV?$stream_output_adapter@D@__crt_stdio_output@@@2@@__crt_stdio_output@@CAPEA_WXZ 00000001400328fc f i libucrt:output.obj
 0001:00031904       ?wide_null_string@?$output_processor@DV?$stream_output_adapter@D@__crt_stdio_output@@V?$positional_parameter_base@DV?$stream_output_adapter@D@__crt_stdio_output@@@2@@__crt_stdio_output@@CAPEA_WXZ 0000000140032904 f i libucrt:output.obj
 0001:0003190c       ?wide_null_string@?$output_processor@DV?$stream_output_adapter@D@__crt_stdio_output@@V?$standard_base@DV?$stream_output_adapter@D@__crt_stdio_output@@@2@@__crt_stdio_output@@CAPEA_WXZ 000000014003290c f i libucrt:output.obj
 0001:00031914       ?wide_null_string@?$output_processor@DV?$string_output_adapter@D@__crt_stdio_output@@V?$format_validation_base@DV?$string_output_adapter@D@__crt_stdio_output@@@2@@__crt_stdio_output@@CAPEA_WXZ 0000000140032914 f i libucrt:output.obj
 0001:0003191c       ?wide_null_string@?$output_processor@DV?$string_output_adapter@D@__crt_stdio_output@@V?$positional_parameter_base@DV?$string_output_adapter@D@__crt_stdio_output@@@2@@__crt_stdio_output@@CAPEA_WXZ 000000014003291c f i libucrt:output.obj
 0001:00031924       ?wide_null_string@?$output_processor@DV?$string_output_adapter@D@__crt_stdio_output@@V?$standard_base@DV?$string_output_adapter@D@__crt_stdio_output@@@2@@__crt_stdio_output@@CAPEA_WXZ 0000000140032924 f i libucrt:output.obj
 0001:0003192c       ?wide_null_string@?$output_processor@_WV?$stream_output_adapter@_W@__crt_stdio_output@@V?$format_validation_base@_WV?$stream_output_adapter@_W@__crt_stdio_output@@@2@@__crt_stdio_output@@CAPEA_WXZ 000000014003292c f i libucrt:output.obj
 0001:00031934       ?wide_null_string@?$output_processor@_WV?$stream_output_adapter@_W@__crt_stdio_output@@V?$positional_parameter_base@_WV?$stream_output_adapter@_W@__crt_stdio_output@@@2@@__crt_stdio_output@@CAPEA_WXZ 0000000140032934 f i libucrt:output.obj
 0001:0003193c       ?wide_null_string@?$output_processor@_WV?$stream_output_adapter@_W@__crt_stdio_output@@V?$standard_base@_WV?$stream_output_adapter@_W@__crt_stdio_output@@@2@@__crt_stdio_output@@CAPEA_WXZ 000000014003293c f i libucrt:output.obj
 0001:00031944       ?wide_null_string@?$output_processor@_WV?$string_output_adapter@_W@__crt_stdio_output@@V?$format_validation_base@_WV?$string_output_adapter@_W@__crt_stdio_output@@@2@@__crt_stdio_output@@CAPEA_WXZ 0000000140032944 f i libucrt:output.obj
 0001:0003194c       ?wide_null_string@?$output_processor@_WV?$string_output_adapter@_W@__crt_stdio_output@@V?$positional_parameter_base@_WV?$string_output_adapter@_W@__crt_stdio_output@@@2@@__crt_stdio_output@@CAPEA_WXZ 000000014003294c f i libucrt:output.obj
 0001:00031954       ?wide_null_string@?$output_processor@_WV?$string_output_adapter@_W@__crt_stdio_output@@V?$standard_base@_WV?$string_output_adapter@_W@__crt_stdio_output@@@2@@__crt_stdio_output@@CAPEA_WXZ 0000000140032954 f i libucrt:output.obj
 0001:0003195c       ?write_character@?$output_adapter_common@DV?$stream_output_adapter@D@__crt_stdio_output@@@__crt_stdio_output@@QEBAXDQEAHAEAV__crt_cached_ptd_host@@@Z 000000014003295c f i libucrt:output.obj
 0001:000319a8       ?write_character@?$output_adapter_common@_WV?$stream_output_adapter@_W@__crt_stdio_output@@@__crt_stdio_output@@QEBAX_WQEAHAEAV__crt_cached_ptd_host@@@Z 00000001400329a8 f i libucrt:output.obj
 0001:000319f8       ?write_character@?$string_output_adapter@D@__crt_stdio_output@@QEBA_NDQEAHAEAV__crt_cached_ptd_host@@@Z 00000001400329f8 f i libucrt:output.obj
 0001:00031a40       ?write_character@?$string_output_adapter@_W@__crt_stdio_output@@QEBA_N_WQEAHAEAV__crt_cached_ptd_host@@@Z 0000000140032a40 f i libucrt:output.obj
 0001:00031a88       ?write_character_without_count_update@?$stream_output_adapter@D@__crt_stdio_output@@QEBA_NDAEAV__crt_cached_ptd_host@@@Z 0000000140032a88 f i libucrt:output.obj
 0001:00031ac8       ?write_character_without_count_update@?$stream_output_adapter@_W@__crt_stdio_output@@QEBA_N_WAEAV__crt_cached_ptd_host@@@Z 0000000140032ac8 f i libucrt:output.obj
 0001:00031b0c       ?write_stored_string_tchar@?$output_processor@DV?$stream_output_adapter@D@__crt_stdio_output@@V?$format_validation_base@DV?$stream_output_adapter@D@__crt_stdio_output@@@2@@__crt_stdio_output@@AEAA_ND@Z 0000000140032b0c f i libucrt:output.obj
 0001:00031c40       ?write_stored_string_tchar@?$output_processor@DV?$stream_output_adapter@D@__crt_stdio_output@@V?$positional_parameter_base@DV?$stream_output_adapter@D@__crt_stdio_output@@@2@@__crt_stdio_output@@AEAA_ND@Z 0000000140032c40 f i libucrt:output.obj
 0001:00031d74       ?write_stored_string_tchar@?$output_processor@DV?$stream_output_adapter@D@__crt_stdio_output@@V?$standard_base@DV?$stream_output_adapter@D@__crt_stdio_output@@@2@@__crt_stdio_output@@AEAA_ND@Z 0000000140032d74 f i libucrt:output.obj
 0001:00031ea8       ?write_stored_string_tchar@?$output_processor@DV?$string_output_adapter@D@__crt_stdio_output@@V?$format_validation_base@DV?$string_output_adapter@D@__crt_stdio_output@@@2@@__crt_stdio_output@@AEAA_ND@Z 0000000140032ea8 f i libucrt:output.obj
 0001:00031f90       ?write_stored_string_tchar@?$output_processor@DV?$string_output_adapter@D@__crt_stdio_output@@V?$positional_parameter_base@DV?$string_output_adapter@D@__crt_stdio_output@@@2@@__crt_stdio_output@@AEAA_ND@Z 0000000140032f90 f i libucrt:output.obj
 0001:00032078       ?write_stored_string_tchar@?$output_processor@DV?$string_output_adapter@D@__crt_stdio_output@@V?$standard_base@DV?$string_output_adapter@D@__crt_stdio_output@@@2@@__crt_stdio_output@@AEAA_ND@Z 0000000140033078 f i libucrt:output.obj
 0001:00032160       ?write_stored_string_tchar@?$output_processor@_WV?$stream_output_adapter@_W@__crt_stdio_output@@V?$format_validation_base@_WV?$stream_output_adapter@_W@__crt_stdio_output@@@2@@__crt_stdio_output@@AEAA_N_W@Z 0000000140033160 f i libucrt:output.obj
 0001:00032294       ?write_stored_string_tchar@?$output_processor@_WV?$stream_output_adapter@_W@__crt_stdio_output@@V?$positional_parameter_base@_WV?$stream_output_adapter@_W@__crt_stdio_output@@@2@@__crt_stdio_output@@AEAA_N_W@Z 0000000140033294 f i libucrt:output.obj
 0001:000323c8       ?write_stored_string_tchar@?$output_processor@_WV?$stream_output_adapter@_W@__crt_stdio_output@@V?$standard_base@_WV?$stream_output_adapter@_W@__crt_stdio_output@@@2@@__crt_stdio_output@@AEAA_N_W@Z 00000001400333c8 f i libucrt:output.obj
 0001:000324fc       ?write_stored_string_tchar@?$output_processor@_WV?$string_output_adapter@_W@__crt_stdio_output@@V?$format_validation_base@_WV?$string_output_adapter@_W@__crt_stdio_output@@@2@@__crt_stdio_output@@AEAA_N_W@Z 00000001400334fc f i libucrt:output.obj
 0001:00032610       ?write_stored_string_tchar@?$output_processor@_WV?$string_output_adapter@_W@__crt_stdio_output@@V?$positional_parameter_base@_WV?$string_output_adapter@_W@__crt_stdio_output@@@2@@__crt_stdio_output@@AEAA_N_W@Z 0000000140033610 f i libucrt:output.obj
 0001:00032724       ?write_stored_string_tchar@?$output_processor@_WV?$string_output_adapter@_W@__crt_stdio_output@@V?$standard_base@_WV?$string_output_adapter@_W@__crt_stdio_output@@@2@@__crt_stdio_output@@AEAA_N_W@Z 0000000140033724 f i libucrt:output.obj
 0001:00032838       ?write_string@?$stream_output_adapter@D@__crt_stdio_output@@QEBAXQEBDHQEAHAEAV__crt_cached_ptd_host@@@Z 0000000140033838 f i libucrt:output.obj
 0001:00032860       ?write_string@?$stream_output_adapter@_W@__crt_stdio_output@@QEBAXQEB_WHQEAHAEAV__crt_cached_ptd_host@@@Z 0000000140033860 f i libucrt:output.obj
 0001:00032888       ?write_string@?$string_output_adapter@D@__crt_stdio_output@@QEBAXQEBDHQEAHAEAV__crt_cached_ptd_host@@@Z 0000000140033888 f i libucrt:output.obj
 0001:0003292c       ?write_string@?$string_output_adapter@_W@__crt_stdio_output@@QEBAXQEB_WHQEAHAEAV__crt_cached_ptd_host@@@Z 000000014003392c f i libucrt:output.obj
 0001:000329d4       ?write_string_impl@?$output_adapter_common@DV?$stream_output_adapter@D@__crt_stdio_output@@@__crt_stdio_output@@IEBAXQEBDHQEAHAEAV__crt_cached_ptd_host@@@Z 00000001400339d4 f i libucrt:output.obj
 0001:00032aa0       ?write_string_impl@?$output_adapter_common@_WV?$stream_output_adapter@_W@__crt_stdio_output@@@__crt_stdio_output@@IEBAXQEB_WHQEAHAEAV__crt_cached_ptd_host@@@Z 0000000140033aa0 f i libucrt:output.obj
 0001:00032b80       __acrt_disable_global_locale_sync 0000000140033b80 f i libucrt:output.obj
 0001:00032b88       __acrt_enable_global_locale_sync 0000000140033b88 f i libucrt:output.obj
 0001:00032b94       __acrt_isleadbyte_l_noupdate 0000000140033b94 f i libucrt:output.obj
 0001:00032bb8       __acrt_locale_changed      0000000140033bb8 f i libucrt:output.obj
 0001:00032bc4       __acrt_locale_get_ctype_array_value 0000000140033bc4 f i libucrt:output.obj
 0001:00032bdc       __ascii_iswalpha           0000000140033bdc f i libucrt:output.obj
 0001:00032bf8       __ascii_toupper            0000000140033bf8 f i libucrt:output.obj
 0001:00032c08       __ascii_towupper           0000000140033c08 f i libucrt:output.obj
 0001:00032c18       __stdio_common_vfprintf    0000000140033c18 f   libucrt:output.obj
 0001:00032d3c       __stdio_common_vfprintf_p  0000000140033d3c f   libucrt:output.obj
 0001:00032e60       __stdio_common_vfprintf_s  0000000140033e60 f   libucrt:output.obj
 0001:00032f84       __stdio_common_vfwprintf   0000000140033f84 f   libucrt:output.obj
 0001:000330a8       __stdio_common_vfwprintf_p 00000001400340a8 f   libucrt:output.obj
 0001:000331cc       __stdio_common_vfwprintf_s 00000001400341cc f   libucrt:output.obj
 0001:000332f0       __stdio_common_vsnprintf_s 00000001400342f0 f   libucrt:output.obj
 0001:000334c8       __stdio_common_vsnwprintf_s 00000001400344c8 f   libucrt:output.obj
 0001:000336a4       __stdio_common_vsprintf    00000001400346a4 f   libucrt:output.obj
 0001:000338f8       __stdio_common_vsprintf_p  00000001400348f8 f   libucrt:output.obj
 0001:000339b0       __stdio_common_vsprintf_s  00000001400349b0 f   libucrt:output.obj
 0001:00033ac4       __stdio_common_vswprintf   0000000140034ac4 f   libucrt:output.obj
 0001:00033d20       __stdio_common_vswprintf_p 0000000140034d20 f   libucrt:output.obj
 0001:00033dd8       __stdio_common_vswprintf_s 0000000140034dd8 f   libucrt:output.obj
 0001:00033eec       _ctype_fast_check_internal 0000000140034eec f i libucrt:output.obj
 0001:00033f00       _isdigit_fast_internal     0000000140034f00 f i libucrt:output.obj
 0001:00033f14       _tolower_fast_internal     0000000140034f14 f i libucrt:output.obj
 0001:00033f48       _seh_filter_dll            0000000140034f48 f   libucrt:exception_filter.obj
 0001:00033f5c       _seh_filter_exe            0000000140034f5c f   libucrt:exception_filter.obj
 0001:000341bc       __acrt_report_runtime_error 00000001400351bc f   libucrt:report_runtime_error.obj
 0001:0003431c       _invoke_watson_if_error    000000014003531c f i libucrt:report_runtime_error.obj
 0001:00034350       _query_app_type            0000000140035350 f   libucrt:report_runtime_error.obj
 0001:00034358       _set_app_type              0000000140035358 f   libucrt:report_runtime_error.obj
 0001:00034360       ??$__crt_fast_decode_pointer@P6AHPEAU_exception@@@Z@@YAP6AHPEAU_exception@@@ZQ6AH0@Z@Z 0000000140035360 f i libucrt:matherr.obj
 0001:00034378       ??$__crt_fast_encode_pointer@P6AHPEAU_exception@@@Z@@YAP6AHPEAU_exception@@@ZQ6AH0@Z@Z 0000000140035378 f i libucrt:matherr.obj
 0001:00034398       ?__crt_rotate_pointer_value@@YA_K_KH@Z 0000000140035398 f i libucrt:matherr.obj
 0001:000343a4       ?get_current_state_index@__crt_state_management@@YA_KXZ 00000001400353a4 f i libucrt:matherr.obj
 0001:000343a8       ?initialize@?$dual_state_global@P6AHPEAU_exception@@@Z@__crt_state_management@@QEAAXQ6AHPEAU_exception@@@Z@Z 00000001400353a8 f i libucrt:matherr.obj
 0001:000343b8       ?value@?$dual_state_global@P6AHPEAU_exception@@@Z@__crt_state_management@@QEAAAEAP6AHPEAU_exception@@@ZXZ 00000001400353b8 f i libucrt:matherr.obj
 0001:000343bc       __acrt_has_user_matherr    00000001400353bc f   libucrt:matherr.obj
 0001:000343dc       __acrt_initialize_user_matherr 00000001400353dc f   libucrt:matherr.obj
 0001:000343e4       __acrt_invoke_user_matherr 00000001400353e4 f   libucrt:matherr.obj
 0001:00034420       __setusermatherr           0000000140035420 f   libucrt:matherr.obj
 0001:00034448       ??$?RE@__crt_internal_free_policy@@QEBAXQEBE@Z 0000000140035448 f i libucrt:argv_parsing.obj
 0001:00034450       ??$?RPEAD@__crt_internal_free_policy@@QEBAXQEBQEAD@Z 0000000140035450 f i libucrt:argv_parsing.obj
 0001:00034458       ??$?RPEA_W@__crt_internal_free_policy@@QEBAXQEBQEA_W@Z 0000000140035458 f i libucrt:argv_parsing.obj
 0001:00034754       ??$get_module_file_name@$$TAEAY0BAF@DH@?$__crt_char_traits@D@@SAK$$QEA$$TAEAY0BAF@D$$QEAH@Z 0000000140035754 f i libucrt:argv_parsing.obj
 0001:00034760       ??$get_module_file_name@$$TAEAY0BAF@_WH@?$__crt_char_traits@_W@@SAK$$QEA$$TAEAY0BAF@_W$$QEAH@Z 0000000140035760 f i libucrt:argv_parsing.obj
 0001:00034adc       ??$set_program_name@PEAD@?$__crt_char_traits@D@@SAX$$QEAPEAD@Z 0000000140035adc f i libucrt:argv_parsing.obj
 0001:00034ae8       ??$set_program_name@PEA_W@?$__crt_char_traits@_W@@SAX$$QEAPEA_W@Z 0000000140035ae8 f i libucrt:argv_parsing.obj
 0001:00034b04       ??0?$__crt_unique_heap_ptr@EU__crt_internal_free_policy@@@@QEAA@QEAE@Z 0000000140035b04 f i libucrt:argv_parsing.obj
 0001:00034b0c       ??0?$__crt_unique_heap_ptr@PEADU__crt_internal_free_policy@@@@QEAA@QEAPEAD@Z 0000000140035b0c f i libucrt:argv_parsing.obj
 0001:00034b14       ??0?$__crt_unique_heap_ptr@PEA_WU__crt_internal_free_policy@@@@QEAA@QEAPEA_W@Z 0000000140035b14 f i libucrt:argv_parsing.obj
 0001:00034b1c       ??1?$__crt_unique_heap_ptr@EU__crt_internal_free_policy@@@@QEAA@XZ 0000000140035b1c f i libucrt:argv_parsing.obj
 0001:00034b38       ??1?$__crt_unique_heap_ptr@PEADU__crt_internal_free_policy@@@@QEAA@XZ 0000000140035b38 f i libucrt:argv_parsing.obj
 0001:00034b54       ??1?$__crt_unique_heap_ptr@PEA_WU__crt_internal_free_policy@@@@QEAA@XZ 0000000140035b54 f i libucrt:argv_parsing.obj
 0001:00034b70       ??B?$__crt_unique_heap_ptr@EU__crt_internal_free_policy@@@@QEBA_NXZ 0000000140035b70 f i libucrt:argv_parsing.obj
 0001:00034bb0       ?detach@?$__crt_unique_heap_ptr@EU__crt_internal_free_policy@@@@QEAAPEAEXZ 0000000140035bb0 f i libucrt:argv_parsing.obj
 0001:00034bb8       ?detach@?$__crt_unique_heap_ptr@PEADU__crt_internal_free_policy@@@@QEAAPEAPEADXZ 0000000140035bb8 f i libucrt:argv_parsing.obj
 0001:00034bc0       ?detach@?$__crt_unique_heap_ptr@PEA_WU__crt_internal_free_policy@@@@QEAAPEAPEA_WXZ 0000000140035bc0 f i libucrt:argv_parsing.obj
 0001:00034be4       ?get@?$__crt_unique_heap_ptr@EU__crt_internal_free_policy@@@@QEBAPEAEXZ 0000000140035be4 f i libucrt:argv_parsing.obj
 0001:00034be8       ?get@?$__crt_unique_heap_ptr@PEADU__crt_internal_free_policy@@@@QEBAPEAPEADXZ 0000000140035be8 f i libucrt:argv_parsing.obj
 0001:00034bec       ?get@?$__crt_unique_heap_ptr@PEA_WU__crt_internal_free_policy@@@@QEBAPEAPEA_WXZ 0000000140035bec f i libucrt:argv_parsing.obj
 0001:00034bf0       ?get_address_of@?$__crt_unique_heap_ptr@PEADU__crt_internal_free_policy@@@@QEAAPEAPEAPEADXZ 0000000140035bf0 f i libucrt:argv_parsing.obj
 0001:00034bf4       ?get_address_of@?$__crt_unique_heap_ptr@PEA_WU__crt_internal_free_policy@@@@QEAAPEAPEAPEA_WXZ 0000000140035bf4 f i libucrt:argv_parsing.obj
 0001:00034c18       ?is_valid@?$__crt_unique_heap_ptr@EU__crt_internal_free_policy@@@@QEBA_NXZ 0000000140035c18 f i libucrt:argv_parsing.obj
 0001:00034c20       ?release@?$__crt_unique_heap_ptr@EU__crt_internal_free_policy@@@@QEAAXXZ 0000000140035c20 f i libucrt:argv_parsing.obj
 0001:00034c3c       ?release@?$__crt_unique_heap_ptr@PEADU__crt_internal_free_policy@@@@QEAAXXZ 0000000140035c3c f i libucrt:argv_parsing.obj
 0001:00034c58       ?release@?$__crt_unique_heap_ptr@PEA_WU__crt_internal_free_policy@@@@QEAAXXZ 0000000140035c58 f i libucrt:argv_parsing.obj
 0001:00034c90       __acrt_allocate_buffer_for_argv 0000000140035c90 f   libucrt:argv_parsing.obj
 0001:00034cf0       _configure_narrow_argv     0000000140035cf0 f   libucrt:argv_parsing.obj
 0001:00034e78       _configure_wide_argv       0000000140035e78 f   libucrt:argv_parsing.obj
 0001:00034ffc       _set_pgmptr                0000000140035ffc f i libucrt:argv_parsing.obj
 0001:00035004       _set_wpgmptr               0000000140036004 f i libucrt:argv_parsing.obj
 0001:0003500c       ??$?R_W@__crt_internal_free_policy@@QEBAXQEB_W@Z 000000014003600c f i libucrt:environment_initialization.obj
 0001:00035534       ??$get_environment_from_os@$$V@?$__crt_char_traits@D@@SAPEADXZ 0000000140036534 f i libucrt:environment_initialization.obj
 0001:0003553c       ??$get_environment_from_os@$$V@?$__crt_char_traits@_W@@SAPEA_WXZ 000000014003653c f i libucrt:environment_initialization.obj
 0001:000356e0       ??$set_variable_in_environment_nolock@PEADH@?$__crt_char_traits@D@@SAH$$QEAPEAD$$QEAH@Z 00000001400366e0 f i libucrt:environment_initialization.obj
 0001:000356ec       ??$set_variable_in_environment_nolock@PEA_WH@?$__crt_char_traits@_W@@SAH$$QEAPEA_W$$QEAH@Z 00000001400366ec f i libucrt:environment_initialization.obj
 0001:000356f8       ??$tcscpy_s@PEADAEB_KAEAPEAD@?$__crt_char_traits@D@@SAH$$QEAPEADAEB_KAEAPEAD@Z 00000001400366f8 f i libucrt:environment_initialization.obj
 0001:00035708       ??$tcscpy_s@PEA_WAEB_KAEAPEA_W@?$__crt_char_traits@_W@@SAH$$QEAPEA_WAEB_KAEAPEA_W@Z 0000000140036708 f i libucrt:environment_initialization.obj
 0001:00035718       ??$tcslen@AEAPEAD@?$__crt_char_traits@D@@SA_KAEAPEAD@Z 0000000140036718 f i libucrt:environment_initialization.obj
 0001:0003572c       ??$tcslen@AEAPEA_W@?$__crt_char_traits@_W@@SA_KAEAPEA_W@Z 000000014003672c f i libucrt:environment_initialization.obj
 0001:00035740       ??$uninitialize@A6AXAEAPEAPEAD@_E@?$dual_state_global@PEAPEAD@__crt_state_management@@QEAAXA6AXAEAPEAPEAD@_E@Z 0000000140036740 f i libucrt:environment_initialization.obj
 0001:00035798       ??$uninitialize@A6AXAEAPEAPEA_W@_E@?$dual_state_global@PEAPEA_W@__crt_state_management@@QEAAXA6AXAEAPEAPEA_W@_E@Z 0000000140036798 f i libucrt:environment_initialization.obj
 0001:00035828       ??0?$__crt_unique_heap_ptr@_WU__crt_internal_free_policy@@@@QEAA@QEA_W@Z 0000000140036828 f i libucrt:environment_initialization.obj
 0001:00035830       ??1?$__crt_unique_heap_ptr@_WU__crt_internal_free_policy@@@@QEAA@XZ 0000000140036830 f i libucrt:environment_initialization.obj
 0001:0003584c       ??B?$__crt_unique_heap_ptr@PEADU__crt_internal_free_policy@@@@QEBA_NXZ 000000014003684c f i libucrt:environment_initialization.obj
 0001:00035854       ??B?$__crt_unique_heap_ptr@PEA_WU__crt_internal_free_policy@@@@QEBA_NXZ 0000000140036854 f i libucrt:environment_initialization.obj
 0001:0003585c       ??B?$__crt_unique_heap_ptr@_WU__crt_internal_free_policy@@@@QEBA_NXZ 000000014003685c f i libucrt:environment_initialization.obj
 0001:00035864       ?__crt_compute_required_transform_buffer_count@@YA_KIQEBD@Z 0000000140036864 f i libucrt:environment_initialization.obj
 0001:00035888       ?__crt_compute_required_transform_buffer_count@@YA_KIQEB_W@Z 0000000140036888 f i libucrt:environment_initialization.obj
 0001:000358b8       ?__crt_transform_string@@YA_KIQEBDQEA_W_K@Z 00000001400368b8 f i libucrt:environment_initialization.obj
 0001:000358dc       ?__crt_transform_string@@YA_KIQEB_WQEAD_K@Z 00000001400368dc f i libucrt:environment_initialization.obj
 0001:0003590c       ?detach@?$__crt_unique_heap_ptr@DU__crt_internal_free_policy@@@@QEAAPEADXZ 000000014003690c f i libucrt:environment_initialization.obj
 0001:00035914       ?detach@?$__crt_unique_heap_ptr@_WU__crt_internal_free_policy@@@@QEAAPEA_WXZ 0000000140036914 f i libucrt:environment_initialization.obj
 0001:0003591c       ?get@?$__crt_unique_heap_ptr@_WU__crt_internal_free_policy@@@@QEBAPEA_WXZ 000000014003691c f i libucrt:environment_initialization.obj
 0001:00035950       ?initialize@?$dual_state_global@PEAPEAD@__crt_state_management@@QEAAXQEAPEAD@Z 0000000140036950 f i libucrt:environment_initialization.obj
 0001:00035960       ?initialize@?$dual_state_global@PEAPEA_W@__crt_state_management@@QEAAXQEAPEA_W@Z 0000000140036960 f i libucrt:environment_initialization.obj
 0001:00035970       ?is_valid@?$__crt_unique_heap_ptr@PEADU__crt_internal_free_policy@@@@QEBA_NXZ 0000000140036970 f i libucrt:environment_initialization.obj
 0001:00035978       ?is_valid@?$__crt_unique_heap_ptr@PEA_WU__crt_internal_free_policy@@@@QEBA_NXZ 0000000140036978 f i libucrt:environment_initialization.obj
 0001:00035980       ?is_valid@?$__crt_unique_heap_ptr@_WU__crt_internal_free_policy@@@@QEBA_NXZ 0000000140036980 f i libucrt:environment_initialization.obj
 0001:00035994       ?release@?$__crt_unique_heap_ptr@_WU__crt_internal_free_policy@@@@QEAAXXZ 0000000140036994 f i libucrt:environment_initialization.obj
 0001:000359b0       ?value@?$dual_state_global@PEAPEAD@__crt_state_management@@QEAAAEAPEAPEADXZ 00000001400369b0 f i libucrt:environment_initialization.obj
 0001:000359b4       ?value@?$dual_state_global@PEAPEA_W@__crt_state_management@@QEAAAEAPEAPEA_WXZ 00000001400369b4 f i libucrt:environment_initialization.obj
 0001:000359b8       __dcrt_get_or_create_narrow_environment_nolock 00000001400369b8 f   libucrt:environment_initialization.obj
 0001:000359f4       __dcrt_get_or_create_wide_environment_nolock 00000001400369f4 f   libucrt:environment_initialization.obj
 0001:00035a30       __dcrt_uninitialize_environments_nolock 0000000140036a30 f   libucrt:environment_initialization.obj
 0001:00035a74       __p__environ               0000000140036a74 f   libucrt:environment_initialization.obj
 0001:00035a7c       __p__wenviron              0000000140036a7c f   libucrt:environment_initialization.obj
 0001:00035a84       _get_initial_narrow_environment 0000000140036a84 f   libucrt:environment_initialization.obj
 0001:00035ad4       _get_initial_wide_environment 0000000140036ad4 f   libucrt:environment_initialization.obj
 0001:00035b24       _initialize_narrow_environment 0000000140036b24 f   libucrt:environment_initialization.obj
 0001:00035b2c       _initialize_wide_environment 0000000140036b2c f   libucrt:environment_initialization.obj
 0001:00035b34       _initterm                  0000000140036b34 f   libucrt:initterm.obj
 0001:00035b78       _initterm_e                0000000140036b78 f   libucrt:initterm.obj
 0001:00035bc0       ??$?B$$A6AXPEAXK0@Z@__crt_fast_encoded_nullptr_t@@QEBAP6AXPEAXK0@ZXZ 0000000140036bc0 f i libucrt:exit.obj
 0001:00035c30       ??$__crt_fast_decode_pointer@P6AXPEAXK0@Z@@YAP6AXPEAXK0@ZQ6AX0K0@Z@Z 0000000140036c30 f i libucrt:exit.obj
 0001:00035c48       ??$__crt_fast_encode_pointer@P6AXPEAXK0@Z@@YAP6AXPEAXK0@ZQ6AX0K0@Z@Z 0000000140036c48 f i libucrt:exit.obj
 0001:00035c68       ??$__crt_get_proc_address@P6AXI@Z@@YAP6AXI@ZQEAUHINSTANCE__@@QEBD@Z 0000000140036c68 f i libucrt:exit.obj
 0001:00035c90       ??0?$__crt_unique_handle_t@U__crt_hmodule_traits@@@@QEAA@QEAUHINSTANCE__@@@Z 0000000140036c90 f i libucrt:exit.obj
 0001:00035c98       ??1?$__crt_unique_handle_t@U__crt_hmodule_traits@@@@QEAA@XZ 0000000140036c98 f i libucrt:exit.obj
 0001:00035d98       ?__acrt_select_exit_lock@@YA?AW4__acrt_lock_id@@XZ 0000000140036d98 f i libucrt:exit.obj
 0001:00035da0       ?__crt_fast_encode_pointer@@YA?AU__crt_fast_encoded_nullptr_t@@$$T@Z 0000000140036da0 f i libucrt:exit.obj
 0001:00035db4       ?close@?$__crt_unique_handle_t@U__crt_hmodule_traits@@@@QEAAXXZ 0000000140036db4 f i libucrt:exit.obj
 0001:00035dd8       ?close@__crt_hmodule_traits@@SA_NPEAUHINSTANCE__@@@Z 0000000140036dd8 f i libucrt:exit.obj
 0001:00035ee8       ?get@?$__crt_unique_handle_t@U__crt_hmodule_traits@@@@QEBAPEAUHINSTANCE__@@XZ 0000000140036ee8 f i libucrt:exit.obj
 0001:00035eec       ?get_address_of@?$__crt_unique_handle_t@U__crt_hmodule_traits@@@@QEAAPEAPEAUHINSTANCE__@@XZ 0000000140036eec f i libucrt:exit.obj
 0001:00035ef0       ?get_invalid_value@__crt_hmodule_traits@@SAPEAUHINSTANCE__@@XZ 0000000140036ef0 f i libucrt:exit.obj
 0001:00035fdc       _Exit                      0000000140036fdc f   libucrt:exit.obj
 0001:00035fe8       __acrt_initialize_thread_local_exit_callback 0000000140036fe8 f   libucrt:exit.obj
 0001:00035ff0       _c_exit                    0000000140036ff0 f   libucrt:exit.obj
 0001:00036000       _cexit                     0000000140037000 f   libucrt:exit.obj
 0001:00036010       _exit                      0000000140037010 f   libucrt:exit.obj
 0001:0003601c       _is_c_termination_complete 000000014003701c f   libucrt:exit.obj
 0001:00036024       _register_thread_local_exe_atexit_callback 0000000140037024 f   libucrt:exit.obj
 0001:00036064       exit                       0000000140037064 f   libucrt:exit.obj
 0001:00036070       quick_exit                 0000000140037070 f   libucrt:exit.obj
 0001:0003607c       ??$__crt_interlocked_read@H@@YAHPEDH@Z 000000014003707c f i libucrt:setmode.obj
 0001:00036080       ?value@?$dual_state_global@H@__crt_state_management@@QEAAAEAHXZ 0000000140037080 f i libucrt:setmode.obj
 0001:00036084       _get_fmode                 0000000140037084 f   libucrt:setmode.obj
 0001:000360b4       _set_fmode                 00000001400370b4 f   libucrt:setmode.obj
 0001:000360f4       _setmode                   00000001400370f4 f   libucrt:setmode.obj
 0001:00036210       _setmode_nolock            0000000140037210 f   libucrt:setmode.obj
 0001:000362f4       __acrt_initialize_command_line 00000001400372f4 f   libucrt:argv_data.obj
 0001:0003631c       __acrt_uninitialize_command_line 000000014003731c f   libucrt:argv_data.obj
 0001:00036320       __p___argc                 0000000140037320 f   libucrt:argv_data.obj
 0001:00036328       __p___argv                 0000000140037328 f   libucrt:argv_data.obj
 0001:00036330       __p___wargv                0000000140037330 f   libucrt:argv_data.obj
 0001:00036338       __p__acmdln                0000000140037338 f   libucrt:argv_data.obj
 0001:00036340       __p__pgmptr                0000000140037340 f   libucrt:argv_data.obj
 0001:00036348       __p__wcmdln                0000000140037348 f   libucrt:argv_data.obj
 0001:00036350       __p__wpgmptr               0000000140037350 f   libucrt:argv_data.obj
 0001:00036358       _get_pgmptr                0000000140037358 f   libucrt:argv_data.obj
 0001:00036390       _get_wpgmptr               0000000140037390 f   libucrt:argv_data.obj
 0001:000363cc       ??$?RU__crt_locale_data@@@__crt_internal_free_policy@@QEBAXQEBU__crt_locale_data@@@Z 00000001400373cc f i libucrt:wsetlocale.obj
 0001:000363d4       ??$?RU__crt_locale_pointers@@@__crt_internal_free_policy@@QEBAXQEBU__crt_locale_pointers@@@Z 00000001400373d4 f i libucrt:wsetlocale.obj
 0001:000363dc       ??$?RU__crt_multibyte_data@@@__crt_internal_free_policy@@QEBAXQEBU__crt_multibyte_data@@@Z 00000001400373dc f i libucrt:wsetlocale.obj
 0001:000367e0       ??0?$__crt_unique_heap_ptr@U__crt_locale_data@@U__crt_internal_free_policy@@@@QEAA@QEAU__crt_locale_data@@@Z 00000001400377e0 f i libucrt:wsetlocale.obj
 0001:000367e8       ??0?$__crt_unique_heap_ptr@U__crt_locale_pointers@@U__crt_internal_free_policy@@@@QEAA@QEAU__crt_locale_pointers@@@Z 00000001400377e8 f i libucrt:wsetlocale.obj
 0001:000367f0       ??0?$__crt_unique_heap_ptr@U__crt_multibyte_data@@U__crt_internal_free_policy@@@@QEAA@QEAU__crt_multibyte_data@@@Z 00000001400377f0 f i libucrt:wsetlocale.obj
 0001:000367f8       ??0_expandlocale_locale_name_cache@@QEAA@QEA_W_KQEAU__crt_qualified_locale_data@@@Z 00000001400377f8 f i libucrt:wsetlocale.obj
 0001:00036854       ??1?$__crt_unique_heap_ptr@U__crt_locale_data@@U__crt_internal_free_policy@@@@QEAA@XZ 0000000140037854 f i libucrt:wsetlocale.obj
 0001:00036870       ??1?$__crt_unique_heap_ptr@U__crt_locale_pointers@@U__crt_internal_free_policy@@@@QEAA@XZ 0000000140037870 f i libucrt:wsetlocale.obj
 0001:0003688c       ??1?$__crt_unique_heap_ptr@U__crt_multibyte_data@@U__crt_internal_free_policy@@@@QEAA@XZ 000000014003788c f i libucrt:wsetlocale.obj
 0001:000368a8       ??1_expandlocale_locale_name_cache@@QEAA@XZ 00000001400378a8 f i libucrt:wsetlocale.obj
 0001:000368f0       ??B?$__crt_unique_heap_ptr@U__crt_locale_data@@U__crt_internal_free_policy@@@@QEBA_NXZ 00000001400378f0 f i libucrt:wsetlocale.obj
 0001:000368f8       ??B?$__crt_unique_heap_ptr@U__crt_locale_pointers@@U__crt_internal_free_policy@@@@QEBA_NXZ 00000001400378f8 f i libucrt:wsetlocale.obj
 0001:00036900       ??B?$__crt_unique_heap_ptr@U__crt_multibyte_data@@U__crt_internal_free_policy@@@@QEBA_NXZ 0000000140037900 f i libucrt:wsetlocale.obj
 0001:00036b80       ?commit_locale_name@_expandlocale_locale_name_cache@@QEAAXQEB_W_K@Z 0000000140037b80 f i libucrt:wsetlocale.obj
 0001:00036bf8       ?commit_locale_name_cache_already_updated@_expandlocale_locale_name_cache@@QEAAXQEB_W_K@Z 0000000140037bf8 f i libucrt:wsetlocale.obj
 0001:00036c38       ?detach@?$__crt_unique_heap_ptr@U__crt_locale_data@@U__crt_internal_free_policy@@@@QEAAPEAU__crt_locale_data@@XZ 0000000140037c38 f i libucrt:wsetlocale.obj
 0001:00036c40       ?detach@?$__crt_unique_heap_ptr@U__crt_locale_pointers@@U__crt_internal_free_policy@@@@QEAAPEAU__crt_locale_pointers@@XZ 0000000140037c40 f i libucrt:wsetlocale.obj
 0001:00036c48       ?detach@?$__crt_unique_heap_ptr@U__crt_multibyte_data@@U__crt_internal_free_policy@@@@QEAAPEAU__crt_multibyte_data@@XZ 0000000140037c48 f i libucrt:wsetlocale.obj
 0001:00036c50       ?get@?$__crt_unique_heap_ptr@U__crt_locale_data@@U__crt_internal_free_policy@@@@QEBAPEAU__crt_locale_data@@XZ 0000000140037c50 f i libucrt:wsetlocale.obj
 0001:00036c54       ?get@?$__crt_unique_heap_ptr@U__crt_locale_pointers@@U__crt_internal_free_policy@@@@QEBAPEAU__crt_locale_pointers@@XZ 0000000140037c54 f i libucrt:wsetlocale.obj
 0001:00036c58       ?get@?$__crt_unique_heap_ptr@U__crt_multibyte_data@@U__crt_internal_free_policy@@@@QEBAPEAU__crt_multibyte_data@@XZ 0000000140037c58 f i libucrt:wsetlocale.obj
 0001:00036c5c       ?is_valid@?$__crt_unique_heap_ptr@U__crt_locale_data@@U__crt_internal_free_policy@@@@QEBA_NXZ 0000000140037c5c f i libucrt:wsetlocale.obj
 0001:00036c64       ?is_valid@?$__crt_unique_heap_ptr@U__crt_locale_pointers@@U__crt_internal_free_policy@@@@QEBA_NXZ 0000000140037c64 f i libucrt:wsetlocale.obj
 0001:00036c6c       ?is_valid@?$__crt_unique_heap_ptr@U__crt_multibyte_data@@U__crt_internal_free_policy@@@@QEBA_NXZ 0000000140037c6c f i libucrt:wsetlocale.obj
 0001:00036c74       ?release@?$__crt_unique_heap_ptr@U__crt_locale_data@@U__crt_internal_free_policy@@@@QEAAXXZ 0000000140037c74 f i libucrt:wsetlocale.obj
 0001:00036c90       ?release@?$__crt_unique_heap_ptr@U__crt_locale_pointers@@U__crt_internal_free_policy@@@@QEAAXXZ 0000000140037c90 f i libucrt:wsetlocale.obj
 0001:00036cac       ?release@?$__crt_unique_heap_ptr@U__crt_multibyte_data@@U__crt_internal_free_policy@@@@QEAAXXZ 0000000140037cac f i libucrt:wsetlocale.obj
 0001:00036cc8       ?value@?$dual_state_global@PEAU__crt_locale_data@@@__crt_state_management@@QEAAAEAPEAU__crt_locale_data@@XZ 0000000140037cc8 f i libucrt:wsetlocale.obj
 0001:00036ccc       __acrt_copy_locale_name    0000000140037ccc f   libucrt:wsetlocale.obj
 0001:00036d50       __acrt_set_locale_changed  0000000140037d50 f   libucrt:wsetlocale.obj
 0001:00036d5c       __acrt_uninitialize_locale 0000000140037d5c f   libucrt:wsetlocale.obj
 0001:00036d8c       __ascii_tolower            0000000140037d8c f i libucrt:wsetlocale.obj
 0001:00036d9c       __ascii_towlower           0000000140037d9c f i libucrt:wsetlocale.obj
 0001:00036dac       __lc_lctowcs               0000000140037dac f   libucrt:wsetlocale.obj
 0001:00036e50       __lc_wcstolc               0000000140037e50 f   libucrt:wsetlocale.obj
 0001:00036fb8       _configthreadlocale        0000000140037fb8 f   libucrt:wsetlocale.obj
 0001:000370e4       _create_locale             00000001400380e4 f   libucrt:wsetlocale.obj
 0001:000375dc       _free_locale               00000001400385dc f   libucrt:wsetlocale.obj
 0001:00037680       _get_current_locale        0000000140038680 f   libucrt:wsetlocale.obj
 0001:0003773c       _wcreate_locale            000000014003873c f   libucrt:wsetlocale.obj
 0001:00037884       _wcscats                   0000000140038884 f   libucrt:wsetlocale.obj
 0001:000378ec       _wsetlocale                00000001400388ec f   libucrt:wsetlocale.obj
 0001:00038708       ?value@?$dual_state_global@J@__crt_state_management@@QEAAAEAJXZ 0000000140039708 f i libucrt:new_mode.obj
 0001:0003870c       _query_new_mode            000000014003970c f   libucrt:new_mode.obj
 0001:00038714       _set_new_mode              0000000140039714 f   libucrt:new_mode.obj
 0001:00038740       __p__commode               0000000140039740 f   libucrt:ncommode.obj
 0001:00038748       ??$?B$$A6AXXZ@__crt_fast_encoded_nullptr_t@@QEBAP6AXXZXZ 0000000140039748 f i libucrt:onexit.obj
 0001:00038750       ??$?BP6AXXZ@__crt_fast_encoded_nullptr_t@@QEBAPEAP6AXXZXZ 0000000140039750 f i libucrt:onexit.obj
 0001:00038758       ??$?RP6AXXZ@__crt_internal_free_policy@@QEBAXQEBQ6AXXZ@Z 0000000140039758 f i libucrt:onexit.obj
 0001:00038830       ??$__crt_fast_decode_pointer@P6AXXZ@@YAP6AXXZQ6AXXZ@Z 0000000140039830 f i libucrt:onexit.obj
 0001:00038848       ??$__crt_fast_decode_pointer@PEAP6AXXZ@@YAPEAP6AXXZQEAP6AXXZ@Z 0000000140039848 f i libucrt:onexit.obj
 0001:00038860       ??$__crt_fast_encode_pointer@P6AHXZ@@YAP6AHXZQ6AHXZ@Z 0000000140039860 f i libucrt:onexit.obj
 0001:00038880       ??$__crt_fast_encode_pointer@P6AXXZ@@YAP6AXXZQ6AXXZ@Z 0000000140039880 f i libucrt:onexit.obj
 0001:000388a0       ??$__crt_fast_encode_pointer@PEAP6AXXZ@@YAPEAP6AXXZQEAP6AXXZ@Z 00000001400398a0 f i libucrt:onexit.obj
 0001:000388f4       ??0?$__crt_unique_heap_ptr@P6AXXZU__crt_internal_free_policy@@@@QEAA@QEAP6AXXZ@Z 00000001400398f4 f i libucrt:onexit.obj
 0001:000388fc       ??1?$__crt_unique_heap_ptr@P6AXXZU__crt_internal_free_policy@@@@QEAA@XZ 00000001400398fc f i libucrt:onexit.obj
 0001:00038918       ??1scoped_global_state_reset@__crt_state_management@@QEAA@XZ 0000000140039918 f i libucrt:onexit.obj
 0001:00038c0c       ?detach@?$__crt_unique_heap_ptr@P6AXXZU__crt_internal_free_policy@@@@QEAAPEAP6AXXZXZ 0000000140039c0c f i libucrt:onexit.obj
 0001:00038c14       ?release@?$__crt_unique_heap_ptr@P6AXXZU__crt_internal_free_policy@@@@QEAAXXZ 0000000140039c14 f i libucrt:onexit.obj
 0001:00038c30       _crt_at_quick_exit         0000000140039c30 f   libucrt:onexit.obj
 0001:00038c40       _crt_atexit                0000000140039c40 f   libucrt:onexit.obj
 0001:00038c50       _execute_onexit_table      0000000140039c50 f   libucrt:onexit.obj
 0001:00038c94       _initialize_onexit_table   0000000140039c94 f   libucrt:onexit.obj
 0001:00038cbc       _register_onexit_function  0000000140039cbc f   libucrt:onexit.obj
 0001:00038e44       ??$?BX@__crt_fast_encoded_nullptr_t@@QEBAPEAXXZ 0000000140039e44 f i libucrt:initialization.obj
 0001:00038e4c       ??$__crt_fast_encode_pointer@PEAX@@YAPEAXQEAX@Z 0000000140039e4c f i libucrt:initialization.obj
 0001:00038f08       ?__acrt_stdio_is_initialized@@YA_NXZ 0000000140039f08 f i libucrt:initialization.obj
 0001:00038f14       ?initialize@?$dual_state_global@PEAU__crt_locale_data@@@__crt_state_management@@QEAAXQEAU__crt_locale_data@@@Z 0000000140039f14 f i libucrt:initialization.obj
 0001:00038f24       __acrt_initialize          0000000140039f24 f   libucrt:initialization.obj
 0001:00038f38       __acrt_thread_attach       0000000140039f38 f   libucrt:initialization.obj
 0001:00038f4c       __acrt_thread_detach       0000000140039f4c f   libucrt:initialization.obj
 0001:00038f5c       __acrt_uninitialize        0000000140039f5c f   libucrt:initialization.obj
 0001:00038f94       __acrt_uninitialize_critical 0000000140039f94 f   libucrt:initialization.obj
 0001:00038fb8       _get_terminate             0000000140039fb8 f   libucrt:terminate.obj
 0001:00038fdc       set_terminate              0000000140039fdc f   libucrt:terminate.obj
 0001:00039008       terminate                  000000014003a008 f   libucrt:terminate.obj
 0001:00039034       free                       000000014003a034 f   libucrt:free.obj
 0001:00039048       _set_abort_behavior        000000014003a048 f   libucrt:abort.obj
 0001:00039064       abort                      000000014003a064 f   libucrt:abort.obj
 0001:000390bc       malloc                     000000014003a0bc f   libucrt:malloc.obj
 0001:00039128       strcpy_s                   000000014003a128 f   libucrt:strcpy_s.obj
 0001:00039188       calloc                     000000014003a188 f   libucrt:calloc.obj
 0001:00039190       ??$is_overflow_condition@_K@__crt_strtox@@YA_NI_K@Z 000000014003a190 f i libucrt:atox.obj
 0001:000391c8       ??$make_c_string_character_source@D$$T@__crt_strtox@@YA?AV?$c_string_character_source@D@0@QEBD$$T@Z 000000014003a1c8 f i libucrt:atox.obj
 0001:000391dc       ??$make_c_string_character_source@_W$$T@__crt_strtox@@YA?AV?$c_string_character_source@_W@0@QEB_W$$T@Z 000000014003a1dc f i libucrt:atox.obj
 0001:000391f0       ??$parse_integer@KV?$c_string_character_source@D@__crt_strtox@@$00@__crt_strtox@@YAKAEAV__crt_cached_ptd_host@@V?$c_string_character_source@D@0@H_N@Z 000000014003a1f0 f i libucrt:atox.obj
 0001:000394e0       ??$parse_integer@KV?$c_string_character_source@_W@__crt_strtox@@$00@__crt_strtox@@YAKAEAV__crt_cached_ptd_host@@V?$c_string_character_source@_W@0@H_N@Z 000000014003a4e0 f i libucrt:atox.obj
 0001:00039c7c       ??$parse_integer@_KV?$c_string_character_source@D@__crt_strtox@@$00@__crt_strtox@@YA_KAEAV__crt_cached_ptd_host@@V?$c_string_character_source@D@0@H_N@Z 000000014003ac7c f i libucrt:atox.obj
 0001:00039f58       ??$parse_integer@_KV?$c_string_character_source@_W@__crt_strtox@@$00@__crt_strtox@@YA_KAEAV__crt_cached_ptd_host@@V?$c_string_character_source@_W@0@H_N@Z 000000014003af58 f i libucrt:atox.obj
 0001:0003a6dc       ??$parse_integer_from_string@JD$$T@__crt_strtox@@YAJQEBD$$THQEAU__crt_locale_pointers@@@Z 000000014003b6dc f i libucrt:atox.obj
 0001:0003a798       ??$parse_integer_from_string@J_W$$T@__crt_strtox@@YAJQEB_W$$THQEAU__crt_locale_pointers@@@Z 000000014003b798 f i libucrt:atox.obj
 0001:0003a854       ??$parse_integer_from_string@_JD$$T@__crt_strtox@@YA_JQEBD$$THQEAU__crt_locale_pointers@@@Z 000000014003b854 f i libucrt:atox.obj
 0001:0003a914       ??$parse_integer_from_string@_J_W$$T@__crt_strtox@@YA_JQEB_W$$THQEAU__crt_locale_pointers@@@Z 000000014003b914 f i libucrt:atox.obj
 0001:0003a9d4       ?is_space@__crt_strtox@@YA_NDQEAU__crt_locale_pointers@@@Z 000000014003b9d4 f i libucrt:atox.obj
 0001:0003a9f4       ?is_space@__crt_strtox@@YA_N_WPEAU__crt_locale_pointers@@@Z 000000014003b9f4 f i libucrt:atox.obj
 0001:0003aa0c       ?maximum_signed_value@__crt_strtox@@YA_J_K@Z 000000014003ba0c f i libucrt:atox.obj
 0001:0003aa18       ?minimum_signed_value@__crt_strtox@@YA_J_K@Z 000000014003ba18 f i libucrt:atox.obj
 0001:0003aa24       __acrt_get_locale_data_prefix 000000014003ba24 f i libucrt:atox.obj
 0001:0003aa28       _atoi64                    000000014003ba28 f   libucrt:atox.obj
 0001:0003aadc       _atoi64_l                  000000014003badc f   libucrt:atox.obj
 0001:0003ab98       _atoi_l                    000000014003bb98 f   libucrt:atox.obj
 0001:0003ac54       _atol_l                    000000014003bc54 f   libucrt:atox.obj
 0001:0003ad10       _atoll_l                   000000014003bd10 f   libucrt:atox.obj
 0001:0003adcc       _chvalidchk_l              000000014003bdcc f i libucrt:atox.obj
 0001:0003ae30       _ischartype_l              000000014003be30 f i libucrt:atox.obj
 0001:0003aea8       _wtoi                      000000014003bea8 f   libucrt:atox.obj
 0001:0003af58       _wtoi64                    000000014003bf58 f   libucrt:atox.obj
 0001:0003b00c       _wtoi64_l                  000000014003c00c f   libucrt:atox.obj
 0001:0003b0c8       _wtoi_l                    000000014003c0c8 f   libucrt:atox.obj
 0001:0003b184       _wtol                      000000014003c184 f   libucrt:atox.obj
 0001:0003b234       _wtol_l                    000000014003c234 f   libucrt:atox.obj
 0001:0003b2f0       _wtoll                     000000014003c2f0 f   libucrt:atox.obj
 0001:0003b3a4       _wtoll_l                   000000014003c3a4 f   libucrt:atox.obj
 0001:0003b460       atoi                       000000014003c460 f   libucrt:atox.obj
 0001:0003b510       atol                       000000014003c510 f   libucrt:atox.obj
 0001:0003b5c0       atoll                      000000014003c5c0 f   libucrt:atox.obj
 0001:0003b690       strncmp                    000000014003c690 f   libucrt:strncmp.obj
 0001:0003b710       wcsncmp                    000000014003c710 f   libucrt:wcsncmp.obj
 0001:0003b73c       ??$__crt_fast_decode_pointer@P6AXPEB_W00I_K@Z@@YAP6AXPEB_W00I_K@ZQ6AX000I1@Z@Z 000000014003c73c f i libucrt:invalid_parameter.obj
 0001:0003b754       ??$__crt_fast_encode_pointer@P6AXPEB_W00I_K@Z@@YAP6AXPEB_W00I_K@ZQ6AX000I1@Z@Z 000000014003c754 f i libucrt:invalid_parameter.obj
 0001:0003b774       ??$initialize_from_array@$$BY00Q6AXPEB_W00I_K@Z@?$dual_state_global@P6AXPEB_W00I_K@Z@__crt_state_management@@QEAAXAEAY00Q6AXPEB_W00I_K@Z@Z 000000014003c774 f i libucrt:invalid_parameter.obj
 0001:0003b7ec       ?check_synchronize_global_state_index@__crt_cached_ptd_host@@AEAA_KXZ 000000014003c7ec f i libucrt:invalid_parameter.obj
 0001:0003b820       ?dangerous_get_state_array@?$dual_state_global@P6AXPEB_W00I_K@Z@__crt_state_management@@QEAAPEAP6AXPEB_W00I_K@ZXZ 000000014003c820 f i libucrt:invalid_parameter.obj
 0001:0003b824       ?get_current_global_state_index@__crt_cached_ptd_host@@QEAA_KXZ 000000014003c824 f i libucrt:invalid_parameter.obj
 0001:0003b864       ?get_raw_ptd_noexit@__crt_cached_ptd_host@@QEAAPEAU__acrt_ptd@@XZ 000000014003c864 f i libucrt:invalid_parameter.obj
 0001:0003b8d0       ?try_synchronize_per_thread_data@__crt_cached_ptd_host@@AEAAPEAU__acrt_ptd@@XZ 000000014003c8d0 f i libucrt:invalid_parameter.obj
 0001:0003b934       ?value@?$dual_state_global@P6AXPEB_W00I_K@Z@__crt_state_management@@QEAAAEAP6AXPEB_W00I_K@ZAEAV__crt_cached_ptd_host@@@Z 000000014003c934 f i libucrt:invalid_parameter.obj
 0001:0003b980       ?value@?$dual_state_global@P6AXPEB_W00I_K@Z@__crt_state_management@@QEAAAEAP6AXPEB_W00I_K@ZXZ 000000014003c980 f i libucrt:invalid_parameter.obj
 0001:0003b984       __acrt_call_reportfault    000000014003c984 f   libucrt:invalid_parameter.obj
 0001:0003bae0       __acrt_initialize_invalid_parameter_handler 000000014003cae0 f   libucrt:invalid_parameter.obj
 0001:0003bae8       _get_invalid_parameter_handler 000000014003cae8 f   libucrt:invalid_parameter.obj
 0001:0003bb04       _get_thread_local_invalid_parameter_handler 000000014003cb04 f   libucrt:invalid_parameter.obj
 0001:0003bb20       _invalid_parameter         000000014003cb20 f   libucrt:invalid_parameter.obj
 0001:0003bbbc       _invalid_parameter_internal 000000014003cbbc f   libucrt:invalid_parameter.obj
 0001:0003bc88       _invalid_parameter_noinfo  000000014003cc88 f   libucrt:invalid_parameter.obj
 0001:0003bca8       _invalid_parameter_noinfo_noreturn 000000014003cca8 f   libucrt:invalid_parameter.obj
 0001:0003bcd8       _invoke_watson             000000014003ccd8 f   libucrt:invalid_parameter.obj
 0001:0003bd20       _set_invalid_parameter_handler 000000014003cd20 f   libucrt:invalid_parameter.obj
 0001:0003bd54       _set_thread_local_invalid_parameter_handler 000000014003cd54 f   libucrt:invalid_parameter.obj
 0001:0003bd7c       ?get_doserrno@__crt_cached_ptd_host@@QEAA@XZ 000000014003cd7c f i libucrt:errno.obj
 0001:0003bd84       ?set@?$cached@K@__crt_cached_ptd_host@@QEAAKK@Z 000000014003cd84 f i libucrt:errno.obj
 0001:0003bd90       __acrt_errno_from_os_error 000000014003cd90 f   libucrt:errno.obj
 0001:0003bdd8       __acrt_errno_map_os_error  000000014003cdd8 f   libucrt:errno.obj
 0001:0003be20       __acrt_errno_map_os_error_ptd 000000014003ce20 f   libucrt:errno.obj
 0001:0003be44       __doserrno                 000000014003ce44 f   libucrt:errno.obj
 0001:0003be64       _errno                     000000014003ce64 f   libucrt:errno.obj
 0001:0003be84       _get_doserrno              000000014003ce84 f   libucrt:errno.obj
 0001:0003bec0       _get_errno                 000000014003cec0 f   libucrt:errno.obj
 0001:0003befc       _set_doserrno              000000014003cefc f   libucrt:errno.obj
 0001:0003bf38       _set_errno                 000000014003cf38 f   libucrt:errno.obj
 0001:0003bf74       _calloc_base               000000014003cf74 f   libucrt:calloc_base.obj
 0001:0003bff4       _free_base                 000000014003cff4 f   libucrt:free_base.obj
 0001:0003c068       ??$?B$$A6AHPEA_WK_J@Z@__crt_fast_encoded_nullptr_t@@QEBAP6AHPEA_WK_J@ZXZ 000000014003d068 f i libucrt:winapi_thunks.obj
 0001:0003c114       ??$__crt_fast_decode_pointer@P6AHPEA_WK_J@Z@@YAP6AHPEA_WK_J@ZQ6AH0K1@Z@Z 000000014003d114 f i libucrt:winapi_thunks.obj
 0001:0003c12c       ??$__crt_fast_decode_pointer@PEAX@@YAPEAXQEAX@Z 000000014003d12c f i libucrt:winapi_thunks.obj
 0001:0003c144       ??$__crt_fast_encode_pointer@P6AHPEA_WK_J@Z@@YAP6AHPEA_WK_J@ZQ6AH0K1@Z@Z 000000014003d144 f i libucrt:winapi_thunks.obj
 0001:0003cbc0       GetCurrentThreadEffectiveToken 000000014003dbc0 f i libucrt:winapi_thunks.obj
 0001:0003cbc8       __acrt_AppPolicyGetProcessTerminationMethodInternal 000000014003dbc8 f   libucrt:winapi_thunks.obj
 0001:0003cc20       __acrt_AppPolicyGetShowDeveloperDiagnosticInternal 000000014003dc20 f   libucrt:winapi_thunks.obj
 0001:0003cc78       __acrt_AppPolicyGetThreadInitializationTypeInternal 000000014003dc78 f   libucrt:winapi_thunks.obj
 0001:0003ccd0       __acrt_AppPolicyGetWindowingModelInternal 000000014003dcd0 f   libucrt:winapi_thunks.obj
 0001:0003cd28       __acrt_AreFileApisANSI     000000014003dd28 f   libucrt:winapi_thunks.obj
 0001:0003cd6c       __acrt_CompareStringEx     000000014003dd6c f   libucrt:winapi_thunks.obj
 0001:0003ce58       __acrt_EnumSystemLocalesEx 000000014003de58 f   libucrt:winapi_thunks.obj
 0001:0003cef8       __acrt_FlsAlloc            000000014003def8 f   libucrt:winapi_thunks.obj
 0001:0003cf00       __acrt_FlsFree             000000014003df00 f   libucrt:winapi_thunks.obj
 0001:0003cf08       __acrt_FlsGetValue         000000014003df08 f   libucrt:winapi_thunks.obj
 0001:0003cf10       __acrt_FlsSetValue         000000014003df10 f   libucrt:winapi_thunks.obj
 0001:0003cf18       __acrt_GetDateFormatEx     000000014003df18 f   libucrt:winapi_thunks.obj
 0001:0003cfd8       __acrt_GetEnabledXStateFeatures 000000014003dfd8 f   libucrt:winapi_thunks.obj
 0001:0003d01c       __acrt_GetLocaleInfoEx     000000014003e01c f   libucrt:winapi_thunks.obj
 0001:0003d0ac       __acrt_GetSystemTimePreciseAsFileTime 000000014003e0ac f   libucrt:winapi_thunks.obj
 0001:0003d104       __acrt_GetTempPath2W       000000014003e104 f   libucrt:winapi_thunks.obj
 0001:0003d164       __acrt_GetTimeFormatEx     000000014003e164 f   libucrt:winapi_thunks.obj
 0001:0003d218       __acrt_GetUserDefaultLocaleName 000000014003e218 f   libucrt:winapi_thunks.obj
 0001:0003d284       __acrt_GetXStateFeaturesMask 000000014003e284 f   libucrt:winapi_thunks.obj
 0001:0003d2e0       __acrt_InitializeCriticalSectionEx 000000014003e2e0 f   libucrt:winapi_thunks.obj
 0001:0003d350       __acrt_IsValidLocaleName   000000014003e350 f   libucrt:winapi_thunks.obj
 0001:0003d3b4       __acrt_LCIDToLocaleName    000000014003e3b4 f   libucrt:winapi_thunks.obj
 0001:0003d438       __acrt_LCMapStringEx       000000014003e438 f   libucrt:winapi_thunks.obj
 0001:0003d524       __acrt_LocaleNameToLCID    000000014003e524 f   libucrt:winapi_thunks.obj
 0001:0003d584       __acrt_LocateXStateFeature 000000014003e584 f   libucrt:winapi_thunks.obj
 0001:0003d5f0       __acrt_MessageBoxA         000000014003e5f0 f   libucrt:winapi_thunks.obj
 0001:0003d66c       __acrt_MessageBoxW         000000014003e66c f   libucrt:winapi_thunks.obj
 0001:0003d6e8       __acrt_RoInitialize        000000014003e6e8 f   libucrt:winapi_thunks.obj
 0001:0003d734       __acrt_RoUninitialize      000000014003e734 f   libucrt:winapi_thunks.obj
 0001:0003d774       __acrt_RtlGenRandom        000000014003e774 f   libucrt:winapi_thunks.obj
 0001:0003d7d0       __acrt_SetThreadStackGuarantee 000000014003e7d0 f   libucrt:winapi_thunks.obj
 0001:0003d81c       __acrt_can_show_message_box 000000014003e81c f   libucrt:winapi_thunks.obj
 0001:0003d88c       __acrt_can_use_vista_locale_apis 000000014003e88c f   libucrt:winapi_thunks.obj
 0001:0003d8bc       __acrt_can_use_xstate_apis 000000014003e8bc f   libucrt:winapi_thunks.obj
 0001:0003d8ec       __acrt_eagerly_load_locale_apis 000000014003e8ec f   libucrt:winapi_thunks.obj
 0001:0003da48       __acrt_get_parent_window   000000014003ea48 f   libucrt:winapi_thunks.obj
 0001:0003dad4       __acrt_initialize_winapi_thunks 000000014003ead4 f   libucrt:winapi_thunks.obj
 0001:0003daf8       __acrt_is_interactive      000000014003eaf8 f   libucrt:winapi_thunks.obj
 0001:0003dbd8       __acrt_uninitialize_winapi_thunks 000000014003ebd8 f   libucrt:winapi_thunks.obj
 0001:0003dc1c       ??0__crt_stdio_stream@@QEAA@QEAU__crt_stdio_stream_data@@@Z 000000014003ec1c f i libucrt:closeall.obj
 0001:0003dc24       ?is_in_use@__crt_stdio_stream@@QEBA_NXZ 000000014003ec24 f i libucrt:closeall.obj
 0001:0003dc34       _fcloseall                 000000014003ec34 f   libucrt:closeall.obj
 0001:0003e0f8       ?__acrt_stdio_reset_buffer@@YAXV__crt_stdio_stream@@@Z 000000014003f0f8 f i libucrt:fflush.obj
 0001:0003e1e8       ?has_all_of@__crt_stdio_stream@@QEBA_NJ@Z 000000014003f1e8 f i libucrt:fflush.obj
 0001:0003e234       ?set_flags@__crt_stdio_stream@@QEBA_NJ@Z 000000014003f234 f i libucrt:fflush.obj
 0001:0003e254       ?unset_flags@__crt_stdio_stream@@QEBA_NJ@Z 000000014003f254 f i libucrt:fflush.obj
 0001:0003e27c       __acrt_stdio_flush_nolock  000000014003f27c f   libucrt:fflush.obj
 0001:0003e308       _fflush_nolock             000000014003f308 f   libucrt:fflush.obj
 0001:0003e3dc       _flushall                  000000014003f3dc f   libucrt:fflush.obj
 0001:0003e3e4       fflush                     000000014003f3e4 f   libucrt:fflush.obj
 0001:0003e44c       ?has_any_of@__crt_stdio_stream@@QEBA_NJ@Z 000000014003f44c f i libucrt:_freebuf.obj
 0001:0003e45c       ?has_crt_buffer@__crt_stdio_stream@@QEBA_NXZ 000000014003f45c f i libucrt:_freebuf.obj
 0001:0003e46c       __acrt_stdio_free_buffer_nolock 000000014003f46c f   libucrt:_freebuf.obj
 0001:0003e6c4       __acrt_initialize_lowio    000000014003f6c4 f   libucrt:ioinit.obj
 0001:0003e700       __acrt_uninitialize_lowio  000000014003f700 f   libucrt:ioinit.obj
 0001:0003e740       _malloc_base               000000014003f740 f   libucrt:malloc_base.obj
 0001:0003f054       ??1?$__crt_simd_cleanup_guard@$00@@QEAA@XZ 0000000140040054 f i libucrt:strnlen.obj
 0001:0003f058       ??1?$__crt_simd_cleanup_guard@$0A@@@QEAA@XZ 0000000140040058 f i libucrt:strnlen.obj
 0001:0003f05c       ?compare_equals@?$__crt_simd_traits@$00E@@SA?AT__m256i@@T2@0@Z 000000014004005c f i libucrt:strnlen.obj
 0001:0003f068       ?compare_equals@?$__crt_simd_traits@$00G@@SA?AT__m256i@@T2@0@Z 0000000140040068 f i libucrt:strnlen.obj
 0001:0003f074       ?compare_equals@?$__crt_simd_traits@$0A@E@@SA?AT__m128i@@T2@0@Z 0000000140040074 f i libucrt:strnlen.obj
 0001:0003f080       ?compare_equals@?$__crt_simd_traits@$0A@G@@SA?AT__m128i@@T2@0@Z 0000000140040080 f i libucrt:strnlen.obj
 0001:0003f08c       ?compute_byte_mask@?$__crt_simd_pack_traits@$00@@SAHT__m256i@@@Z 000000014004008c f i libucrt:strnlen.obj
 0001:0003f098       ?compute_byte_mask@?$__crt_simd_pack_traits@$0A@@@SAHT__m128i@@@Z 0000000140040098 f i libucrt:strnlen.obj
 0001:0003f0a4       ?get_zero_pack@?$__crt_simd_pack_traits@$00@@SA?AT__m256i@@XZ 00000001400400a4 f i libucrt:strnlen.obj
 0001:0003f0ac       ?get_zero_pack@?$__crt_simd_pack_traits@$0A@@@SA?AT__m128i@@XZ 00000001400400ac f i libucrt:strnlen.obj
 0001:0003f0b0       strnlen                    00000001400400b0 f   libucrt:strnlen.obj
 0001:0003f200       wcslen                     0000000140040200 f   libucrt:strnlen.obj
 0001:0003f32c       wcsnlen                    000000014004032c f   libucrt:strnlen.obj
 0001:0003f504       ?value@?$dual_state_global@PEAU__crt_multibyte_data@@@__crt_state_management@@QEAAAEAPEAU__crt_multibyte_data@@XZ 0000000140040504 f i libucrt:locale_update.obj
 0001:0003f508       ?value_explicit@?$dual_state_global@PEAU__crt_locale_data@@@__crt_state_management@@QEAAAEAPEAU__crt_locale_data@@_K@Z 0000000140040508 f i libucrt:locale_update.obj
 0001:0003f510       ?value_explicit@?$dual_state_global@PEAU__crt_multibyte_data@@@__crt_state_management@@QEAAAEAPEAU__crt_multibyte_data@@_K@Z 0000000140040510 f i libucrt:locale_update.obj
 0001:0003f518       __acrt_should_sync_with_global_locale 0000000140040518 f i libucrt:locale_update.obj
 0001:0003f528       __acrt_update_locale_info  0000000140040528 f   libucrt:locale_update.obj
 0001:0003f55c       __acrt_update_locale_info_explicit 000000014004055c f   libucrt:locale_update.obj
 0001:0003f594       __acrt_update_multibyte_info 0000000140040594 f   libucrt:locale_update.obj
 0001:0003f5c8       __acrt_update_multibyte_info_explicit 00000001400405c8 f   libucrt:locale_update.obj
 0001:0003f600       ?__acrt_fp_classify@@YA?AW4__acrt_fp_class@@AEBN@Z 0000000140040600 f i libucrt:cvt.obj
 0001:0003f65c       ?__acrt_fp_is_negative@@YA_NAEBN@Z 000000014004065c f i libucrt:cvt.obj
 0001:000402c8       ?strrchr@@YAPEADQEADH@Z    00000001400412c8 f i libucrt:cvt.obj
 0001:000402d0       __acrt_fp_format           00000001400412d0 f   libucrt:cvt.obj
 0001:000405b8       ?value_or@?$cached@H@__crt_cached_ptd_host@@QEBAHH@Z 00000001400415b8 f i libucrt:wctomb.obj
 0001:000405c4       _wctomb_internal           00000001400415c4 f   libucrt:wctomb.obj
 0001:00040774       _wctomb_l                  0000000140041774 f   libucrt:wctomb.obj
 0001:00040860       _wctomb_s_l                0000000140041860 f   libucrt:wctomb.obj
 0001:00040910       wctomb                     0000000140041910 f   libucrt:wctomb.obj
 0001:000409d8       wctomb_s                   00000001400419d8 f   libucrt:wctomb.obj
 0001:00040a78       _isleadbyte_fast_internal  0000000140041a78 f i libucrt:mbtowc.obj
 0001:00040a90       _mbtowc_internal           0000000140041a90 f   libucrt:mbtowc.obj
 0001:00040c08       _mbtowc_l                  0000000140041c08 f   libucrt:mbtowc.obj
 0001:00040cac       mbtowc                     0000000140041cac f   libucrt:mbtowc.obj
 0001:00040d44       ?lowio_handle@__crt_stdio_stream@@QEBAHXZ 0000000140041d44 f i libucrt:fileno.obj
 0001:00040d4c       _fileno                    0000000140041d4c f   libucrt:fileno.obj
 0001:00040d74       _get_printf_count_output   0000000140041d74 f   libucrt:printf_count_output.obj
 0001:00040d8c       _set_printf_count_output   0000000140041d8c f   libucrt:printf_count_output.obj
 0001:00040e50       _fputwc_nolock             0000000140041e50 f   libucrt:fputwc.obj
 0001:00040eec       _fputwc_nolock_internal    0000000140041eec f   libucrt:fputwc.obj
 0001:00041078       _fputwchar                 0000000140042078 f   libucrt:fputwc.obj
 0001:0004109c       _putwc_nolock              000000014004209c f   libucrt:fputwc.obj
 0001:000410a4       fputwc                     00000001400420a4 f   libucrt:fputwc.obj
 0001:00041140       putwc                      0000000140042140 f   libucrt:fputwc.obj
 0001:00041148       putwchar                   0000000140042148 f   libucrt:fputwc.obj
 0001:000412b8       _fputc_nolock              00000001400422b8 f   libucrt:fputc.obj
 0001:00041364       _fputc_nolock_internal     0000000140042364 f   libucrt:fputc.obj
 0001:0004137c       _fputchar                  000000014004237c f   libucrt:fputc.obj
 0001:000413a0       _putc_nolock               00000001400423a0 f   libucrt:fputc.obj
 0001:000413a8       fputc                      00000001400423a8 f   libucrt:fputc.obj
 0001:00041440       putc                       0000000140042440 f   libucrt:fputc.obj
 0001:00041448       putchar                    0000000140042448 f   libucrt:fputc.obj
 0001:00041450       ?has_any_buffer@__crt_stdio_stream@@QEBA_NXZ 0000000140042450 f i libucrt:_sftbuf.obj
 0001:00041464       ?has_temporary_buffer@__crt_stdio_stream@@QEBA_NXZ 0000000140042464 f i libucrt:_sftbuf.obj
 0001:00041474       __acrt_should_use_temporary_buffer 0000000140042474 f   libucrt:_sftbuf.obj
 0001:000414c0       __acrt_stdio_begin_temporary_buffering_nolock 00000001400424c0 f   libucrt:_sftbuf.obj
 0001:00041588       __acrt_stdio_end_temporary_buffering_nolock 0000000140042588 f   libucrt:_sftbuf.obj
 0001:000415c8       ??$?RU__acrt_ptd@@@__crt_internal_free_policy@@QEBAXQEBU__acrt_ptd@@@Z 00000001400425c8 f i libucrt:per_thread_data.obj
 0001:000417fc       ??0?$__crt_unique_heap_ptr@U__acrt_ptd@@U__crt_internal_free_policy@@@@QEAA@QEAU__acrt_ptd@@@Z 00000001400427fc f i libucrt:per_thread_data.obj
 0001:00041804       ??1?$__crt_unique_heap_ptr@U__acrt_ptd@@U__crt_internal_free_policy@@@@QEAA@XZ 0000000140042804 f i libucrt:per_thread_data.obj
 0001:00041820       ??B?$__crt_unique_heap_ptr@U__acrt_ptd@@U__crt_internal_free_policy@@@@QEBA_NXZ 0000000140042820 f i libucrt:per_thread_data.obj
 0001:00041a74       ?dangerous_get_state_array@?$dual_state_global@PEAU__crt_locale_data@@@__crt_state_management@@QEAAPEAPEAU__crt_locale_data@@XZ 0000000140042a74 f i libucrt:per_thread_data.obj
 0001:00041c88       ?detach@?$__crt_unique_heap_ptr@U__acrt_ptd@@U__crt_internal_free_policy@@@@QEAAPEAU__acrt_ptd@@XZ 0000000140042c88 f i libucrt:per_thread_data.obj
 0001:00041c90       ?get@?$__crt_unique_heap_ptr@U__acrt_ptd@@U__crt_internal_free_policy@@@@QEBAPEAU__acrt_ptd@@XZ 0000000140042c90 f i libucrt:per_thread_data.obj
 0001:00041eb0       ?is_valid@?$__crt_unique_heap_ptr@U__acrt_ptd@@U__crt_internal_free_policy@@@@QEBA_NXZ 0000000140042eb0 f i libucrt:per_thread_data.obj
 0001:00041eb8       ?release@?$__crt_unique_heap_ptr@U__acrt_ptd@@U__crt_internal_free_policy@@@@QEAAXXZ 0000000140042eb8 f i libucrt:per_thread_data.obj
 0001:00041f50       __acrt_freeptd             0000000140042f50 f   libucrt:per_thread_data.obj
 0001:00041f94       __acrt_getptd              0000000140042f94 f   libucrt:per_thread_data.obj
 0001:00042068       __acrt_getptd_head         0000000140043068 f   libucrt:per_thread_data.obj
 0001:0004210c       __acrt_getptd_noexit       000000014004310c f   libucrt:per_thread_data.obj
 0001:000421d4       __acrt_getptd_noexit_explicit 00000001400431d4 f   libucrt:per_thread_data.obj
 0001:00042294       __acrt_initialize_ptd      0000000140043294 f   libucrt:per_thread_data.obj
 0001:000422d0       __acrt_uninitialize_ptd    00000001400432d0 f   libucrt:per_thread_data.obj
 0001:000422f4       __threadhandle             00000001400432f4 f   libucrt:per_thread_data.obj
 0001:000422fc       __threadid                 00000001400432fc f   libucrt:per_thread_data.obj
 0001:00042304       __p___mb_cur_max           0000000140043304 f   libucrt:nlsdata.obj
 0001:00042334       _set_error_mode            0000000140043334 f   libucrt:set_error_mode.obj
 0001:000423f8       wcscat_s                   00000001400433f8 f   libucrt:wcscat_s.obj
 0001:000424dc       wcscpy_s                   00000001400434dc f   libucrt:wcscpy_s.obj
 0001:00042638       wcsncpy_s                  0000000140043638 f   libucrt:wcsncpy_s.obj
 0001:0004287c       ??$message_box@$$TAEBQEBDAEBQEBDK@?$__crt_char_traits@D@@SAH$$QEA$$TAEBQEBD1$$QEAK@Z 000000014004387c f i libucrt:crtmbox.obj
 0001:00042890       ??$message_box@$$TAEBQEB_WAEBQEB_WK@?$__crt_char_traits@_W@@SAH$$QEA$$TAEBQEB_W1$$QEAK@Z 0000000140043890 f i libucrt:crtmbox.obj
 0001:000428a4       ??$message_box@PEAUHWND__@@AEBQEBDAEBQEBDAEBI@?$__crt_char_traits@D@@SAH$$QEAPEAUHWND__@@AEBQEBD1AEBI@Z 00000001400438a4 f i libucrt:crtmbox.obj
 0001:000428b8       ??$message_box@PEAUHWND__@@AEBQEB_WAEBQEB_WAEBI@?$__crt_char_traits@_W@@SAH$$QEAPEAUHWND__@@AEBQEB_W1AEBI@Z 00000001400438b8 f i libucrt:crtmbox.obj
 0001:000428cc       ??$output_debug_string@AEBQEBD@?$__crt_char_traits@D@@SAXAEBQEBD@Z 00000001400438cc f i libucrt:crtmbox.obj
 0001:000428d4       ??$output_debug_string@AEBQEB_W@?$__crt_char_traits@_W@@SAXAEBQEB_W@Z 00000001400438d4 f i libucrt:crtmbox.obj
 0001:000428e0       __acrt_show_narrow_message_box 00000001400438e0 f   libucrt:crtmbox.obj
 0001:00042984       __acrt_show_wide_message_box 0000000140043984 f   libucrt:crtmbox.obj
 0001:00042a50       ??$__acrt_convert_wcs_mbs_cp@D_WV<lambda_7c9dea7b4ca7285d2cdb541a38da6275>@@U__crt_win32_buffer_internal_dynamic_resizing@@@@YAHQEBDAEAV?$__crt_win32_buffer@_WU__crt_win32_buffer_internal_dynamic_resizing@@@@AEBV<lambda_7c9dea7b4ca7285d2cdb541a38da6275>@@I@Z 0000000140043a50 f i libucrt:argv_wildcards.obj
 0001:00042bcc       ??$__acrt_convert_wcs_mbs_cp@_WDV<lambda_d8593a27d1aa8c02be35c86a17d324c4>@@U__crt_win32_buffer_internal_dynamic_resizing@@@@YAHQEB_WAEAV?$__crt_win32_buffer@DU__crt_win32_buffer_internal_dynamic_resizing@@@@AEBV<lambda_d8593a27d1aa8c02be35c86a17d324c4>@@I@Z 0000000140043bcc f i libucrt:argv_wildcards.obj
 0001:00042d58       ??$__acrt_mbs_to_wcs_cp@U__crt_win32_buffer_internal_dynamic_resizing@@@@YAHQEBDAEAV?$__crt_win32_buffer@_WU__crt_win32_buffer_internal_dynamic_resizing@@@@I@Z 0000000140043d58 f i libucrt:argv_wildcards.obj
 0001:00042d68       ??$__acrt_wcs_to_mbs_cp@U__crt_win32_buffer_internal_dynamic_resizing@@@@YAHQEB_WAEAV?$__crt_win32_buffer@DU__crt_win32_buffer_internal_dynamic_resizing@@@@I@Z 0000000140043d68 f i libucrt:argv_wildcards.obj
 0001:00043b98       ??$tcslen@AEBQEBD@?$__crt_char_traits@D@@SA_KAEBQEBD@Z 0000000140044b98 f i libucrt:argv_wildcards.obj
 0001:00043bac       ??$tcslen@AEBQEB_W@?$__crt_char_traits@_W@@SA_KAEBQEB_W@Z 0000000140044bac f i libucrt:argv_wildcards.obj
 0001:00043bc0       ??$tcsncpy_s@AEAPEAD_KAEAPEADAEB_K@?$__crt_char_traits@D@@SAHAEAPEAD$$QEA_K0AEB_K@Z 0000000140044bc0 f i libucrt:argv_wildcards.obj
 0001:00043bd4       ??$tcsncpy_s@AEAPEA_W_KAEAPEA_WAEB_K@?$__crt_char_traits@_W@@SAHAEAPEA_W$$QEA_K0AEB_K@Z 0000000140044bd4 f i libucrt:argv_wildcards.obj
 0001:00043be8       ??$tcsncpy_s@PEADAEB_KAEBQEBDAEB_K@?$__crt_char_traits@D@@SAH$$QEAPEADAEB_KAEBQEBD1@Z 0000000140044be8 f i libucrt:argv_wildcards.obj
 0001:00043bfc       ??$tcsncpy_s@PEAD_KAEBQEBDAEB_K@?$__crt_char_traits@D@@SAH$$QEAPEAD$$QEA_KAEBQEBDAEB_K@Z 0000000140044bfc f i libucrt:argv_wildcards.obj
 0001:00043c10       ??$tcsncpy_s@PEA_WAEB_KAEBQEB_WAEB_K@?$__crt_char_traits@_W@@SAH$$QEAPEA_WAEB_KAEBQEB_W1@Z 0000000140044c10 f i libucrt:argv_wildcards.obj
 0001:00043c24       ??$tcsncpy_s@PEA_W_KAEBQEB_WAEB_K@?$__crt_char_traits@_W@@SAH$$QEAPEA_W$$QEA_KAEBQEB_WAEB_K@Z 0000000140044c24 f i libucrt:argv_wildcards.obj
 0001:00043c38       ??$tcspbrk@AEAPEADAEAY02$$CBD@?$__crt_char_traits@D@@SAPEADAEAPEADAEAY02$$CBD@Z 0000000140044c38 f i libucrt:argv_wildcards.obj
 0001:00043c40       ??$tcspbrk@AEAPEA_WAEAY02$$CB_W@?$__crt_char_traits@_W@@SAPEA_WAEAPEA_WAEAY02$$CB_W@Z 0000000140044c40 f i libucrt:argv_wildcards.obj
 0001:00043c48       ??0?$__crt_unique_handle_t@U__crt_findfile_traits@@@@QEAA@QEAX@Z 0000000140044c48 f i libucrt:argv_wildcards.obj
 0001:00043c50       ??0?$__crt_win32_buffer@DU__crt_win32_buffer_internal_dynamic_resizing@@@@QEAA@XZ 0000000140044c50 f i libucrt:argv_wildcards.obj
 0001:00043c6c       ??0?$__crt_win32_buffer@_WU__crt_win32_buffer_internal_dynamic_resizing@@@@QEAA@XZ 0000000140044c6c f i libucrt:argv_wildcards.obj
 0001:00043cb0       ??0_LocaleUpdate@@QEAA@QEAU__crt_locale_pointers@@@Z 0000000140044cb0 f i libucrt:argv_wildcards.obj
 0001:00043d4c       ??1?$__crt_unique_handle_t@U__crt_findfile_traits@@@@QEAA@XZ 0000000140044d4c f i libucrt:argv_wildcards.obj
 0001:00043d70       ??1?$__crt_win32_buffer@DU__crt_win32_buffer_internal_dynamic_resizing@@@@QEAA@XZ 0000000140044d70 f i libucrt:argv_wildcards.obj
 0001:00043d94       ??1?$__crt_win32_buffer@_WU__crt_win32_buffer_internal_dynamic_resizing@@@@QEAA@XZ 0000000140044d94 f i libucrt:argv_wildcards.obj
 0001:00043e30       ??1_LocaleUpdate@@QEAA@XZ  0000000140044e30 f i libucrt:argv_wildcards.obj
 0001:00043e54       ??R<lambda_7c9dea7b4ca7285d2cdb541a38da6275>@@QEBA@IQEBDQEA_W_K@Z 0000000140044e54 f i libucrt:argv_wildcards.obj
 0001:00043ee4       ??R<lambda_d8593a27d1aa8c02be35c86a17d324c4>@@QEBA@IQEB_WQEAD_K@Z 0000000140044ee4 f i libucrt:argv_wildcards.obj
 0001:00043f14       ?GetLocaleT@_LocaleUpdate@@QEAAPEAU__crt_locale_pointers@@XZ 0000000140044f14 f i libucrt:argv_wildcards.obj
 0001:00043f1c       ?__acrt_get_utf8_acp_compatibility_codepage@@YAIXZ 0000000140044f1c f i libucrt:argv_wildcards.obj
 0001:00043f68       ?_deallocate@?$__crt_win32_buffer@DU__crt_win32_buffer_internal_dynamic_resizing@@@@AEAAXXZ 0000000140044f68 f i libucrt:argv_wildcards.obj
 0001:00043f8c       ?_deallocate@?$__crt_win32_buffer@_WU__crt_win32_buffer_internal_dynamic_resizing@@@@AEAAXXZ 0000000140044f8c f i libucrt:argv_wildcards.obj
 0001:00043fb0       ?allocate@?$__crt_win32_buffer@DU__crt_win32_buffer_internal_dynamic_resizing@@@@QEAAH_K@Z 0000000140044fb0 f i libucrt:argv_wildcards.obj
 0001:00044014       ?allocate@?$__crt_win32_buffer@_WU__crt_win32_buffer_internal_dynamic_resizing@@@@QEAAH_K@Z 0000000140045014 f i libucrt:argv_wildcards.obj
 0001:00044078       ?allocate@__crt_win32_buffer_internal_dynamic_resizing@@SAHQEAPEAX_KAEBV__crt_win32_buffer_empty_debug_info@@@Z 0000000140045078 f i libucrt:argv_wildcards.obj
 0001:00044264       ?capacity@?$__crt_win32_buffer@DU__crt_win32_buffer_internal_dynamic_resizing@@@@QEBA_KXZ 0000000140045264 f i libucrt:argv_wildcards.obj
 0001:0004426c       ?capacity@?$__crt_win32_buffer@_WU__crt_win32_buffer_internal_dynamic_resizing@@@@QEBA_KXZ 000000014004526c f i libucrt:argv_wildcards.obj
 0001:00044274       ?close@?$__crt_unique_handle_t@U__crt_findfile_traits@@@@QEAAXXZ 0000000140045274 f i libucrt:argv_wildcards.obj
 0001:00044298       ?close@__crt_findfile_traits@@SA_NPEAX@Z 0000000140045298 f i libucrt:argv_wildcards.obj
 0001:000442ac       ?data@?$__crt_win32_buffer@DU__crt_win32_buffer_internal_dynamic_resizing@@@@QEAAPEADXZ 00000001400452ac f i libucrt:argv_wildcards.obj
 0001:000442b4       ?data@?$__crt_win32_buffer@_WU__crt_win32_buffer_internal_dynamic_resizing@@@@QEAAPEA_WXZ 00000001400452b4 f i libucrt:argv_wildcards.obj
 0001:000442bc       ?deallocate@__crt_win32_buffer_internal_dynamic_resizing@@SAXQEAXAEBV__crt_win32_buffer_empty_debug_info@@@Z 00000001400452bc f i libucrt:argv_wildcards.obj
 0001:000442c4       ?debug_info@?$__crt_win32_buffer@DU__crt_win32_buffer_internal_dynamic_resizing@@@@QEBAAEBV__crt_win32_buffer_empty_debug_info@@XZ 00000001400452c4 f i libucrt:argv_wildcards.obj
 0001:000442c8       ?debug_info@?$__crt_win32_buffer@_WU__crt_win32_buffer_internal_dynamic_resizing@@@@QEBAAEBV__crt_win32_buffer_empty_debug_info@@XZ 00000001400452c8 f i libucrt:argv_wildcards.obj
 0001:0004446c       ?get@?$__crt_unique_handle_t@U__crt_findfile_traits@@@@QEBAPEAXXZ 000000014004546c f i libucrt:argv_wildcards.obj
 0001:00044518       ?get_invalid_value@__crt_findfile_traits@@SAPEAXXZ 0000000140045518 f i libucrt:argv_wildcards.obj
 0001:000445d8       ?set_to_nullptr@?$__crt_win32_buffer@DU__crt_win32_buffer_internal_dynamic_resizing@@@@QEAAXXZ 00000001400455d8 f i libucrt:argv_wildcards.obj
 0001:00044614       ?set_to_nullptr@?$__crt_win32_buffer@_WU__crt_win32_buffer_internal_dynamic_resizing@@@@QEAAXXZ 0000000140045614 f i libucrt:argv_wildcards.obj
 0001:00044650       ?size@?$__crt_win32_buffer@DU__crt_win32_buffer_internal_dynamic_resizing@@@@QEAAX_K@Z 0000000140045650 f i libucrt:argv_wildcards.obj
 0001:00044658       ?size@?$__crt_win32_buffer@_WU__crt_win32_buffer_internal_dynamic_resizing@@@@QEAAX_K@Z 0000000140045658 f i libucrt:argv_wildcards.obj
 0001:00044678       ?strpbrk@@YAPEADQEADQEBD@Z 0000000140045678 f i libucrt:argv_wildcards.obj
 0001:00044680       ?wcspbrk@@YAPEA_WPEA_WPEB_W@Z 0000000140045680 f i libucrt:argv_wildcards.obj
 0001:00044688       __acrt_expand_narrow_argv_wildcards 0000000140045688 f   libucrt:argv_wildcards.obj
 0001:00044690       __acrt_expand_wide_argv_wildcards 0000000140045690 f   libucrt:argv_wildcards.obj
 0001:00044698       ??$__acrt_convert_wcs_mbs_cp@_WDV<lambda_f788ae46380686e8b737efdd8c720d07>@@U__crt_win32_buffer_no_resizing@@@@YAHQEB_WAEAV?$__crt_win32_buffer@DU__crt_win32_buffer_no_resizing@@@@AEBV<lambda_f788ae46380686e8b737efdd8c720d07>@@I@Z 0000000140045698 f i libucrt:getmodulefilenamea.obj
 0001:000447b4       ??$__acrt_wcs_to_mbs_cp@U__crt_win32_buffer_no_resizing@@@@YAHQEB_WAEAV?$__crt_win32_buffer@DU__crt_win32_buffer_no_resizing@@@@I@Z 00000001400457b4 f i libucrt:getmodulefilenamea.obj
 0001:000447c4       ??0?$__crt_win32_buffer@DU__crt_win32_buffer_no_resizing@@@@QEAA@QEAD_K@Z 00000001400457c4 f i libucrt:getmodulefilenamea.obj
 0001:000447e0       ??1?$__crt_win32_buffer@DU__crt_win32_buffer_no_resizing@@@@QEAA@XZ 00000001400457e0 f i libucrt:getmodulefilenamea.obj
 0001:000447ec       ??R<lambda_f788ae46380686e8b737efdd8c720d07>@@QEBA@IQEB_WQEAD_K@Z 00000001400457ec f i libucrt:getmodulefilenamea.obj
 0001:0004481c       ?_deallocate@?$__crt_win32_buffer@DU__crt_win32_buffer_no_resizing@@@@AEAAXXZ 000000014004581c f i libucrt:getmodulefilenamea.obj
 0001:00044828       ?allocate@?$__crt_win32_buffer@DU__crt_win32_buffer_no_resizing@@@@QEAAH_K@Z 0000000140045828 f i libucrt:getmodulefilenamea.obj
 0001:00044858       ?allocate@__crt_win32_buffer_no_resizing@@SAHQEAPEAX_KAEBV__crt_win32_buffer_empty_debug_info@@@Z 0000000140045858 f i libucrt:getmodulefilenamea.obj
 0001:00044870       ?capacity@?$__crt_win32_buffer@DU__crt_win32_buffer_no_resizing@@@@QEBA_KXZ 0000000140045870 f i libucrt:getmodulefilenamea.obj
 0001:00044878       ?data@?$__crt_win32_buffer@DU__crt_win32_buffer_no_resizing@@@@QEAAPEADXZ 0000000140045878 f i libucrt:getmodulefilenamea.obj
 0001:00044880       ?deallocate@__crt_win32_buffer_no_resizing@@SAXQEAXAEBV__crt_win32_buffer_empty_debug_info@@@Z 0000000140045880 f i libucrt:getmodulefilenamea.obj
 0001:00044884       ?debug_info@?$__crt_win32_buffer@DU__crt_win32_buffer_no_resizing@@@@QEBAAEBV__crt_win32_buffer_empty_debug_info@@XZ 0000000140045884 f i libucrt:getmodulefilenamea.obj
 0001:00044888       ?set_to_nullptr@?$__crt_win32_buffer@DU__crt_win32_buffer_no_resizing@@@@QEAAXXZ 0000000140045888 f i libucrt:getmodulefilenamea.obj
 0001:000448a0       ?size@?$__crt_win32_buffer@DU__crt_win32_buffer_no_resizing@@@@QEAAX_K@Z 00000001400458a0 f i libucrt:getmodulefilenamea.obj
 0001:000448a8       ?size@?$__crt_win32_buffer@DU__crt_win32_buffer_no_resizing@@@@QEBA_KXZ 00000001400458a8 f i libucrt:getmodulefilenamea.obj
 0001:000448b0       __acrt_GetModuleFileNameA  00000001400458b0 f   libucrt:getmodulefilenamea.obj
 0001:00044bcc       ??$initialize_from_array@$$BY10BAA@E@?$dual_state_global@PEAE@__crt_state_management@@QEAAXAEAY10BAA@E@Z 0000000140045bcc f i libucrt:mbctype.obj
 0001:00044bd0       ??$initialize_from_array@$$BY10BAB@E@?$dual_state_global@PEAE@__crt_state_management@@QEAAXAEAY10BAB@E@Z 0000000140045bd0 f i libucrt:mbctype.obj
 0001:00044ddc       ?dangerous_get_state_array@?$dual_state_global@PEAE@__crt_state_management@@QEAAPEAPEAEXZ 0000000140045ddc f i libucrt:mbctype.obj
 0001:00044de0       ?dangerous_get_state_array@?$dual_state_global@PEAU__crt_multibyte_data@@@__crt_state_management@@QEAAPEAPEAU__crt_multibyte_data@@XZ 0000000140045de0 f i libucrt:mbctype.obj
 0001:00044e64       ?initialize@?$dual_state_global@PEAU__crt_multibyte_data@@@__crt_state_management@@QEAAXQEAU__crt_multibyte_data@@@Z 0000000140045e64 f i libucrt:mbctype.obj
 0001:0004541c       ?value@?$dual_state_global@PEAE@__crt_state_management@@QEAAAEAPEAEXZ 000000014004641c f i libucrt:mbctype.obj
 0001:00045420       __acrt_initialize_multibyte 0000000140046420 f   libucrt:mbctype.obj
 0001:00045480       __acrt_update_thread_multibyte_data 0000000140046480 f   libucrt:mbctype.obj
 0001:0004549c       __p__mbcasemap             000000014004649c f   libucrt:mbctype.obj
 0001:000454a4       __p__mbctype               00000001400464a4 f   libucrt:mbctype.obj
 0001:000454ac       _getmbcp                   00000001400464ac f   libucrt:mbctype.obj
 0001:000454e8       _setmbcp                   00000001400464e8 f   libucrt:mbctype.obj
 0001:00045510       _setmbcp_nolock            0000000140046510 f   libucrt:mbctype.obj
 0001:000458cc       _ismbbalnum                00000001400468cc f   libucrt:ismbbyte.obj
 0001:000458e4       _ismbbalnum_l              00000001400468e4 f   libucrt:ismbbyte.obj
 0001:00045900       _ismbbalpha                0000000140046900 f   libucrt:ismbbyte.obj
 0001:00045918       _ismbbalpha_l              0000000140046918 f   libucrt:ismbbyte.obj
 0001:00045934       _ismbbblank                0000000140046934 f   libucrt:ismbbyte.obj
 0001:00045950       _ismbbblank_l              0000000140046950 f   libucrt:ismbbyte.obj
 0001:00045970       _ismbbgraph                0000000140046970 f   libucrt:ismbbyte.obj
 0001:00045988       _ismbbgraph_l              0000000140046988 f   libucrt:ismbbyte.obj
 0001:000459a4       _ismbbkalnum               00000001400469a4 f   libucrt:ismbbyte.obj
 0001:000459b8       _ismbbkalnum_l             00000001400469b8 f   libucrt:ismbbyte.obj
 0001:000459d0       _ismbbkana                 00000001400469d0 f   libucrt:ismbbyte.obj
 0001:000459d8       _ismbbkana_l               00000001400469d8 f   libucrt:ismbbyte.obj
 0001:00045a40       _ismbbkprint               0000000140046a40 f   libucrt:ismbbyte.obj
 0001:00045a54       _ismbbkprint_l             0000000140046a54 f   libucrt:ismbbyte.obj
 0001:00045a6c       _ismbbkpunct               0000000140046a6c f   libucrt:ismbbyte.obj
 0001:00045a80       _ismbbkpunct_l             0000000140046a80 f   libucrt:ismbbyte.obj
 0001:00045a98       _ismbblead                 0000000140046a98 f   libucrt:ismbbyte.obj
 0001:00045aac       _ismbblead_l               0000000140046aac f   libucrt:ismbbyte.obj
 0001:00045ac4       _ismbbprint                0000000140046ac4 f   libucrt:ismbbyte.obj
 0001:00045adc       _ismbbprint_l              0000000140046adc f   libucrt:ismbbyte.obj
 0001:00045af8       _ismbbpunct                0000000140046af8 f   libucrt:ismbbyte.obj
 0001:00045b0c       _ismbbpunct_l              0000000140046b0c f   libucrt:ismbbyte.obj
 0001:00045b24       _ismbbtrail                0000000140046b24 f   libucrt:ismbbyte.obj
 0001:00045b38       _ismbbtrail_l              0000000140046b38 f   libucrt:ismbbyte.obj
 0001:00045bdc       __acrt_MultiByteToWideChar 0000000140046bdc f   libucrt:multibytetowidechar.obj
 0001:00045cf4       __acrt_WideCharToMultiByte 0000000140046cf4 f   libucrt:widechartomultibyte.obj
 0001:00045e74       __dcrt_get_narrow_environment_from_os 0000000140046e74 f   libucrt:get_environment_from_os.obj
 0001:00045f84       __dcrt_get_wide_environment_from_os 0000000140046f84 f   libucrt:get_environment_from_os.obj
 0001:00046a1c       ??$get_or_create_environment_nolock@$$V@?$__crt_char_traits@D@@SAPEAPEADXZ 0000000140047a1c f i libucrt:setenv.obj
 0001:00046a24       ??$get_or_create_environment_nolock@$$V@?$__crt_char_traits@_W@@SAPEAPEA_WXZ 0000000140047a24 f i libucrt:setenv.obj
 0001:00046a2c       ??$set_environment_variable@AEBQEADQEAD@?$__crt_char_traits@D@@SAHAEBQEAD$$QEBQEAD@Z 0000000140047a2c f i libucrt:setenv.obj
 0001:00046a38       ??$set_environment_variable@AEBQEA_WQEA_W@?$__crt_char_traits@_W@@SAHAEBQEA_W$$QEBQEA_W@Z 0000000140047a38 f i libucrt:setenv.obj
 0001:00046a48       ??$tcschr@AEBQEADD@?$__crt_char_traits@D@@SAPEADAEBQEAD$$QEAD@Z 0000000140047a48 f i libucrt:setenv.obj
 0001:00046a54       ??$tcschr@AEBQEA_WD@?$__crt_char_traits@_W@@SAPEA_WAEBQEA_W$$QEAD@Z 0000000140047a54 f i libucrt:setenv.obj
 0001:00046a60       ??$tcscpy_s@AEAPEADAEB_KAEAPEAD@?$__crt_char_traits@D@@SAHAEAPEADAEB_K0@Z 0000000140047a60 f i libucrt:setenv.obj
 0001:00046a70       ??$tcscpy_s@AEAPEA_WAEB_KAEAPEA_W@?$__crt_char_traits@_W@@SAHAEAPEA_WAEB_K0@Z 0000000140047a70 f i libucrt:setenv.obj
 0001:00046a80       ??$tcscpy_s@AEBQEADAEB_KAEBQEAD@?$__crt_char_traits@D@@SAHAEBQEADAEB_K0@Z 0000000140047a80 f i libucrt:setenv.obj
 0001:00046a90       ??$tcscpy_s@AEBQEA_WAEB_KAEBQEA_W@?$__crt_char_traits@_W@@SAHAEBQEA_WAEB_K0@Z 0000000140047a90 f i libucrt:setenv.obj
 0001:00046aa0       ??$tcslen@AEBQEAD@?$__crt_char_traits@D@@SA_KAEBQEAD@Z 0000000140047aa0 f i libucrt:setenv.obj
 0001:00046ab4       ??$tcslen@AEBQEA_W@?$__crt_char_traits@_W@@SA_KAEBQEA_W@Z 0000000140047ab4 f i libucrt:setenv.obj
 0001:00046ac8       ??$tcsnicoll@AEBQEBDAEAPEADAEB_K@?$__crt_char_traits@D@@SAHAEBQEBDAEAPEADAEB_K@Z 0000000140047ac8 f i libucrt:setenv.obj
 0001:00046ad8       ??$tcsnicoll@AEBQEB_WAEAPEA_WAEB_K@?$__crt_char_traits@_W@@SAHAEBQEB_WAEAPEA_WAEB_K@Z 0000000140047ad8 f i libucrt:setenv.obj
 0001:00046b18       ?strchr@@YAPEADQEADH@Z     0000000140047b18 f i libucrt:setenv.obj
 0001:00046b20       ?wcschr@@YAPEA_WPEA_W_W@Z  0000000140047b20 f i libucrt:setenv.obj
 0001:00046b28       __dcrt_set_variable_in_narrow_environment_nolock 0000000140047b28 f   libucrt:setenv.obj
 0001:00046b30       __dcrt_set_variable_in_wide_environment_nolock 0000000140047b30 f   libucrt:setenv.obj
 0001:00046b38       __acrt_initialize_locks    0000000140047b38 f   libucrt:locks.obj
 0001:00046b80       __acrt_lock                0000000140047b80 f   libucrt:locks.obj
 0001:00046b9c       __acrt_uninitialize_locks  0000000140047b9c f   libucrt:locks.obj
 0001:00046bd4       __acrt_unlock              0000000140047bd4 f   libucrt:locks.obj
 0001:00046bf0       _lock_locales              0000000140047bf0 f   libucrt:locks.obj
 0001:00046c0c       _unlock_locales            0000000140047c0c f   libucrt:locks.obj
 0001:00046c1c       __acrt_app_verifier_enabled 0000000140047c1c f   libucrt:peb_access.obj
 0001:00046c38       __acrt_is_secure_process   0000000140047c38 f   libucrt:peb_access.obj
 0001:00046ddc       __acrt_get_begin_thread_init_policy 0000000140047ddc f   libucrt:win_policies.obj
 0001:00046e1c       __acrt_get_developer_information_policy 0000000140047e1c f   libucrt:win_policies.obj
 0001:00046e60       __acrt_get_process_end_policy 0000000140047e60 f   libucrt:win_policies.obj
 0001:00046e90       __acrt_get_windowing_model_policy 0000000140047e90 f   libucrt:win_policies.obj
 0001:00046ef8       ??$?RU__crt_lowio_handle_data@@@__crt_internal_free_policy@@QEBAXQEBU__crt_lowio_handle_data@@@Z 0000000140047ef8 f i libucrt:osfinfo.obj
 0001:00046f00       ??0?$__crt_unique_heap_ptr@U__crt_lowio_handle_data@@U__crt_internal_free_policy@@@@QEAA@QEAU__crt_lowio_handle_data@@@Z 0000000140047f00 f i libucrt:osfinfo.obj
 0001:00046f08       ??1?$__crt_unique_heap_ptr@U__crt_lowio_handle_data@@U__crt_internal_free_policy@@@@QEAA@XZ 0000000140047f08 f i libucrt:osfinfo.obj
 0001:00046f24       ??B?$__crt_unique_heap_ptr@U__crt_lowio_handle_data@@U__crt_internal_free_policy@@@@QEBA_NXZ 0000000140047f24 f i libucrt:osfinfo.obj
 0001:00046f2c       ?detach@?$__crt_unique_heap_ptr@U__crt_lowio_handle_data@@U__crt_internal_free_policy@@@@QEAAPEAU__crt_lowio_handle_data@@XZ 0000000140047f2c f i libucrt:osfinfo.obj
 0001:00046f34       ?get@?$__crt_unique_heap_ptr@U__crt_lowio_handle_data@@U__crt_internal_free_policy@@@@QEBAPEAU__crt_lowio_handle_data@@XZ 0000000140047f34 f i libucrt:osfinfo.obj
 0001:00046f38       ?is_valid@?$__crt_unique_heap_ptr@U__crt_lowio_handle_data@@U__crt_internal_free_policy@@@@QEBA_NXZ 0000000140047f38 f i libucrt:osfinfo.obj
 0001:00046f40       ?release@?$__crt_unique_heap_ptr@U__crt_lowio_handle_data@@U__crt_internal_free_policy@@@@QEAAXXZ 0000000140047f40 f i libucrt:osfinfo.obj
 0001:00046f5c       __acrt_lowio_create_handle_array 0000000140047f5c f   libucrt:osfinfo.obj
 0001:00047004       __acrt_lowio_destroy_handle_array 0000000140048004 f   libucrt:osfinfo.obj
 0001:00047054       __acrt_lowio_ensure_fh_exists 0000000140048054 f   libucrt:osfinfo.obj
 0001:000470fc       __acrt_lowio_lock_fh       00000001400480fc f   libucrt:osfinfo.obj
 0001:00047124       __acrt_lowio_set_os_handle 0000000140048124 f   libucrt:osfinfo.obj
 0001:000471e4       __acrt_lowio_unlock_fh     00000001400481e4 f   libucrt:osfinfo.obj
 0001:0004720c       _alloc_osfhnd              000000014004820c f   libucrt:osfinfo.obj
 0001:0004734c       _free_osfhnd               000000014004834c f   libucrt:osfinfo.obj
 0001:00047408       _get_osfhandle             0000000140048408 f   libucrt:osfinfo.obj
 0001:00047480       _open_osfhandle            0000000140048480 f   libucrt:osfinfo.obj
 0001:00047580       ?dangerous_get_state_array@?$dual_state_global@H@__crt_state_management@@QEAAPEAHXZ 0000000140048580 f i libucrt:txtmode.obj
 0001:00047584       __acrt_initialize_fmode    0000000140048584 f   libucrt:txtmode.obj
 0001:000475a0       __p__fmode                 00000001400485a0 f   libucrt:txtmode.obj
 0001:000475a8       ??$?RG@__crt_internal_free_policy@@QEBAXQEBG@Z 00000001400485a8 f i libucrt:initctype.obj
 0001:000475b0       ??$?RJ@__crt_internal_free_policy@@QEBAXQEBJ@Z 00000001400485b0 f i libucrt:initctype.obj
 0001:000475b8       ??0?$__crt_unique_heap_ptr@GU__crt_internal_free_policy@@@@QEAA@QEAG@Z 00000001400485b8 f i libucrt:initctype.obj
 0001:000475c0       ??0?$__crt_unique_heap_ptr@JU__crt_internal_free_policy@@@@QEAA@QEAJ@Z 00000001400485c0 f i libucrt:initctype.obj
 0001:000475c8       ??1?$__crt_unique_heap_ptr@GU__crt_internal_free_policy@@@@QEAA@XZ 00000001400485c8 f i libucrt:initctype.obj
 0001:000475e4       ??1?$__crt_unique_heap_ptr@JU__crt_internal_free_policy@@@@QEAA@XZ 00000001400485e4 f i libucrt:initctype.obj
 0001:00047600       ?detach@?$__crt_unique_heap_ptr@GU__crt_internal_free_policy@@@@QEAAPEAGXZ 0000000140048600 f i libucrt:initctype.obj
 0001:00047608       ?detach@?$__crt_unique_heap_ptr@JU__crt_internal_free_policy@@@@QEAAPEAJXZ 0000000140048608 f i libucrt:initctype.obj
 0001:00047610       ?release@?$__crt_unique_heap_ptr@GU__crt_internal_free_policy@@@@QEAAXXZ 0000000140048610 f i libucrt:initctype.obj
 0001:0004762c       ?release@?$__crt_unique_heap_ptr@JU__crt_internal_free_policy@@@@QEAAXXZ 000000014004862c f i libucrt:initctype.obj
 0001:00047648       ___lc_codepage_func        0000000140048648 f   libucrt:initctype.obj
 0001:00047678       ___lc_collate_cp_func      0000000140048678 f   libucrt:initctype.obj
 0001:000476a8       ___lc_locale_name_func     00000001400486a8 f   libucrt:initctype.obj
 0001:000476dc       ___mb_cur_max_func         00000001400486dc f   libucrt:initctype.obj
 0001:0004770c       ___mb_cur_max_l_func       000000014004870c f   libucrt:initctype.obj
 0001:0004771c       __acrt_locale_initialize_ctype 000000014004871c f   libucrt:initctype.obj
 0001:00047d80       ??$?RUlconv@@@__crt_internal_free_policy@@QEBAXQEBUlconv@@@Z 0000000140048d80 f i libucrt:initmon.obj
 0001:00047d88       ??0?$__crt_unique_heap_ptr@Ulconv@@U__crt_internal_free_policy@@@@QEAA@QEAUlconv@@@Z 0000000140048d88 f i libucrt:initmon.obj
 0001:00047d90       ??1?$__crt_unique_heap_ptr@Ulconv@@U__crt_internal_free_policy@@@@QEAA@XZ 0000000140048d90 f i libucrt:initmon.obj
 0001:00047dac       ?detach@?$__crt_unique_heap_ptr@Ulconv@@U__crt_internal_free_policy@@@@QEAAPEAUlconv@@XZ 0000000140048dac f i libucrt:initmon.obj
 0001:00047db4       ?release@?$__crt_unique_heap_ptr@Ulconv@@U__crt_internal_free_policy@@@@QEAAXXZ 0000000140048db4 f i libucrt:initmon.obj
 0001:00047dd0       __acrt_locale_free_monetary 0000000140048dd0 f   libucrt:initmon.obj
 0001:00047edc       __acrt_locale_initialize_monetary 0000000140048edc f   libucrt:initmon.obj
 0001:0004842c       __acrt_locale_free_numeric 000000014004942c f   libucrt:initnum.obj
 0001:00048498       __acrt_locale_initialize_numeric 0000000140049498 f   libucrt:initnum.obj
 0001:000487b4       ??$?RU__crt_lc_time_data@@@__crt_internal_free_policy@@QEBAXQEBU__crt_lc_time_data@@@Z 00000001400497b4 f i libucrt:inittime.obj
 0001:00048804       ??0?$__crt_unique_heap_ptr@U__crt_lc_time_data@@U__crt_internal_free_policy@@@@QEAA@QEAU__crt_lc_time_data@@@Z 0000000140049804 f i libucrt:inittime.obj
 0001:0004880c       ??1?$__crt_unique_heap_ptr@U__crt_lc_time_data@@U__crt_internal_free_policy@@@@QEAA@XZ 000000014004980c f i libucrt:inittime.obj
 0001:00048828       ??B?$__crt_unique_heap_ptr@U__crt_lc_time_data@@U__crt_internal_free_policy@@@@QEBA_NXZ 0000000140049828 f i libucrt:inittime.obj
 0001:00048830       ?detach@?$__crt_unique_heap_ptr@U__crt_lc_time_data@@U__crt_internal_free_policy@@@@QEAAPEAU__crt_lc_time_data@@XZ 0000000140049830 f i libucrt:inittime.obj
 0001:0004886c       ?get@?$__crt_unique_heap_ptr@U__crt_lc_time_data@@U__crt_internal_free_policy@@@@QEBAPEAU__crt_lc_time_data@@XZ 000000014004986c f i libucrt:inittime.obj
 0001:00048c30       ?is_valid@?$__crt_unique_heap_ptr@U__crt_lc_time_data@@U__crt_internal_free_policy@@@@QEBA_NXZ 0000000140049c30 f i libucrt:inittime.obj
 0001:00048c38       ?release@?$__crt_unique_heap_ptr@U__crt_lc_time_data@@U__crt_internal_free_policy@@@@QEAAXXZ 0000000140049c38 f i libucrt:inittime.obj
 0001:00048c54       __acrt_locale_free_time    0000000140049c54 f   libucrt:inittime.obj
 0001:00048d5c       __acrt_locale_initialize_time 0000000140049d5c f   libucrt:inittime.obj
 0001:00048df8       __pctype_func              0000000140049df8 f   libucrt:ctype.obj
 0001:00048e28       __pwctype_func             0000000140049e28 f   libucrt:ctype.obj
 0001:00048f28       wcsncat_s                  0000000140049f28 f   libucrt:wcsncat_s.obj
 0001:00049020       wcscspn                    000000014004a020 f   libucrt:wcscspn.obj
 0001:00049060       wcspbrk                    000000014004a060 f   libucrt:wcspbrk.obj
 0001:00049094       ??0?$__crt_scoped_stack_ptr@_W@@QEAA@U?$__crt_scoped_stack_ptr_tag@_W@@@Z 000000014004a094 f i libucrt:getstringtypea.obj
 0001:0004909c       ??0?$__crt_scoped_stack_ptr_tag@_W@@QEAA@QEA_W@Z 000000014004a09c f i libucrt:getstringtypea.obj
 0001:000490a4       ??1?$__crt_scoped_stack_ptr@_W@@QEAA@XZ 000000014004a0a4 f i libucrt:getstringtypea.obj
 0001:000490c8       ?get@?$__crt_scoped_stack_ptr@_W@@QEBAPEA_WXZ 000000014004a0c8 f i libucrt:getstringtypea.obj
 0001:000490cc       _MallocaComputeSize        000000014004a0cc f i libucrt:getstringtypea.obj
 0001:000490dc       _MarkAllocaS               000000014004a0dc f i libucrt:getstringtypea.obj
 0001:000490ec       __acrt_GetStringTypeA      000000014004a0ec f   libucrt:getstringtypea.obj
 0001:0004927c       _freea_crt                 000000014004a27c f i libucrt:getstringtypea.obj
 0001:0004929c       __acrt_add_locale_ref      000000014004a29c f   libucrt:locale_refcounting.obj
 0001:00049328       __acrt_free_locale         000000014004a328 f   libucrt:locale_refcounting.obj
 0001:000494a0       __acrt_locale_add_lc_time_reference 000000014004a4a0 f   libucrt:locale_refcounting.obj
 0001:000494c8       __acrt_locale_free_lc_time_if_unreferenced 000000014004a4c8 f   libucrt:locale_refcounting.obj
 0001:00049500       __acrt_locale_release_lc_time_reference 000000014004a500 f   libucrt:locale_refcounting.obj
 0001:00049528       __acrt_release_locale_ref  000000014004a528 f   libucrt:locale_refcounting.obj
 0001:000495d0       __acrt_update_thread_locale_data 000000014004a5d0 f   libucrt:locale_refcounting.obj
 0001:00049640       _updatetlocinfoEx_nolock   000000014004a640 f   libucrt:locale_refcounting.obj
 0001:00049ef4       __acrt_get_qualified_locale 000000014004aef4 f   libucrt:get_qualified_locale.obj
 0001:0004aa0c       __acrt_get_qualified_locale_downlevel 000000014004ba0c f   libucrt:getqloc_downlevel.obj
 0001:0004ac8c       localeconv                 000000014004bc8c f   libucrt:localeconv.obj
 0001:0004acc0       _recalloc                  000000014004bcc0 f   libucrt:recalloc.obj
 0001:0004acc8       _recalloc_base             000000014004bcc8 f   libucrt:recalloc.obj
 0001:0004ad60       __acrt_getheap             000000014004bd60 f   libucrt:heap_handle.obj
 0001:0004ad68       __acrt_initialize_heap     000000014004bd68 f   libucrt:heap_handle.obj
 0001:0004ad84       __acrt_uninitialize_heap   000000014004bd84 f   libucrt:heap_handle.obj
 0001:0004ad90       _get_heap_handle           000000014004bd90 f   libucrt:heap_handle.obj
 0001:0004ad98       __acrt_execute_initializers 000000014004bd98 f   libucrt:shared_initialization.obj
 0001:0004ae2c       __acrt_execute_uninitializers 000000014004be2c f   libucrt:shared_initialization.obj
 0001:0004ae74       ??$?B$$A6AH_K@Z@__crt_fast_encoded_nullptr_t@@QEBAP6AH_K@ZXZ 000000014004be74 f i libucrt:new_handler.obj
 0001:0004ae7c       ??$__crt_fast_decode_pointer@P6AH_K@Z@@YAP6AH_K@ZQ6AH0@Z@Z 000000014004be7c f i libucrt:new_handler.obj
 0001:0004ae94       ??$__crt_fast_encode_pointer@P6AH_K@Z@@YAP6AH_K@ZQ6AH0@Z@Z 000000014004be94 f i libucrt:new_handler.obj
 0001:0004aeb4       ?_set_new_handler@@YAP6AH_K@ZH@Z 000000014004beb4 f   libucrt:new_handler.obj
 0001:0004aec0       ?initialize@?$dual_state_global@P6AH_K@Z@__crt_state_management@@QEAAXQ6AH_K@Z@Z 000000014004bec0 f i libucrt:new_handler.obj
 0001:0004aed0       ?value@?$dual_state_global@P6AH_K@Z@__crt_state_management@@QEAAAEAP6AH_K@ZXZ 000000014004bed0 f i libucrt:new_handler.obj
 0001:0004aed4       __acrt_initialize_new_handler 000000014004bed4 f   libucrt:new_handler.obj
 0001:0004aedc       _callnewh                  000000014004bedc f   libucrt:new_handler.obj
 0001:0004af1c       _query_new_handler         000000014004bf1c f   libucrt:new_handler.obj
 0001:0004af54       _set_new_handler           000000014004bf54 f   libucrt:new_handler.obj
 0001:0004afb0       ??$?B$$A6AXH@Z@__crt_fast_encoded_nullptr_t@@QEBAP6AXH@ZXZ 000000014004bfb0 f i libucrt:signal.obj
 0001:0004b028       ??$__crt_fast_decode_pointer@P6AXH@Z@@YAP6AXH@ZQ6AXH@Z@Z 000000014004c028 f i libucrt:signal.obj
 0001:0004b040       ??$__crt_fast_encode_pointer@P6AXH@Z@@YAP6AXH@ZQ6AXH@Z@Z 000000014004c040 f i libucrt:signal.obj
 0001:0004b174       ?initialize@?$dual_state_global@P6AXH@Z@__crt_state_management@@QEAAXQ6AXH@Z@Z 000000014004c174 f i libucrt:signal.obj
 0001:0004b204       ?value@?$dual_state_global@P6AXH@Z@__crt_state_management@@QEAAAEAP6AXH@ZXZ 000000014004c204 f i libucrt:signal.obj
 0001:0004b208       __acrt_get_sigabrt_handler 000000014004c208 f   libucrt:signal.obj
 0001:0004b238       __acrt_initialize_signal_handlers 000000014004c238 f   libucrt:signal.obj
 0001:0004b258       __fpecode                  000000014004c258 f   libucrt:signal.obj
 0001:0004b26c       __pxcptinfoptrs            000000014004c26c f   libucrt:signal.obj
 0001:0004b280       raise                      000000014004c280 f   libucrt:signal.obj
 0001:0004b4fc       signal                     000000014004c4fc f   libucrt:signal.obj
 0001:0004b6c0       _iswctype_l                000000014004c6c0 f   libucrt:iswctype.obj
 0001:0004b6c8       iswctype                   000000014004c6c8 f   libucrt:iswctype.obj
 0001:0004b734       _isctype                   000000014004c734 f   libucrt:isctype.obj
 0001:0004b764       _isctype_l                 000000014004c764 f   libucrt:isctype.obj
 0001:0004b93c       __acrt_DownlevelLCIDToLocaleName 000000014004c93c f   libucrt:lcidtoname_downlevel.obj
 0001:0004ba24       __acrt_DownlevelLocaleNameToLCID 000000014004ca24 f   libucrt:lcidtoname_downlevel.obj
 0001:0004bbec       _fclose_nolock             000000014004cbec f   libucrt:fclose.obj
 0001:0004bc84       fclose                     000000014004cc84 f   libucrt:fclose.obj
 0001:0004be60       _commit                    000000014004ce60 f   libucrt:commit.obj
 0001:0004c8a0       _utf8_no_of_trailbytes     000000014004d8a0 f i libucrt:write.obj
 0001:0004c8b0       _write                     000000014004d8b0 f   libucrt:write.obj
 0001:0004c948       _write_internal            000000014004d948 f   libucrt:write.obj
 0001:0004ca68       _write_nolock              000000014004da68 f   libucrt:write.obj
 0001:0004ce58       __acrt_fp_strflt_to_string 000000014004de58 f   libucrt:_fptostr.obj
 0001:0004e0b0       ??0big_integer@__crt_strtox@@QEAA@AEBU01@@Z 000000014004f0b0 f i libucrt:cfout.obj
 0001:0004e0e0       ??0big_integer@__crt_strtox@@QEAA@XZ 000000014004f0e0 f i libucrt:cfout.obj
 0001:0004e190       ??4big_integer@__crt_strtox@@QEAAAEAU01@AEBU01@@Z 000000014004f190 f i libucrt:cfout.obj
 0001:0004e1c0       ??8__crt_strtox@@YA_NAEBUbig_integer@0@0@Z 000000014004f1c0 f i libucrt:cfout.obj
 0001:0004e1f0       ??9__crt_strtox@@YA_NAEBUbig_integer@0@0@Z 000000014004f1f0 f i libucrt:cfout.obj
 0001:0004e230       ?add_carry@__crt_strtox@@YAIAEAIII@Z 000000014004f230 f i libucrt:cfout.obj
 0001:0004e250       ?add_multiply_carry@__crt_strtox@@YAIAEAIIII@Z 000000014004f250 f i libucrt:cfout.obj
 0001:0004e270       ?bit_scan_reverse@__crt_strtox@@YAII@Z 000000014004f270 f i libucrt:cfout.obj
 0001:0004e290       ?count_sequential_high_zeroes@__crt_strtox@@YAII@Z 000000014004f290 f i libucrt:cfout.obj
 0001:0004e2b0       ?divide@__crt_strtox@@YA_KAEAUbig_integer@1@AEBU21@@Z 000000014004f2b0 f i libucrt:cfout.obj
 0001:0004e750       ?is_zero@__crt_strtox@@YA_NAEBUbig_integer@1@@Z 000000014004f750 f i libucrt:cfout.obj
 0001:0004e760       ?make_big_integer@__crt_strtox@@YA?AUbig_integer@1@_K@Z 000000014004f760 f i libucrt:cfout.obj
 0001:0004e780       ?make_big_integer_power_of_two@__crt_strtox@@YA?AUbig_integer@1@I@Z 000000014004f780 f i libucrt:cfout.obj
 0001:0004e7f0       ?multiply@__crt_strtox@@YA_NAEAUbig_integer@1@AEBU21@@Z 000000014004f7f0 f i libucrt:cfout.obj
 0001:0004eb90       ?multiply@__crt_strtox@@YA_NAEAUbig_integer@1@I@Z 000000014004fb90 f i libucrt:cfout.obj
 0001:0004ec80       ?multiply_64_32@__crt_strtox@@YA_K_KI@Z 000000014004fc80 f i libucrt:cfout.obj
 0001:0004ec90       ?multiply_by_power_of_ten@__crt_strtox@@YA_NAEAUbig_integer@1@I@Z 000000014004fc90 f i libucrt:cfout.obj
 0001:0004f200       ?multiply_core@__crt_strtox@@YAIQEAIII@Z 0000000140050200 f i libucrt:cfout.obj
 0001:0004f250       ?shift_left@__crt_strtox@@YA_NAEAUbig_integer@1@I@Z 0000000140050250 f i libucrt:cfout.obj
 0001:0004f3cc       __acrt_fltout              00000001400503cc f   libucrt:cfout.obj
 0001:000506e4       __fpe_flt_rounds           00000001400516e4 f   libucrt:fegetround.obj
 0001:0005072c       fegetround                 000000014005172c f   libucrt:fegetround.obj
 0001:00050740       ?__c32rtomb_utf8@__crt_mbstring@@YA_KPEAD_UPEAU_Mbstatet@@AEAV__crt_cached_ptd_host@@@Z 0000000140051740 f   libucrt:c32rtomb.obj
 0001:000507e4       c32rtomb                   00000001400517e4 f   libucrt:c32rtomb.obj
 0001:000508a8       ?__mbrtowc_utf8@__crt_mbstring@@YA_KPEA_WPEBD_KPEAU_Mbstatet@@AEAV__crt_cached_ptd_host@@@Z 00000001400518a8 f   libucrt:mbrtowc.obj
 0001:000508ec       ?__mbsrtowcs_utf8@__crt_mbstring@@YA_KPEA_WPEAPEBD_KPEAU_Mbstatet@@AEAV__crt_cached_ptd_host@@@Z 00000001400518ec f   libucrt:mbrtowc.obj
 0001:00050f1c       btowc                      0000000140051f1c f   libucrt:mbrtowc.obj
 0001:00050ff4       mbrlen                     0000000140051ff4 f   libucrt:mbrtowc.obj
 0001:000510bc       mbrtowc                    00000001400520bc f   libucrt:mbrtowc.obj
 0001:000511a4       mbsrtowcs                  00000001400521a4 f   libucrt:mbrtowc.obj
 0001:00051248       mbsrtowcs_s                0000000140052248 f   libucrt:mbrtowc.obj
 0001:00051734       ?has_big_buffer@__crt_stdio_stream@@QEBA_NXZ 0000000140052734 f i libucrt:_flsbuf.obj
 0001:000517c0       __acrt_stdio_flush_and_write_narrow_nolock 00000001400527c0 f   libucrt:_flsbuf.obj
 0001:0005188c       __acrt_stdio_flush_and_write_wide_nolock 000000014005288c f   libucrt:_flsbuf.obj
 0001:00051958       _isatty                    0000000140052958 f   libucrt:isatty.obj
 0001:000519b8       __acrt_OutputDebugStringA  00000001400529b8 f   libucrt:outputdebugstringa.obj
 0001:00051b60       qsort                      0000000140052b60 f   libucrt:qsort.obj
 0001:00052050       strncpy_s                  0000000140053050 f   libucrt:strncpy_s.obj
 0001:000521e0       strpbrk                    00000001400531e0 f   libucrt:strpbrk.obj
 0001:000525a8       _mbsdec                    00000001400535a8 f   libucrt:mbsdec.obj
 0001:000525b0       _mbsdec_l                  00000001400535b0 f   libucrt:mbsdec.obj
 0001:00052644       ??B?$__crt_scoped_stack_ptr@_W@@QEBA_NXZ 0000000140053644 f i libucrt:lcmapstringa.obj
 0001:00052980       __acrt_LCMapStringA        0000000140053980 f   libucrt:lcmapstringa.obj
 0001:00052a30       _wcsnicoll                 0000000140053a30 f   libucrt:wcsnicol.obj
 0001:00052a80       _wcsnicoll_l               0000000140053a80 f   libucrt:wcsnicol.obj
 0001:00052b70       _strnicoll                 0000000140053b70 f   libucrt:strnicol.obj
 0001:00052b88       _strnicoll_l               0000000140053b88 f   libucrt:strnicol.obj
 0001:00052c88       __acrt_SetEnvironmentVariableA 0000000140053c88 f   libucrt:setenvironmentvariablea.obj
 0001:00052fa4       __acrt_GetLocaleInfoA      0000000140053fa4 f   libucrt:getlocaleinfoa.obj
 0001:00053694       _i64toa                    0000000140054694 f   libucrt:xtoa.obj
 0001:000536c8       _i64toa_s                  00000001400546c8 f   libucrt:xtoa.obj
 0001:000536ec       _i64tow                    00000001400546ec f   libucrt:xtoa.obj
 0001:00053720       _i64tow_s                  0000000140054720 f   libucrt:xtoa.obj
 0001:00053744       _itoa                      0000000140054744 f   libucrt:xtoa.obj
 0001:00053774       _itoa_s                    0000000140054774 f   libucrt:xtoa.obj
 0001:00053794       _itow                      0000000140054794 f   libucrt:xtoa.obj
 0001:000537c4       _itow_s                    00000001400547c4 f   libucrt:xtoa.obj
 0001:000537e4       _ltoa                      00000001400547e4 f   libucrt:xtoa.obj
 0001:00053814       _ltoa_s                    0000000140054814 f   libucrt:xtoa.obj
 0001:00053834       _ltow                      0000000140054834 f   libucrt:xtoa.obj
 0001:00053864       _ltow_s                    0000000140054864 f   libucrt:xtoa.obj
 0001:00053884       _ui64toa                   0000000140054884 f   libucrt:xtoa.obj
 0001:000538a8       _ui64toa_s                 00000001400548a8 f   libucrt:xtoa.obj
 0001:000538bc       _ui64tow                   00000001400548bc f   libucrt:xtoa.obj
 0001:000538e0       _ui64tow_s                 00000001400548e0 f   libucrt:xtoa.obj
 0001:000538f4       _ultoa                     00000001400548f4 f   libucrt:xtoa.obj
 0001:00053918       _ultoa_s                   0000000140054918 f   libucrt:xtoa.obj
 0001:0005392c       _ultow                     000000014005492c f   libucrt:xtoa.obj
 0001:00053950       _ultow_s                   0000000140054950 f   libucrt:xtoa.obj
 0001:00053964       __ascii_wcsicmp            0000000140054964 f   libucrt:wcsicmp.obj
 0001:000539a4       _towlower_fast_internal    00000001400549a4 f i libucrt:wcsicmp.obj
 0001:000539cc       _towlower_internal         00000001400549cc f i libucrt:wcsicmp.obj
 0001:00053a00       _wcsicmp                   0000000140054a00 f   libucrt:wcsicmp.obj
 0001:00053a48       _wcsicmp_l                 0000000140054a48 f   libucrt:wcsicmp.obj
 0001:00053b7c       __ascii_wcsnicmp           0000000140054b7c f   libucrt:wcsnicmp.obj
 0001:00053bc8       _wcsnicmp                  0000000140054bc8 f   libucrt:wcsnicmp.obj
 0001:00053c10       _wcsnicmp_l                0000000140054c10 f   libucrt:wcsnicmp.obj
 0001:00053d64       wcscmp                     0000000140054d64 f   libucrt:wcscmp.obj
 0001:00053d9c       _msize                     0000000140054d9c f   libucrt:msize.obj
 0001:00053da4       _msize_base                0000000140054da4 f   libucrt:msize.obj
 0001:00053de0       _realloc_base              0000000140054de0 f   libucrt:realloc_base.obj
 0001:00053e5c       __acrt_GetStringTypeW      0000000140054e5c f   libucrt:getstringtypew.obj
 0001:00053ff8       _close                     0000000140054ff8 f   libucrt:close.obj
 0001:00054090       _close_internal            0000000140055090 f   libucrt:close.obj
 0001:00054154       _close_nolock              0000000140055154 f   libucrt:close.obj
 0001:000541ec       _close_nolock_internal     00000001400551ec f   libucrt:close.obj
 0001:000542bc       ??$?RU__crt_stdio_stream_data@@@__crt_internal_free_policy@@QEBAXQEBU__crt_stdio_stream_data@@@Z 00000001400552bc f i libucrt:stream.obj
 0001:000542c4       ??0?$__crt_unique_heap_ptr@U__crt_stdio_stream_data@@U__crt_internal_free_policy@@@@QEAA@QEAU__crt_stdio_stream_data@@@Z 00000001400552c4 f i libucrt:stream.obj
 0001:000542cc       ??0__crt_stdio_stream@@QEAA@XZ 00000001400552cc f i libucrt:stream.obj
 0001:000542d4       ??1?$__crt_unique_heap_ptr@U__crt_stdio_stream_data@@U__crt_internal_free_policy@@@@QEAA@XZ 00000001400552d4 f i libucrt:stream.obj
 0001:000542f0       ?__acrt_stdio_allocate_stream@@YA?AV__crt_stdio_stream@@XZ 00000001400552f0 f   libucrt:stream.obj
 0001:00054348       ?__acrt_stdio_free_stream@@YAXV__crt_stdio_stream@@@Z 0000000140055348 f   libucrt:stream.obj
 0001:00054364       ?deallocate@__crt_stdio_stream@@QEAAXXZ 0000000140055364 f i libucrt:stream.obj
 0001:00054370       ?detach@?$__crt_unique_heap_ptr@U__crt_stdio_stream_data@@U__crt_internal_free_policy@@@@QEAAPEAU__crt_stdio_stream_data@@XZ 0000000140055370 f i libucrt:stream.obj
 0001:00054464       ?lock@__crt_stdio_stream@@QEBAXXZ 0000000140055464 f i libucrt:stream.obj
 0001:0005446c       ?release@?$__crt_unique_heap_ptr@U__crt_stdio_stream_data@@U__crt_internal_free_policy@@@@QEAAXXZ 000000014005546c f i libucrt:stream.obj
 0001:00054488       ?try_allocate@__crt_stdio_stream@@QEAA_NXZ 0000000140055488 f i libucrt:stream.obj
 0001:000544a8       ?unlock@__crt_stdio_stream@@QEBAXXZ 00000001400554a8 f i libucrt:stream.obj
 0001:00054980       _lseek                     0000000140055980 f   libucrt:lseek.obj
 0001:00054a18       _lseek_internal            0000000140055a18 f   libucrt:lseek.obj
 0001:00054a20       _lseek_nolock              0000000140055a20 f   libucrt:lseek.obj
 0001:00054ab8       _lseek_nolock_internal     0000000140055ab8 f   libucrt:lseek.obj
 0001:00054ac0       _lseeki64                  0000000140055ac0 f   libucrt:lseek.obj
 0001:00054b5c       _lseeki64_internal         0000000140055b5c f   libucrt:lseek.obj
 0001:00054b64       _lseeki64_nolock           0000000140055b64 f   libucrt:lseek.obj
 0001:00054c00       _lseeki64_nolock_internal  0000000140055c00 f   libucrt:lseek.obj
 0001:00054ca4       _putwch                    0000000140055ca4 f   libucrt:putwch.obj
 0001:00054ce0       _putwch_nolock             0000000140055ce0 f   libucrt:putwch.obj
 0001:00054d1c       _putwch_nolock_internal    0000000140055d1c f   libucrt:putwch.obj
 0001:0005542c       _read                      000000014005642c f   libucrt:read.obj
 0001:0005554c       _read_nolock               000000014005654c f   libucrt:read.obj
 0001:0005599c       _controlfp_s               000000014005699c f   libucrt:contrlfp.obj
 0001:00055a00       fegetenv                   0000000140056a00 f   libucrt:fegetenv.obj
 0001:00055a20       fesetenv                   0000000140056a20 f   libucrt:fesetenv.obj
 0001:00055a78       feholdexcept               0000000140056a78 f   libucrt:feholdexcept.obj
 0001:00055ac8       ceil                       0000000140056ac8 f   libucrt:ceil.obj
 0001:00055b90       log10                      0000000140056b90 f   libucrt:log10.obj
 0001:0005613c       ??$__acrt_fenv_shift_bits@W4__acrt_fenv_abstract_control@@@@YA?AW4__acrt_fenv_abstract_control@@W40@0I@Z 000000014005713c f i libucrt:_fenvutils.obj
 0001:00056148       ??$__acrt_fenv_shift_bits@W4__acrt_fenv_abstract_status@@@@YA?AW4__acrt_fenv_abstract_status@@W40@0I@Z 0000000140057148 f i libucrt:_fenvutils.obj
 0001:00056154       ??$__acrt_fenv_translate_bit@W4__acrt_fenv_abstract_control@@W4__acrt_fenv_machine_sse_control@@@@YA?AW4__acrt_fenv_abstract_control@@W4__acrt_fenv_machine_sse_control@@0W40@1@Z 0000000140057154 f i libucrt:_fenvutils.obj
 0001:00056160       ??$__acrt_fenv_translate_bit@W4__acrt_fenv_abstract_status@@W4__acrt_fenv_machine_sse_status@@@@YA?AW4__acrt_fenv_abstract_status@@W4__acrt_fenv_machine_sse_status@@0W40@1@Z 0000000140057160 f i libucrt:_fenvutils.obj
 0001:0005616c       ??$__acrt_fenv_translate_bit@W4__acrt_fenv_machine_sse_control@@W4__acrt_fenv_abstract_control@@@@YA?AW4__acrt_fenv_machine_sse_control@@W4__acrt_fenv_abstract_control@@0W40@1@Z 000000014005716c f i libucrt:_fenvutils.obj
 0001:00056178       ??$__acrt_fenv_translate_bit@W4__acrt_fenv_machine_sse_status@@W4__acrt_fenv_abstract_status@@@@YA?AW4__acrt_fenv_machine_sse_status@@W4__acrt_fenv_abstract_status@@0W40@1@Z 0000000140057178 f i libucrt:_fenvutils.obj
 0001:00056184       ??$__acrt_fenv_unshift_bits@W4__acrt_fenv_abstract_control@@@@YA?AW4__acrt_fenv_abstract_control@@W40@0I@Z 0000000140057184 f i libucrt:_fenvutils.obj
 0001:00056190       ??$__acrt_fenv_unshift_bits@W4__acrt_fenv_abstract_status@@@@YA?AW4__acrt_fenv_abstract_status@@W40@0I@Z 0000000140057190 f i libucrt:_fenvutils.obj
 0001:00056354       ??I@YA?AW4__acrt_fenv_abstract_control@@W40@0@Z 0000000140057354 f i libucrt:_fenvutils.obj
 0001:0005635c       ??I@YA?AW4__acrt_fenv_abstract_status@@W40@0@Z 000000014005735c f i libucrt:_fenvutils.obj
 0001:00056364       ??I@YA?AW4__acrt_fenv_machine_sse_control@@W40@0@Z 0000000140057364 f i libucrt:_fenvutils.obj
 0001:0005636c       ??I@YA?AW4__acrt_fenv_machine_sse_status@@W40@0@Z 000000014005736c f i libucrt:_fenvutils.obj
 0001:00056374       ??U@YA?AW4__acrt_fenv_abstract_control@@W40@0@Z 0000000140057374 f i libucrt:_fenvutils.obj
 0001:0005637c       ??U@YA?AW4__acrt_fenv_abstract_status@@W40@0@Z 000000014005737c f i libucrt:_fenvutils.obj
 0001:00056384       ??U@YA?AW4__acrt_fenv_machine_sse_control@@W40@0@Z 0000000140057384 f i libucrt:_fenvutils.obj
 0001:0005638c       ??_5@YAAEAW4__acrt_fenv_abstract_control@@AEAW40@W40@@Z 000000014005738c f i libucrt:_fenvutils.obj
 0001:00056394       ??_5@YAAEAW4__acrt_fenv_abstract_status@@AEAW40@W40@@Z 0000000140057394 f i libucrt:_fenvutils.obj
 0001:0005639c       ??_5@YAAEAW4__acrt_fenv_machine_sse_control@@AEAW40@W40@@Z 000000014005739c f i libucrt:_fenvutils.obj
 0001:000563a4       ??_5@YAAEAW4__acrt_fenv_machine_sse_status@@AEAW40@W40@@Z 00000001400573a4 f i libucrt:_fenvutils.obj
 0001:000563ac       ?__acrt_fenv_shift_abstract_sse_control@@YA?AW4__acrt_fenv_abstract_control@@W41@@Z 00000001400573ac f i libucrt:_fenvutils.obj
 0001:000563c0       ?__acrt_fenv_shift_abstract_sse_status@@YA?AW4__acrt_fenv_abstract_status@@W41@@Z 00000001400573c0 f i libucrt:_fenvutils.obj
 0001:000563cc       ?__acrt_fenv_unshift_abstract_sse_control@@YA?AW4__acrt_fenv_abstract_control@@W41@@Z 00000001400573cc f i libucrt:_fenvutils.obj
 0001:000563e4       ?__acrt_fenv_unshift_abstract_sse_status@@YA?AW4__acrt_fenv_abstract_status@@W41@@Z 00000001400573e4 f i libucrt:_fenvutils.obj
 0001:000566a4       __acrt_fenv_expand_round_control 00000001400576a4 f   libucrt:_fenvutils.obj
 0001:000566bc       __acrt_fenv_get_common_round_control 00000001400576bc f   libucrt:_fenvutils.obj
 0001:000566c8       __acrt_fenv_get_control    00000001400576c8 f   libucrt:_fenvutils.obj
 0001:000567ac       __acrt_fenv_get_fp_status_word_from_exception_mask 00000001400577ac f   libucrt:_fenvutils.obj
 0001:000567b8       __acrt_fenv_get_status     00000001400577b8 f   libucrt:_fenvutils.obj
 0001:00056810       __acrt_fenv_set_control    0000000140057810 f   libucrt:_fenvutils.obj
 0001:00056948       __acrt_fenv_set_status     0000000140057948 f   libucrt:_fenvutils.obj
 0001:000569bc       ?reset_and_return@__crt_mbstring@@YA_K_KPEAU_Mbstatet@@@Z 00000001400579bc f   libucrt:common_utf8.obj
 0001:000569c4       ?return_illegal_sequence@__crt_mbstring@@YA_KPEAU_Mbstatet@@AEAV__crt_cached_ptd_host@@@Z 00000001400579c4 f   libucrt:common_utf8.obj
 0001:000569d8       ?__mbrtoc32_utf8@__crt_mbstring@@YA_KPEA_UPEBD_KPEAU_Mbstatet@@AEAV__crt_cached_ptd_host@@@Z 00000001400579d8 f   libucrt:mbrtoc32.obj
 0001:00056bb4       mbrtoc32                   0000000140057bb4 f   libucrt:mbrtoc32.obj
 0001:00056c58       __acrt_stdio_allocate_buffer_nolock 0000000140057c58 f   libucrt:_getbuf.obj
 0001:00056fe0       _mbstowcs_l                0000000140057fe0 f   libucrt:mbstowcs.obj
 0001:00057088       _mbstowcs_s_l              0000000140058088 f   libucrt:mbstowcs.obj
 0001:00057140       mbstowcs                   0000000140058140 f   libucrt:mbstowcs.obj
 0001:000571dc       mbstowcs_s                 00000001400581dc f   libucrt:mbstowcs.obj
 0001:00057284       __strncnt                  0000000140058284 f   libucrt:strncnt.obj
 0001:0005729c       __acrt_CompareStringW      000000014005829c f   libucrt:comparestringw.obj
 0001:0005735c       __ascii_strnicmp           000000014005835c f   libucrt:strnicmp.obj
 0001:000573a8       _strnicmp                  00000001400583a8 f   libucrt:strnicmp.obj
 0001:000573f8       _strnicmp_l                00000001400583f8 f   libucrt:strnicmp.obj
 0001:0005782c       __acrt_CompareStringA      000000014005882c f   libucrt:comparestringa.obj
 0001:000578b8       _towlower_l                00000001400588b8 f   libucrt:towlower.obj
 0001:000579ac       towlower                   00000001400589ac f   libucrt:towlower.obj
 0001:00057adc       __dcrt_lowio_ensure_console_output_initialized 0000000140058adc f   libucrt:initcon.obj
 0001:00057b30       __dcrt_terminate_console_output 0000000140058b30 f   libucrt:initcon.obj
 0001:00057b4c       __dcrt_write_console       0000000140058b4c f   libucrt:initcon.obj
 0001:00057d20       _clearfp                   0000000140058d20 f   libucrt:ieee.obj
 0001:00057d8c       _control87                 0000000140058d8c f   libucrt:ieee.obj
 0001:00057d94       _controlfp                 0000000140058d94 f   libucrt:ieee.obj
 0001:00057da0       _fpreset                   0000000140058da0 f   libucrt:ieee.obj
 0001:00057e68       _set_controlfp             0000000140058e68 f   libucrt:ieee.obj
 0001:00057e9c       _statusfp                  0000000140058e9c f   libucrt:ieee.obj
 0001:000582bc       _handle_error              00000001400592bc f   libucrt:libm_error.obj
 0001:000583e4       _handle_errorf             00000001400593e4 f   libucrt:libm_error.obj
 0001:00058518       _handle_nan                0000000140059518 f   libucrt:libm_error.obj
 0001:00058534       _handle_nanf               0000000140059534 f   libucrt:libm_error.obj
 0001:00058550       __acrt_initialize_fma3     0000000140059550 f   libucrt:fma3_available.obj
 0001:000585c0       _get_FMA3_enable           00000001400595c0 f   libucrt:fma3_available.obj
 0001:000585c8       _set_FMA3_enable           00000001400595c8 f   libucrt:fma3_available.obj
 0001:000585e0       _log10_special             00000001400595e0 f   libucrt:log_special.obj
 0001:00058600       _log10f_special            0000000140059600 f   libucrt:log_special.obj
 0001:00058620       _log_special               0000000140059620 f   libucrt:log_special.obj
 0001:000586d8       _logf_special              00000001400596d8 f   libucrt:log_special.obj
 0001:00058794       __acrt_LCMapStringW        0000000140059794 f   libucrt:lcmapstringw.obj
 0001:00058830       _get_fpsr                  0000000140059830 f   libucrt:fpsr.obj
 0001:00058840       _set_fpsr                  0000000140059840 f   libucrt:fpsr.obj
 0001:0005884a       _fclrf                     000000014005984a f   libucrt:fpsr.obj
 0001:0005885e       _frnd                      000000014005985e f   libucrt:fpsr.obj
 0001:00058880       ?should_round_up@__crt_strtox@@YA_N_N000@Z 0000000140059880 f i libucrt:fpexcept.obj
 0001:00058908       _errcode                   0000000140059908 f   libucrt:fpexcept.obj
 0001:0005894c       _except1                   000000014005994c f   libucrt:fpexcept.obj
 0001:00058a40       _except2                   0000000140059a40 f   libucrt:fpexcept.obj
 0001:00058b7c       _handle_exc                0000000140059b7c f   libucrt:fpexcept.obj
 0001:00058e70       _handle_qnan2              0000000140059e70 f   libucrt:fpexcept.obj
 0001:00058e78       _raise_exc                 0000000140059e78 f   libucrt:fpexcept.obj
 0001:00058ea0       _raise_exc_ex              0000000140059ea0 f   libucrt:fpexcept.obj
 0001:000591a8       _raise_excf                000000014005a1a8 f   libucrt:fpexcept.obj
 0001:000591d4       _set_errno_from_matherr    000000014005a1d4 f   libucrt:fpexcept.obj
 0001:00059204       _umatherr                  000000014005a204 f   libucrt:fpexcept.obj
 0001:000592d4       _clrfp                     000000014005a2d4 f   libucrt:fpctrl.obj
 0001:000592f4       _ctrlfp                    000000014005a2f4 f   libucrt:fpctrl.obj
 0001:00059370       _set_statfp                000000014005a370 f   libucrt:fpctrl.obj
 0001:00059390       _statfp                    000000014005a390 f   libucrt:fpctrl.obj
 0001:000593a4       _add_exp                   000000014005a3a4 f   libucrt:util.obj
 0001:000593f4       _decomp                    000000014005a3f4 f   libucrt:util.obj
 0001:00059524       _get_exp                   000000014005a524 f   libucrt:util.obj
 0001:00059544       _set_bexp                  000000014005a544 f   libucrt:util.obj
 0001:00059574       _set_exp                   000000014005a574 f   libucrt:util.obj
 0001:000595ac       _sptype                    000000014005a5ac f   libucrt:util.obj
 0001:00059624       QueryPerformanceCounter    000000014005a624 f   kernel32:KERNEL32.dll
 0001:0005962a       GetCurrentProcessId        000000014005a62a f   kernel32:KERNEL32.dll
 0001:00059630       GetCurrentThreadId         000000014005a630 f   kernel32:KERNEL32.dll
 0001:00059636       GetSystemTimeAsFileTime    000000014005a636 f   kernel32:KERNEL32.dll
 0001:0005963c       InitializeSListHead        000000014005a63c f   kernel32:KERNEL32.dll
 0001:00059642       RtlCaptureContext          000000014005a642 f   kernel32:KERNEL32.dll
 0001:00059648       RtlLookupFunctionEntry     000000014005a648 f   kernel32:KERNEL32.dll
 0001:0005964e       RtlVirtualUnwind           000000014005a64e f   kernel32:KERNEL32.dll
 0001:00059654       IsDebuggerPresent          000000014005a654 f   kernel32:KERNEL32.dll
 0001:0005965a       UnhandledExceptionFilter   000000014005a65a f   kernel32:KERNEL32.dll
 0001:00059660       SetUnhandledExceptionFilter 000000014005a660 f   kernel32:KERNEL32.dll
 0001:00059666       GetStartupInfoW            000000014005a666 f   kernel32:KERNEL32.dll
 0001:0005966c       IsProcessorFeaturePresent  000000014005a66c f   kernel32:KERNEL32.dll
 0001:00059672       GetModuleHandleW           000000014005a672 f   kernel32:KERNEL32.dll
 0001:00059678       RtlPcToFileHeader          000000014005a678 f   kernel32:KERNEL32.dll
 0001:0005967e       RaiseException             000000014005a67e f   kernel32:KERNEL32.dll
 0001:00059684       RtlUnwindEx                000000014005a684 f   kernel32:KERNEL32.dll
 0001:0005968a       InterlockedPushEntrySList  000000014005a68a f   kernel32:KERNEL32.dll
 0001:00059690       InterlockedFlushSList      000000014005a690 f   kernel32:KERNEL32.dll
 0001:00059696       GetLastError               000000014005a696 f   kernel32:KERNEL32.dll
 0001:0005969c       SetLastError               000000014005a69c f   kernel32:KERNEL32.dll
 0001:000596a2       EncodePointer              000000014005a6a2 f   kernel32:KERNEL32.dll
 0001:000596a8       EnterCriticalSection       000000014005a6a8 f   kernel32:KERNEL32.dll
 0001:000596ae       LeaveCriticalSection       000000014005a6ae f   kernel32:KERNEL32.dll
 0001:000596b4       DeleteCriticalSection      000000014005a6b4 f   kernel32:KERNEL32.dll
 0001:000596ba       InitializeCriticalSectionAndSpinCount 000000014005a6ba f   kernel32:KERNEL32.dll
 0001:000596c0       TlsAlloc                   000000014005a6c0 f   kernel32:KERNEL32.dll
 0001:000596c6       TlsGetValue                000000014005a6c6 f   kernel32:KERNEL32.dll
 0001:000596cc       TlsSetValue                000000014005a6cc f   kernel32:KERNEL32.dll
 0001:000596d2       TlsFree                    000000014005a6d2 f   kernel32:KERNEL32.dll
 0001:000596d8       FreeLibrary                000000014005a6d8 f   kernel32:KERNEL32.dll
 0001:000596de       GetProcAddress             000000014005a6de f   kernel32:KERNEL32.dll
 0001:000596e4       LoadLibraryExW             000000014005a6e4 f   kernel32:KERNEL32.dll
 0001:000596ea       RtlUnwind                  000000014005a6ea f   kernel32:KERNEL32.dll
 0001:000596f0       GetStdHandle               000000014005a6f0 f   kernel32:KERNEL32.dll
 0001:000596f6       WriteFile                  000000014005a6f6 f   kernel32:KERNEL32.dll
 0001:000596fc       GetModuleFileNameW         000000014005a6fc f   kernel32:KERNEL32.dll
 0001:00059702       GetCurrentProcess          000000014005a702 f   kernel32:KERNEL32.dll
 0001:00059708       ExitProcess                000000014005a708 f   kernel32:KERNEL32.dll
 0001:0005970e       TerminateProcess           000000014005a70e f   kernel32:KERNEL32.dll
 0001:00059714       GetModuleHandleExW         000000014005a714 f   kernel32:KERNEL32.dll
 0001:0005971a       GetCommandLineA            000000014005a71a f   kernel32:KERNEL32.dll
 0001:00059720       GetCommandLineW            000000014005a720 f   kernel32:KERNEL32.dll
 0001:00059726       HeapAlloc                  000000014005a726 f   kernel32:KERNEL32.dll
 0001:0005972c       HeapFree                   000000014005a72c f   kernel32:KERNEL32.dll
 0001:00059732       GetTempPathW               000000014005a732 f   kernel32:KERNEL32.dll
 0001:00059738       FlsAlloc                   000000014005a738 f   kernel32:KERNEL32.dll
 0001:0005973e       FlsGetValue                000000014005a73e f   kernel32:KERNEL32.dll
 0001:00059744       FlsSetValue                000000014005a744 f   kernel32:KERNEL32.dll
 0001:0005974a       FlsFree                    000000014005a74a f   kernel32:KERNEL32.dll
 0001:00059750       GetDateFormatW             000000014005a750 f   kernel32:KERNEL32.dll
 0001:00059756       GetTimeFormatW             000000014005a756 f   kernel32:KERNEL32.dll
 0001:0005975c       CompareStringW             000000014005a75c f   kernel32:KERNEL32.dll
 0001:00059762       LCMapStringW               000000014005a762 f   kernel32:KERNEL32.dll
 0001:00059768       GetLocaleInfoW             000000014005a768 f   kernel32:KERNEL32.dll
 0001:0005976e       IsValidLocale              000000014005a76e f   kernel32:KERNEL32.dll
 0001:00059774       GetUserDefaultLCID         000000014005a774 f   kernel32:KERNEL32.dll
 0001:0005977a       EnumSystemLocalesW         000000014005a77a f   kernel32:KERNEL32.dll
 0001:00059780       GetFileType                000000014005a780 f   kernel32:KERNEL32.dll
 0001:00059786       GetCurrentThread           000000014005a786 f   kernel32:KERNEL32.dll
 0001:0005978c       OutputDebugStringW         000000014005a78c f   kernel32:KERNEL32.dll
 0001:00059792       FindClose                  000000014005a792 f   kernel32:KERNEL32.dll
 0001:00059798       FindFirstFileExW           000000014005a798 f   kernel32:KERNEL32.dll
 0001:0005979e       FindNextFileW              000000014005a79e f   kernel32:KERNEL32.dll
 0001:000597a4       IsValidCodePage            000000014005a7a4 f   kernel32:KERNEL32.dll
 0001:000597aa       GetACP                     000000014005a7aa f   kernel32:KERNEL32.dll
 0001:000597b0       GetOEMCP                   000000014005a7b0 f   kernel32:KERNEL32.dll
 0001:000597b6       GetCPInfo                  000000014005a7b6 f   kernel32:KERNEL32.dll
 0001:000597bc       MultiByteToWideChar        000000014005a7bc f   kernel32:KERNEL32.dll
 0001:000597c2       WideCharToMultiByte        000000014005a7c2 f   kernel32:KERNEL32.dll
 0001:000597c8       GetEnvironmentStringsW     000000014005a7c8 f   kernel32:KERNEL32.dll
 0001:000597ce       FreeEnvironmentStringsW    000000014005a7ce f   kernel32:KERNEL32.dll
 0001:000597d4       SetEnvironmentVariableW    000000014005a7d4 f   kernel32:KERNEL32.dll
 0001:000597da       SetStdHandle               000000014005a7da f   kernel32:KERNEL32.dll
 0001:000597e0       GetStringTypeW             000000014005a7e0 f   kernel32:KERNEL32.dll
 0001:000597e6       GetProcessHeap             000000014005a7e6 f   kernel32:KERNEL32.dll
 0001:000597ec       SetConsoleCtrlHandler      000000014005a7ec f   kernel32:KERNEL32.dll
 0001:000597f2       FlushFileBuffers           000000014005a7f2 f   kernel32:KERNEL32.dll
 0001:000597f8       GetConsoleOutputCP         000000014005a7f8 f   kernel32:KERNEL32.dll
 0001:000597fe       GetConsoleMode             000000014005a7fe f   kernel32:KERNEL32.dll
 0001:00059804       GetFileSizeEx              000000014005a804 f   kernel32:KERNEL32.dll
 0001:0005980a       SetFilePointerEx           000000014005a80a f   kernel32:KERNEL32.dll
 0001:00059810       HeapSize                   000000014005a810 f   kernel32:KERNEL32.dll
 0001:00059816       HeapReAlloc                000000014005a816 f   kernel32:KERNEL32.dll
 0001:0005981c       CloseHandle                000000014005a81c f   kernel32:KERNEL32.dll
 0001:00059822       ReadFile                   000000014005a822 f   kernel32:KERNEL32.dll
 0001:00059828       ReadConsoleW               000000014005a828 f   kernel32:KERNEL32.dll
 0001:0005982e       CreateFileW                000000014005a82e f   kernel32:KERNEL32.dll
 0001:00059834       WriteConsoleW              000000014005a834 f   kernel32:KERNEL32.dll
 0001:00059840       _FindPESection             000000014005a840 f   LIBCMT:pesect.obj
 0001:00059890       _IsNonwritableInCurrentImage 000000014005a890 f   LIBCMT:pesect.obj
 0001:000598e0       _ValidateImageBase         000000014005a8e0 f   LIBCMT:pesect.obj
 0001:0005990c       __GSHandlerCheck           000000014005a90c f   LIBCMT:gshandler.obj
 0001:0005992c       __GSHandlerCheckCommon     000000014005a92c f   LIBCMT:gshandler.obj
 0001:000599a0       __security_check_cookie    000000014005a9a0 f   LIBCMT:amdsecgs.obj
 0001:000599c0       __GSHandlerCheck_SEH       000000014005a9c0 f   LIBCMT:gshandlerseh.obj
 0001:00059a48       __raise_securityfailure    000000014005aa48 f   LIBCMT:gs_report.obj
 0001:00059a7c       __report_gsfailure         000000014005aa7c f   LIBCMT:gs_report.obj
 0001:00059b50       __report_rangecheckfailure 000000014005ab50 f   LIBCMT:gs_report.obj
 0001:00059b64       __report_securityfailure   000000014005ab64 f   LIBCMT:gs_report.obj
 0001:00059c00       __report_securityfailureEx 000000014005ac00 f   LIBCMT:gs_report.obj
 0001:00059e10       __chkstk                   000000014005ae10 f   LIBCMT:chkstk.obj
 0001:00059e10       _alloca_probe              000000014005ae10 f   LIBCMT:chkstk.obj
 0001:00059e60       __GSHandlerCheck_EH        000000014005ae60 f   LIBCMT:gshandlereh.obj
 0001:00059ef0       memcmp                     000000014005aef0 f   libvcruntime:memcmp.obj
 0001:00059fb8       __C_specific_handler_noexcept 000000014005afb8 f   libvcruntime:chandler_noexcept.obj
 0001:0005a004       strrchr                    000000014005b004 f   libvcruntime:strrchr.obj
 0001:0005a140       strchr                     000000014005b140 f   libvcruntime:strchr.obj
 0001:0005a1c0       wcschr                     000000014005b1c0 f   libvcruntime:wcschr.obj
 0001:0005a250       _guard_dispatch_icall_nop  000000014005b250 f   LIBCMT:guard_dispatch.obj
 0001:0005a270       _guard_xfg_dispatch_icall_nop 000000014005b270 f   LIBCMT:guard_xfg_dispatch.obj
 0002:00000000       __imp_QueryPerformanceCounter 000000014005c000     kernel32:KERNEL32.dll
 0002:00000008       __imp_GetCurrentProcessId  000000014005c008     kernel32:KERNEL32.dll
 0002:00000010       __imp_GetCurrentThreadId   000000014005c010     kernel32:KERNEL32.dll
 0002:00000018       __imp_GetSystemTimeAsFileTime 000000014005c018     kernel32:KERNEL32.dll
 0002:00000020       __imp_InitializeSListHead  000000014005c020     kernel32:KERNEL32.dll
 0002:00000028       __imp_RtlCaptureContext    000000014005c028     kernel32:KERNEL32.dll
 0002:00000030       __imp_RtlLookupFunctionEntry 000000014005c030     kernel32:KERNEL32.dll
 0002:00000038       __imp_RtlVirtualUnwind     000000014005c038     kernel32:KERNEL32.dll
 0002:00000040       __imp_IsDebuggerPresent    000000014005c040     kernel32:KERNEL32.dll
 0002:00000048       __imp_UnhandledExceptionFilter 000000014005c048     kernel32:KERNEL32.dll
 0002:00000050       __imp_SetUnhandledExceptionFilter 000000014005c050     kernel32:KERNEL32.dll
 0002:00000058       __imp_GetStartupInfoW      000000014005c058     kernel32:KERNEL32.dll
 0002:00000060       __imp_IsProcessorFeaturePresent 000000014005c060     kernel32:KERNEL32.dll
 0002:00000068       __imp_GetModuleHandleW     000000014005c068     kernel32:KERNEL32.dll
 0002:00000070       __imp_RtlPcToFileHeader    000000014005c070     kernel32:KERNEL32.dll
 0002:00000078       __imp_RaiseException       000000014005c078     kernel32:KERNEL32.dll
 0002:00000080       __imp_RtlUnwindEx          000000014005c080     kernel32:KERNEL32.dll
 0002:00000088       __imp_InterlockedPushEntrySList 000000014005c088     kernel32:KERNEL32.dll
 0002:00000090       __imp_InterlockedFlushSList 000000014005c090     kernel32:KERNEL32.dll
 0002:00000098       __imp_GetLastError         000000014005c098     kernel32:KERNEL32.dll
 0002:000000a0       __imp_SetLastError         000000014005c0a0     kernel32:KERNEL32.dll
 0002:000000a8       __imp_EncodePointer        000000014005c0a8     kernel32:KERNEL32.dll
 0002:000000b0       __imp_EnterCriticalSection 000000014005c0b0     kernel32:KERNEL32.dll
 0002:000000b8       __imp_LeaveCriticalSection 000000014005c0b8     kernel32:KERNEL32.dll
 0002:000000c0       __imp_DeleteCriticalSection 000000014005c0c0     kernel32:KERNEL32.dll
 0002:000000c8       __imp_InitializeCriticalSectionAndSpinCount 000000014005c0c8     kernel32:KERNEL32.dll
 0002:000000d0       __imp_TlsAlloc             000000014005c0d0     kernel32:KERNEL32.dll
 0002:000000d8       __imp_TlsGetValue          000000014005c0d8     kernel32:KERNEL32.dll
 0002:000000e0       __imp_TlsSetValue          000000014005c0e0     kernel32:KERNEL32.dll
 0002:000000e8       __imp_TlsFree              000000014005c0e8     kernel32:KERNEL32.dll
 0002:000000f0       __imp_FreeLibrary          000000014005c0f0     kernel32:KERNEL32.dll
 0002:000000f8       __imp_GetProcAddress       000000014005c0f8     kernel32:KERNEL32.dll
 0002:00000100       __imp_LoadLibraryExW       000000014005c100     kernel32:KERNEL32.dll
 0002:00000108       __imp_RtlUnwind            000000014005c108     kernel32:KERNEL32.dll
 0002:00000110       __imp_GetStdHandle         000000014005c110     kernel32:KERNEL32.dll
 0002:00000118       __imp_WriteFile            000000014005c118     kernel32:KERNEL32.dll
 0002:00000120       __imp_GetModuleFileNameW   000000014005c120     kernel32:KERNEL32.dll
 0002:00000128       __imp_GetCurrentProcess    000000014005c128     kernel32:KERNEL32.dll
 0002:00000130       __imp_ExitProcess          000000014005c130     kernel32:KERNEL32.dll
 0002:00000138       __imp_TerminateProcess     000000014005c138     kernel32:KERNEL32.dll
 0002:00000140       __imp_GetModuleHandleExW   000000014005c140     kernel32:KERNEL32.dll
 0002:00000148       __imp_GetCommandLineA      000000014005c148     kernel32:KERNEL32.dll
 0002:00000150       __imp_GetCommandLineW      000000014005c150     kernel32:KERNEL32.dll
 0002:00000158       __imp_HeapAlloc            000000014005c158     kernel32:KERNEL32.dll
 0002:00000160       __imp_HeapFree             000000014005c160     kernel32:KERNEL32.dll
 0002:00000168       __imp_GetTempPathW         000000014005c168     kernel32:KERNEL32.dll
 0002:00000170       __imp_FlsAlloc             000000014005c170     kernel32:KERNEL32.dll
 0002:00000178       __imp_FlsGetValue          000000014005c178     kernel32:KERNEL32.dll
 0002:00000180       __imp_FlsSetValue          000000014005c180     kernel32:KERNEL32.dll
 0002:00000188       __imp_FlsFree              000000014005c188     kernel32:KERNEL32.dll
 0002:00000190       __imp_GetDateFormatW       000000014005c190     kernel32:KERNEL32.dll
 0002:00000198       __imp_GetTimeFormatW       000000014005c198     kernel32:KERNEL32.dll
 0002:000001a0       __imp_CompareStringW       000000014005c1a0     kernel32:KERNEL32.dll
 0002:000001a8       __imp_LCMapStringW         000000014005c1a8     kernel32:KERNEL32.dll
 0002:000001b0       __imp_GetLocaleInfoW       000000014005c1b0     kernel32:KERNEL32.dll
 0002:000001b8       __imp_IsValidLocale        000000014005c1b8     kernel32:KERNEL32.dll
 0002:000001c0       __imp_GetUserDefaultLCID   000000014005c1c0     kernel32:KERNEL32.dll
 0002:000001c8       __imp_EnumSystemLocalesW   000000014005c1c8     kernel32:KERNEL32.dll
 0002:000001d0       __imp_GetFileType          000000014005c1d0     kernel32:KERNEL32.dll
 0002:000001d8       __imp_GetCurrentThread     000000014005c1d8     kernel32:KERNEL32.dll
 0002:000001e0       __imp_OutputDebugStringW   000000014005c1e0     kernel32:KERNEL32.dll
 0002:000001e8       __imp_FindClose            000000014005c1e8     kernel32:KERNEL32.dll
 0002:000001f0       __imp_FindFirstFileExW     000000014005c1f0     kernel32:KERNEL32.dll
 0002:000001f8       __imp_FindNextFileW        000000014005c1f8     kernel32:KERNEL32.dll
 0002:00000200       __imp_IsValidCodePage      000000014005c200     kernel32:KERNEL32.dll
 0002:00000208       __imp_GetACP               000000014005c208     kernel32:KERNEL32.dll
 0002:00000210       __imp_GetOEMCP             000000014005c210     kernel32:KERNEL32.dll
 0002:00000218       __imp_GetCPInfo            000000014005c218     kernel32:KERNEL32.dll
 0002:00000220       __imp_MultiByteToWideChar  000000014005c220     kernel32:KERNEL32.dll
 0002:00000228       __imp_WideCharToMultiByte  000000014005c228     kernel32:KERNEL32.dll
 0002:00000230       __imp_GetEnvironmentStringsW 000000014005c230     kernel32:KERNEL32.dll
 0002:00000238       __imp_FreeEnvironmentStringsW 000000014005c238     kernel32:KERNEL32.dll
 0002:00000240       __imp_SetEnvironmentVariableW 000000014005c240     kernel32:KERNEL32.dll
 0002:00000248       __imp_SetStdHandle         000000014005c248     kernel32:KERNEL32.dll
 0002:00000250       __imp_GetStringTypeW       000000014005c250     kernel32:KERNEL32.dll
 0002:00000258       __imp_GetProcessHeap       000000014005c258     kernel32:KERNEL32.dll
 0002:00000260       __imp_SetConsoleCtrlHandler 000000014005c260     kernel32:KERNEL32.dll
 0002:00000268       __imp_FlushFileBuffers     000000014005c268     kernel32:KERNEL32.dll
 0002:00000270       __imp_GetConsoleOutputCP   000000014005c270     kernel32:KERNEL32.dll
 0002:00000278       __imp_GetConsoleMode       000000014005c278     kernel32:KERNEL32.dll
 0002:00000280       __imp_GetFileSizeEx        000000014005c280     kernel32:KERNEL32.dll
 0002:00000288       __imp_SetFilePointerEx     000000014005c288     kernel32:KERNEL32.dll
 0002:00000290       __imp_HeapSize             000000014005c290     kernel32:KERNEL32.dll
 0002:00000298       __imp_HeapReAlloc          000000014005c298     kernel32:KERNEL32.dll
 0002:000002a0       __imp_CloseHandle          000000014005c2a0     kernel32:KERNEL32.dll
 0002:000002a8       __imp_ReadFile             000000014005c2a8     kernel32:KERNEL32.dll
 0002:000002b0       __imp_ReadConsoleW         000000014005c2b0     kernel32:KERNEL32.dll
 0002:000002b8       __imp_CreateFileW          000000014005c2b8     kernel32:KERNEL32.dll
 0002:000002c0       __imp_WriteConsoleW        000000014005c2c0     kernel32:KERNEL32.dll
 0002:000002c8       \177KERNEL32_NULL_THUNK_DATA 000000014005c2c8     kernel32:KERNEL32.dll
 0002:000002d0       __guard_check_icall_fptr   000000014005c2d0     LIBCMT:guard_support.obj
 0002:000002d8       __guard_xfg_check_icall_fptr 000000014005c2d8     LIBCMT:guard_support.obj
 0002:000002e0       __guard_dispatch_icall_fptr 000000014005c2e0     LIBCMT:guard_support.obj
 0002:000002e8       __guard_xfg_dispatch_icall_fptr 000000014005c2e8     LIBCMT:guard_support.obj
 0002:000002f0       __guard_xfg_table_dispatch_icall_fptr 000000014005c2f0     LIBCMT:guard_support.obj
 0002:000002f8       __castguard_check_failure_os_handled_fptr 000000014005c2f8     LIBCMT:guard_support.obj
 0002:00000300       __guard_memcpy_fptr        000000014005c300     libvcruntime:softmemtag.obj
 0002:00000308       __xc_a                     000000014005c308     LIBCMT:initializers.obj
 0002:00000318       __xc_z                     000000014005c318     LIBCMT:initializers.obj
 0002:00000320       __xi_a                     000000014005c320     LIBCMT:initializers.obj
 0002:00000338       __acrt_stdio_initializer   000000014005c338     libucrt:stdio_initializer.obj
 0002:00000340       __acrt_multibyte_initializer 000000014005c340     libucrt:multibyte_initializer.obj
 0002:00000348       __acrt_fmode_initializer   000000014005c348     libucrt:fmode_initializer.obj
 0002:00000350       __acrt_tran_fma3_initializer 000000014005c350     libucrt:fma3_initializer.obj
 0002:00000358       __xi_z                     000000014005c358     LIBCMT:initializers.obj
 0002:00000360       __xp_a                     000000014005c360     LIBCMT:initializers.obj
 0002:00000368       __acrt_locale_terminator   000000014005c368     libucrt:locale_initializer.obj
 0002:00000370       __dcrt_console_output_terminator 000000014005c370     libucrt:console_output_initializer.obj
 0002:00000378       __acrt_stdio_terminator    000000014005c378     libucrt:stdio_initializer.obj
 0002:00000380       __xp_z                     000000014005c380     LIBCMT:initializers.obj
 0002:00000388       __xt_a                     000000014005c388     LIBCMT:initializers.obj
 0002:00000390       __xt_z                     000000014005c390     LIBCMT:initializers.obj
 0002:000003a8       ??_C@_0BC@HMCDPOFE@msvc_SEH_1?5begin?6@ 000000014005c3a8     example1.obj
 0002:000003c0       ??_C@_0BN@OODDBEIH@msvc_SEH_1?3goto__except?5?$CI1?$CJ?6@ 000000014005c3c0     example1.obj
 0002:000003e0       ??_C@_0BA@JNDECPKA@msvc_SEH_1?5end?6@ 000000014005c3e0     example1.obj
 0002:000003f0       ??_C@_0BC@PEGFHAFH@msvc_CXX_1?5begin?6@ 000000014005c3f0     example1.obj
 0002:00000408       ??_C@_0BG@BJCCIMP@msvc_CXX_1?3goto?5try?5?6@ 000000014005c408     example1.obj
 0002:00000420       ??_C@_0BK@BOKJHFBK@msvc_CXX_1?3goto?5catch?3?$CFd?6@ 000000014005c420     example1.obj
 0002:00000440       ??_C@_0BA@ENFCKDEC@msvc_CXX_1?5end?6@ 000000014005c440     example1.obj
 0002:00000458       ??_7type_info@@6B@         000000014005c458     LIBCMT:std_type_info_static.obj
 0002:00000460       __xmm@ffffffffffffffffffffffffffffffff 000000014005c460     LIBCMT:utility.obj
 0002:00000470       ?s_negLengthTab@FH4@@3QBCB 000000014005c470     libvcruntime:risctrnsctrl.obj
 0002:00000480       ?s_shiftTab@FH4@@3QBEB     000000014005c480     libvcruntime:risctrnsctrl.obj
 0002:000005c8       _pDestructExceptionObject  000000014005c5c8     libvcruntime:ehhelpers.obj
 0002:000005d8       ??_7exception@std@@6B@     000000014005c5d8     libvcruntime:frame.obj
 0002:000005e8       ??_C@_0BC@EOODALEL@Unknown?5exception@ 000000014005c5e8     libvcruntime:frame.obj
 0002:00000608       ??_7bad_exception@std@@6B@ 000000014005c608     libvcruntime:frame.obj
 0002:00000618       ??_C@_0O@DPKOEFFH@bad?5exception@ 000000014005c618     libvcruntime:frame.obj
 0002:00000d40       ??_C@_08EHJDFFNH@__based?$CI@ 000000014005cd40     libvcruntime:undname.obj
 0002:00000d50       ??_C@_07KOLFKCDI@__cdecl@  000000014005cd50     libvcruntime:undname.obj
 0002:00000d58       ??_C@_08GHMPAG@__pascal@   000000014005cd58     libvcruntime:undname.obj
 0002:00000d68       ??_C@_09IFJBGAPI@__stdcall@ 000000014005cd68     libvcruntime:undname.obj
 0002:00000d78       ??_C@_0L@NPHFGOKO@__thiscall@ 000000014005cd78     libvcruntime:undname.obj
 0002:00000d88       ??_C@_0L@JMKHOMEK@__fastcall@ 000000014005cd88     libvcruntime:undname.obj
 0002:00000d98       ??_C@_0N@BCKKPABJ@__vectorcall@ 000000014005cd98     libvcruntime:undname.obj
 0002:00000da8       ??_C@_09HIJEGCPM@__clrcall@ 000000014005cda8     libvcruntime:undname.obj
 0002:00000db4       ??_C@_06GHPCKEAG@__eabi@   000000014005cdb4     libvcruntime:undname.obj
 0002:00000dc0       ??_C@_09IOPIDJLG@__swift_1@ 000000014005cdc0     libvcruntime:undname.obj
 0002:00000dd0       ??_C@_09KFNFGKHF@__swift_2@ 000000014005cdd0     libvcruntime:undname.obj
 0002:00000de0       ??_C@_09LMMOFLDE@__swift_3@ 000000014005cde0     libvcruntime:undname.obj
 0002:00000df0       ??_C@_07JOMMBBKO@__ptr64@  000000014005cdf0     libvcruntime:undname.obj
 0002:00000df8       ??_C@_0L@PILCLIHE@__restrict@ 000000014005cdf8     libvcruntime:undname.obj
 0002:00000e08       ??_C@_0M@GFIIJFMG@__unaligned@ 000000014005ce08     libvcruntime:undname.obj
 0002:00000e18       ??_C@_09DHDLOLLB@restrict?$CI@ 000000014005ce18     libvcruntime:undname.obj
 0002:00000e22       ??_C@_00CNPNBAHC@@         000000014005ce22     libvcruntime:undname.obj
 0002:00000e24       ??_C@_04NIHEBCM@?5new@     000000014005ce24     libvcruntime:undname.obj
 0002:00000e30       ??_C@_07FPCDHGMM@?5delete@ 000000014005ce30     libvcruntime:undname.obj
 0002:00000e38       ??_C@_01NEMOKFLO@?$DN@     000000014005ce38     libvcruntime:undname.obj
 0002:00000e3c       ??_C@_02GPIOPFAK@?$DO?$DO@ 000000014005ce3c     libvcruntime:undname.obj
 0002:00000e40       ??_C@_02FODMEDOG@?$DM?$DM@ 000000014005ce40     libvcruntime:undname.obj
 0002:00000e44       ??_C@_01DCLJPIOD@?$CB@     000000014005ce44     libvcruntime:undname.obj
 0002:00000e48       ??_C@_02EGOFBIJA@?$DN?$DN@ 000000014005ce48     libvcruntime:undname.obj
 0002:00000e4c       ??_C@_02FDNJECIE@?$CB?$DN@ 000000014005ce4c     libvcruntime:undname.obj
 0002:00000e50       ??_C@_02GPECMEKF@?$FL?$FN@ 000000014005ce50     libvcruntime:undname.obj
 0002:00000e58       ??_C@_08LHJFAFGD@operator@ 000000014005ce58     libvcruntime:undname.obj
 0002:00000e64       ??_C@_02HBOOOICD@?9?$DO@   000000014005ce64     libvcruntime:undname.obj
 0002:00000e68       ??_C@_01NBENCBCI@?$CK@     000000014005ce68     libvcruntime:undname.obj
 0002:00000e6c       ??_C@_02ECNGHCIF@?$CL?$CL@ 000000014005ce6c     libvcruntime:undname.obj
 0002:00000e70       ??_C@_02BAABKJLB@?9?9@     000000014005ce70     libvcruntime:undname.obj
 0002:00000e74       ??_C@_01JOAMLHOP@?9@       000000014005ce74     libvcruntime:undname.obj
 0002:00000e78       ??_C@_01MIFGBAGJ@?$CL@     000000014005ce78     libvcruntime:undname.obj
 0002:00000e7c       ??_C@_01HNPIGOCE@?$CG@     000000014005ce7c     libvcruntime:undname.obj
 0002:00000e80       ??_C@_03MNHNFDLC@?9?$DO?$CK@ 000000014005ce80     libvcruntime:undname.obj
 0002:00000e84       ??_C@_01KMDKNFGN@?1@       000000014005ce84     libvcruntime:undname.obj
 0002:00000e88       ??_C@_01FGNFDNOH@?$CF@     000000014005ce88     libvcruntime:undname.obj
 0002:00000e8c       ??_C@_01MNNFJEPP@?$DM@     000000014005ce8c     libvcruntime:undname.obj
 0002:00000e90       ??_C@_02EHCHHCKH@?$DM?$DN@ 000000014005ce90     libvcruntime:undname.obj
 0002:00000e94       ??_C@_01PPODPGHN@?$DO@     000000014005ce94     libvcruntime:undname.obj
 0002:00000e98       ??_C@_02EEKDKGMJ@?$DO?$DN@ 000000014005ce98     libvcruntime:undname.obj
 0002:00000e9c       ??_C@_01IHBHIGKO@?0@       000000014005ce9c     libvcruntime:undname.obj
 0002:00000ea0       ??_C@_02HCKGKOFO@?$CI?$CJ@ 000000014005cea0     libvcruntime:undname.obj
 0002:00000ea4       ??_C@_01PJKLJHI@?$HO@      000000014005cea4     libvcruntime:undname.obj
 0002:00000ea8       ??_C@_01JKBOJNNK@?$FO@     000000014005cea8     libvcruntime:undname.obj
 0002:00000eac       ??_C@_01DNKMNLPK@?$HM@     000000014005ceac     libvcruntime:undname.obj
 0002:00000eb0       ??_C@_02PPKAJPJL@?$CG?$CG@ 000000014005ceb0     libvcruntime:undname.obj
 0002:00000eb4       ??_C@_02NONPIBCD@?$HM?$HM@ 000000014005ceb4     libvcruntime:undname.obj
 0002:00000eb8       ??_C@_02FPIMKNGF@?$CK?$DN@ 000000014005ceb8     libvcruntime:undname.obj
 0002:00000ebc       ??_C@_02FOEOMHFC@?$CL?$DN@ 000000014005cebc     libvcruntime:undname.obj
 0002:00000ec0       ??_C@_02FKMDLLOA@?9?$DN@   000000014005cec0     libvcruntime:undname.obj
 0002:00000ec4       ??_C@_02FJEHGPIO@?1?$DN@   000000014005cec4     libvcruntime:undname.obj
 0002:00000ec8       ??_C@_02FENAOKFI@?$CF?$DN@ 000000014005cec8     libvcruntime:undname.obj
 0002:00000ecc       ??_C@_03IKFCCPFF@?$DO?$DO?$DN@ 000000014005cecc     libvcruntime:undname.obj
 0002:00000ed0       ??_C@_03CDNPDDLA@?$DM?$DM?$DN@ 000000014005ced0     libvcruntime:undname.obj
 0002:00000ed4       ??_C@_02FGJGFEAB@?$CG?$DN@ 000000014005ced4     libvcruntime:undname.obj
 0002:00000ed8       ??_C@_02DHLNPPGH@?$HM?$DN@ 000000014005ced8     libvcruntime:undname.obj
 0002:00000edc       ??_C@_02MHEGNOJ@?$FO?$DN@  000000014005cedc     libvcruntime:undname.obj
 0002:00000ee0       ??_C@_09IFPLHPGF@?$GAvftable?8@ 000000014005cee0     libvcruntime:undname.obj
 0002:00000ef0       ??_C@_09BLBHBJP@?$GAvbtable?8@ 000000014005cef0     libvcruntime:undname.obj
 0002:00000f00       ??_C@_07FEEIOKP@?$GAvcall?8@ 000000014005cf00     libvcruntime:undname.obj
 0002:00000f08       ??_C@_08LLFFHHDJ@?$GAtypeof?8@ 000000014005cf08     libvcruntime:undname.obj
 0002:00000f18       ??_C@_0BF@KDPPACIK@?$GAlocal?5static?5guard?8@ 000000014005cf18     libvcruntime:undname.obj
 0002:00000f30       ??_C@_08OBABFOLI@?$GAstring?8@ 000000014005cf30     libvcruntime:undname.obj
 0002:00000f40       ??_C@_0BD@JDLKDPAB@?$GAvbase?5destructor?8@ 000000014005cf40     libvcruntime:undname.obj
 0002:00000f58       ??_C@_0BN@DEGPLNFK@?$GAvector?5deleting?5destructor?8@ 000000014005cf58     libvcruntime:undname.obj
 0002:00000f78       ??_C@_0BO@OBMKPJIG@?$GAdefault?5constructor?5closure?8@ 000000014005cf78     libvcruntime:undname.obj
 0002:00000f98       ??_C@_0BN@IMDCHIKM@?$GAscalar?5deleting?5destructor?8@ 000000014005cf98     libvcruntime:undname.obj
 0002:00000fb8       ??_C@_0BO@PFGOCPJJ@?$GAvector?5constructor?5iterator?8@ 000000014005cfb8     libvcruntime:undname.obj
 0002:00000fd8       ??_C@_0BN@LFPFMEDL@?$GAvector?5destructor?5iterator?8@ 000000014005cfd8     libvcruntime:undname.obj
 0002:00000ff8       ??_C@_0CE@IKBNEHA@?$GAvector?5vbase?5constructor?5itera@ 000000014005cff8     libvcruntime:undname.obj
 0002:00001020       ??_C@_0BL@NILFHHPC@?$GAvirtual?5displacement?5map?8@ 000000014005d020     libvcruntime:undname.obj
 0002:00001040       ??_C@_0CB@JONCMFFK@?$GAeh?5vector?5constructor?5iterator@ 000000014005d040     libvcruntime:undname.obj
 0002:00001068       ??_C@_0CA@GCEOPDGL@?$GAeh?5vector?5destructor?5iterator?8@ 000000014005d068     libvcruntime:undname.obj
 0002:00001088       ??_C@_0CH@OOJPLCPH@?$GAeh?5vector?5vbase?5constructor?5it@ 000000014005d088     libvcruntime:undname.obj
 0002:000010b0       ??_C@_0BL@LLKPOHJI@?$GAcopy?5constructor?5closure?8@ 000000014005d0b0     libvcruntime:undname.obj
 0002:000010d0       ??_C@_0BA@KBCDOMBN@?$GAudt?5returning?8@ 000000014005d0d0     libvcruntime:undname.obj
 0002:000010e0       ??_C@_03KLGMFNMG@?$GAEH@   000000014005d0e0     libvcruntime:undname.obj
 0002:000010e4       ??_C@_05KHLCHHI@?$GARTTI@  000000014005d0e4     libvcruntime:undname.obj
 0002:000010f0       ??_C@_0BA@KKLDJDLB@?$GAlocal?5vftable?8@ 000000014005d0f0     libvcruntime:undname.obj
 0002:00001100       ??_C@_0CE@IIHCMGGL@?$GAlocal?5vftable?5constructor?5clos@ 000000014005d100     libvcruntime:undname.obj
 0002:00001124       ??_C@_06FHBGPFGH@?5new?$FL?$FN@ 000000014005d124     libvcruntime:undname.obj
 0002:00001130       ??_C@_09LBNFPBCA@?5delete?$FL?$FN@ 000000014005d130     libvcruntime:undname.obj
 0002:00001140       ??_C@_0P@HJKNJFNN@?$GAomni?5callsig?8@ 000000014005d140     libvcruntime:undname.obj
 0002:00001150       ??_C@_0BL@CNOONJFP@?$GAplacement?5delete?5closure?8@ 000000014005d150     libvcruntime:undname.obj
 0002:00001170       ??_C@_0BN@CKNJLHMB@?$GAplacement?5delete?$FL?$FN?5closure?8@ 000000014005d170     libvcruntime:undname.obj
 0002:00001190       ??_C@_0CG@CFDHKGGD@?$GAmanaged?5vector?5constructor?5ite@ 000000014005d190     libvcruntime:undname.obj
 0002:000011b8       ??_C@_0CF@IMGKMJNO@?$GAmanaged?5vector?5destructor?5iter@ 000000014005d1b8     libvcruntime:undname.obj
 0002:000011e0       ??_C@_0CG@HLDDJMAG@?$GAeh?5vector?5copy?5constructor?5ite@ 000000014005d1e0     libvcruntime:undname.obj
 0002:00001208       ??_C@_0CM@FCBBDIGB@?$GAeh?5vector?5vbase?5copy?5construct@ 000000014005d208     libvcruntime:undname.obj
 0002:00001238       ??_C@_0BL@CLIPGLGB@?$GAdynamic?5initializer?5for?5?8@ 000000014005d238     libvcruntime:undname.obj
 0002:00001258       ??_C@_0CB@PDBIFEP@?$GAdynamic?5atexit?5destructor?5for?5@ 000000014005d258     libvcruntime:undname.obj
 0002:00001280       ??_C@_0CD@CGAJBKEJ@?$GAvector?5copy?5constructor?5iterat@ 000000014005d280     libvcruntime:undname.obj
 0002:000012a8       ??_C@_0CJ@GJELGAMM@?$GAvector?5vbase?5copy?5constructor?5@ 000000014005d2a8     libvcruntime:undname.obj
 0002:000012d8       ??_C@_0CL@FGIJHLCE@?$GAmanaged?5vector?5copy?5constructo@ 000000014005d2d8     libvcruntime:undname.obj
 0002:00001308       ??_C@_0BM@PMGGMLDN@?$GAlocal?5static?5thread?5guard?8@ 000000014005d308     libvcruntime:undname.obj
 0002:00001328       ??_C@_0N@BDNMDMOL@operator?5?$CC?$CC?5@ 000000014005d328     libvcruntime:undname.obj
 0002:00001338       ??_C@_0BC@GGEBGALA@operator?5co_await@ 000000014005d338     libvcruntime:undname.obj
 0002:00001350       ??_C@_0M@GAAIMMOH@operator?$DM?$DN?$DO@ 000000014005d350     libvcruntime:undname.obj
 0002:00001360       ??_C@_0BC@DAFEJGAK@?5Type?5Descriptor?8@ 000000014005d360     libvcruntime:undname.obj
 0002:00001378       ??_C@_0BM@LDKODKLH@?5Base?5Class?5Descriptor?5at?5?$CI@ 000000014005d378     libvcruntime:undname.obj
 0002:00001398       ??_C@_0BD@LGICGFMM@?5Base?5Class?5Array?8@ 000000014005d398     libvcruntime:undname.obj
 0002:000013b0       ??_C@_0BN@MECKDCOJ@?5Class?5Hierarchy?5Descriptor?8@ 000000014005d3b0     libvcruntime:undname.obj
 0002:000013d0       ??_C@_0BK@CFCOFLF@?5Complete?5Object?5Locator?8@ 000000014005d3d0     libvcruntime:undname.obj
 0002:000013f0       ??_C@_0BG@JNJLAMPM@?$GAanonymous?5namespace?8@ 000000014005d3f0     libvcruntime:undname.obj
 0002:00001408       ??_C@_04HEJADOOB@CV?3?5@   000000014005d408     libvcruntime:undname.obj
 0002:00001410       ??_C@_02MOLJINC@?3?3@      000000014005d410     libvcruntime:undname.obj
 0002:00001418       ??_C@_0BE@JAEOCHPE@template?9parameter?9@ 000000014005d418     libvcruntime:undname.obj
 0002:00001430       ??_C@_0BF@LNLGBBNL@?$GAtemplate?9parameter?9@ 000000014005d430     libvcruntime:undname.obj
 0002:00001448       ??_C@_0O@KHGCOMHP@generic?9type?9@ 000000014005d448     libvcruntime:undname.obj
 0002:00001458       ??_C@_0P@ODDENDLM@?$GAgeneric?9type?9@ 000000014005d458     libvcruntime:undname.obj
 0002:00001468       ??_C@_02OHHJMEON@?8?8@     000000014005d468     libvcruntime:undname.obj
 0002:00001470       ??_C@_0BN@IBLMMFAP@?$GAnon?9type?9template?9parameter@ 000000014005d470     libvcruntime:undname.obj
 0002:00001490       ??_C@_03DLDNIBIK@?$CFlf@   000000014005d490     libvcruntime:undname.obj
 0002:00001494       ??_C@_04OFALKAJ@?$DP?$DP_C@ 000000014005d494     libvcruntime:undname.obj
 0002:0000149c       ??_C@_03KHICJKCI@?4?4?4@   000000014005d49c     libvcruntime:undname.obj
 0002:000014a0       ??_C@_04HIBGFPH@NULL@      000000014005d4a0     libvcruntime:undname.obj
 0002:000014a8       ??_C@_02DPKJAMEF@?$CFd@    000000014005d4a8     libvcruntime:undname.obj
 0002:000014b0       ??_C@_0BK@IHCCFNEL@?$GAtemplate?9type?9parameter?9@ 000000014005d4b0     libvcruntime:undname.obj
 0002:000014d0       ??_C@_0BK@OFCNNNKO@?$GAgeneric?9class?9parameter?9@ 000000014005d4d0     libvcruntime:undname.obj
 0002:000014f0       ??_C@_0BL@NGJBLFIL@?$GAgeneric?9method?9parameter?9@ 000000014005d4f0     libvcruntime:undname.obj
 0002:00001510       ??_C@_07OHNGEDJK@nullptr@  000000014005d510     libvcruntime:undname.obj
 0002:00001518       ??_C@_06COJIGPIB@lambda@   000000014005d518     libvcruntime:undname.obj
 0002:00001520       ??_C@_04GKJNKENE@void@     000000014005d520     libvcruntime:undname.obj
 0002:00001528       ??_C@_0BE@EODMJLIF@?$GAtemplate?9parameter@ 000000014005d528     libvcruntime:undname.obj
 0002:0000153c       ??_C@_03OPGICMGF@?$HN?8?5@ 000000014005d53c     libvcruntime:undname.obj
 0002:00001540       ??_C@_02IGFCGPIL@?$HN?8@   000000014005d540     libvcruntime:undname.obj
 0002:00001548       ??_C@_0N@CBHHHENL@?$GAvtordispex?$HL@ 000000014005d548     libvcruntime:undname.obj
 0002:00001558       ??_C@_0L@GHPFDFH@?$GAvtordisp?$HL@ 000000014005d558     libvcruntime:undname.obj
 0002:00001568       ??_C@_0L@HNGCOGAE@?$GAadjustor?$HL@ 000000014005d568     libvcruntime:undname.obj
 0002:00001578       ??_C@_0CB@KJDOOODE@?$GAlocal?5static?5destructor?5helper@ 000000014005d578     libvcruntime:undname.obj
 0002:000015a0       ??_C@_0DB@ILEFOCIJ@?$GAtemplate?5static?5data?5member?5co@ 000000014005d5a0     libvcruntime:undname.obj
 0002:000015d8       ??_C@_0DA@HGFJFBBE@?$GAtemplate?5static?5data?5member?5de@ 000000014005d5d8     libvcruntime:undname.obj
 0002:00001608       ??_C@_07PGOEDBHP@static?5@ 000000014005d608     libvcruntime:undname.obj
 0002:00001610       ??_C@_08NIEOINHE@virtual?5@ 000000014005d610     libvcruntime:undname.obj
 0002:00001620       ??_C@_09LAPHOOG@private?3?5@ 000000014005d620     libvcruntime:undname.obj
 0002:00001630       ??_C@_0M@GAIFPFIP@protected?3?5@ 000000014005d630     libvcruntime:undname.obj
 0002:00001640       ??_C@_08GPDDCMKI@public?3?5@ 000000014005d640     libvcruntime:undname.obj
 0002:00001650       ??_C@_08KJLFOPNE@?$FLthunk?$FN?3@ 000000014005d650     libvcruntime:undname.obj
 0002:00001660       ??_C@_0M@DHNBOJMP@extern?5?$CCC?$CC?5@ 000000014005d660     libvcruntime:undname.obj
 0002:0000166c       ??_C@_02KCKGHPCA@?$CJ?5@   000000014005d66c     libvcruntime:undname.obj
 0002:00001670       ??_C@_05CIHEBHNO@char?5@   000000014005d670     libvcruntime:undname.obj
 0002:00001678       ??_C@_06EHJMALKF@short?5@  000000014005d678     libvcruntime:undname.obj
 0002:00001680       ??_C@_04LAHKHJMA@int?5@    000000014005d680     libvcruntime:undname.obj
 0002:00001688       ??_C@_05CJIMAING@long?5@   000000014005d688     libvcruntime:undname.obj
 0002:00001690       ??_C@_09EBBEKKIH@unsigned?5@ 000000014005d690     libvcruntime:undname.obj
 0002:0000169c       ??_C@_05BEFAKPML@void?5@   000000014005d69c     libvcruntime:undname.obj
 0002:000016a8       ??_C@_09GAIEOBLP@volatile?5@ 000000014005d6a8     libvcruntime:undname.obj
 0002:000016b8       ??_C@_08PABEKFH@volatile@  000000014005d6b8     libvcruntime:undname.obj
 0002:000016c8       ??_C@_0BA@LKIJLKPP@std?3?3nullptr_t?5@ 000000014005d6c8     libvcruntime:undname.obj
 0002:000016d8       ??_C@_0P@GCOCNKDM@std?3?3nullptr_t@ 000000014005d6d8     libvcruntime:undname.obj
 0002:000016e8       ??_C@_0L@EGPHHEKN@?$DMellipsis?$DO@ 000000014005d6e8     libvcruntime:undname.obj
 0002:000016f4       ??_C@_04EENFHACM@?0?4?4?4@ 000000014005d6f4     libvcruntime:undname.obj
 0002:00001700       ??_C@_0M@ELJOJFFH@?0?$DMellipsis?$DO@ 000000014005d700     libvcruntime:undname.obj
 0002:00001710       ??_C@_09DNHFEOJI@?5noexcept@ 000000014005d710     libvcruntime:undname.obj
 0002:0000171c       ??_C@_03PBJBJNON@cpu@      000000014005d71c     libvcruntime:undname.obj
 0002:00001720       ??_C@_03DCBBJBAA@amp@      000000014005d720     libvcruntime:undname.obj
 0002:00001724       ??_C@_02KEGNLNML@?0?5@     000000014005d724     libvcruntime:undname.obj
 0002:00001728       ??_C@_04ENMBGAPA@char@     000000014005d728     libvcruntime:undname.obj
 0002:00001730       ??_C@_05BFKKPKCG@short@    000000014005d730     libvcruntime:undname.obj
 0002:00001738       ??_C@_03JBIPMCLC@int@      000000014005d738     libvcruntime:undname.obj
 0002:0000173c       ??_C@_04GOKPGOLB@long@     000000014005d73c     libvcruntime:undname.obj
 0002:00001744       ??_C@_05KNFBNCOH@float@    000000014005d744     libvcruntime:undname.obj
 0002:0000174c       ??_C@_06BNJCAIGJ@double@   000000014005d74c     libvcruntime:undname.obj
 0002:00001754       ??_C@_04DDKJGDCM@bool@     000000014005d754     libvcruntime:undname.obj
 0002:0000175c       ??_C@_06EBGKOKIG@__int8@   000000014005d75c     libvcruntime:undname.obj
 0002:00001768       ??_C@_07ICFHOGAF@__int16@  000000014005d768     libvcruntime:undname.obj
 0002:00001770       ??_C@_07OFLPPHGP@__int32@  000000014005d770     libvcruntime:undname.obj
 0002:00001778       ??_C@_07LFCOJCAC@__int64@  000000014005d778     libvcruntime:undname.obj
 0002:00001780       ??_C@_08GAHOLHEO@__int128@ 000000014005d780     libvcruntime:undname.obj
 0002:00001790       ??_C@_09EEKGDCPH@?$DMunknown?$DO@ 000000014005d790     libvcruntime:undname.obj
 0002:000017a0       ??_C@_07CFHGOPCN@char8_t@  000000014005d7a0     libvcruntime:undname.obj
 0002:000017a8       ??_C@_08HBIPOFJB@char16_t@ 000000014005d7a8     libvcruntime:undname.obj
 0002:000017b8       ??_C@_08IECNCBKG@char32_t@ 000000014005d7b8     libvcruntime:undname.obj
 0002:000017c8       ??_C@_07CLGGIAMF@wchar_t@  000000014005d7c8     libvcruntime:undname.obj
 0002:000017d0       ??_C@_04HAPDLBFF@auto@     000000014005d7d0     libvcruntime:undname.obj
 0002:000017d8       ??_C@_0P@LHCGKIGK@decltype?$CIauto?$CJ@ 000000014005d7d8     libvcruntime:undname.obj
 0002:000017e8       ??_C@_05PCNBGHCF@this?5@   000000014005d7e8     libvcruntime:undname.obj
 0002:000017f0       ??_C@_06GCICPBLB@__w64?5@  000000014005d7f0     libvcruntime:undname.obj
 0002:000017f8       ??_C@_07NFANNNEC@UNKNOWN@  000000014005d7f8     libvcruntime:undname.obj
 0002:00001800       ??_C@_07EDHNAJHC@signed?5@ 000000014005d800     libvcruntime:undname.obj
 0002:00001808       ??_C@_05BNCCCJPP@const@    000000014005d808     libvcruntime:undname.obj
 0002:00001810       ??_C@_09EFNPDFFP@?5volatile@ 000000014005d810     libvcruntime:undname.obj
 0002:00001820       ??_C@_0P@GCIFDJCJ@?$GAunknown?5ecsu?8@ 000000014005d820     libvcruntime:undname.obj
 0002:00001830       ??_C@_06MOJHIBMG@union?5@  000000014005d830     libvcruntime:undname.obj
 0002:00001838       ??_C@_07DIBCDNGL@struct?5@ 000000014005d838     libvcruntime:undname.obj
 0002:00001840       ??_C@_06LJBABKPM@class?5@  000000014005d840     libvcruntime:undname.obj
 0002:00001848       ??_C@_08KOFANOFK@coclass?5@ 000000014005d848     libvcruntime:undname.obj
 0002:00001858       ??_C@_0N@DLIEFKNA@cointerface?5@ 000000014005d858     libvcruntime:undname.obj
 0002:00001868       ??_C@_05LJGMCFOG@enum?5@   000000014005d868     libvcruntime:undname.obj
 0002:00001870       ??_C@_06LIJLOJAG@const?5@  000000014005d870     libvcruntime:undname.obj
 0002:00001878       ??_C@_02KJPKDIBN@?$CG?5@   000000014005d878     libvcruntime:undname.obj
 0002:0000187c       ??_C@_03PCKGMOPB@?$CG?$CG?5@ 000000014005d87c     libvcruntime:undname.obj
 0002:00001880       ??_C@_0M@EALIELKG@cli?3?3array?$DM@ 000000014005d880     libvcruntime:undname.obj
 0002:00001890       ??_C@_0O@GKABPPIF@cli?3?3pin_ptr?$DM@ 000000014005d890     libvcruntime:undname.obj
 0002:000018a0       ??_C@_02GOGNNPBN@?$CJ?$FL@ 000000014005d8a0     libvcruntime:undname.obj
 0002:000018a4       ??_C@_06EEGAIFAK@?$HLflat?$HN@ 000000014005d8a4     libvcruntime:undname.obj
 0002:000018ac       ??_C@_05JIBOFOHK@?$HLfor?5@ 000000014005d8ac     libvcruntime:undname.obj
 0002:000018b4       ??_C@_02MDINNEEG@s?5@      000000014005d8b4     libvcruntime:undname.obj
 0002:000018c0       ??_7DNameNode@@6B@         000000014005d8c0     libvcruntime:undname.obj
 0002:000018e8       ??_7charNode@@6B@          000000014005d8e8     libvcruntime:undname.obj
 0002:00001910       ??_7pcharNode@@6B@         000000014005d910     libvcruntime:undname.obj
 0002:00001938       ??_7pDNameNode@@6B@        000000014005d938     libvcruntime:undname.obj
 0002:00001960       ??_7DNameStatusNode@@6B@   000000014005d960     libvcruntime:undname.obj
 0002:00001988       ??_7pairNode@@6B@          000000014005d988     libvcruntime:undname.obj
 0002:00001ab0       ??_C@_04OKOHEJBO@?5?$DP?$DP?5@ 000000014005dab0     libvcruntime:undname.obj
 0002:00001ac0       ?nodes@?1??make@DNameStatusNode@@SAPEBV2@W4DNameStatus@@@Z@4QBV2@B 000000014005dac0     libvcruntime:undname.obj
 0002:00001b18       ??_C@_1DM@KHCHBNEB@?$AAa?$AAp?$AAi?$AA?9?$AAm?$AAs?$AA?9?$AAw?$AAi?$AAn?$AA?9?$AAc?$AAo?$AAr?$AAe@ 000000014005db18     libvcruntime:winapi_downlevel.obj
 0002:00001b58       ??_C@_1DK@LPPGFMPP@?$AAa?$AAp?$AAi?$AA?9?$AAm?$AAs?$AA?9?$AAw?$AAi?$AAn?$AA?9?$AAc?$AAo?$AAr?$AAe@ 000000014005db58     libvcruntime:winapi_downlevel.obj
 0002:00001b98       ??_C@_1BC@GDMECMAK@?$AAk?$AAe?$AAr?$AAn?$AAe?$AAl?$AA3?$AA2@ 000000014005db98     libvcruntime:winapi_downlevel.obj
 0002:00001bb0       ??_C@_1BA@PFFKHIOG@?$AAa?$AAp?$AAi?$AA?9?$AAm?$AAs?$AA?9@ 000000014005dbb0     libvcruntime:winapi_downlevel.obj
 0002:00001bc8       ??_C@_08KNHFBNJ@FlsAlloc@  000000014005dbc8     libvcruntime:winapi_downlevel.obj
 0002:00001be0       ??_C@_07PEJMOBNF@FlsFree@  000000014005dbe0     libvcruntime:winapi_downlevel.obj
 0002:00001bf0       ??_C@_0M@GDNOONDI@FlsGetValue@ 000000014005dbf0     libvcruntime:winapi_downlevel.obj
 0002:00001c08       ??_C@_0M@JCPCPOEF@FlsSetValue@ 000000014005dc08     libvcruntime:winapi_downlevel.obj
 0002:00001c20       ??_C@_0BM@HCFOFFN@InitializeCriticalSectionEx@ 000000014005dc20     libvcruntime:winapi_downlevel.obj
 0002:00001c40       _Fenv1                     000000014005dc40     libucrt:output.obj
 0002:00001c50       ?standard_lookup_table_spectre@__crt_stdio_output@@3V?$spectre_mitigated_lookup_table@Ustate_transition_pair@__crt_stdio_output@@$0IA@@1@B 000000014005dc50     libucrt:output.obj
 0002:00001d50       ?format_validation_lookup_table_spectre@__crt_stdio_output@@3V?$spectre_mitigated_lookup_table@Ustate_transition_pair@__crt_stdio_output@@$0IA@@1@B 000000014005dd50     libucrt:output.obj
 0002:00001e50       ??_C@_1O@CEDCILHN@?$AA?$CI?$AAn?$AAu?$AAl?$AAl?$AA?$CJ@ 000000014005de50     libucrt:output.obj
 0002:00001e60       ??_C@_06OJHGLDPL@?$CInull?$CJ@ 000000014005de60     libucrt:output.obj
 0002:00001e70       __acrt_exception_action_table 000000014005de70     libucrt:exception_filter.obj
 0002:00001f30       __acrt_signal_action_table_count 000000014005df30     libucrt:exception_filter.obj
 0002:00001f38       __acrt_signal_action_table_size 000000014005df38     libucrt:exception_filter.obj
 0002:00001f40       __acrt_signal_action_first_fpe_index 000000014005df40     libucrt:exception_filter.obj
 0002:00001f48       __acrt_signal_action_fpe_count 000000014005df48     libucrt:exception_filter.obj
 0002:00001f50       ??_C@_1DE@JNGNBFGO@?$AAR?$AAu?$AAn?$AAt?$AAi?$AAm?$AAe?$AA?5?$AAE?$AAr?$AAr?$AAo?$AAr?$AA?$CB?$AA?6@ 000000014005df50     libucrt:report_runtime_error.obj
 0002:00001f88       ??_C@_1CO@EAEJAADC@?$AA?$DM?$AAp?$AAr?$AAo?$AAg?$AAr?$AAa?$AAm?$AA?5?$AAn?$AAa?$AAm?$AAe?$AA?5?$AAu@ 000000014005df88     libucrt:report_runtime_error.obj
 0002:00001fb8       ??_C@_17LGKOMLJ@?$AA?4?$AA?4?$AA?4@ 000000014005dfb8     libucrt:report_runtime_error.obj
 0002:00001fc0       ??_C@_15IABLJNFO@?$AA?6?$AA?6@ 000000014005dfc0     libucrt:report_runtime_error.obj
 0002:00001fd0       ??_C@_1EK@MBDPDCGA@?$AAM?$AAi?$AAc?$AAr?$AAo?$AAs?$AAo?$AAf?$AAt?$AA?5?$AAV?$AAi?$AAs?$AAu?$AAa@ 000000014005dfd0     libucrt:report_runtime_error.obj
 0002:00002110       ??_C@_1BI@BGOHAHKC@?$AAm?$AAs?$AAc?$AAo?$AAr?$AAe?$AAe?$AA?4?$AAd?$AAl?$AAl@ 000000014005e110     libucrt:exit.obj
 0002:00002128       ??_C@_0P@MIGLKIOC@CorExitProcess@ 000000014005e128     libucrt:exit.obj
 0002:000021c0       __lc_category              000000014005e1c0     libucrt:wsetlocale.obj
 0002:00002250       ??_C@_1O@GIFLHMA@?$AAL?$AAC?$AA_?$AAA?$AAL?$AAL@ 000000014005e250     libucrt:wsetlocale.obj
 0002:00002260       ??_C@_1BG@PPOMIBNJ@?$AAL?$AAC?$AA_?$AAC?$AAO?$AAL?$AAL?$AAA?$AAT?$AAE@ 000000014005e260     libucrt:wsetlocale.obj
 0002:00002278       ??_C@_1BC@FFJGAPJM@?$AAL?$AAC?$AA_?$AAC?$AAT?$AAY?$AAP?$AAE@ 000000014005e278     libucrt:wsetlocale.obj
 0002:00002290       ??_C@_1BI@PCKFNJFB@?$AAL?$AAC?$AA_?$AAM?$AAO?$AAN?$AAE?$AAT?$AAA?$AAR?$AAY@ 000000014005e290     libucrt:wsetlocale.obj
 0002:000022a8       ??_C@_1BG@ENIEDKID@?$AAL?$AAC?$AA_?$AAN?$AAU?$AAM?$AAE?$AAR?$AAI?$AAC@ 000000014005e2a8     libucrt:wsetlocale.obj
 0002:000022c0       ??_C@_1BA@HAAOMIIG@?$AAL?$AAC?$AA_?$AAT?$AAI?$AAM?$AAE@ 000000014005e2c0     libucrt:wsetlocale.obj
 0002:000022d0       ??_C@_15NBPDDFIP@?$AA?$DN?$AA?$DL@ 000000014005e2d0     libucrt:wsetlocale.obj
 0002:000022d8       ??_C@_13PJJBFPED@?$AA?$DL@ 000000014005e2d8     libucrt:wsetlocale.obj
 0002:000022dc       ??_C@_13NMPKAAJP@?$AA?$DN@ 000000014005e2dc     libucrt:wsetlocale.obj
 0002:000022e0       ??_C@_13IMODFHAA@?$AA?9@   000000014005e2e0     libucrt:wsetlocale.obj
 0002:000022e8       ??_C@_17EFJLDFDO@?$AA?9?$AA_?$AA?4@ 000000014005e2e8     libucrt:wsetlocale.obj
 0002:000022f0       ??_C@_13FHBKNHDA@?$AAC@    000000014005e2f0     libucrt:wsetlocale.obj
 0002:000022f8       ??_C@_17MBJJLFDM@?$AA_?$AA?4?$AA?0@ 000000014005e2f8     libucrt:wsetlocale.obj
 0002:00002300       ??_C@_13ENNFDPBH@?$AA_@    000000014005e300     libucrt:wsetlocale.obj
 0002:00002304       ??_C@_13JOFGPIOO@?$AA?4@   000000014005e304     libucrt:wsetlocale.obj
 0002:000025c8       RtlNtPathSeperatorString   000000014005e5c8     libucrt:winapi_thunks.obj
 0002:000025d8       ??_C@_13FPGAJAPJ@?$AA?2@   000000014005e5d8     libucrt:winapi_thunks.obj
 0002:000025e0       RtlDosPathSeperatorsString 000000014005e5e0     libucrt:winapi_thunks.obj
 0002:000025f0       ??_C@_15MNCACJLI@?$AA?2?$AA?1@ 000000014005e5f0     libucrt:winapi_thunks.obj
 0002:000025f8       RtlAlternateDosPathSeperatorString 000000014005e5f8     libucrt:winapi_thunks.obj
 0002:00002608       ??_C@_13CGOKJPIL@?$AA?1@   000000014005e608     libucrt:winapi_thunks.obj
 0002:000026c0       ??_C@_1EA@JGEFHKEI@?$AAa?$AAp?$AAi?$AA?9?$AAm?$AAs?$AA?9?$AAw?$AAi?$AAn?$AA?9?$AAc?$AAo?$AAr?$AAe@ 000000014005e6c0     libucrt:winapi_thunks.obj
 0002:00002700       ??_C@_1DI@KMEPCBPN@?$AAa?$AAp?$AAi?$AA?9?$AAm?$AAs?$AA?9?$AAw?$AAi?$AAn?$AA?9?$AAc?$AAo?$AAr?$AAe@ 000000014005e700     libucrt:winapi_thunks.obj
 0002:00002738       ??_C@_1DI@IJCEHOCB@?$AAa?$AAp?$AAi?$AA?9?$AAm?$AAs?$AA?9?$AAw?$AAi?$AAn?$AA?9?$AAc?$AAo?$AAr?$AAe@ 000000014005e738     libucrt:winapi_thunks.obj
 0002:00002770       ??_C@_1EI@MPIAOHOC@?$AAa?$AAp?$AAi?$AA?9?$AAm?$AAs?$AA?9?$AAw?$AAi?$AAn?$AA?9?$AAc?$AAo?$AAr?$AAe@ 000000014005e770     libucrt:winapi_thunks.obj
 0002:000027c0       ??_C@_1FK@FPHCKFIE@?$AAa?$AAp?$AAi?$AA?9?$AAm?$AAs?$AA?9?$AAw?$AAi?$AAn?$AA?9?$AAc?$AAo?$AAr?$AAe@ 000000014005e7c0     libucrt:winapi_thunks.obj
 0002:00002820       ??_C@_1EM@DILCGIIO@?$AAa?$AAp?$AAi?$AA?9?$AAm?$AAs?$AA?9?$AAw?$AAi?$AAn?$AA?9?$AAc?$AAo?$AAr?$AAe@ 000000014005e820     libucrt:winapi_thunks.obj
 0002:00002870       ??_C@_1DM@LNCGDDPN@?$AAa?$AAp?$AAi?$AA?9?$AAm?$AAs?$AA?9?$AAw?$AAi?$AAn?$AA?9?$AAc?$AAo?$AAr?$AAe@ 000000014005e870     libucrt:winapi_thunks.obj
 0002:000028b0       ??_C@_1DO@FPAPJEMD@?$AAa?$AAp?$AAi?$AA?9?$AAm?$AAs?$AA?9?$AAw?$AAi?$AAn?$AA?9?$AAc?$AAo?$AAr?$AAe@ 000000014005e8b0     libucrt:winapi_thunks.obj
 0002:000028f0       ??_C@_1DK@NDHNAHIO@?$AAa?$AAp?$AAi?$AA?9?$AAm?$AAs?$AA?9?$AAw?$AAi?$AAn?$AA?9?$AAc?$AAo?$AAr?$AAe@ 000000014005e8f0     libucrt:winapi_thunks.obj
 0002:00002930       ??_C@_1DM@KGHDGBCM@?$AAa?$AAp?$AAi?$AA?9?$AAm?$AAs?$AA?9?$AAw?$AAi?$AAn?$AA?9?$AAc?$AAo?$AAr?$AAe@ 000000014005e930     libucrt:winapi_thunks.obj
 0002:00002970       ??_C@_1EO@IJIOEFOH@?$AAa?$AAp?$AAi?$AA?9?$AAm?$AAs?$AA?9?$AAw?$AAi?$AAn?$AA?9?$AAr?$AAt?$AAc?$AAo@ 000000014005e970     libucrt:winapi_thunks.obj
 0002:000029c0       ??_C@_1FG@HHGEKANL@?$AAa?$AAp?$AAi?$AA?9?$AAm?$AAs?$AA?9?$AAw?$AAi?$AAn?$AA?9?$AAs?$AAe?$AAc?$AAu@ 000000014005e9c0     libucrt:winapi_thunks.obj
 0002:00002a20       ??_C@_1EG@DBIOJECG@?$AAe?$AAx?$AAt?$AA?9?$AAm?$AAs?$AA?9?$AAw?$AAi?$AAn?$AA?9?$AAn?$AAt?$AAu?$AAs@ 000000014005ea20     libucrt:winapi_thunks.obj
 0002:00002a70       ??_C@_1EO@FIHMJCLF@?$AAe?$AAx?$AAt?$AA?9?$AAm?$AAs?$AA?9?$AAw?$AAi?$AAn?$AA?9?$AAn?$AAt?$AAu?$AAs@ 000000014005ea70     libucrt:winapi_thunks.obj
 0002:00002ac0       ??_C@_1BC@DNHGCMLG@?$AAa?$AAd?$AAv?$AAa?$AAp?$AAi?$AA3?$AA2@ 000000014005eac0     libucrt:winapi_thunks.obj
 0002:00002ad8       ??_C@_1BG@CJPGBMEF@?$AAk?$AAe?$AAr?$AAn?$AAe?$AAl?$AAb?$AAa?$AAs?$AAe@ 000000014005ead8     libucrt:winapi_thunks.obj
 0002:00002af0       ??_C@_1M@OAIMIKLP@?$AAn?$AAt?$AAd?$AAl?$AAl@ 000000014005eaf0     libucrt:winapi_thunks.obj
 0002:00002b00       ??_C@_1EG@DPGNFKGC@?$AAa?$AAp?$AAi?$AA?9?$AAm?$AAs?$AA?9?$AAw?$AAi?$AAn?$AA?9?$AAa?$AAp?$AAp?$AAm@ 000000014005eb00     libucrt:winapi_thunks.obj
 0002:00002b48       ??_C@_1O@BCCLBEOE@?$AAu?$AAs?$AAe?$AAr?$AA3?$AA2@ 000000014005eb48     libucrt:winapi_thunks.obj
 0002:00002b58       ??_C@_1BA@IAIFMGEF@?$AAe?$AAx?$AAt?$AA?9?$AAm?$AAs?$AA?9@ 000000014005eb58     libucrt:winapi_thunks.obj
 0002:00002b70       ??_C@_0BA@FHFNEAED@AreFileApisANSI@ 000000014005eb70     libucrt:winapi_thunks.obj
 0002:00002b88       ??_C@_0BA@IHGNDAEB@CompareStringEx@ 000000014005eb88     libucrt:winapi_thunks.obj
 0002:00002ba0       ??_C@_0BE@LJANKFHF@EnumSystemLocalesEx@ 000000014005eba0     libucrt:winapi_thunks.obj
 0002:00002bc0       ??_C@_0BA@HNOPNCHB@GetActiveWindow@ 000000014005ebc0     libucrt:winapi_thunks.obj
 0002:00002bd8       ??_C@_0BA@EPCJIIPD@GetDateFormatEx@ 000000014005ebd8     libucrt:winapi_thunks.obj
 0002:00002bf0       ??_C@_0O@NNMIPI@GetTempPath2W@ 000000014005ebf0     libucrt:winapi_thunks.obj
 0002:00002c08       ??_C@_0BJ@DIBIJBHA@GetEnabledXStateFeatures@ 000000014005ec08     libucrt:winapi_thunks.obj
 0002:00002c30       ??_C@_0BD@HHGDFDBJ@GetLastActivePopup@ 000000014005ec30     libucrt:winapi_thunks.obj
 0002:00002c50       ??_C@_0BA@ONOKGCMP@GetLocaleInfoEx@ 000000014005ec50     libucrt:winapi_thunks.obj
 0002:00002c68       ??_C@_0BI@DFKBFLJE@GetProcessWindowStation@ 000000014005ec68     libucrt:winapi_thunks.obj
 0002:00002c88       ??_C@_0BP@FPNJPEJC@GetSystemTimePreciseAsFileTime@ 000000014005ec88     libucrt:winapi_thunks.obj
 0002:00002cb0       ??_C@_0BA@CIJJKCJJ@GetTimeFormatEx@ 000000014005ecb0     libucrt:winapi_thunks.obj
 0002:00002cc8       ??_C@_0BJ@PBCCBIPI@GetUserDefaultLocaleName@ 000000014005ecc8     libucrt:winapi_thunks.obj
 0002:00002cf0       ??_C@_0BK@DEKFELLI@GetUserObjectInformationW@ 000000014005ecf0     libucrt:winapi_thunks.obj
 0002:00002d18       ??_C@_0BG@IKLDMBLM@GetXStateFeaturesMask@ 000000014005ed18     libucrt:winapi_thunks.obj
 0002:00002d40       ??_C@_0BC@CELBKLLA@IsValidLocaleName@ 000000014005ed40     libucrt:winapi_thunks.obj
 0002:00002d60       ??_C@_0O@KKBNKAPF@LCMapStringEx@ 000000014005ed60     libucrt:winapi_thunks.obj
 0002:00002d78       ??_C@_0BB@CDHDDLLP@LCIDToLocaleName@ 000000014005ed78     libucrt:winapi_thunks.obj
 0002:00002d98       ??_C@_0BB@HBDEELFH@LocaleNameToLCID@ 000000014005ed98     libucrt:winapi_thunks.obj
 0002:00002db8       ??_C@_0BE@KINNKFDA@LocateXStateFeature@ 000000014005edb8     libucrt:winapi_thunks.obj
 0002:00002dd8       ??_C@_0M@CHKKJDAI@MessageBoxA@ 000000014005edd8     libucrt:winapi_thunks.obj
 0002:00002df0       ??_C@_0M@DLDCCGNP@MessageBoxW@ 000000014005edf0     libucrt:winapi_thunks.obj
 0002:00002e00       ??_C@_0N@PPOMPGGK@RoInitialize@ 000000014005ee00     libucrt:winapi_thunks.obj
 0002:00002e18       ??_C@_0P@LLFHBIJD@RoUninitialize@ 000000014005ee18     libucrt:winapi_thunks.obj
 0002:00002e30       ??_C@_0CF@OJOFEIGO@AppPolicyGetProcessTerminationM@ 000000014005ee30     libucrt:winapi_thunks.obj
 0002:00002e60       ??_C@_0CF@NNDFDCOC@AppPolicyGetThreadInitializatio@ 000000014005ee60     libucrt:winapi_thunks.obj
 0002:00002e90       ??_C@_0CE@OICFMIKE@AppPolicyGetShowDeveloperDiagno@ 000000014005ee90     libucrt:winapi_thunks.obj
 0002:00002eb8       ??_C@_0BL@ODDJNEDA@AppPolicyGetWindowingModel@ 000000014005eeb8     libucrt:winapi_thunks.obj
 0002:00002ee0       ??_C@_0BI@BKLFFAPO@SetThreadStackGuarantee@ 000000014005eee0     libucrt:winapi_thunks.obj
 0002:00002f00       ??_C@_0BC@JEAENNKH@SystemFunction036@ 000000014005ef00     libucrt:winapi_thunks.obj
 0002:00002fa0       ??_C@_03OEIAHPBN@INF@      000000014005efa0     libucrt:cvt.obj
 0002:00002fa4       ??_C@_03OJHLLCGB@inf@      000000014005efa4     libucrt:cvt.obj
 0002:00002fa8       ??_C@_03LKNCIKJB@NAN@      000000014005efa8     libucrt:cvt.obj
 0002:00002fac       ??_C@_03LHCJEHON@nan@      000000014005efac     libucrt:cvt.obj
 0002:00002fb0       ??_C@_09OFJJIMPC@NAN?$CISNAN?$CJ@ 000000014005efb0     libucrt:cvt.obj
 0002:00002fc0       ??_C@_09IPFBKMDL@nan?$CIsnan?$CJ@ 000000014005efc0     libucrt:cvt.obj
 0002:00002fd0       ??_C@_08IKHNHAJ@NAN?$CIIND?$CJ@ 000000014005efd0     libucrt:cvt.obj
 0002:00002fe0       ??_C@_08OFCDMILK@nan?$CIind?$CJ@ 000000014005efe0     libucrt:cvt.obj
 0002:00002fec       ??_C@_05KLBDPFGC@e?$CL000@ 000000014005efec     libucrt:cvt.obj
 0002:00003000       __lc_time_c                000000014005f000     libucrt:nlsdata.obj
 0002:000032c0       ??_C@_03KOEHGMDN@Sun@      000000014005f2c0     libucrt:nlsdata.obj
 0002:000032c4       ??_C@_03PDAGKDH@Mon@       000000014005f2c4     libucrt:nlsdata.obj
 0002:000032c8       ??_C@_03NAGEINEP@Tue@      000000014005f2c8     libucrt:nlsdata.obj
 0002:000032cc       ??_C@_03MHOMLAJA@Wed@      000000014005f2cc     libucrt:nlsdata.obj
 0002:000032d0       ??_C@_03IOFIKPDN@Thu@      000000014005f2d0     libucrt:nlsdata.obj
 0002:000032d4       ??_C@_03IDIOELNC@Fri@      000000014005f2d4     libucrt:nlsdata.obj
 0002:000032d8       ??_C@_03FEFJNEK@Sat@       000000014005f2d8     libucrt:nlsdata.obj
 0002:000032dc       ??_C@_06OOPIFAJ@Sunday@    000000014005f2dc     libucrt:nlsdata.obj
 0002:000032e4       ??_C@_06JLEDEDGH@Monday@   000000014005f2e4     libucrt:nlsdata.obj
 0002:000032f0       ??_C@_07BAAGCFCM@Tuesday@  000000014005f2f0     libucrt:nlsdata.obj
 0002:000032f8       ??_C@_09DLIGFAKA@Wednesday@ 000000014005f2f8     libucrt:nlsdata.obj
 0002:00003308       ??_C@_08HACCIKIA@Thursday@ 000000014005f308     libucrt:nlsdata.obj
 0002:00003314       ??_C@_06JECMNKMI@Friday@   000000014005f314     libucrt:nlsdata.obj
 0002:00003320       ??_C@_08INBOOONO@Saturday@ 000000014005f320     libucrt:nlsdata.obj
 0002:0000332c       ??_C@_03JIHJHPIE@Jan@      000000014005f32c     libucrt:nlsdata.obj
 0002:00003330       ??_C@_03HJBDCHOM@Feb@      000000014005f330     libucrt:nlsdata.obj
 0002:00003334       ??_C@_03ODNJBKGA@Mar@      000000014005f334     libucrt:nlsdata.obj
 0002:00003338       ??_C@_03LEOLGMJP@Apr@      000000014005f338     libucrt:nlsdata.obj
 0002:0000333c       ??_C@_03CNMDKL@May@        000000014005f33c     libucrt:nlsdata.obj
 0002:00003340       ??_C@_03IDFGHECI@Jun@      000000014005f340     libucrt:nlsdata.obj
 0002:00003344       ??_C@_03LBGABGKK@Jul@      000000014005f344     libucrt:nlsdata.obj
 0002:00003348       ??_C@_03IFJFEIGA@Aug@      000000014005f348     libucrt:nlsdata.obj
 0002:0000334c       ??_C@_03GGCAPAJC@Sep@      000000014005f34c     libucrt:nlsdata.obj
 0002:00003350       ??_C@_03BMAOKBAD@Oct@      000000014005f350     libucrt:nlsdata.obj
 0002:00003354       ??_C@_03JPJOFNIA@Nov@      000000014005f354     libucrt:nlsdata.obj
 0002:00003358       ??_C@_03MKABNOCG@Dec@      000000014005f358     libucrt:nlsdata.obj
 0002:00003360       ??_C@_07CGJPFGJA@January@  000000014005f360     libucrt:nlsdata.obj
 0002:00003368       ??_C@_08GNJGEPFN@February@ 000000014005f368     libucrt:nlsdata.obj
 0002:00003374       ??_C@_05HPCKOFNC@March@    000000014005f374     libucrt:nlsdata.obj
 0002:0000337c       ??_C@_05DMJDNLEJ@April@    000000014005f37c     libucrt:nlsdata.obj
 0002:00003384       ??_C@_04CNLMGBGM@June@     000000014005f384     libucrt:nlsdata.obj
 0002:0000338c       ??_C@_04MIEPOIFP@July@     000000014005f38c     libucrt:nlsdata.obj
 0002:00003394       ??_C@_06LBBHFDDG@August@   000000014005f394     libucrt:nlsdata.obj
 0002:000033a0       ??_C@_09BHHEALKD@September@ 000000014005f3a0     libucrt:nlsdata.obj
 0002:000033b0       ??_C@_07JJNFCEND@October@  000000014005f3b0     libucrt:nlsdata.obj
 0002:000033b8       ??_C@_08HCHEGEOA@November@ 000000014005f3b8     libucrt:nlsdata.obj
 0002:000033c8       ??_C@_08EDHMEBNP@December@ 000000014005f3c8     libucrt:nlsdata.obj
 0002:000033d4       ??_C@_02DEDBPAFC@AM@       000000014005f3d4     libucrt:nlsdata.obj
 0002:000033d8       ??_C@_02CJNFDJBF@PM@       000000014005f3d8     libucrt:nlsdata.obj
 0002:000033e0       ??_C@_08BPBNCDIB@MM?1dd?1yy@ 000000014005f3e0     libucrt:nlsdata.obj
 0002:000033f0       ??_C@_0BE@CKGJFCPC@dddd?0?5MMMM?5dd?0?5yyyy@ 000000014005f3f0     libucrt:nlsdata.obj
 0002:00003408       ??_C@_08JCCMCCIL@HH?3mm?3ss@ 000000014005f408     libucrt:nlsdata.obj
 0002:00003418       ??_C@_17MBGCMIPB@?$AAS?$AAu?$AAn@ 000000014005f418     libucrt:nlsdata.obj
 0002:00003420       ??_C@_17KBOMKBF@?$AAM?$AAo?$AAn@ 000000014005f420     libucrt:nlsdata.obj
 0002:00003428       ??_C@_17BMKGEGOJ@?$AAT?$AAu?$AAe@ 000000014005f428     libucrt:nlsdata.obj
 0002:00003430       ??_C@_17CJEDCEPE@?$AAW?$AAe?$AAd@ 000000014005f430     libucrt:nlsdata.obj
 0002:00003438       ??_C@_17PDPHAADD@?$AAT?$AAh?$AAu@ 000000014005f438     libucrt:nlsdata.obj
 0002:00003440       ??_C@_17HFOLPPLP@?$AAF?$AAr?$AAi@ 000000014005f440     libucrt:nlsdata.obj
 0002:00003448       ??_C@_17GGIBDPIH@?$AAS?$AAa?$AAt@ 000000014005f448     libucrt:nlsdata.obj
 0002:00003450       ??_C@_1O@IHNHDHPB@?$AAS?$AAu?$AAn?$AAd?$AAa?$AAy@ 000000014005f450     libucrt:nlsdata.obj
 0002:00003460       ??_C@_1O@MMNBFLIA@?$AAM?$AAo?$AAn?$AAd?$AAa?$AAy@ 000000014005f460     libucrt:nlsdata.obj
 0002:00003470       ??_C@_1BA@ENFBFFEK@?$AAT?$AAu?$AAe?$AAs?$AAd?$AAa?$AAy@ 000000014005f470     libucrt:nlsdata.obj
 0002:00003480       ??_C@_1BE@EBOGMDOH@?$AAW?$AAe?$AAd?$AAn?$AAe?$AAs?$AAd?$AAa?$AAy@ 000000014005f480     libucrt:nlsdata.obj
 0002:00003498       ??_C@_1BC@HHMNLIHE@?$AAT?$AAh?$AAu?$AAr?$AAs?$AAd?$AAa?$AAy@ 000000014005f498     libucrt:nlsdata.obj
 0002:000034b0       ??_C@_1O@PDICJHAG@?$AAF?$AAr?$AAi?$AAd?$AAa?$AAy@ 000000014005f4b0     libucrt:nlsdata.obj
 0002:000034c0       ??_C@_1BC@ENMNNPAJ@?$AAS?$AAa?$AAt?$AAu?$AAr?$AAd?$AAa?$AAy@ 000000014005f4c0     libucrt:nlsdata.obj
 0002:000034d8       ??_C@_17DKNBKCHM@?$AAJ?$AAa?$AAn@ 000000014005f4d8     libucrt:nlsdata.obj
 0002:000034e0       ??_C@_17LMDJEKJN@?$AAF?$AAe?$AAb@ 000000014005f4e0     libucrt:nlsdata.obj
 0002:000034e8       ??_C@_17CKNLEDEC@?$AAM?$AAa?$AAr@ 000000014005f4e8     libucrt:nlsdata.obj
 0002:000034f0       ??_C@_17LFPOIHDD@?$AAA?$AAp?$AAr@ 000000014005f4f0     libucrt:nlsdata.obj
 0002:000034f8       ??_C@_17PNNKMEED@?$AAM?$AAa?$AAy@ 000000014005f4f8     libucrt:nlsdata.obj
 0002:00003500       ??_C@_17KCJGOCPB@?$AAJ?$AAu?$AAn@ 000000014005f500     libucrt:nlsdata.obj
 0002:00003508       ??_C@_17IJPCKHK@?$AAJ?$AAu?$AAl@ 000000014005f508     libucrt:nlsdata.obj
 0002:00003510       ??_C@_17ICPELBCN@?$AAA?$AAu?$AAg@ 000000014005f510     libucrt:nlsdata.obj
 0002:00003518       ??_C@_17HCHCOKMG@?$AAS?$AAe?$AAp@ 000000014005f518     libucrt:nlsdata.obj
 0002:00003520       ??_C@_17FNLKOI@?$AAO?$AAc?$AAt@ 000000014005f520     libucrt:nlsdata.obj
 0002:00003528       ??_C@_17BBDMLCIG@?$AAN?$AAo?$AAv@ 000000014005f528     libucrt:nlsdata.obj
 0002:00003530       ??_C@_17EGKACKIF@?$AAD?$AAe?$AAc@ 000000014005f530     libucrt:nlsdata.obj
 0002:00003538       ??_C@_1BA@EFMEIEBA@?$AAJ?$AAa?$AAn?$AAu?$AAa?$AAr?$AAy@ 000000014005f538     libucrt:nlsdata.obj
 0002:00003548       ??_C@_1BC@JGDDFFAM@?$AAF?$AAe?$AAb?$AAr?$AAu?$AAa?$AAr?$AAy@ 000000014005f548     libucrt:nlsdata.obj
 0002:00003560       ??_C@_1M@IKEENEDF@?$AAM?$AAa?$AAr?$AAc?$AAh@ 000000014005f560     libucrt:nlsdata.obj
 0002:00003570       ??_C@_1M@GJNLMHFD@?$AAA?$AAp?$AAr?$AAi?$AAl@ 000000014005f570     libucrt:nlsdata.obj
 0002:00003580       ??_C@_19EPFLPGAP@?$AAJ?$AAu?$AAn?$AAe@ 000000014005f580     libucrt:nlsdata.obj
 0002:00003590       ??_C@_19BIFMLPCD@?$AAJ?$AAu?$AAl?$AAy@ 000000014005f590     libucrt:nlsdata.obj
 0002:000035a0       ??_C@_1O@PAHLKOAC@?$AAA?$AAu?$AAg?$AAu?$AAs?$AAt@ 000000014005f5a0     libucrt:nlsdata.obj
 0002:000035b0       ??_C@_1BE@DKAAMBJL@?$AAS?$AAe?$AAp?$AAt?$AAe?$AAm?$AAb?$AAe?$AAr@ 000000014005f5b0     libucrt:nlsdata.obj
 0002:000035c8       ??_C@_1BA@EPANDLNG@?$AAO?$AAc?$AAt?$AAo?$AAb?$AAe?$AAr@ 000000014005f5c8     libucrt:nlsdata.obj
 0002:000035d8       ??_C@_1BC@BGLIFPF@?$AAN?$AAo?$AAv?$AAe?$AAm?$AAb?$AAe?$AAr@ 000000014005f5d8     libucrt:nlsdata.obj
 0002:000035f0       ??_C@_1BC@FEMKIFH@?$AAD?$AAe?$AAc?$AAe?$AAm?$AAb?$AAe?$AAr@ 000000014005f5f0     libucrt:nlsdata.obj
 0002:00003604       ??_C@_15ODEHAHHF@?$AAA?$AAM@ 000000014005f604     libucrt:nlsdata.obj
 0002:0000360c       ??_C@_15CLMNNGEL@?$AAP?$AAM@ 000000014005f60c     libucrt:nlsdata.obj
 0002:00003618       ??_C@_1BC@IEBCMHCM@?$AAM?$AAM?$AA?1?$AAd?$AAd?$AA?1?$AAy?$AAy@ 000000014005f618     libucrt:nlsdata.obj
 0002:00003630       ??_C@_1CI@KNAKOEBC@?$AAd?$AAd?$AAd?$AAd?$AA?0?$AA?5?$AAM?$AAM?$AAM?$AAM?$AA?5?$AAd?$AAd?$AA?0?$AA?5@ 000000014005f630     libucrt:nlsdata.obj
 0002:00003658       ??_C@_1BC@GDGBMEMK@?$AAH?$AAH?$AA?3?$AAm?$AAm?$AA?3?$AAs?$AAs@ 000000014005f658     libucrt:nlsdata.obj
 0002:00003670       ??_C@_1M@BMHNFIME@?$AAe?$AAn?$AA?9?$AAU?$AAS@ 000000014005f670     libucrt:nlsdata.obj
 0002:000036a0       ??_C@_1M@HPNHIDJI@?$AAj?$AAa?$AA?9?$AAJ?$AAP@ 000000014005f6a0     libucrt:mbctype.obj
 0002:000036b0       ??_C@_1M@BIBDDEMK@?$AAz?$AAh?$AA?9?$AAC?$AAN@ 000000014005f6b0     libucrt:mbctype.obj
 0002:000036c0       ??_C@_1M@JLOOOEGK@?$AAk?$AAo?$AA?9?$AAK?$AAR@ 000000014005f6c0     libucrt:mbctype.obj
 0002:000036d0       ??_C@_1M@CLNBBOPM@?$AAz?$AAh?$AA?9?$AAT?$AAW@ 000000014005f6d0     libucrt:mbctype.obj
 0002:000036e0       __newctype                 000000014005f6e0     libucrt:ctype.obj
 0002:000039e0       __newclmap                 000000014005f9e0     libucrt:ctype.obj
 0002:00003b60       __newcumap                 000000014005fb60     libucrt:ctype.obj
 0002:00003ce0       _wctype                    000000014005fce0     libucrt:ctype.obj
 0002:00003ef0       __acrt_rg_language         000000014005fef0     libucrt:get_qualified_locale.obj
 0002:00004300       __acrt_rg_language_count   0000000140060300     libucrt:get_qualified_locale.obj
 0002:00004310       __acrt_rg_country          0000000140060310     libucrt:get_qualified_locale.obj
 0002:00004480       __acrt_rg_country_count    0000000140060480     libucrt:get_qualified_locale.obj
 0002:00004488       ??_C@_1BC@LLOKLNP@?$AAa?$AAm?$AAe?$AAr?$AAi?$AAc?$AAa?$AAn@ 0000000140060488     libucrt:get_qualified_locale.obj
 0002:000044a0       ??_C@_1CC@HEIGCDGG@?$AAa?$AAm?$AAe?$AAr?$AAi?$AAc?$AAa?$AAn?$AA?5?$AAe?$AAn?$AAg?$AAl?$AAi?$AAs@ 00000001400604a0     libucrt:get_qualified_locale.obj
 0002:000044c8       ??_C@_1CC@IHCNOMIN@?$AAa?$AAm?$AAe?$AAr?$AAi?$AAc?$AAa?$AAn?$AA?9?$AAe?$AAn?$AAg?$AAl?$AAi?$AAs@ 00000001400604c8     libucrt:get_qualified_locale.obj
 0002:000044f0       ??_C@_1BG@GKAGPCGG@?$AAa?$AAu?$AAs?$AAt?$AAr?$AAa?$AAl?$AAi?$AAa?$AAn@ 00000001400604f0     libucrt:get_qualified_locale.obj
 0002:00004508       ??_C@_1BA@GMENCENF@?$AAb?$AAe?$AAl?$AAg?$AAi?$AAa?$AAn@ 0000000140060508     libucrt:get_qualified_locale.obj
 0002:00004518       ??_C@_1BC@PJMIIAAN@?$AAc?$AAa?$AAn?$AAa?$AAd?$AAi?$AAa?$AAn@ 0000000140060518     libucrt:get_qualified_locale.obj
 0002:00004530       ??_C@_17NOIMNFBF@?$AAc?$AAh?$AAh@ 0000000140060530     libucrt:get_qualified_locale.obj
 0002:00004538       ??_C@_17GGDALCHA@?$AAc?$AAh?$AAi@ 0000000140060538     libucrt:get_qualified_locale.obj
 0002:00004540       ??_C@_1BA@NPNJKIBL@?$AAc?$AAh?$AAi?$AAn?$AAe?$AAs?$AAe@ 0000000140060540     libucrt:get_qualified_locale.obj
 0002:00004550       ??_C@_1CC@DINBAMMJ@?$AAc?$AAh?$AAi?$AAn?$AAe?$AAs?$AAe?$AA?9?$AAh?$AAo?$AAn?$AAg?$AAk?$AAo?$AAn@ 0000000140060550     libucrt:get_qualified_locale.obj
 0002:00004578       ??_C@_1CG@IOBJPACO@?$AAc?$AAh?$AAi?$AAn?$AAe?$AAs?$AAe?$AA?9?$AAs?$AAi?$AAm?$AAp?$AAl?$AAi?$AAf@ 0000000140060578     libucrt:get_qualified_locale.obj
 0002:000045a0       ??_C@_1CE@GAJNDCKG@?$AAc?$AAh?$AAi?$AAn?$AAe?$AAs?$AAe?$AA?9?$AAs?$AAi?$AAn?$AAg?$AAa?$AAp?$AAo@ 00000001400605a0     libucrt:get_qualified_locale.obj
 0002:000045c8       ??_C@_1CI@PAJPIOOD@?$AAc?$AAh?$AAi?$AAn?$AAe?$AAs?$AAe?$AA?9?$AAt?$AAr?$AAa?$AAd?$AAi?$AAt?$AAi@ 00000001400605c8     libucrt:get_qualified_locale.obj
 0002:000045f0       ??_C@_1BM@NILJBMMD@?$AAd?$AAu?$AAt?$AAc?$AAh?$AA?9?$AAb?$AAe?$AAl?$AAg?$AAi?$AAa?$AAn@ 00000001400605f0     libucrt:get_qualified_locale.obj
 0002:00004610       ??_C@_1CC@OOJPJNEJ@?$AAe?$AAn?$AAg?$AAl?$AAi?$AAs?$AAh?$AA?9?$AAa?$AAm?$AAe?$AAr?$AAi?$AAc?$AAa@ 0000000140060610     libucrt:get_qualified_locale.obj
 0002:00004638       ??_C@_1BI@IOLFEEM@?$AAe?$AAn?$AAg?$AAl?$AAi?$AAs?$AAh?$AA?9?$AAa?$AAu?$AAs@ 0000000140060638     libucrt:get_qualified_locale.obj
 0002:00004650       ??_C@_1BO@HFFNLENJ@?$AAe?$AAn?$AAg?$AAl?$AAi?$AAs?$AAh?$AA?9?$AAb?$AAe?$AAl?$AAi?$AAz?$AAe@ 0000000140060650     libucrt:get_qualified_locale.obj
 0002:00004670       ??_C@_1BI@HAPKJMPO@?$AAe?$AAn?$AAg?$AAl?$AAi?$AAs?$AAh?$AA?9?$AAc?$AAa?$AAn@ 0000000140060670     libucrt:get_qualified_locale.obj
 0002:00004688       ??_C@_1CE@HLNDMIOJ@?$AAe?$AAn?$AAg?$AAl?$AAi?$AAs?$AAh?$AA?9?$AAc?$AAa?$AAr?$AAi?$AAb?$AAb?$AAe@ 0000000140060688     libucrt:get_qualified_locale.obj
 0002:000046b0       ??_C@_1BI@LDHJHHAC@?$AAe?$AAn?$AAg?$AAl?$AAi?$AAs?$AAh?$AA?9?$AAi?$AAr?$AAe@ 00000001400606b0     libucrt:get_qualified_locale.obj
 0002:000046c8       ??_C@_1CA@NJMMCFOC@?$AAe?$AAn?$AAg?$AAl?$AAi?$AAs?$AAh?$AA?9?$AAj?$AAa?$AAm?$AAa?$AAi?$AAc?$AAa@ 00000001400606c8     libucrt:get_qualified_locale.obj
 0002:000046e8       ??_C@_1BG@BHJEBBGG@?$AAe?$AAn?$AAg?$AAl?$AAi?$AAs?$AAh?$AA?9?$AAn?$AAz@ 00000001400606e8     libucrt:get_qualified_locale.obj
 0002:00004700       ??_C@_1CK@FGOEJJCO@?$AAe?$AAn?$AAg?$AAl?$AAi?$AAs?$AAh?$AA?9?$AAs?$AAo?$AAu?$AAt?$AAh?$AA?5?$AAa@ 0000000140060700     libucrt:get_qualified_locale.obj
 0002:00004730       ??_C@_1DE@PDBJPCJ@?$AAe?$AAn?$AAg?$AAl?$AAi?$AAs?$AAh?$AA?9?$AAt?$AAr?$AAi?$AAn?$AAi?$AAd?$AAa@ 0000000140060730     libucrt:get_qualified_locale.obj
 0002:00004768       ??_C@_1BG@JGCANDME@?$AAe?$AAn?$AAg?$AAl?$AAi?$AAs?$AAh?$AA?9?$AAu?$AAk@ 0000000140060768     libucrt:get_qualified_locale.obj
 0002:00004780       ??_C@_1BG@DINKMLE@?$AAe?$AAn?$AAg?$AAl?$AAi?$AAs?$AAh?$AA?9?$AAu?$AAs@ 0000000140060780     libucrt:get_qualified_locale.obj
 0002:00004798       ??_C@_1BI@NMFDBHJE@?$AAe?$AAn?$AAg?$AAl?$AAi?$AAs?$AAh?$AA?9?$AAu?$AAs?$AAa@ 0000000140060798     libucrt:get_qualified_locale.obj
 0002:000047b0       ??_C@_1BO@OIHKJKII@?$AAf?$AAr?$AAe?$AAn?$AAc?$AAh?$AA?9?$AAb?$AAe?$AAl?$AAg?$AAi?$AAa?$AAn@ 00000001400607b0     libucrt:get_qualified_locale.obj
 0002:000047d0       ??_C@_1CA@NKAELJKI@?$AAf?$AAr?$AAe?$AAn?$AAc?$AAh?$AA?9?$AAc?$AAa?$AAn?$AAa?$AAd?$AAi?$AAa?$AAn@ 00000001400607d0     libucrt:get_qualified_locale.obj
 0002:000047f0       ??_C@_1CE@MGKCNLGN@?$AAf?$AAr?$AAe?$AAn?$AAc?$AAh?$AA?9?$AAl?$AAu?$AAx?$AAe?$AAm?$AAb?$AAo?$AAu@ 00000001400607f0     libucrt:get_qualified_locale.obj
 0002:00004818       ??_C@_1BK@CEGEAILM@?$AAf?$AAr?$AAe?$AAn?$AAc?$AAh?$AA?9?$AAs?$AAw?$AAi?$AAs?$AAs@ 0000000140060818     libucrt:get_qualified_locale.obj
 0002:00004838       ??_C@_1CA@PAFKEOCC@?$AAg?$AAe?$AAr?$AAm?$AAa?$AAn?$AA?9?$AAa?$AAu?$AAs?$AAt?$AAr?$AAi?$AAa?$AAn@ 0000000140060838     libucrt:get_qualified_locale.obj
 0002:00004858       ??_C@_1CI@HCFHGOFD@?$AAg?$AAe?$AAr?$AAm?$AAa?$AAn?$AA?9?$AAl?$AAi?$AAc?$AAh?$AAt?$AAe?$AAn?$AAs@ 0000000140060858     libucrt:get_qualified_locale.obj
 0002:00004880       ??_C@_1CE@FEDDNPDG@?$AAg?$AAe?$AAr?$AAm?$AAa?$AAn?$AA?9?$AAl?$AAu?$AAx?$AAe?$AAm?$AAb?$AAo?$AAu@ 0000000140060880     libucrt:get_qualified_locale.obj
 0002:000048a8       ??_C@_1BK@LIMINNMN@?$AAg?$AAe?$AAr?$AAm?$AAa?$AAn?$AA?9?$AAs?$AAw?$AAi?$AAs?$AAs@ 00000001400608a8     libucrt:get_qualified_locale.obj
 0002:000048c8       ??_C@_1BM@LGMDBEPD@?$AAi?$AAr?$AAi?$AAs?$AAh?$AA?9?$AAe?$AAn?$AAg?$AAl?$AAi?$AAs?$AAh@ 00000001400608c8     libucrt:get_qualified_locale.obj
 0002:000048e8       ??_C@_1BM@NNCFBAEE@?$AAi?$AAt?$AAa?$AAl?$AAi?$AAa?$AAn?$AA?9?$AAs?$AAw?$AAi?$AAs?$AAs@ 00000001400608e8     libucrt:get_qualified_locale.obj
 0002:00004908       ??_C@_1BE@FEDJNPIB@?$AAn?$AAo?$AAr?$AAw?$AAe?$AAg?$AAi?$AAa?$AAn@ 0000000140060908     libucrt:get_qualified_locale.obj
 0002:00004920       ??_C@_1CC@CILKDEIE@?$AAn?$AAo?$AAr?$AAw?$AAe?$AAg?$AAi?$AAa?$AAn?$AA?9?$AAb?$AAo?$AAk?$AAm?$AAa@ 0000000140060920     libucrt:get_qualified_locale.obj
 0002:00004948       ??_C@_1CE@DHMMHEPL@?$AAn?$AAo?$AAr?$AAw?$AAe?$AAg?$AAi?$AAa?$AAn?$AA?9?$AAn?$AAy?$AAn?$AAo?$AAr@ 0000000140060948     libucrt:get_qualified_locale.obj
 0002:00004970       ??_C@_1CK@OPNMHECD@?$AAp?$AAo?$AAr?$AAt?$AAu?$AAg?$AAu?$AAe?$AAs?$AAe?$AA?9?$AAb?$AAr?$AAa?$AAz@ 0000000140060970     libucrt:get_qualified_locale.obj
 0002:000049a0       ??_C@_1CE@KEEHCDB@?$AAs?$AAp?$AAa?$AAn?$AAi?$AAs?$AAh?$AA?9?$AAa?$AAr?$AAg?$AAe?$AAn?$AAt?$AAi@ 00000001400609a0     libucrt:get_qualified_locale.obj
 0002:000049c8       ??_C@_1CA@GIAOLHJD@?$AAs?$AAp?$AAa?$AAn?$AAi?$AAs?$AAh?$AA?9?$AAb?$AAo?$AAl?$AAi?$AAv?$AAi?$AAa@ 00000001400609c8     libucrt:get_qualified_locale.obj
 0002:000049e8       ??_C@_1BM@OJNDFNPD@?$AAs?$AAp?$AAa?$AAn?$AAi?$AAs?$AAh?$AA?9?$AAc?$AAh?$AAi?$AAl?$AAe@ 00000001400609e8     libucrt:get_qualified_locale.obj
 0002:00004a08       ??_C@_1CC@OCOLPALL@?$AAs?$AAp?$AAa?$AAn?$AAi?$AAs?$AAh?$AA?9?$AAc?$AAo?$AAl?$AAo?$AAm?$AAb?$AAi@ 0000000140060a08     libucrt:get_qualified_locale.obj
 0002:00004a30       ??_C@_1CG@BPOFMKBB@?$AAs?$AAp?$AAa?$AAn?$AAi?$AAs?$AAh?$AA?9?$AAc?$AAo?$AAs?$AAt?$AAa?$AA?5?$AAr@ 0000000140060a30     libucrt:get_qualified_locale.obj
 0002:00004a58       ??_C@_1DG@IGOBAPBB@?$AAs?$AAp?$AAa?$AAn?$AAi?$AAs?$AAh?$AA?9?$AAd?$AAo?$AAm?$AAi?$AAn?$AAi?$AAc@ 0000000140060a58     libucrt:get_qualified_locale.obj
 0002:00004a90       ??_C@_1CA@JHAPGEGI@?$AAs?$AAp?$AAa?$AAn?$AAi?$AAs?$AAh?$AA?9?$AAe?$AAc?$AAu?$AAa?$AAd?$AAo?$AAr@ 0000000140060a90     libucrt:get_qualified_locale.obj
 0002:00004ab0       ??_C@_1CI@LAPALJPP@?$AAs?$AAp?$AAa?$AAn?$AAi?$AAs?$AAh?$AA?9?$AAe?$AAl?$AA?5?$AAs?$AAa?$AAl?$AAv@ 0000000140060ab0     libucrt:get_qualified_locale.obj
 0002:00004ad8       ??_C@_1CE@PDGBOFOM@?$AAs?$AAp?$AAa?$AAn?$AAi?$AAs?$AAh?$AA?9?$AAg?$AAu?$AAa?$AAt?$AAe?$AAm?$AAa@ 0000000140060ad8     libucrt:get_qualified_locale.obj
 0002:00004b00       ??_C@_1CC@NBEBAODI@?$AAs?$AAp?$AAa?$AAn?$AAi?$AAs?$AAh?$AA?9?$AAh?$AAo?$AAn?$AAd?$AAu?$AAr?$AAa@ 0000000140060b00     libucrt:get_qualified_locale.obj
 0002:00004b28       ??_C@_1CA@LLKGHBMF@?$AAs?$AAp?$AAa?$AAn?$AAi?$AAs?$AAh?$AA?9?$AAm?$AAe?$AAx?$AAi?$AAc?$AAa?$AAn@ 0000000140060b28     libucrt:get_qualified_locale.obj
 0002:00004b48       ??_C@_1BO@LKNDOIGD@?$AAs?$AAp?$AAa?$AAn?$AAi?$AAs?$AAh?$AA?9?$AAm?$AAo?$AAd?$AAe?$AAr?$AAn@ 0000000140060b48     libucrt:get_qualified_locale.obj
 0002:00004b68       ??_C@_1CE@NMDMOEEB@?$AAs?$AAp?$AAa?$AAn?$AAi?$AAs?$AAh?$AA?9?$AAn?$AAi?$AAc?$AAa?$AAr?$AAa?$AAg@ 0000000140060b68     libucrt:get_qualified_locale.obj
 0002:00004b90       ??_C@_1BO@LLCBEJGB@?$AAs?$AAp?$AAa?$AAn?$AAi?$AAs?$AAh?$AA?9?$AAp?$AAa?$AAn?$AAa?$AAm?$AAa@ 0000000140060b90     libucrt:get_qualified_locale.obj
 0002:00004bb0       ??_C@_1CC@FKPGGIHO@?$AAs?$AAp?$AAa?$AAn?$AAi?$AAs?$AAh?$AA?9?$AAp?$AAa?$AAr?$AAa?$AAg?$AAu?$AAa@ 0000000140060bb0     libucrt:get_qualified_locale.obj
 0002:00004bd8       ??_C@_1BK@CDEIHOOP@?$AAs?$AAp?$AAa?$AAn?$AAi?$AAs?$AAh?$AA?9?$AAp?$AAe?$AAr?$AAu@ 0000000140060bd8     libucrt:get_qualified_locale.obj
 0002:00004bf8       ??_C@_1CI@GAHAKKGP@?$AAs?$AAp?$AAa?$AAn?$AAi?$AAs?$AAh?$AA?9?$AAp?$AAu?$AAe?$AAr?$AAt?$AAo?$AA?5@ 0000000140060bf8     libucrt:get_qualified_locale.obj
 0002:00004c20       ??_C@_1CA@NKJBCAGP@?$AAs?$AAp?$AAa?$AAn?$AAi?$AAs?$AAh?$AA?9?$AAu?$AAr?$AAu?$AAg?$AAu?$AAa?$AAy@ 0000000140060c20     libucrt:get_qualified_locale.obj
 0002:00004c40       ??_C@_1CE@ODILCONM@?$AAs?$AAp?$AAa?$AAn?$AAi?$AAs?$AAh?$AA?9?$AAv?$AAe?$AAn?$AAe?$AAz?$AAu?$AAe@ 0000000140060c40     libucrt:get_qualified_locale.obj
 0002:00004c68       ??_C@_1CA@OBNMCGFO@?$AAs?$AAw?$AAe?$AAd?$AAi?$AAs?$AAh?$AA?9?$AAf?$AAi?$AAn?$AAl?$AAa?$AAn?$AAd@ 0000000140060c68     libucrt:get_qualified_locale.obj
 0002:00004c88       ??_C@_1M@PIPDDPPI@?$AAs?$AAw?$AAi?$AAs?$AAs@ 0000000140060c88     libucrt:get_qualified_locale.obj
 0002:00004c94       ??_C@_15PJPFLCCM@?$AAu?$AAk@ 0000000140060c94     libucrt:get_qualified_locale.obj
 0002:00004c9c       ??_C@_15GMFIMNFM@?$AAu?$AAs@ 0000000140060c9c     libucrt:get_qualified_locale.obj
 0002:00004ca8       ??_C@_17HAEBFAGL@?$AAu?$AAs?$AAa@ 0000000140060ca8     libucrt:get_qualified_locale.obj
 0002:00004cb0       ??_C@_1BA@DPFJEPHB@?$AAa?$AAm?$AAe?$AAr?$AAi?$AAc?$AAa@ 0000000140060cb0     libucrt:get_qualified_locale.obj
 0002:00004cc0       ??_C@_1BA@ELOGGFK@?$AAb?$AAr?$AAi?$AAt?$AAa?$AAi?$AAn@ 0000000140060cc0     libucrt:get_qualified_locale.obj
 0002:00004cd0       ??_C@_1M@GHBGIGDA@?$AAc?$AAh?$AAi?$AAn?$AAa@ 0000000140060cd0     libucrt:get_qualified_locale.obj
 0002:00004ce0       ??_C@_1M@NCHEJOPO@?$AAc?$AAz?$AAe?$AAc?$AAh@ 0000000140060ce0     libucrt:get_qualified_locale.obj
 0002:00004cf0       ??_C@_1BA@BKPAPBLA@?$AAe?$AAn?$AAg?$AAl?$AAa?$AAn?$AAd@ 0000000140060cf0     libucrt:get_qualified_locale.obj
 0002:00004d00       ??_C@_1BM@HKBCKIPC@?$AAg?$AAr?$AAe?$AAa?$AAt?$AA?5?$AAb?$AAr?$AAi?$AAt?$AAa?$AAi?$AAn@ 0000000140060d00     libucrt:get_qualified_locale.obj
 0002:00004d20       ??_C@_1BA@PPCHPGJB@?$AAh?$AAo?$AAl?$AAl?$AAa?$AAn?$AAd@ 0000000140060d20     libucrt:get_qualified_locale.obj
 0002:00004d30       ??_C@_1BE@JBMPEGDG@?$AAh?$AAo?$AAn?$AAg?$AA?9?$AAk?$AAo?$AAn?$AAg@ 0000000140060d30     libucrt:get_qualified_locale.obj
 0002:00004d48       ??_C@_1BI@KOELBBPJ@?$AAn?$AAe?$AAw?$AA?9?$AAz?$AAe?$AAa?$AAl?$AAa?$AAn?$AAd@ 0000000140060d48     libucrt:get_qualified_locale.obj
 0002:00004d60       ??_C@_15HIEBHAIO@?$AAn?$AAz@ 0000000140060d60     libucrt:get_qualified_locale.obj
 0002:00004d68       ??_C@_1BC@CHBCPFPI@?$AAp?$AAr?$AA?5?$AAc?$AAh?$AAi?$AAn?$AAa@ 0000000140060d68     libucrt:get_qualified_locale.obj
 0002:00004d80       ??_C@_1BC@JAOIIFKD@?$AAp?$AAr?$AA?9?$AAc?$AAh?$AAi?$AAn?$AAa@ 0000000140060d80     libucrt:get_qualified_locale.obj
 0002:00004d98       ??_C@_1BI@BEHPPHKC@?$AAp?$AAu?$AAe?$AAr?$AAt?$AAo?$AA?9?$AAr?$AAi?$AAc?$AAo@ 0000000140060d98     libucrt:get_qualified_locale.obj
 0002:00004db0       ??_C@_1O@PAEOFKDI@?$AAs?$AAl?$AAo?$AAv?$AAa?$AAk@ 0000000140060db0     libucrt:get_qualified_locale.obj
 0002:00004dc0       ??_C@_1BK@FIHMCKAM@?$AAs?$AAo?$AAu?$AAt?$AAh?$AA?5?$AAa?$AAf?$AAr?$AAi?$AAc?$AAa@ 0000000140060dc0     libucrt:get_qualified_locale.obj
 0002:00004de0       ??_C@_1BI@NAEOODKB@?$AAs?$AAo?$AAu?$AAt?$AAh?$AA?5?$AAk?$AAo?$AAr?$AAe?$AAa@ 0000000140060de0     libucrt:get_qualified_locale.obj
 0002:00004df8       ??_C@_1BK@FBDGGIFF@?$AAs?$AAo?$AAu?$AAt?$AAh?$AA?9?$AAa?$AAf?$AAr?$AAi?$AAc?$AAa@ 0000000140060df8     libucrt:get_qualified_locale.obj
 0002:00004e18       ??_C@_1BI@GHLEJDPK@?$AAs?$AAo?$AAu?$AAt?$AAh?$AA?9?$AAk?$AAo?$AAr?$AAe?$AAa@ 0000000140060e18     libucrt:get_qualified_locale.obj
 0002:00004e30       ??_C@_1CE@PLHLOMJF@?$AAt?$AAr?$AAi?$AAn?$AAi?$AAd?$AAa?$AAd?$AA?5?$AA?$CG?$AA?5?$AAt?$AAo?$AAb?$AAa@ 0000000140060e30     libucrt:get_qualified_locale.obj
 0002:00004e58       ??_C@_1BO@MODIMHHI@?$AAu?$AAn?$AAi?$AAt?$AAe?$AAd?$AA?9?$AAk?$AAi?$AAn?$AAg?$AAd?$AAo?$AAm@ 0000000140060e58     libucrt:get_qualified_locale.obj
 0002:00004e78       ??_C@_1BM@FFHJONBJ@?$AAu?$AAn?$AAi?$AAt?$AAe?$AAd?$AA?9?$AAs?$AAt?$AAa?$AAt?$AAe?$AAs@ 0000000140060e78     libucrt:get_qualified_locale.obj
 0002:00004e98       ??_C@_19MPDNHKDG@?$AAu?$AAt?$AAf?$AA8@ 0000000140060e98     libucrt:get_qualified_locale.obj
 0002:00004ea8       ??_C@_17DNCLJFIF@?$AAA?$AAC?$AAP@ 0000000140060ea8     libucrt:get_qualified_locale.obj
 0002:00004eb0       ??_C@_1M@FPEIIFAM@?$AAu?$AAt?$AAf?$AA?9?$AA8@ 0000000140060eb0     libucrt:get_qualified_locale.obj
 0002:00004ec0       ??_C@_17CIKBIHLH@?$AAO?$AAC?$AAP@ 0000000140060ec0     libucrt:get_qualified_locale.obj
 0002:00004ec8       __rglangidNotDefault       0000000140060ec8     libucrt:getqloc_downlevel.obj
 0002:00005d20       ??_C@_15EMKDOKLE@?$AAa?$AAr@ 0000000140061d20     libucrt:lcidtoname_downlevel.obj
 0002:00005d28       ??_C@_15KNPADPLH@?$AAb?$AAg@ 0000000140061d28     libucrt:lcidtoname_downlevel.obj
 0002:00005d30       ??_C@_15EDMHLDMO@?$AAc?$AAa@ 0000000140061d30     libucrt:lcidtoname_downlevel.obj
 0002:00005d38       ??_C@_1O@BPEAJADD@?$AAz?$AAh?$AA?9?$AAC?$AAH?$AAS@ 0000000140061d38     libucrt:lcidtoname_downlevel.obj
 0002:00005d48       ??_C@_15LJNHCMNK@?$AAc?$AAs@ 0000000140061d48     libucrt:lcidtoname_downlevel.obj
 0002:00005d50       ??_C@_15FOMCIDHG@?$AAd?$AAa@ 0000000140061d50     libucrt:lcidtoname_downlevel.obj
 0002:00005d58       ??_C@_15NBKABECB@?$AAd?$AAe@ 0000000140061d58     libucrt:lcidtoname_downlevel.obj
 0002:00005d60       ??_C@_15GHPEIIAO@?$AAe?$AAl@ 0000000140061d60     libucrt:lcidtoname_downlevel.obj
 0002:00005d68       ??_C@_15MNPNEAIF@?$AAe?$AAn@ 0000000140061d68     libucrt:lcidtoname_downlevel.obj
 0002:00005d70       ??_C@_15GPIOMPMH@?$AAe?$AAs@ 0000000140061d70     libucrt:lcidtoname_downlevel.obj
 0002:00005d78       ??_C@_15NGLOAKJC@?$AAf?$AAi@ 0000000140061d78     libucrt:lcidtoname_downlevel.obj
 0002:00005d80       ??_C@_15FBKGNKAM@?$AAf?$AAr@ 0000000140061d80     libucrt:lcidtoname_downlevel.obj
 0002:00005d88       ??_C@_15KGGCNEFK@?$AAh?$AAe@ 0000000140061d88     libucrt:lcidtoname_downlevel.obj
 0002:00005d90       ??_C@_15PGHLIDMF@?$AAh?$AAu@ 0000000140061d90     libucrt:lcidtoname_downlevel.obj
 0002:00005d98       ??_C@_15BIEMAPLM@?$AAi?$AAs@ 0000000140061d98     libucrt:lcidtoname_downlevel.obj
 0002:00005da0       ??_C@_15IFJLDHAF@?$AAi?$AAt@ 0000000140061da0     libucrt:lcidtoname_downlevel.obj
 0002:00005da8       ??_C@_15GEMIOCAG@?$AAj?$AAa@ 0000000140061da8     libucrt:lcidtoname_downlevel.obj
 0002:00005db0       ??_C@_15EPELEGJA@?$AAk?$AAo@ 0000000140061db0     libucrt:lcidtoname_downlevel.obj
 0002:00005db8       ??_C@_15NDDHIMN@?$AAn?$AAl@ 0000000140061db8     libucrt:lcidtoname_downlevel.obj
 0002:00005dc0       ??_C@_15BPIGNHCD@?$AAn?$AAo@ 0000000140061dc0     libucrt:lcidtoname_downlevel.obj
 0002:00005dc8       ??_C@_15DEOPBLCG@?$AAp?$AAl@ 0000000140061dc8     libucrt:lcidtoname_downlevel.obj
 0002:00005dd0       ??_C@_15KBECGEFG@?$AAp?$AAt@ 0000000140061dd0     libucrt:lcidtoname_downlevel.obj
 0002:00005dd8       ??_C@_15GLJCBFMD@?$AAr?$AAo@ 0000000140061dd8     libucrt:lcidtoname_downlevel.obj
 0002:00005de0       ??_C@_15FEDGKCDI@?$AAr?$AAu@ 0000000140061de0     libucrt:lcidtoname_downlevel.obj
 0002:00005de8       ??_C@_15GLKMLLHM@?$AAh?$AAr@ 0000000140061de8     libucrt:lcidtoname_downlevel.obj
 0002:00005df0       ??_C@_15CPKMFBDB@?$AAs?$AAk@ 0000000140061df0     libucrt:lcidtoname_downlevel.obj
 0002:00005df8       ??_C@_15BAAIOGMK@?$AAs?$AAq@ 0000000140061df8     libucrt:lcidtoname_downlevel.obj
 0002:00005e00       ??_C@_15INNPNOHD@?$AAs?$AAv@ 0000000140061e00     libucrt:lcidtoname_downlevel.obj
 0002:00005e08       ??_C@_15CABMMOGH@?$AAt?$AAh@ 0000000140061e08     libucrt:lcidtoname_downlevel.obj
 0002:00005e10       ??_C@_15BPLIHJJM@?$AAt?$AAr@ 0000000140061e10     libucrt:lcidtoname_downlevel.obj
 0002:00005e18       ??_C@_15NEOEKKDJ@?$AAu?$AAr@ 0000000140061e18     libucrt:lcidtoname_downlevel.obj
 0002:00005e20       ??_C@_15NFICGAJK@?$AAi?$AAd@ 0000000140061e20     libucrt:lcidtoname_downlevel.obj
 0002:00005e28       ??_C@_15HPJPHDM@?$AAb?$AAe@ 0000000140061e28     libucrt:lcidtoname_downlevel.obj
 0002:00005e30       ??_C@_15LCHLGJII@?$AAs?$AAl@ 0000000140061e30     libucrt:lcidtoname_downlevel.obj
 0002:00005e38       ??_C@_15PCFJPHHO@?$AAe?$AAt@ 0000000140061e38     libucrt:lcidtoname_downlevel.obj
 0002:00005e40       ??_C@_15HPFPGODN@?$AAl?$AAv@ 0000000140061e40     libucrt:lcidtoname_downlevel.obj
 0002:00005e48       ??_C@_15NFFGKGLG@?$AAl?$AAt@ 0000000140061e48     libucrt:lcidtoname_downlevel.obj
 0002:00005e50       ??_C@_15BDAKCCHN@?$AAf?$AAa@ 0000000140061e50     libucrt:lcidtoname_downlevel.obj
 0002:00005e58       ??_C@_15NFGIAIAJ@?$AAv?$AAi@ 0000000140061e58     libucrt:lcidtoname_downlevel.obj
 0002:00005e60       ??_C@_15LMKNDMHN@?$AAh?$AAy@ 0000000140061e60     libucrt:lcidtoname_downlevel.obj
 0002:00005e68       ??_C@_15IJBHMCFL@?$AAa?$AAz@ 0000000140061e68     libucrt:lcidtoname_downlevel.obj
 0002:00005e70       ??_C@_15EKOFJABL@?$AAe?$AAu@ 0000000140061e70     libucrt:lcidtoname_downlevel.obj
 0002:00005e78       ??_C@_15BGHADCNK@?$AAm?$AAk@ 0000000140061e78     libucrt:lcidtoname_downlevel.obj
 0002:00005e80       ??_C@_15JDNICKHM@?$AAa?$AAf@ 0000000140061e80     libucrt:lcidtoname_downlevel.obj
 0002:00005e88       ??_C@_15KPJEDBKD@?$AAk?$AAa@ 0000000140061e88     libucrt:lcidtoname_downlevel.obj
 0002:00005e90       ??_C@_15PDNFFFEO@?$AAf?$AAo@ 0000000140061e90     libucrt:lcidtoname_downlevel.obj
 0002:00005e98       ??_C@_15OMLEGLOC@?$AAh?$AAi@ 0000000140061e98     libucrt:lcidtoname_downlevel.obj
 0002:00005ea0       ??_C@_15IDNNENKK@?$AAm?$AAs@ 0000000140061ea0     libucrt:lcidtoname_downlevel.obj
 0002:00005ea8       ??_C@_15MACJNBMH@?$AAk?$AAk@ 0000000140061ea8     libucrt:lcidtoname_downlevel.obj
 0002:00005eb0       ??_C@_15DKDJEOND@?$AAk?$AAy@ 0000000140061eb0     libucrt:lcidtoname_downlevel.obj
 0002:00005eb8       ??_C@_15DFGDLJBG@?$AAs?$AAw@ 0000000140061eb8     libucrt:lcidtoname_downlevel.obj
 0002:00005ec0       ??_C@_15BBFAICNG@?$AAu?$AAz@ 0000000140061ec0     libucrt:lcidtoname_downlevel.obj
 0002:00005ec8       ??_C@_15DKNDCGEA@?$AAt?$AAt@ 0000000140061ec8     libucrt:lcidtoname_downlevel.obj
 0002:00005ed0       ??_C@_15MGIFMDPL@?$AAp?$AAa@ 0000000140061ed0     libucrt:lcidtoname_downlevel.obj
 0002:00005ed8       ??_C@_15HCNDBBA@?$AAg?$AAu@ 0000000140061ed8     libucrt:lcidtoname_downlevel.obj
 0002:00005ee0       ??_C@_15FNBEIBON@?$AAt?$AAa@ 0000000140061ee0     libucrt:lcidtoname_downlevel.obj
 0002:00005ee8       ??_C@_15NCHGBGLK@?$AAt?$AAe@ 0000000140061ee8     libucrt:lcidtoname_downlevel.obj
 0002:00005ef0       ??_C@_15PHPHCBPF@?$AAk?$AAn@ 0000000140061ef0     libucrt:lcidtoname_downlevel.obj
 0002:00005ef8       ??_C@_15DLGBCKMP@?$AAm?$AAr@ 0000000140061ef8     libucrt:lcidtoname_downlevel.obj
 0002:00005f00       ??_C@_15EABBLBFF@?$AAs?$AAa@ 0000000140061f00     libucrt:lcidtoname_downlevel.obj
 0002:00005f08       ??_C@_15CBKOMCOI@?$AAm?$AAn@ 0000000140061f08     libucrt:lcidtoname_downlevel.obj
 0002:00005f10       ??_C@_15CKDMCJAF@?$AAg?$AAl@ 0000000140061f10     libucrt:lcidtoname_downlevel.obj
 0002:00005f18       ??_C@_17CNJFBPG@?$AAk?$AAo?$AAk@ 0000000140061f18     libucrt:lcidtoname_downlevel.obj
 0002:00005f20       ??_C@_17FFBJICPL@?$AAs?$AAy?$AAr@ 0000000140061f20     libucrt:lcidtoname_downlevel.obj
 0002:00005f28       ??_C@_17KPNDCPAF@?$AAd?$AAi?$AAv@ 0000000140061f28     libucrt:lcidtoname_downlevel.obj
 0002:00005f30       ??_C@_11LOCGONAA@@         0000000140061f30     libucrt:lcidtoname_downlevel.obj
 0002:00005f38       ??_C@_1M@OKAHONE@?$AAa?$AAr?$AA?9?$AAS?$AAA@ 0000000140061f38     libucrt:lcidtoname_downlevel.obj
 0002:00005f48       ??_C@_1M@FFFIGIGK@?$AAb?$AAg?$AA?9?$AAB?$AAG@ 0000000140061f48     libucrt:lcidtoname_downlevel.obj
 0002:00005f58       ??_C@_1M@BJNKEDC@?$AAc?$AAa?$AA?9?$AAE?$AAS@ 0000000140061f58     libucrt:lcidtoname_downlevel.obj
 0002:00005f68       ??_C@_1M@IJJHFJHA@?$AAc?$AAs?$AA?9?$AAC?$AAZ@ 0000000140061f68     libucrt:lcidtoname_downlevel.obj
 0002:00005f78       ??_C@_1M@CLPEOBGI@?$AAd?$AAa?$AA?9?$AAD?$AAK@ 0000000140061f78     libucrt:lcidtoname_downlevel.obj
 0002:00005f88       ??_C@_1M@MCMADGCB@?$AAd?$AAe?$AA?9?$AAD?$AAE@ 0000000140061f88     libucrt:lcidtoname_downlevel.obj
 0002:00005f98       ??_C@_1M@OOCKEMAM@?$AAe?$AAl?$AA?9?$AAG?$AAR@ 0000000140061f98     libucrt:lcidtoname_downlevel.obj
 0002:00005fa8       ??_C@_1M@DDNJFGID@?$AAf?$AAi?$AA?9?$AAF?$AAI@ 0000000140061fa8     libucrt:lcidtoname_downlevel.obj
 0002:00005fb8       ??_C@_1M@GLIPPMAC@?$AAf?$AAr?$AA?9?$AAF?$AAR@ 0000000140061fb8     libucrt:lcidtoname_downlevel.obj
 0002:00005fc8       ??_C@_1M@GFMCHPE@?$AAh?$AAe?$AA?9?$AAI?$AAL@ 0000000140061fc8     libucrt:lcidtoname_downlevel.obj
 0002:00005fd8       ??_C@_1M@MHLPGNKM@?$AAh?$AAu?$AA?9?$AAH?$AAU@ 0000000140061fd8     libucrt:lcidtoname_downlevel.obj
 0002:00005fe8       ??_C@_1M@LPDDNNPN@?$AAi?$AAs?$AA?9?$AAI?$AAS@ 0000000140061fe8     libucrt:lcidtoname_downlevel.obj
 0002:00005ff8       ??_C@_1M@MADIPODN@?$AAi?$AAt?$AA?9?$AAI?$AAT@ 0000000140061ff8     libucrt:lcidtoname_downlevel.obj
 0002:00006008       ??_C@_1M@IHBJJGG@?$AAn?$AAl?$AA?9?$AAN?$AAL@ 0000000140062008     libucrt:lcidtoname_downlevel.obj
 0002:00006018       ??_C@_1M@EANAGDL@?$AAn?$AAb?$AA?9?$AAN?$AAO@ 0000000140062018     libucrt:lcidtoname_downlevel.obj
 0002:00006028       ??_C@_1M@NEIEMEGP@?$AAp?$AAl?$AA?9?$AAP?$AAL@ 0000000140062028     libucrt:lcidtoname_downlevel.obj
 0002:00006038       ??_C@_1M@BOCFIGEP@?$AAp?$AAt?$AA?9?$AAB?$AAR@ 0000000140062038     libucrt:lcidtoname_downlevel.obj
 0002:00006048       ??_C@_1M@IMPFOPBG@?$AAr?$AAo?$AA?9?$AAR?$AAO@ 0000000140062048     libucrt:lcidtoname_downlevel.obj
 0002:00006058       ??_C@_1M@IDNNEJMM@?$AAr?$AAu?$AA?9?$AAR?$AAU@ 0000000140062058     libucrt:lcidtoname_downlevel.obj
 0002:00006068       ??_C@_1M@LILEEOGM@?$AAh?$AAr?$AA?9?$AAH?$AAR@ 0000000140062068     libucrt:lcidtoname_downlevel.obj
 0002:00006078       ??_C@_1M@FKIFEHPB@?$AAs?$AAk?$AA?9?$AAS?$AAK@ 0000000140062078     libucrt:lcidtoname_downlevel.obj
 0002:00006088       ??_C@_1M@LJMAMNPJ@?$AAs?$AAq?$AA?9?$AAA?$AAL@ 0000000140062088     libucrt:lcidtoname_downlevel.obj
 0002:00006098       ??_C@_1M@GIAKDKJK@?$AAs?$AAv?$AA?9?$AAS?$AAE@ 0000000140062098     libucrt:lcidtoname_downlevel.obj
 0002:000060a8       ??_C@_1M@MKJKIKCL@?$AAt?$AAh?$AA?9?$AAT?$AAH@ 00000001400620a8     libucrt:lcidtoname_downlevel.obj
 0002:000060b8       ??_C@_1M@MFLCCMPB@?$AAt?$AAr?$AA?9?$AAT?$AAR@ 00000001400620b8     libucrt:lcidtoname_downlevel.obj
 0002:000060c8       ??_C@_1M@OIJHDKJN@?$AAu?$AAr?$AA?9?$AAP?$AAK@ 00000001400620c8     libucrt:lcidtoname_downlevel.obj
 0002:000060d8       ??_C@_1M@LHIPCIEK@?$AAi?$AAd?$AA?9?$AAI?$AAD@ 00000001400620d8     libucrt:lcidtoname_downlevel.obj
 0002:000060e8       ??_C@_1M@MFMOBGI@?$AAu?$AAk?$AA?9?$AAU?$AAA@ 00000001400620e8     libucrt:lcidtoname_downlevel.obj
 0002:000060f8       ??_C@_1M@OBGLJIPL@?$AAb?$AAe?$AA?9?$AAB?$AAY@ 00000001400620f8     libucrt:lcidtoname_downlevel.obj
 0002:00006108       ??_C@_1M@BCFAJEAD@?$AAs?$AAl?$AA?9?$AAS?$AAI@ 0000000140062108     libucrt:lcidtoname_downlevel.obj
 0002:00006118       ??_C@_1M@FKFFEDDN@?$AAe?$AAt?$AA?9?$AAE?$AAE@ 0000000140062118     libucrt:lcidtoname_downlevel.obj
 0002:00006128       ??_C@_1M@KGKKAACI@?$AAl?$AAv?$AA?9?$AAL?$AAV@ 0000000140062128     libucrt:lcidtoname_downlevel.obj
 0002:00006138       ??_C@_1M@IFGBIJO@?$AAl?$AAt?$AA?9?$AAL?$AAT@ 0000000140062138     libucrt:lcidtoname_downlevel.obj
