 test-win-seh

 Timestamp is 63fa29a3 (Sat Feb 25 23:30:43 2023)

 Preferred load address is 0000000140000000

 Start         Length     Name                   Class
 0001:00000000 0005af00H .text$mn                CODE
 0001:0005af00 00000040H .text$mn$00             CODE
 0001:0005af40 00000ab0H .text$x                 CODE
 0002:00000000 000002d0H .idata$5                DATA
 0002:000002d0 00000038H .00cfg                  DATA
 0002:00000308 00000008H .CRT$XCA                DATA
 0002:00000310 00000008H .CRT$XCAA               DATA
 0002:00000318 00000008H .CRT$XCZ                DATA
 0002:00000320 00000008H .CRT$XIA                DATA
 0002:00000328 00000008H .CRT$XIAA               DATA
 0002:00000330 00000008H .CRT$XIAC               DATA
 0002:00000338 00000020H .CRT$XIC                DATA
 0002:00000358 00000008H .CRT$XIZ                DATA
 0002:00000360 00000008H .CRT$XPA                DATA
 0002:00000368 00000010H .CRT$XPX                DATA
 0002:00000378 00000008H .CRT$XPXA               DATA
 0002:00000380 00000008H .CRT$XPZ                DATA
 0002:00000388 00000008H .CRT$XTA                DATA
 0002:00000390 00000010H .CRT$XTZ                DATA
 0002:00000398 00000000H .gehcont$y              DATA
 0002:00000398 00000000H .gfids$y                DATA
 0002:000003a0 0000aa60H .rdata                  DATA
 0002:0000ae00 00000080H .rdata$CastGuardVftablesA DATA
 0002:0000ae80 00000080H .rdata$CastGuardVftablesC DATA
 0002:0000af00 00000464H .rdata$r                DATA
 0002:0000b364 00000688H .rdata$voltmd           DATA
 0002:0000b9ec 000003ccH .rdata$zzzdbg           DATA
 0002:0000bdb8 00000008H .rtc$IAA                DATA
 0002:0000bdc0 00000008H .rtc$IZZ                DATA
 0002:0000bdc8 00000008H .rtc$TAA                DATA
 0002:0000bdd0 00000008H .rtc$TZZ                DATA
 0002:0000bdd8 00005d48H .xdata                  DATA
 0002:00011b20 00000084H .xdata$x                DATA
 0002:00011ba4 00000000H .edata                  DATA
 0002:00011ba4 00000014H .idata$2                DATA
 0002:00011bb8 00000018H .idata$3                DATA
 0002:00011bd0 000002d0H .idata$4                DATA
 0002:00011ea0 00000682H .idata$6                DATA
 0003:00000000 00000a70H .data                   DATA
 0003:00000a70 00000078H .data$r                 DATA
 0003:00000ae8 000000f8H .data$rs                DATA
 0003:00000be0 00001a58H .bss                    DATA
 0004:00000000 000047e8H .pdata                  DATA
 0005:00000000 0000015cH _RDATA                  DATA
 0006:00000000 00000060H .rsrc$01                DATA
 0006:00000060 00000180H .rsrc$02                DATA

  Address         Publics by Value              Rva+Base               Lib:Object

 0000:00000000       __AbsoluteZero             0000000000000000     <absolute>
 0000:00000000       ___safe_se_handler_count   0000000000000000     <absolute>
 0000:00000000       ___safe_se_handler_table   0000000000000000     <absolute>
 0000:00000000       __arm64x_extra_rfe_table   0000000000000000     <absolute>
 0000:00000000       __arm64x_extra_rfe_table_size 0000000000000000     <absolute>
 0000:00000000       __arm64x_native_entrypoint 0000000000000000     <absolute>
 0000:00000000       __arm64x_redirection_metadata 0000000000000000     <absolute>
 0000:00000000       __arm64x_redirection_metadata_count 0000000000000000     <absolute>
 0000:00000000       __dynamic_value_reloc_table 0000000000000000     <absolute>
 0000:00000000       __enclave_config           0000000000000000     <absolute>
 0000:00000000       __guard_check_icall_a64n_fptr 0000000000000000     <absolute>
 0000:00000000       __guard_eh_cont_count      0000000000000000     <absolute>
 0000:00000000       __guard_eh_cont_table      0000000000000000     <absolute>
 0000:00000000       __guard_fids_count         0000000000000000     <absolute>
 0000:00000000       __guard_fids_table         0000000000000000     <absolute>
 0000:00000000       __guard_iat_count          0000000000000000     <absolute>
 0000:00000000       __guard_iat_table          0000000000000000     <absolute>
 0000:00000000       __guard_longjmp_count      0000000000000000     <absolute>
 0000:00000000       __guard_longjmp_table      0000000000000000     <absolute>
 0000:00000000       __hybrid_auxiliary_iat     0000000000000000     <absolute>
 0000:00000000       __hybrid_auxiliary_iat_copy 0000000000000000     <absolute>
 0000:00000000       __hybrid_code_map          0000000000000000     <absolute>
 0000:00000000       __hybrid_code_map_count    0000000000000000     <absolute>
 0000:00000000       __x64_code_ranges_to_entry_points 0000000000000000     <absolute>
 0000:00000000       __x64_code_ranges_to_entry_points_count 0000000000000000     <absolute>
 0000:00000100       __guard_flags              0000000000000100     <absolute>
 0000:00000000       __ImageBase                0000000140000000     <linker-defined>
 0001:00000000       ?seh_filer@@YAHH@Z         0000000140001000 f   main.obj
 0001:000002b0       __local_stdio_printf_options 00000001400012b0 f i main.obj
 0001:000002c0       main                       00000001400012c0 f   main.obj
 0001:000002f0       msvc_SEH_1                 00000001400012f0 f   main.obj
 0001:00000330       msvc_SEH_2                 0000000140001330 f   main.obj
 0001:00000370       msvc_SEH_3                 0000000140001370 f   main.obj
 0001:000003b0       msvc_SEH_4                 00000001400013b0 f   main.obj
 0001:000003f0       msvc_SEH_5                 00000001400013f0 f   main.obj
 0001:00000430       msvc_SEH_6                 0000000140001430 f   main.obj
 0001:00000460       printf                     0000000140001460 f i main.obj
 0001:000004b3       RaiseException             00000001400014b3 f   kernel32:KERNEL32.dll
 0001:00000730       ?configure_argv@__scrt_narrow_argv_policy@@SAHXZ 0000000140001730 f i LIBCMT:exe_main.obj
 0001:00000744       ?initialize_environment@__scrt_narrow_environment_policy@@SAHXZ 0000000140001744 f i LIBCMT:exe_main.obj
 0001:00000784       ?set_app_type@__scrt_main_policy@@SAXXZ 0000000140001784 f i LIBCMT:exe_main.obj
 0001:00000790       ?set_commode@__scrt_file_policy@@SAXXZ 0000000140001790 f i LIBCMT:exe_main.obj
 0001:000007ac       ?set_fmode@__scrt_file_policy@@SAXXZ 00000001400017ac f i LIBCMT:exe_main.obj
 0001:000007c0       mainCRTStartup             00000001400017c0 f   LIBCMT:exe_main.obj
 0001:00000850       NtCurrentTeb               0000000140001850 f i LIBCMT:utility.obj
 0001:0000085c       __scrt_acquire_startup_lock 000000014000185c f   LIBCMT:utility.obj
 0001:00000898       __scrt_dllmain_after_initialize_c 0000000140001898 f   LIBCMT:utility.obj
 0001:000008cc       __scrt_dllmain_before_initialize_c 00000001400018cc f   LIBCMT:utility.obj
 0001:000008e4       __scrt_dllmain_crt_thread_attach 00000001400018e4 f   LIBCMT:utility.obj
 0001:0000090c       __scrt_dllmain_crt_thread_detach 000000014000190c f   LIBCMT:utility.obj
 0001:00000924       __scrt_dllmain_exception_filter 0000000140001924 f   LIBCMT:utility.obj
 0001:00000984       __scrt_dllmain_uninitialize_c 0000000140001984 f   LIBCMT:utility.obj
 0001:000009b4       __scrt_dllmain_uninitialize_critical 00000001400019b4 f   LIBCMT:utility.obj
 0001:000009c8       __scrt_initialize_crt      00000001400019c8 f   LIBCMT:utility.obj
 0001:00000a14       __scrt_initialize_onexit_tables 0000000140001a14 f   LIBCMT:utility.obj
 0001:00000aa0       __scrt_is_nonwritable_in_current_image 0000000140001aa0 f   LIBCMT:utility.obj
 0001:00000b38       __scrt_release_startup_lock 0000000140001b38 f   LIBCMT:utility.obj
 0001:00000b5c       __scrt_uninitialize_crt    0000000140001b5c f   LIBCMT:utility.obj
 0001:00000b88       _onexit                    0000000140001b88 f   LIBCMT:utility.obj
 0001:00000bc4       at_quick_exit              0000000140001bc4 f   LIBCMT:utility.obj
 0001:00000be4       atexit                     0000000140001be4 f   LIBCMT:utility.obj
 0001:00000c68       __security_init_cookie     0000000140001c68 f   LIBCMT:gs_support.obj
 0001:00000d14       _matherr                   0000000140001d14 f   LIBCMT:matherr.obj
 0001:00000d18       _get_startup_argv_mode     0000000140001d18 f   LIBCMT:argv_mode.obj
 0001:00000d20       _get_startup_commit_mode   0000000140001d20 f   LIBCMT:commit_mode.obj
 0001:00000d24       _get_startup_file_mode     0000000140001d24 f   LIBCMT:file_mode.obj
 0001:00000d2c       _get_startup_new_mode      0000000140001d2c f   LIBCMT:new_mode.obj
 0001:00000d30       _get_startup_thread_locale_mode 0000000140001d30 f   LIBCMT:thread_locale.obj
 0001:00000d34       ?__scrt_initialize_type_info@@YAXXZ 0000000140001d34 f   LIBCMT:tncleanup.obj
 0001:00000d44       ?__scrt_uninitialize_type_info@@YAXXZ 0000000140001d44 f   LIBCMT:tncleanup.obj
 0001:00000d50       _should_initialize_environment 0000000140001d50 f   LIBCMT:env_mode.obj
 0001:00000d54       _initialize_invalid_parameter_handler 0000000140001d54 f   LIBCMT:invalid_parameter_handler.obj
 0001:00000d58       _initialize_denormal_control 0000000140001d58 f   LIBCMT:denormal_control.obj
 0001:00000d5c       __local_stdio_scanf_options 0000000140001d5c f i LIBCMT:default_local_stdio_options.obj
 0001:00000d64       __scrt_initialize_default_local_stdio_options 0000000140001d64 f   LIBCMT:default_local_stdio_options.obj
 0001:00000d80       __scrt_is_user_matherr_present 0000000140001d80 f   LIBCMT:matherr_detection.obj
 0001:00000d8c       __scrt_get_dyn_tls_init_callback 0000000140001d8c f   LIBCMT:dyn_tls_init.obj
 0001:00000d94       __scrt_get_dyn_tls_dtor_callback 0000000140001d94 f   LIBCMT:dyn_tls_dtor.obj
 0001:00000d9c       __crt_debugger_hook        0000000140001d9c f   LIBCMT:utility_desktop.obj
 0001:00000da4       __scrt_fastfail            0000000140001da4 f   LIBCMT:utility_desktop.obj
 0001:00000ef0       __scrt_get_show_window_mode 0000000140001ef0 f   LIBCMT:utility_desktop.obj
 0001:00000f2c       __scrt_initialize_mta      0000000140001f2c f   LIBCMT:utility_desktop.obj
 0001:00000f34       __scrt_initialize_winrt    0000000140001f34 f   LIBCMT:utility_desktop.obj
 0001:00000f38       __scrt_is_managed_app      0000000140001f38 f   LIBCMT:utility_desktop.obj
 0001:00000f8c       __scrt_set_unhandled_exception_filter 0000000140001f8c f   LIBCMT:utility_desktop.obj
 0001:00000f9c       __scrt_exe_initialize_mta  0000000140001f9c f   LIBCMT:utility_desktop.obj
 0001:00000f9c       __scrt_stub_for_initialize_mta 0000000140001f9c f   LIBCMT:utility_desktop.obj
 0001:00000fa0       __scrt_unhandled_exception_filter 0000000140001fa0 f   LIBCMT:utility_desktop.obj
 0001:00000ffc       _RTC_Initialize            0000000140001ffc f   LIBCMT:initsect.obj
 0001:00001038       _RTC_Terminate             0000000140002038 f   LIBCMT:initsect.obj
 0001:00001074       _guard_check_icall_nop     0000000140002074 f i LIBCMT:guard_support.obj
 0001:00001078       ReadNoFence64              0000000140002078 f i LIBCMT:guard_support.obj
 0001:0000107c       ReadPointerNoFence         000000014000207c f i LIBCMT:guard_support.obj
 0001:00001080       __castguard_check_failure_debugbreak 0000000140002080 f i LIBCMT:guard_support.obj
 0001:0000109c       __castguard_check_failure_fastfail 000000014000209c f i LIBCMT:guard_support.obj
 0001:000010c0       __castguard_check_failure_nop 00000001400020c0 f i LIBCMT:guard_support.obj
 0001:000010c4       __castguard_check_failure_os_handled 00000001400020c4 f i LIBCMT:guard_support.obj
 0001:00001140       __castguard_slow_path_check_debugbreak 0000000140002140 f i LIBCMT:guard_support.obj
 0001:00001174       __castguard_slow_path_check_fastfail 0000000140002174 f i LIBCMT:guard_support.obj
 0001:000011b0       __castguard_slow_path_check_nop 00000001400021b0 f i LIBCMT:guard_support.obj
 0001:000011b4       __castguard_slow_path_check_os_handled 00000001400021b4 f i LIBCMT:guard_support.obj
 0001:00001224       _guard_icall_checks_enforced 0000000140002224 f i LIBCMT:guard_support.obj
 0001:0000123c       _guard_rf_checks_enforced  000000014000223c f i LIBCMT:guard_support.obj
 0001:00001240       __isa_available_init       0000000140002240 f   LIBCMT:cpu_disp.obj
 0001:000013ec       __scrt_is_ucrt_dll_in_use  00000001400023ec f   LIBCMT:ucrt_detection.obj
 0001:00001400       __C_specific_handler       0000000140002400 f   libvcruntime:riscchandler.obj
 0001:000015f8       _local_unwind              00000001400025f8 f   libvcruntime:jmpuwind.obj
 0001:00001624       __vcrt_initialize          0000000140002624 f   libvcruntime:initialization.obj
 0001:0000164c       __vcrt_thread_attach       000000014000264c f   libvcruntime:initialization.obj
 0001:00001660       __vcrt_thread_detach       0000000140002660 f   libvcruntime:initialization.obj
 0001:00001674       __vcrt_uninitialize        0000000140002674 f   libvcruntime:initialization.obj
 0001:00001690       __vcrt_uninitialize_critical 0000000140002690 f   libvcruntime:initialization.obj
 0001:000016b4       ??$?RD@__crt_internal_free_policy@@QEBAXQEBD@Z 00000001400026b4 f i libvcruntime:std_type_info.obj
 0001:000016bc       ??$?RX@__crt_internal_free_policy@@QEBAXQEBX@Z 00000001400026bc f i libvcruntime:std_type_info.obj
 0001:000016c4       ??$__crt_interlocked_compare_exchange_pointer@$$CBDPEAD$$T@@YAPEBDPEDSEBDQEAD$$T@Z 00000001400026c4 f i libvcruntime:std_type_info.obj
 0001:000016d0       ??$__crt_interlocked_read_pointer@$$CBD@@YAPEBDPEDSEBD@Z 00000001400026d0 f i libvcruntime:std_type_info.obj
 0001:000016d8       ??0?$__crt_unique_heap_ptr@DU__crt_internal_free_policy@@@@QEAA@QEAD@Z 00000001400026d8 f i libvcruntime:std_type_info.obj
 0001:000016e0       ??0?$__crt_unique_heap_ptr@XU__crt_internal_free_policy@@@@QEAA@QEAX@Z 00000001400026e0 f i libvcruntime:std_type_info.obj
 0001:000016e8       ??1?$__crt_unique_heap_ptr@DU__crt_internal_free_policy@@@@QEAA@XZ 00000001400026e8 f i libvcruntime:std_type_info.obj
 0001:00001704       ??1?$__crt_unique_heap_ptr@XU__crt_internal_free_policy@@@@QEAA@XZ 0000000140002704 f i libvcruntime:std_type_info.obj
 0001:00001720       ??B?$__crt_unique_heap_ptr@DU__crt_internal_free_policy@@@@QEBA_NXZ 0000000140002720 f i libvcruntime:std_type_info.obj
 0001:00001728       ??B?$__crt_unique_heap_ptr@XU__crt_internal_free_policy@@@@QEBA_NXZ 0000000140002728 f i libvcruntime:std_type_info.obj
 0001:00001740       ?__crt_interlocked_read_64@@YA_JPED_J@Z 0000000140002740 f i libvcruntime:std_type_info.obj
 0001:00001748       ?detach@?$__crt_unique_heap_ptr@XU__crt_internal_free_policy@@@@QEAAPEAXXZ 0000000140002748 f i libvcruntime:std_type_info.obj
 0001:00001750       ?get@?$__crt_unique_heap_ptr@DU__crt_internal_free_policy@@@@QEBAPEADXZ 0000000140002750 f i libvcruntime:std_type_info.obj
 0001:00001754       ?get@?$__crt_unique_heap_ptr@XU__crt_internal_free_policy@@@@QEBAPEAXXZ 0000000140002754 f i libvcruntime:std_type_info.obj
 0001:00001758       ?is_valid@?$__crt_unique_heap_ptr@DU__crt_internal_free_policy@@@@QEBA_NXZ 0000000140002758 f i libvcruntime:std_type_info.obj
 0001:00001760       ?is_valid@?$__crt_unique_heap_ptr@XU__crt_internal_free_policy@@@@QEBA_NXZ 0000000140002760 f i libvcruntime:std_type_info.obj
 0001:00001768       ?release@?$__crt_unique_heap_ptr@DU__crt_internal_free_policy@@@@QEAAXXZ 0000000140002768 f i libvcruntime:std_type_info.obj
 0001:00001784       ?release@?$__crt_unique_heap_ptr@XU__crt_internal_free_policy@@@@QEAAXXZ 0000000140002784 f i libvcruntime:std_type_info.obj
 0001:000017a0       __std_type_info_compare    00000001400027a0 f   libvcruntime:std_type_info.obj
 0001:000017c8       __std_type_info_destroy_list 00000001400027c8 f   libvcruntime:std_type_info.obj
 0001:000017f4       __std_type_info_hash       00000001400027f4 f   libvcruntime:std_type_info.obj
 0001:0000182c       __std_type_info_name       000000014000282c f   libvcruntime:std_type_info.obj
 0001:00001944       __DestructExceptionObject  0000000140002944 f   libvcruntime:ehhelpers.obj
 0001:000019b4       ?_CallMemberFunction0@@YAXQEAX0@Z 00000001400029b4 f i libvcruntime:ehhelpers.obj
 0001:00001a10       ?raw_name@type_info@@QEBAPEBDXZ 0000000140002a10 f i libvcruntime:ehhelpers.obj
 0001:00001a18       _IsExceptionObjectToBeDestroyed 0000000140002a18 f   libvcruntime:ehhelpers.obj
 0001:00001a48       _SetWinRTOutOfMemoryExceptionCallback 0000000140002a48 f   libvcruntime:ehhelpers.obj
 0001:00001a50       __AdjustPointer            0000000140002a50 f   libvcruntime:ehhelpers.obj
 0001:00001a74       __FrameUnwindFilter        0000000140002a74 f   libvcruntime:ehhelpers.obj
 0001:00001adc       __GetPlatformExceptionInfo 0000000140002adc f   libvcruntime:ehhelpers.obj
 0001:00001b38       __current_exception        0000000140002b38 f   libvcruntime:ehhelpers.obj
 0001:00001b4c       __current_exception_context 0000000140002b4c f   libvcruntime:ehhelpers.obj
 0001:00001b60       __processing_throw         0000000140002b60 f   libvcruntime:ehhelpers.obj
 0001:00001b74       __std_terminate            0000000140002b74 f   libvcruntime:ehhelpers.obj
 0001:00001b80       _is_exception_typeof       0000000140002b80 f   libvcruntime:ehhelpers.obj
 0001:00001c40       memset_repstos             0000000140002c40 f   libvcruntime:memset.obj
 0001:00001c60       memset                     0000000140002c60 f   libvcruntime:memset.obj
 0001:00002000       _NLG_Notify                0000000140003000 f   libvcruntime:notify.obj
 0001:00002020       __NLG_Dispatch2            0000000140003020 f   libvcruntime:notify.obj
 0001:00002030       __NLG_Return2              0000000140003030 f   libvcruntime:notify.obj
 0001:0000203c       __except_validate_context_record 000000014000303c f   libvcruntime:jbcxrval.obj
 0001:00002074       __except_validate_jump_buffer 0000000140003074 f   libvcruntime:jbcxrval.obj
 0001:000020b4       __except_validate_jump_buffer_common 00000001400030b4 f i libvcruntime:jbcxrval.obj
 0001:00002110       ??$?RU__vcrt_ptd@@@__crt_internal_free_policy@@QEBAXQEBU__vcrt_ptd@@@Z 0000000140003110 f i libvcruntime:per_thread_data.obj
 0001:00002118       ??0?$__crt_unique_heap_ptr@U__vcrt_ptd@@U__crt_internal_free_policy@@@@QEAA@QEAU__vcrt_ptd@@@Z 0000000140003118 f i libvcruntime:per_thread_data.obj
 0001:0000213c       ??1?$__crt_unique_heap_ptr@U__vcrt_ptd@@U__crt_internal_free_policy@@@@QEAA@XZ 000000014000313c f i libvcruntime:per_thread_data.obj
 0001:00002164       ??B?$__crt_unique_heap_ptr@U__vcrt_ptd@@U__crt_internal_free_policy@@@@QEBA_NXZ 0000000140003164 f i libvcruntime:per_thread_data.obj
 0001:0000216c       ?detach@?$__crt_unique_heap_ptr@U__vcrt_ptd@@U__crt_internal_free_policy@@@@QEAAPEAU__vcrt_ptd@@XZ 000000014000316c f i libvcruntime:per_thread_data.obj
 0001:00002174       ?get@?$__crt_unique_heap_ptr@U__vcrt_ptd@@U__crt_internal_free_policy@@@@QEBAPEAU__vcrt_ptd@@XZ 0000000140003174 f i libvcruntime:per_thread_data.obj
 0001:00002178       ?is_valid@?$__crt_unique_heap_ptr@U__vcrt_ptd@@U__crt_internal_free_policy@@@@QEBA_NXZ 0000000140003178 f i libvcruntime:per_thread_data.obj
 0001:00002180       ?release@?$__crt_unique_heap_ptr@U__vcrt_ptd@@U__crt_internal_free_policy@@@@QEAAXXZ 0000000140003180 f i libvcruntime:per_thread_data.obj
 0001:000021c8       __vcrt_freefls             00000001400031c8 f   libvcruntime:per_thread_data.obj
 0001:000021e8       __vcrt_freeptd             00000001400031e8 f   libvcruntime:per_thread_data.obj
 0001:00002238       __vcrt_getptd              0000000140003238 f   libvcruntime:per_thread_data.obj
 0001:00002254       __vcrt_getptd_noexit       0000000140003254 f   libvcruntime:per_thread_data.obj
 0001:00002314       __vcrt_getptd_noinit       0000000140003314 f   libvcruntime:per_thread_data.obj
 0001:00002364       __vcrt_initialize_ptd      0000000140003364 f   libvcruntime:per_thread_data.obj
 0001:000023ac       __vcrt_uninitialize_ptd    00000001400033ac f   libvcruntime:per_thread_data.obj
 0001:000023d0       __vcrt_initialize_locks    00000001400033d0 f   libvcruntime:locks.obj
 0001:00002418       __vcrt_lock                0000000140003418 f   libvcruntime:locks.obj
 0001:00002434       __vcrt_uninitialize_locks  0000000140003434 f   libvcruntime:locks.obj
 0001:0000246c       __vcrt_unlock              000000014000346c f   libvcruntime:locks.obj
 0001:00002488       ??$?0$00@DName@@QEAA@PEBDU?$StringLifeSelector@$00@@@Z 0000000140003488 f i libvcruntime:undname.obj
 0001:000024c8       ??$?0$00@pcharNode@@QEAA@PEBDHU?$StringLifeSelector@$00@@@Z 00000001400034c8 f i libvcruntime:undname.obj
 0001:000024e0       ??$?0$01@DName@@QEAA@PEBDU?$StringLifeSelector@$01@@@Z 00000001400034e0 f i libvcruntime:undname.obj
 0001:00002520       ??$?0$01@pcharNode@@QEAA@PEBDHU?$StringLifeSelector@$01@@@Z 0000000140003520 f i libvcruntime:undname.obj
 0001:00002594       ??$?0$0A@@DName@@QEAA@PEBDU?$StringLifeSelector@$0A@@@@Z 0000000140003594 f i libvcruntime:undname.obj
 0001:000025d4       ??$?0$0A@@pcharNode@@QEAA@PEBDHU?$StringLifeSelector@$0A@@@@Z 00000001400035d4 f i libvcruntime:undname.obj
 0001:00002648       ??$?0_K$0A@@?$optional@_K@std@@QEAA@$$QEA_K@Z 0000000140003648 f i libvcruntime:undname.obj
 0001:00002658       ??$?0_K@?$_Optional_construct_base@_K@std@@QEAA@Uin_place_t@1@$$QEA_K@Z 0000000140003658 f i libvcruntime:undname.obj
 0001:00002668       ??$?0_K@?$_Optional_destruct_base@_K$00@std@@QEAA@Uin_place_t@1@$$QEA_K@Z 0000000140003668 f i libvcruntime:undname.obj
 0001:00002678       ??$append@VDNameNode@@@DName@@AEAAXPEBVDNameNode@@@Z 0000000140003678 f i libvcruntime:undname.obj
 0001:000026dc       ??$append@VDNameStatusNode@@@DName@@AEAAXPEBVDNameStatusNode@@@Z 00000001400036dc f i libvcruntime:undname.obj
 0001:00002740       ??$append@VcharNode@@@DName@@AEAAXPEBVcharNode@@@Z 0000000140003740 f i libvcruntime:undname.obj
 0001:000027a4       ??$append@VpDNameNode@@@DName@@AEAAXPEBVpDNameNode@@@Z 00000001400037a4 f i libvcruntime:undname.obj
 0001:00002808       ??$append@VpcharNode@@@DName@@AEAAXPEBVpcharNode@@@Z 0000000140003808 f i libvcruntime:undname.obj
 0001:0000286c       ??$doPchar@$00@DName@@AEAAXPEBDH@Z 000000014000386c f i libvcruntime:undname.obj
 0001:00002910       ??$doPchar@$01@DName@@AEAAXPEBDH@Z 0000000140003910 f i libvcruntime:undname.obj
 0001:000029a8       ??$doPchar@$0A@@DName@@AEAAXPEBDH@Z 00000001400039a8 f i libvcruntime:undname.obj
 0001:00002a40       ??$forward@_K@std@@YA$$QEA_KAEA_K@Z 0000000140003a40 f i libvcruntime:undname.obj
 0001:00002b60       ??$size@D$04@std@@YA_KAEAY04$$CBD@Z 0000000140003b60 f i libvcruntime:undname.obj
 0001:00002b68       ??0?$_Optional_construct_base@_K@std@@QEAA@XZ 0000000140003b68 f i libvcruntime:undname.obj
 0001:00002b70       ??0?$_Optional_destruct_base@_K$00@std@@QEAA@XZ 0000000140003b70 f i libvcruntime:undname.obj
 0001:00002b78       ??0?$optional@_K@std@@QEAA@XZ 0000000140003b78 f i libvcruntime:undname.obj
 0001:00002b80       ??0Block@_HeapManager@@QEAA@XZ 0000000140003b80 f i libvcruntime:undname.obj
 0001:00002b88       ??0DName@@QEAA@AEAPEBDD@Z  0000000140003b88 f   libvcruntime:undname.obj
 0001:00002c38       ??0DName@@QEAA@AEBUStringLiteral@@@Z 0000000140003c38 f   libvcruntime:undname.obj
 0001:00002c64       ??0DName@@QEAA@AEBV0@@Z    0000000140003c64 f i libvcruntime:undname.obj
 0001:00002c74       ??0DName@@QEAA@D@Z         0000000140003c74 f   libvcruntime:undname.obj
 0001:00002c94       ??0DName@@QEAA@PEAV0@@Z    0000000140003c94 f   libvcruntime:undname.obj
 0001:00002d18       ??0DName@@QEAA@W4DNameStatus@@@Z 0000000140003d18 f   libvcruntime:undname.obj
 0001:00002d48       ??0DName@@QEAA@XZ          0000000140003d48 f i libvcruntime:undname.obj
 0001:00002d54       ??0DName@@QEAA@_J@Z        0000000140003d54 f   libvcruntime:undname.obj
 0001:00002dfc       ??0DName@@QEAA@_K@Z        0000000140003dfc f   libvcruntime:undname.obj
 0001:00002e84       ??0DNameNode@@IEAA@XZ      0000000140003e84 f i libvcruntime:undname.obj
 0001:00002e94       ??0Replicator@@QEAA@XZ     0000000140003e94 f i libvcruntime:undname.obj
 0001:00002ea8       ??0UnDecorator@@QEAA@PEBDP6APEADJ@ZK@Z 0000000140003ea8 f i libvcruntime:undname.obj
 0001:00002ef8       ??0_Nontrivial_dummy_type@std@@QEAA@XZ 0000000140003ef8 f i libvcruntime:undname.obj
 0001:00002efc       ??0charNode@@QEAA@D@Z      0000000140003efc f i libvcruntime:undname.obj
 0001:00002f10       ??0pDNameNode@@QEAA@PEAVDName@@@Z 0000000140003f10 f   libvcruntime:undname.obj
 0001:00002f38       ??0pairNode@@QEAA@PEBVDNameNode@@0@Z 0000000140003f38 f i libvcruntime:undname.obj
 0001:00002f5c       ??2@YAPEAX_KAEAV_HeapManager@@H@Z 0000000140003f5c f   libvcruntime:undname.obj
 0001:00002f88       ??4DName@@QEAAAEAV0@AEBUStringLiteral@@@Z 0000000140003f88 f   libvcruntime:undname.obj
 0001:00002fb0       ??4DName@@QEAAAEAV0@AEBV0@@Z 0000000140003fb0 f   libvcruntime:undname.obj
 0001:00002fc0       ??4DName@@QEAAAEAV0@D@Z    0000000140003fc0 f i libvcruntime:undname.obj
 0001:00002fe0       ??4DName@@QEAAAEAV0@PEAV0@@Z 0000000140003fe0 f   libvcruntime:undname.obj
 0001:00003058       ??4DName@@QEAAAEAV0@W4DNameStatus@@@Z 0000000140004058 f   libvcruntime:undname.obj
 0001:00003088       ??AReplicator@@QEBA?AVDName@@H@Z 0000000140004088 f   libvcruntime:undname.obj
 0001:000030c8       ??B?$optional@_K@std@@QEBA_NXZ 00000001400040c8 f i libvcruntime:undname.obj
 0001:000030cc       ??D?$_Optional_construct_base@_K@std@@QEGAAAEA_KXZ 00000001400040cc f i libvcruntime:undname.obj
 0001:000030d0       ??H@YA?AVDName@@AEBUStringLiteral@@AEBV0@@Z 00000001400040d0 f i libvcruntime:undname.obj
 0001:00003108       ??H@YA?AVDName@@DAEBV0@@Z  0000000140004108 f i libvcruntime:undname.obj
 0001:0000314c       ??H@YA?AVDName@@W4DNameStatus@@AEBV0@@Z 000000014000414c f i libvcruntime:undname.obj
 0001:00003198       ??HDName@@QEBA?AV0@AEBUStringLiteral@@@Z 0000000140004198 f   libvcruntime:undname.obj
 0001:000031c4       ??HDName@@QEBA?AV0@AEBV0@@Z 00000001400041c4 f   libvcruntime:undname.obj
 0001:000031f0       ??HDName@@QEBA?AV0@D@Z     00000001400041f0 f   libvcruntime:undname.obj
 0001:0000321c       ??HDName@@QEBA?AV0@PEAV0@@Z 000000014000421c f   libvcruntime:undname.obj
 0001:00003248       ??HDName@@QEBA?AV0@W4DNameStatus@@@Z 0000000140004248 f   libvcruntime:undname.obj
 0001:00003274       ??HStringLiteral@@QEBA?AU0@H@Z 0000000140004274 f i libvcruntime:undname.obj
 0001:0000328c       ??YDName@@QEAAAEAV0@AEBUStringLiteral@@@Z 000000014000428c f   libvcruntime:undname.obj
 0001:0000330c       ??YDName@@QEAAAEAV0@AEBV0@@Z 000000014000430c f   libvcruntime:undname.obj
 0001:00003364       ??YDName@@QEAAAEAV0@D@Z    0000000140004364 f   libvcruntime:undname.obj
 0001:000033d0       ??YDName@@QEAAAEAV0@PEAV0@@Z 00000001400043d0 f   libvcruntime:undname.obj
 0001:00003464       ??YDName@@QEAAAEAV0@W4DNameStatus@@@Z 0000000140004464 f   libvcruntime:undname.obj
 0001:000034bc       ??YReplicator@@QEAAAEAV0@AEBVDName@@@Z 00000001400044bc f   libvcruntime:undname.obj
 0001:00003514       ??_5DName@@QEAAAEAV0@AEBV0@@Z 0000000140004514 f   libvcruntime:undname.obj
 0001:0000352c       ??__K_l@@YA?AUStringLiteral@@PEBD_K@Z 000000014000452c f i libvcruntime:undname.obj
 0001:00003538       ?Constructor@_HeapManager@@QEAAXP6APEAX_K@ZP6AXPEAX@Z@Z 0000000140004538 f i libvcruntime:undname.obj
 0001:00003550       ?Destructor@_HeapManager@@QEAAXXZ 0000000140004550 f i libvcruntime:undname.obj
 0001:0000359c       ?UScore@UnDecorator@@SA?AUStringLiteral@@W4Tokens@@@Z 000000014000459c f   libvcruntime:undname.obj
 0001:000035e8       ?composeDeclaration@UnDecorator@@CA?AVDName@@AEBV2@@Z 00000001400045e8 f i libvcruntime:undname.obj
 0001:000044dc       ?doAccessSpecifiers@UnDecorator@@SAHXZ 00000001400054dc f i libvcruntime:undname.obj
 0001:000044ec       ?doAllocationLanguage@UnDecorator@@SAHXZ 00000001400054ec f i libvcruntime:undname.obj
 0001:000044fc       ?doAllocationModel@UnDecorator@@SAHXZ 00000001400054fc f i libvcruntime:undname.obj
 0001:0000450c       ?doEcsu@UnDecorator@@SAHXZ 000000014000550c f i libvcruntime:undname.obj
 0001:0000451c       ?doEllipsis@UnDecorator@@SAHXZ 000000014000551c f i libvcruntime:undname.obj
 0001:0000452c       ?doFunctionReturns@UnDecorator@@SAHXZ 000000014000552c f i libvcruntime:undname.obj
 0001:0000453c       ?doMSKeywords@UnDecorator@@SAHXZ 000000014000553c f i libvcruntime:undname.obj
 0001:0000454c       ?doMemberTypes@UnDecorator@@SAHXZ 000000014000554c f i libvcruntime:undname.obj
 0001:0000455c       ?doNameOnly@UnDecorator@@SAHXZ 000000014000555c f i libvcruntime:undname.obj
 0001:00004568       ?doNoIdentCharCheck@UnDecorator@@SAHXZ 0000000140005568 f i libvcruntime:undname.obj
 0001:00004574       ?doPchar@DName@@AEAAXD@Z   0000000140005574 f   libvcruntime:undname.obj
 0001:000045c4       ?doPtr64@UnDecorator@@SAHXZ 00000001400055c4 f i libvcruntime:undname.obj
 0001:000045d4       ?doRestrictionSpec@UnDecorator@@SAHXZ 00000001400055d4 f i libvcruntime:undname.obj
 0001:000045e4       ?doThisTypes@UnDecorator@@SAHXZ 00000001400055e4 f i libvcruntime:undname.obj
 0001:000045f8       ?doThrowTypes@UnDecorator@@SAHXZ 00000001400055f8 f i libvcruntime:undname.obj
 0001:00004608       ?doTypeOnly@UnDecorator@@SAHXZ 0000000140005608 f i libvcruntime:undname.obj
 0001:00004614       ?doUnderScore@UnDecorator@@SAHXZ 0000000140005614 f i libvcruntime:undname.obj
 0001:00004620       ?getAddressOf@UnDecorator@@CA?AVDName@@XZ 0000000140005620 f   libvcruntime:undname.obj
 0001:000046b0       ?getArgumentList@UnDecorator@@CA?AVDName@@XZ 00000001400056b0 f   libvcruntime:undname.obj
 0001:00004864       ?getArgumentTypes@UnDecorator@@CA?AVDName@@XZ 0000000140005864 f   libvcruntime:undname.obj
 0001:000049b0       ?getArrayAccess@UnDecorator@@CA?AVDName@@XZ 00000001400059b0 f   libvcruntime:undname.obj
 0001:00004a4c       ?getArrayObject@UnDecorator@@CA?AVDName@@XZ 0000000140005a4c f   libvcruntime:undname.obj
 0001:00004b08       ?getArrayType@UnDecorator@@CA?AVDName@@AEBV2@@Z 0000000140005b08 f i libvcruntime:undname.obj
 0001:00004d50       ?getBasedType@UnDecorator@@CA?AVDName@@XZ 0000000140005d50 f   libvcruntime:undname.obj
 0001:00004e48       ?getBasicDataType@UnDecorator@@CA?AVDName@@AEBV2@@Z 0000000140005e48 f   libvcruntime:undname.obj
 0001:0000544c       ?getCHPEName@UnDecorator@@QEAAPEADPEADH@Z 000000014000644c f i libvcruntime:undname.obj
 0001:0000556c       ?getCallIndex@UnDecorator@@CA?AVDName@@XZ 000000014000656c f i libvcruntime:undname.obj
 0001:00005588       ?getCallingConvention@UnDecorator@@CA?AVDName@@XZ 0000000140006588 f   libvcruntime:undname.obj
 0001:000056c0       ?getDataIndirectType@UnDecorator@@CA?AVDName@@AEBV2@W4IndirectionKind@@0H@Z 00000001400066c0 f   libvcruntime:undname.obj
 0001:00005fe4       ?getDataIndirectType@UnDecorator@@CA?AVDName@@XZ 0000000140006fe4 f i libvcruntime:undname.obj
 0001:00006020       ?getDataType@UnDecorator@@CA?AVDName@@PEAV2@@Z 0000000140007020 f   libvcruntime:undname.obj
 0001:00006134       ?getDecoratedName@UnDecorator@@CA?AVDName@@XZ 0000000140007134 f   libvcruntime:undname.obj
 0001:0000641c       ?getDimension@UnDecorator@@CA?AVDName@@_N@Z 000000014000741c f   libvcruntime:undname.obj
 0001:00006564       ?getDispatchTarget@UnDecorator@@CA?AVDName@@XZ 0000000140007564 f   libvcruntime:undname.obj
 0001:000065c4       ?getDisplacement@UnDecorator@@CA?AVDName@@XZ 00000001400075c4 f i libvcruntime:undname.obj
 0001:000065e0       ?getECSUDataType@UnDecorator@@CA?AVDName@@XZ 00000001400075e0 f   libvcruntime:undname.obj
 0001:000067dc       ?getECSUName@UnDecorator@@CA?AVDName@@XZ 00000001400077dc f i libvcruntime:undname.obj
 0001:000067f4       ?getEnumType@UnDecorator@@CA?AVDName@@XZ 00000001400077f4 f i libvcruntime:undname.obj
 0001:00006924       ?getExtendedDataIndirectType@UnDecorator@@CA?AVDName@@AEAW4IndirectionKind@@AEA_NH@Z 0000000140007924 f   libvcruntime:undname.obj
 0001:00006b28       ?getExternalDataType@UnDecorator@@CA?AVDName@@AEBV2@@Z 0000000140007b28 f i libvcruntime:undname.obj
 0001:00006be8       ?getFloatingPoint@UnDecorator@@CA?AVDName@@H@Z 0000000140007be8 f   libvcruntime:undname.obj
 0001:00006d50       ?getFunctionIndirectType@UnDecorator@@CA?AVDName@@AEBV2@@Z 0000000140007d50 f   libvcruntime:undname.obj
 0001:00007284       ?getGuardNumber@UnDecorator@@CA?AVDName@@XZ 0000000140008284 f i libvcruntime:undname.obj
 0001:000072a0       ?getLastChar@DName@@QEBADXZ 00000001400082a0 f i libvcruntime:undname.obj
 0001:000072bc       ?getLastChar@DNameStatusNode@@UEBADXZ 00000001400082bc f i libvcruntime:undname.obj
 0001:000072c8       ?getLastChar@charNode@@UEBADXZ 00000001400082c8 f i libvcruntime:undname.obj
 0001:000072cc       ?getLastChar@pDNameNode@@UEBADXZ 00000001400082cc f i libvcruntime:undname.obj
 0001:000072f8       ?getLastChar@pairNode@@UEBADXZ 00000001400082f8 f i libvcruntime:undname.obj
 0001:00007330       ?getLastChar@pcharNode@@UEBADXZ 0000000140008330 f i libvcruntime:undname.obj
 0001:00007344       ?getLexicalFrame@UnDecorator@@CA?AVDName@@XZ 0000000140008344 f i libvcruntime:undname.obj
 0001:000073a8       ?getMemberAccess@UnDecorator@@CA?AVDName@@XZ 00000001400083a8 f   libvcruntime:undname.obj
 0001:0000743c       ?getMemoryWithBuffer@_HeapManager@@QEAAPEAX_K@Z 000000014000843c f   libvcruntime:undname.obj
 0001:000074cc       ?getMemoryWithoutBuffer@_HeapManager@@QEAAPEAX_K@Z 00000001400084cc f   libvcruntime:undname.obj
 0001:000074e0       ?getNoexcept@UnDecorator@@CA?AVDName@@XZ 00000001400084e0 f   libvcruntime:undname.obj
 0001:00007544       ?getNumberOfDimensions@UnDecorator@@CAHXZ 0000000140008544 f   libvcruntime:undname.obj
 0001:000075ac       ?getOperatorName@UnDecorator@@CA?AVDName@@_NPEA_N@Z 00000001400085ac f i libvcruntime:undname.obj
 0001:00007f5c       ?getPointerToMember@UnDecorator@@CA?AVDName@@XZ 0000000140008f5c f   libvcruntime:undname.obj
 0001:00008054       ?getPointerType@UnDecorator@@CA?AVDName@@AEBV2@0@Z 0000000140009054 f i libvcruntime:undname.obj
 0001:00008074       ?getPointerTypeArray@UnDecorator@@CA?AVDName@@AEBV2@0@Z 0000000140009074 f i libvcruntime:undname.obj
 0001:00008090       ?getPrimaryDataType@UnDecorator@@CA?AVDName@@AEBV2@@Z 0000000140009090 f   libvcruntime:undname.obj
 0001:00008348       ?getPtrRefDataType@UnDecorator@@CA?AVDName@@AEBV2@H@Z 0000000140009348 f   libvcruntime:undname.obj
 0001:00008514       ?getPtrRefType@UnDecorator@@CA?AVDName@@AEBV2@0W4IndirectionKind@@@Z 0000000140009514 f   libvcruntime:undname.obj
 0001:000086ec       ?getReferenceType@UnDecorator@@CA?AVDName@@AEBV2@0W4IndirectionKind@@@Z 00000001400096ec f i libvcruntime:undname.obj
 0001:00008704       ?getRestrictionSpec@UnDecorator@@CA?AVDName@@XZ 0000000140009704 f   libvcruntime:undname.obj
 0001:000088e0       ?getReturnType@UnDecorator@@CA?AVDName@@PEAV2@@Z 00000001400098e0 f   libvcruntime:undname.obj
 0001:00008914       ?getScope@UnDecorator@@CA?AVDName@@XZ 0000000140009914 f   libvcruntime:undname.obj
 0001:00008dd0       ?getScopedName@UnDecorator@@CA?AVDName@@XZ 0000000140009dd0 f   libvcruntime:undname.obj
 0001:00008f10       ?getSignedDimension@UnDecorator@@CA?AVDName@@XZ 0000000140009f10 f   libvcruntime:undname.obj
 0001:00008f98       ?getStorageConvention@UnDecorator@@CA?AVDName@@XZ 0000000140009f98 f i libvcruntime:undname.obj
 0001:00008fd4       ?getString@DName@@QEBAPEADPEAD0@Z 0000000140009fd4 f i libvcruntime:undname.obj
 0001:00008ff0       ?getString@DName@@QEBAPEADPEADH@Z 0000000140009ff0 f i libvcruntime:undname.obj
 0001:00009084       ?getString@DNameStatusNode@@UEBAPEADPEAD0@Z 000000014000a084 f i libvcruntime:undname.obj
 0001:000090cc       ?getString@charNode@@UEBAPEADPEAD0@Z 000000014000a0cc f i libvcruntime:undname.obj
 0001:000090e0       ?getString@pDNameNode@@UEBAPEADPEAD0@Z 000000014000a0e0 f i libvcruntime:undname.obj
 0001:00009110       ?getString@pairNode@@UEBAPEADPEAD0@Z 000000014000a110 f i libvcruntime:undname.obj
 0001:0000915c       ?getString@pcharNode@@UEBAPEADPEAD0@Z 000000014000a15c f i libvcruntime:undname.obj
 0001:00009194       ?getStringEncoding@UnDecorator@@CA?AVDName@@W4PrefixKind@@H@Z 000000014000a194 f   libvcruntime:undname.obj
 0001:000092a4       ?getStringHelper@@YAPEADPEADPEBD1H@Z 000000014000a2a4 f i libvcruntime:undname.obj
 0001:000092d4       ?getStringObject@UnDecorator@@CA?AVDName@@XZ 000000014000a2d4 f   libvcruntime:undname.obj
 0001:0000933c       ?getSymbolName@UnDecorator@@CA?AVDName@@XZ 000000014000a33c f i libvcruntime:undname.obj
 0001:00009388       ?getTemplateArgumentList@UnDecorator@@CA?AVDName@@XZ 000000014000a388 f   libvcruntime:undname.obj
 0001:000095a4       ?getTemplateName@UnDecorator@@CA?AVDName@@_N@Z 000000014000a5a4 f   libvcruntime:undname.obj
 0001:00009838       ?getTemplateNonTypeArgument@UnDecorator@@CA?AVDName@@XZ 000000014000a838 f   libvcruntime:undname.obj
 0001:00009d88       ?getTemplateTypeArgument@UnDecorator@@CA?AVDName@@XZ 000000014000ad88 f   libvcruntime:undname.obj
 0001:00009ef0       ?getThisType@UnDecorator@@CA?AVDName@@XZ 000000014000aef0 f i libvcruntime:undname.obj
 0001:00009f30       ?getThrowTypes@UnDecorator@@CA?AVDName@@XZ 000000014000af30 f   libvcruntime:undname.obj
 0001:00009f54       ?getTypeEncoding@UnDecorator@@CAHXZ 000000014000af54 f i libvcruntime:undname.obj
 0001:0000a310       ?getUndecoratedName@UnDecorator@@QEAAPEADPEADH@Z 000000014000b310 f i libvcruntime:undname.obj
 0001:0000a464       ?getUnionObject@UnDecorator@@CA?AVDName@@XZ 000000014000b464 f   libvcruntime:undname.obj
 0001:0000a53c       ?getVCallThunkType@UnDecorator@@CA?AVDName@@XZ 000000014000b53c f i libvcruntime:undname.obj
 0001:0000a5b4       ?getValue@UnDecorator@@CA?AV?$optional@_K@std@@XZ 000000014000b5b4 f   libvcruntime:undname.obj
 0001:0000a628       ?getValueObject@UnDecorator@@CA?AVDName@@XZ 000000014000b628 f   libvcruntime:undname.obj
 0001:0000a768       ?getVbTableType@UnDecorator@@CA?AVDName@@AEBV2@@Z 000000014000b768 f i libvcruntime:undname.obj
 0001:0000a780       ?getVdispMapType@UnDecorator@@CA?AVDName@@AEBV2@@Z 000000014000b780 f i libvcruntime:undname.obj
 0001:0000a7fc       ?getVfTableType@UnDecorator@@CA?AVDName@@AEBV2@@Z 000000014000b7fc f i libvcruntime:undname.obj
 0001:0000aa08       ?getZName@UnDecorator@@CA?AVDName@@_N0@Z 000000014000ba08 f   libvcruntime:undname.obj
 0001:0000acdc       ?get_current_character_and_increment_buffer@UnDecorator@@CADXZ 000000014000bcdc f i libvcruntime:undname.obj
 0001:0000acf4       ?haveTemplateParameters@UnDecorator@@SAHXZ 000000014000bcf4 f i libvcruntime:undname.obj
 0001:0000ad00       ?increment_buffer@UnDecorator@@CA_N_K@Z 000000014000bd00 f i libvcruntime:undname.obj
 0001:0000ad2c       ?increment_buffer_no_check@UnDecorator@@CAXXZ 000000014000bd2c f i libvcruntime:undname.obj
 0001:0000ad34       ?increment_buffer_no_check@UnDecorator@@CAX_K@Z 000000014000bd34 f i libvcruntime:undname.obj
 0001:0000ad3c       ?isArray@DName@@QEBAHXZ    000000014000bd3c f i libvcruntime:undname.obj
 0001:0000ad48       ?isComArray@DName@@QEBAHXZ 000000014000bd48 f i libvcruntime:undname.obj
 0001:0000ad54       ?isEmpty@DName@@QEBAHXZ    000000014000bd54 f i libvcruntime:undname.obj
 0001:0000ad60       ?isFull@Replicator@@QEBAHXZ 000000014000bd60 f i libvcruntime:undname.obj
 0001:0000ad6c       ?isNoTE@DName@@QEBAHXZ     000000014000bd6c f i libvcruntime:undname.obj
 0001:0000ad78       ?isPinPtr@DName@@QEBAHXZ   000000014000bd78 f i libvcruntime:undname.obj
 0001:0000ad84       ?isPtrRef@DName@@QEBAHXZ   000000014000bd84 f i libvcruntime:undname.obj
 0001:0000ad90       ?isUDC@DName@@QEBAHXZ      000000014000bd90 f i libvcruntime:undname.obj
 0001:0000ada8       ?isUDTThunk@DName@@QEBAHXZ 000000014000bda8 f i libvcruntime:undname.obj
 0001:0000adc0       ?isVCallThunk@DName@@QEBAHXZ 000000014000bdc0 f i libvcruntime:undname.obj
 0001:0000adcc       ?isValid@DName@@QEBAHXZ    000000014000bdcc f i libvcruntime:undname.obj
 0001:0000add8       ?length@DName@@QEBAHXZ     000000014000bdd8 f i libvcruntime:undname.obj
 0001:0000adf0       ?length@DNameStatusNode@@UEBAHXZ 000000014000bdf0 f i libvcruntime:undname.obj
 0001:0000adf4       ?length@charNode@@UEBAHXZ  000000014000bdf4 f i libvcruntime:undname.obj
 0001:0000adfc       ?length@pDNameNode@@UEBAHXZ 000000014000bdfc f i libvcruntime:undname.obj
 0001:0000ae24       ?length@pairNode@@UEBAHXZ  000000014000be24 f i libvcruntime:undname.obj
 0001:0000ae6c       ?length@pcharNode@@UEBAHXZ 000000014000be6c f i libvcruntime:undname.obj
 0001:0000ae70       ?make@DNameStatusNode@@SAPEBV1@W4DNameStatus@@@Z 000000014000be70 f i libvcruntime:undname.obj
 0001:0000ae90       ?parseDecoratedName@UnDecorator@@CA?AVDName@@XZ 000000014000be90 f   libvcruntime:undname.obj
 0001:0000afa8       ?raw_length@DNameStatusNode@@UEBAHXZ 000000014000bfa8 f i libvcruntime:undname.obj
 0001:0000afac       ?raw_length@charNode@@UEBAHXZ 000000014000bfac f i libvcruntime:undname.obj
 0001:0000afb4       ?raw_length@pDNameNode@@UEBAHXZ 000000014000bfb4 f i libvcruntime:undname.obj
 0001:0000afb8       ?raw_length@pairNode@@UEBAHXZ 000000014000bfb8 f i libvcruntime:undname.obj
 0001:0000afbc       ?raw_length@pcharNode@@UEBAHXZ 000000014000bfbc f i libvcruntime:undname.obj
 0001:0000afc0       ?setIsArray@DName@@QEAAXXZ 000000014000bfc0 f i libvcruntime:undname.obj
 0001:0000afc8       ?setIsComArray@DName@@QEAAXXZ 000000014000bfc8 f i libvcruntime:undname.obj
 0001:0000afd0       ?setIsNoTE@DName@@QEAAXXZ  000000014000bfd0 f i libvcruntime:undname.obj
 0001:0000afd8       ?setIsPinPtr@DName@@QEAAXXZ 000000014000bfd8 f i libvcruntime:undname.obj
 0001:0000afe0       ?setIsUDC@DName@@QEAAXXZ   000000014000bfe0 f i libvcruntime:undname.obj
 0001:0000afec       ?setIsVCallThunk@DName@@QEAAXXZ 000000014000bfec f i libvcruntime:undname.obj
 0001:0000aff4       ?setPtrRef@DName@@QEAAAEAV1@XZ 000000014000bff4 f i libvcruntime:undname.obj
 0001:0000b000       ?status@DName@@QEBA?AW4DNameStatus@@XZ 000000014000c000 f i libvcruntime:undname.obj
 0001:0000b064       __unDName                  000000014000c064 f   libvcruntime:undname.obj
 0001:0000b08c       __unDNameEx                000000014000c08c f   libvcruntime:undname.obj
 0001:0000b1c0       _vsprintf_s_l              000000014000c1c0 f i libvcruntime:undname.obj
 0001:0000b224       snprintf                   000000014000c224 f i libvcruntime:undname.obj
 0001:0000b27c       sprintf_s                  000000014000c27c f i libvcruntime:undname.obj
 0001:0000b2d0       unDNameGenerateCHPE        000000014000c2d0 f   libvcruntime:undname.obj
 0001:0000b3d8       vsnprintf                  000000014000c3d8 f i libvcruntime:undname.obj
 0001:0000b43c       ??$__crt_interlocked_exchange_pointer@UHINSTANCE__@@PEAU1@@@YAPEAUHINSTANCE__@@PEDSEAU0@QEAU0@@Z 000000014000c43c f i libvcruntime:winapi_downlevel.obj
 0001:0000b444       ??$__crt_interlocked_exchange_pointer@UHINSTANCE__@@PEAX@@YAPEAUHINSTANCE__@@PEDSEAU0@QEAX@Z 000000014000c444 f i libvcruntime:winapi_downlevel.obj
 0001:0000b44c       ??$__crt_interlocked_exchange_pointer@XPEAX@@YAPEAXPEDSEAXQEAX@Z 000000014000c44c f i libvcruntime:winapi_downlevel.obj
 0001:0000b454       ??$__crt_interlocked_read_pointer@UHINSTANCE__@@@@YAPEAUHINSTANCE__@@PEDSEAU0@@Z 000000014000c454 f i libvcruntime:winapi_downlevel.obj
 0001:0000b45c       ??$__crt_interlocked_read_pointer@X@@YAPEAXPEDSEAX@Z 000000014000c45c f i libvcruntime:winapi_downlevel.obj
 0001:0000b99c       __vcrt_FlsAlloc            000000014000c99c f   libvcruntime:winapi_downlevel.obj
 0001:0000b9e4       __vcrt_FlsFree             000000014000c9e4 f   libvcruntime:winapi_downlevel.obj
 0001:0000ba2c       __vcrt_FlsGetValue         000000014000ca2c f   libvcruntime:winapi_downlevel.obj
 0001:0000ba74       __vcrt_FlsSetValue         000000014000ca74 f   libvcruntime:winapi_downlevel.obj
 0001:0000bac8       __vcrt_InitializeCriticalSectionEx 000000014000cac8 f   libvcruntime:winapi_downlevel.obj
 0001:0000bb2c       ??$__crt_interlocked_exchange_pointer@$$A6AXXZP6AXXZ@@YAP6AXXZPEDS6AXXZQ6AXXZ@Z 000000014000cb2c f i libvcruntime:purevirt.obj
 0001:0000bb34       ??$__crt_interlocked_read_pointer@$$A6AXXZ@@YAP6AXXZPEDS6AXXZ@Z 000000014000cb34 f i libvcruntime:purevirt.obj
 0001:0000bb3c       _get_purecall_handler      000000014000cb3c f   libvcruntime:purevirt.obj
 0001:0000bb48       _purecall                  000000014000cb48 f   libvcruntime:purevirt.obj
 0001:0000bb64       _set_purecall_handler      000000014000cb64 f   libvcruntime:purevirt.obj
 0001:0000bb70       ??$?0AEAViterator@TryBlockMap4@FH4@@AEAV012@$0A@@?$pair@Viterator@TryBlockMap4@FH4@@V123@@std@@QEAA@AEAViterator@TryBlockMap4@FH4@@0@Z 000000014000cb70 f i libvcruntime:risctrnsctrl.obj
 0001:0000bb84       ??$?0AEAViterator@TryBlockMap@__FrameHandler3@@AEAV012@$0A@@?$pair@Viterator@TryBlockMap@__FrameHandler3@@V123@@std@@QEAA@AEAViterator@TryBlockMap@__FrameHandler3@@0@Z 000000014000cb84 f i libvcruntime:risctrnsctrl.obj
 0001:0000bd08       ??$_CallSETranslator@V__FrameHandler3@@@@YAHPEAUEHExceptionRecord@@PEA_KPEAU_CONTEXT@@PEAU_xDISPATCHER_CONTEXT@@PEBU_s_FuncInfo@@K1H@Z 000000014000cd08 f i libvcruntime:risctrnsctrl.obj
 0001:0000bd5c       ??$_CallSETranslator@V__FrameHandler4@@@@YAHPEAUEHExceptionRecord@@PEA_KPEAU_CONTEXT@@PEAU_xDISPATCHER_CONTEXT@@PEAUFuncInfo4@FH4@@K1H@Z 000000014000cd5c f i libvcruntime:risctrnsctrl.obj
 0001:0000bdb0       ??$forward@AEAViterator@TryBlockMap4@FH4@@@std@@YAAEAViterator@TryBlockMap4@FH4@@AEAV123@@Z 000000014000cdb0 f i libvcruntime:risctrnsctrl.obj
 0001:0000bdb4       ??$forward@AEAViterator@TryBlockMap@__FrameHandler3@@@std@@YAAEAViterator@TryBlockMap@__FrameHandler3@@AEAV123@@Z 000000014000cdb4 f i libvcruntime:risctrnsctrl.obj
 0001:0000bdb8       ??0FuncInfo4@FH4@@QEAA@XZ  000000014000cdb8 f i libvcruntime:risctrnsctrl.obj
 0001:0000bdcc       ??0FuncInfoHeader@FH4@@QEAA@XZ 000000014000cdcc f i libvcruntime:risctrnsctrl.obj
 0001:0000bdd4       ??0iterator@TryBlockMap4@FH4@@QEAA@AEAV12@I@Z 000000014000cdd4 f i libvcruntime:risctrnsctrl.obj
 0001:0000bde0       ??0iterator@TryBlockMap@__FrameHandler3@@QEAA@AEAV12@I@Z 000000014000cde0 f i libvcruntime:risctrnsctrl.obj
 0001:0000bdec       ??4iterator@TryBlockMap4@FH4@@QEAAAEAV012@AEBV012@@Z 000000014000cdec f i libvcruntime:risctrnsctrl.obj
 0001:0000bdf8       ??9iterator@TryBlockMap4@FH4@@QEBA_NAEBV012@@Z 000000014000cdf8 f i libvcruntime:risctrnsctrl.obj
 0001:0000be04       ??Diterator@TryBlockMap4@FH4@@QEAA?AUTryBlockMapEntry4@2@XZ 000000014000ce04 f i libvcruntime:risctrnsctrl.obj
 0001:0000be14       ??Eiterator@TryBlockMap4@FH4@@QEAAAEAV012@XZ 000000014000ce14 f i libvcruntime:risctrnsctrl.obj
 0001:0000beb0       ?CatchTryBlock@__FrameHandler3@@SAPEBU_s_TryBlockMapEntry@@PEBU_s_FuncInfo@@H@Z 000000014000ceb0 f   libvcruntime:risctrnsctrl.obj
 0001:0000bf14       ?DecompFuncInfo@FH4@@YA_JPEAEAEAUFuncInfo4@1@_KH@Z 000000014000cf14 f i libvcruntime:risctrnsctrl.obj
 0001:0000bf28       ?DecompFuncInfo@FH4@@YA_JPEAEAEAUFuncInfo4@1@_KH_N@Z 000000014000cf28 f i libvcruntime:risctrnsctrl.obj
 0001:0000c04c       ?DecompTryBlock@TryBlockMap4@FH4@@AEAAXXZ 000000014000d04c f i libvcruntime:risctrnsctrl.obj
 0001:0000c0e0       ?ExecutionInCatch@__FrameHandler3@@SA_NPEAU_xDISPATCHER_CONTEXT@@PEBU_s_FuncInfo@@@Z 000000014000d0e0 f   libvcruntime:risctrnsctrl.obj
 0001:0000c10c       ?ExecutionInCatch@__FrameHandler4@@SA_NPEAU_xDISPATCHER_CONTEXT@@PEAUFuncInfo4@FH4@@@Z 000000014000d10c f   libvcruntime:risctrnsctrl.obj
 0001:0000c114       ?FrameUnwindToEmptyState@__FrameHandler3@@SAXPEA_KPEAU_xDISPATCHER_CONTEXT@@PEBU_s_FuncInfo@@@Z 000000014000d114 f   libvcruntime:risctrnsctrl.obj
 0001:0000c178       ?FrameUnwindToEmptyState@__FrameHandler4@@SAXPEA_KPEAU_xDISPATCHER_CONTEXT@@PEAUFuncInfo4@FH4@@@Z 000000014000d178 f   libvcruntime:risctrnsctrl.obj
 0001:0000c1ac       ?GetEstablisherFrame@__FrameHandler3@@SAPEA_KPEA_KPEAU_xDISPATCHER_CONTEXT@@PEBU_s_FuncInfo@@0@Z 000000014000d1ac f   libvcruntime:risctrnsctrl.obj
 0001:0000c278       ?GetEstablisherFrame@__FrameHandler4@@SAPEA_KPEA_KPEAU_xDISPATCHER_CONTEXT@@PEAUFuncInfo4@FH4@@0@Z 000000014000d278 f   libvcruntime:risctrnsctrl.obj
 0001:0000c29c       ?GetRangeOfTrysToCheck@__FrameHandler3@@SA?AU?$pair@Viterator@TryBlockMap@__FrameHandler3@@V123@@std@@AEAVTryBlockMap@1@HPEAU_xDISPATCHER_CONTEXT@@PEBU_s_FuncInfo@@H@Z 000000014000d29c f   libvcruntime:risctrnsctrl.obj
 0001:0000c3dc       ?GetRangeOfTrysToCheck@__FrameHandler4@@SA?AU?$pair@Viterator@TryBlockMap4@FH4@@V123@@std@@AEAVTryBlockMap4@FH4@@HPEAU_xDISPATCHER_CONTEXT@@PEAUFuncInfo4@5@H@Z 000000014000d3dc f   libvcruntime:risctrnsctrl.obj
 0001:0000c548       ?ReadInt@FH4@@YAHPEAPEAE@Z 000000014000d548 f i libvcruntime:risctrnsctrl.obj
 0001:0000c558       ?ReadUnsigned@FH4@@YAIPEAPEAE@Z 000000014000d558 f i libvcruntime:risctrnsctrl.obj
 0001:0000c588       ?UnwindNestedFrames@__FrameHandler3@@SAXPEA_KPEAUEHExceptionRecord@@PEAU_CONTEXT@@0PEAXPEBU_s_FuncInfo@@HHPEBU_s_HandlerType@@PEAU_xDISPATCHER_CONTEXT@@E@Z 000000014000d588 f   libvcruntime:risctrnsctrl.obj
 0001:0000c68c       ?UnwindNestedFrames@__FrameHandler4@@SAXPEA_KPEAUEHExceptionRecord@@PEAU_CONTEXT@@0PEAXPEAUFuncInfo4@FH4@@HHPEAUHandlerType4@5@PEAU_xDISPATCHER_CONTEXT@@E@Z 000000014000d68c f   libvcruntime:risctrnsctrl.obj
 0001:0000c7ac       ?begin@TryBlockMap4@FH4@@QEAA?AViterator@12@XZ 000000014000d7ac f i libvcruntime:risctrnsctrl.obj
 0001:0000c7b8       ?end@TryBlockMap4@FH4@@QEAA?AViterator@12@XZ 000000014000d7b8 f i libvcruntime:risctrnsctrl.obj
 0001:0000c7c4       ?imageRelToByteBuffer@FH4@@YAPEAE_KH@Z 000000014000d7c4 f i libvcruntime:risctrnsctrl.obj
 0001:0000c7cc       ?incrementToSentinel@iterator@TryBlockMap4@FH4@@QEAAXXZ 000000014000d7cc f i libvcruntime:risctrnsctrl.obj
 0001:0000c7d0       ?setBuffer@TryBlockMap4@FH4@@QEAAXViterator@12@@Z 000000014000d7d0 f i libvcruntime:risctrnsctrl.obj
 0001:0000c994       _CreateFrameInfo           000000014000d994 f   libvcruntime:risctrnsctrl.obj
 0001:0000c9d0       _FindAndUnlinkFrame        000000014000d9d0 f   libvcruntime:risctrnsctrl.obj
 0001:0000ca24       _GetImageBase              000000014000da24 f   libvcruntime:risctrnsctrl.obj
 0001:0000ca38       _GetThrowImageBase         000000014000da38 f   libvcruntime:risctrnsctrl.obj
 0001:0000ca4c       _SetImageBase              000000014000da4c f   libvcruntime:risctrnsctrl.obj
 0001:0000ca64       _SetThrowImageBase         000000014000da64 f   libvcruntime:risctrnsctrl.obj
 0001:0000ca7c       __CxxFrameHandler          000000014000da7c f   libvcruntime:risctrnsctrl.obj
 0001:0000ca84       __CxxFrameHandler2         000000014000da84 f   libvcruntime:risctrnsctrl.obj
 0001:0000ca8c       __CxxFrameHandler3         000000014000da8c f   libvcruntime:risctrnsctrl.obj
 0001:0000cb14       __CxxFrameHandler4         000000014000db14 f   libvcruntime:risctrnsctrl.obj
 0001:0000cbf0       memcpy_repmovs             000000014000dbf0 f   libvcruntime:memcpy.obj
 0001:0000cc10       memcpy                     000000014000dc10 f   libvcruntime:memcpy.obj
 0001:0000cc10       memmove                    000000014000dc10 f   libvcruntime:memcpy.obj
 0001:0000d288       ?GetCurrentState@__FrameHandler3@@SAHPEA_KPEAU_xDISPATCHER_CONTEXT@@PEBU_s_FuncInfo@@@Z 000000014000e288 f   libvcruntime:ehstate.obj
 0001:0000d2b0       ?GetUnwindTryBlock@__FrameHandler3@@SAHPEA_KPEAU_xDISPATCHER_CONTEXT@@PEBU_s_FuncInfo@@@Z 000000014000e2b0 f   libvcruntime:ehstate.obj
 0001:0000d2dc       ?SetState@__FrameHandler3@@SAXPEA_KPEBU_s_FuncInfo@@H@Z 000000014000e2dc f   libvcruntime:ehstate.obj
 0001:0000d2e8       ?SetUnwindTryBlock@__FrameHandler3@@SAXPEA_KPEAU_xDISPATCHER_CONTEXT@@PEBU_s_FuncInfo@@H@Z 000000014000e2e8 f   libvcruntime:ehstate.obj
 0001:0000d324       ?StateFromControlPc@__FrameHandler3@@SAHPEBU_s_FuncInfo@@PEAU_xDISPATCHER_CONTEXT@@@Z 000000014000e324 f   libvcruntime:ehstate.obj
 0001:0000d32c       ?StateFromControlPc@__FrameHandler4@@SAHPEAUFuncInfo4@FH4@@PEAU_xDISPATCHER_CONTEXT@@@Z 000000014000e32c f   libvcruntime:ehstate.obj
 0001:0000d334       ?StateFromIp@__FrameHandler3@@SAHPEBU_s_FuncInfo@@PEAU_xDISPATCHER_CONTEXT@@_K@Z 000000014000e334 f   libvcruntime:ehstate.obj
 0001:0000d39c       ?StateFromIp@__FrameHandler4@@SAHPEAUFuncInfo4@FH4@@PEAU_xDISPATCHER_CONTEXT@@_K@Z 000000014000e39c f   libvcruntime:ehstate.obj
 0001:0000d48c       ?__FuncRelToRealOffset@@YA_KPEAU_xDISPATCHER_CONTEXT@@I@Z 000000014000e48c f i libvcruntime:ehstate.obj
 0001:0000d49c       ?__RVAtoRealOffset@@YA_KPEAU_xDISPATCHER_CONTEXT@@H@Z 000000014000e49c f i libvcruntime:ehstate.obj
 0001:0000eab8       ??$TypeMatchHelper@V__FrameHandler3@@@@YAHPEBU_s_HandlerType@@PEBU_s_CatchableType@@PEBU_s_ThrowInfo@@@Z 000000014000fab8 f i libvcruntime:frame.obj
 0001:0000ebf8       ??$TypeMatchHelper@V__FrameHandler4@@@@YAHPEAUHandlerType4@FH4@@PEBU_s_CatchableType@@PEBU_s_ThrowInfo@@@Z 000000014000fbf8 f i libvcruntime:frame.obj
 0001:0000ed3c       ??$__InternalCxxFrameHandler@V__FrameHandler3@@@@YA?AW4_EXCEPTION_DISPOSITION@@PEAUEHExceptionRecord@@PEA_KPEAU_CONTEXT@@PEAU_xDISPATCHER_CONTEXT@@PEBU_s_FuncInfo@@H1E@Z 000000014000fd3c f i libvcruntime:frame.obj
 0001:0000ef74       ??$__InternalCxxFrameHandler@V__FrameHandler4@@@@YA?AW4_EXCEPTION_DISPOSITION@@PEAUEHExceptionRecord@@PEA_KPEAU_CONTEXT@@PEAU_xDISPATCHER_CONTEXT@@PEAUFuncInfo4@FH4@@H1E@Z 000000014000ff74 f i libvcruntime:frame.obj
 0001:0000f208       ??$__InternalCxxFrameHandlerWrapper@V__FrameHandler3@@@@YA?AW4_EXCEPTION_DISPOSITION@@PEAUEHExceptionRecord@@PEA_KPEAU_CONTEXT@@PEAU_xDISPATCHER_CONTEXT@@PEBU_s_FuncInfo@@H1E@Z 0000000140010208 f i libvcruntime:frame.obj
 0001:0000f210       ??$__InternalCxxFrameHandlerWrapper@V__FrameHandler4@@@@YA?AW4_EXCEPTION_DISPOSITION@@PEAUEHExceptionRecord@@PEA_KPEAU_CONTEXT@@PEAU_xDISPATCHER_CONTEXT@@PEAUFuncInfo4@FH4@@H1E@Z 0000000140010210 f i libvcruntime:frame.obj
 0001:0000f26c       ??0HandlerMap4@FH4@@QEAA@PEBUTryBlockMapEntry4@1@_KH@Z 000000014001026c f i libvcruntime:frame.obj
 0001:0000f2e8       ??0HandlerMap@__FrameHandler3@@QEAA@PEBU_s_TryBlockMapEntry@@_KI@Z 00000001400102e8 f i libvcruntime:frame.obj
 0001:0000f2fc       ??0HandlerType4@FH4@@QEAA@XZ 00000001400102fc f i libvcruntime:frame.obj
 0001:0000f314       ??0TryBlockMap4@FH4@@QEAA@PEBUFuncInfo4@1@_K@Z 0000000140010314 f i libvcruntime:frame.obj
 0001:0000f3ec       ??0TryBlockMap@__FrameHandler3@@QEAA@PEBU_s_FuncInfo@@_K@Z 00000001400103ec f i libvcruntime:frame.obj
 0001:0000f3f8       ??0UWMap4@FH4@@QEAA@PEBUFuncInfo4@1@_K@Z 00000001400103f8 f i libvcruntime:frame.obj
 0001:0000f43c       ??0bad_exception@std@@QEAA@AEBV01@@Z 000000014001043c f i libvcruntime:frame.obj
 0001:0000f478       ??0bad_exception@std@@QEAA@XZ 0000000140010478 f i libvcruntime:frame.obj
 0001:0000f498       ??0exception@std@@QEAA@AEBV01@@Z 0000000140010498 f i libvcruntime:frame.obj
 0001:0000f4cc       ??0exception@std@@QEAA@QEBDH@Z 00000001400104cc f i libvcruntime:frame.obj
 0001:0000f4e4       ??0iterator@HandlerMap4@FH4@@QEAA@AEAV12@I@Z 00000001400104e4 f i libvcruntime:frame.obj
 0001:0000f4f0       ??0iterator@HandlerMap@__FrameHandler3@@QEAA@AEAV12@I@Z 00000001400104f0 f i libvcruntime:frame.obj
 0001:0000f4fc       ??0iterator@UWMap4@FH4@@QEAA@AEAV12@PEAE@Z 00000001400104fc f i libvcruntime:frame.obj
 0001:0000f508       ??1bad_exception@std@@UEAA@XZ 0000000140010508 f i libvcruntime:frame.obj
 0001:0000f51c       ??1exception@std@@UEAA@XZ  000000014001051c f i libvcruntime:frame.obj
 0001:0000f530       ??4iterator@UWMap4@FH4@@QEAAAEAV012@AEBV012@@Z 0000000140010530 f i libvcruntime:frame.obj
 0001:0000f550       ??8iterator@HandlerMap4@FH4@@QEBA_NAEBV012@@Z 0000000140010550 f i libvcruntime:frame.obj
 0001:0000f55c       ??8iterator@HandlerMap@__FrameHandler3@@QEBA_NAEBV012@@Z 000000014001055c f i libvcruntime:frame.obj
 0001:0000f568       ??8type_info@@QEBA_NAEBV0@@Z 0000000140010568 f i libvcruntime:frame.obj
 0001:0000f584       ??9iterator@HandlerMap4@FH4@@QEBA_NAEBV012@@Z 0000000140010584 f i libvcruntime:frame.obj
 0001:0000f590       ??9iterator@HandlerMap@__FrameHandler3@@QEBA_NAEBV012@@Z 0000000140010590 f i libvcruntime:frame.obj
 0001:0000f59c       ??Diterator@HandlerMap4@FH4@@QEAA?AUHandlerType4@2@XZ 000000014001059c f i libvcruntime:frame.obj
 0001:0000f5bc       ??Diterator@HandlerMap@__FrameHandler3@@QEAA?BU_s_HandlerType@@XZ 00000001400105bc f i libvcruntime:frame.obj
 0001:0000f5e0       ??Diterator@TryBlockMap@__FrameHandler3@@QEAA?BU_s_TryBlockMapEntry@@XZ 00000001400105e0 f i libvcruntime:frame.obj
 0001:0000f610       ??Diterator@UWMap4@FH4@@QEAA?AUUnwindMapEntry4@2@XZ 0000000140010610 f i libvcruntime:frame.obj
 0001:0000f664       ??Eiterator@HandlerMap4@FH4@@QEAAAEAV012@XZ 0000000140010664 f i libvcruntime:frame.obj
 0001:0000f684       ??Eiterator@HandlerMap@__FrameHandler3@@QEAAAEAV012@XZ 0000000140010684 f i libvcruntime:frame.obj
 0001:0000f68c       ??Eiterator@TryBlockMap@__FrameHandler3@@QEAAAEAV012@XZ 000000014001068c f i libvcruntime:frame.obj
 0001:0000f694       ??Eiterator@UWMap4@FH4@@QEAAAEAV012@XZ 0000000140010694 f i libvcruntime:frame.obj
 0001:0000f6b4       ??Giterator@UWMap4@FH4@@QEBA_JAEBV012@@Z 00000001400106b4 f i libvcruntime:frame.obj
 0001:0000f6c0       ??Miterator@TryBlockMap4@FH4@@QEBA_NAEBV012@@Z 00000001400106c0 f i libvcruntime:frame.obj
 0001:0000f6cc       ??Miterator@TryBlockMap@__FrameHandler3@@QEBA_NAEBV012@@Z 00000001400106cc f i libvcruntime:frame.obj
 0001:0000f6d8       ??Oiterator@UWMap4@FH4@@QEBA_NAEBV012@@Z 00000001400106d8 f i libvcruntime:frame.obj
 0001:0000f6e4       ??Piterator@UWMap4@FH4@@QEBA_NAEBV012@@Z 00000001400106e4 f i libvcruntime:frame.obj
 0001:0000f6f0       ??_Ebad_exception@std@@UEAAPEAXI@Z 00000001400106f0 f i libvcruntime:frame.obj
 0001:0000f6f0       ??_Gbad_exception@std@@UEAAPEAXI@Z 00000001400106f0 f i libvcruntime:frame.obj
 0001:0000f734       ??_Eexception@std@@UEAAPEAXI@Z 0000000140010734 f i libvcruntime:frame.obj
 0001:0000f734       ??_Gexception@std@@UEAAPEAXI@Z 0000000140010734 f i libvcruntime:frame.obj
 0001:0000f778       ?BuildCatchObject@__FrameHandler3@@SAXPEAUEHExceptionRecord@@PEAXPEBU_s_HandlerType@@PEBU_s_CatchableType@@@Z 0000000140010778 f   libvcruntime:frame.obj
 0001:0000f780       ?BuildCatchObject@__FrameHandler4@@SAXPEAUEHExceptionRecord@@PEAXPEAUHandlerType4@FH4@@PEBU_s_CatchableType@@@Z 0000000140010780 f   libvcruntime:frame.obj
 0001:0000f788       ?BuildCatchObjectHelper@__FrameHandler3@@SAHPEAUEHExceptionRecord@@PEAXPEBU_s_HandlerType@@PEBU_s_CatchableType@@@Z 0000000140010788 f   libvcruntime:frame.obj
 0001:0000f790       ?BuildCatchObjectHelper@__FrameHandler4@@SAHPEAUEHExceptionRecord@@PEAXPEAUHandlerType4@FH4@@PEBU_s_CatchableType@@@Z 0000000140010790 f   libvcruntime:frame.obj
 0001:0000f798       ?CxxCallCatchBlock@__FrameHandler3@@SAPEAXPEAU_EXCEPTION_RECORD@@@Z 0000000140010798 f   libvcruntime:frame.obj
 0001:0000f984       ?CxxCallCatchBlock@__FrameHandler4@@SAPEAXPEAU_EXCEPTION_RECORD@@@Z 0000000140010984 f   libvcruntime:frame.obj
 0001:0000fbd4       ?DecompHandler@HandlerMap4@FH4@@AEAAXXZ 0000000140010bd4 f i libvcruntime:frame.obj
 0001:0000fe20       ?FrameUnwindToState@__FrameHandler3@@SAXPEA_KPEAU_xDISPATCHER_CONTEXT@@PEBU_s_FuncInfo@@H@Z 0000000140010e20 f   libvcruntime:frame.obj
 0001:0000ffac       ?FrameUnwindToState@__FrameHandler4@@SAXPEA_KPEAU_xDISPATCHER_CONTEXT@@PEAUFuncInfo4@FH4@@H@Z 0000000140010fac f   libvcruntime:frame.obj
 0001:000102a8       ?GetHandlerSearchState@__FrameHandler3@@SAHPEA_KPEAU_xDISPATCHER_CONTEXT@@PEBU_s_FuncInfo@@@Z 00000001400112a8 f i libvcruntime:frame.obj
 0001:00010340       ?GetHandlerSearchState@__FrameHandler4@@SAHPEA_KPEAU_xDISPATCHER_CONTEXT@@PEAUFuncInfo4@FH4@@@Z 0000000140011340 f i libvcruntime:frame.obj
 0001:000103a4       ?GetMaxState@__FrameHandler3@@SAHPEAU_xDISPATCHER_CONTEXT@@PEBU_s_FuncInfo@@@Z 00000001400113a4 f i libvcruntime:frame.obj
 0001:000103a8       ?GetMaxState@__FrameHandler4@@SAHPEAU_xDISPATCHER_CONTEXT@@PEAUFuncInfo4@FH4@@@Z 00000001400113a8 f i libvcruntime:frame.obj
 0001:00010558       ?ReadEntry@UWMap4@FH4@@AEAAXPEAPEAE@Z 0000000140011558 f i libvcruntime:frame.obj
 0001:000105f4       ?TypeMatch@__FrameHandler3@@SAHPEBU_s_HandlerType@@PEBU_s_CatchableType@@PEBU_s_ThrowInfo@@@Z 00000001400115f4 f   libvcruntime:frame.obj
 0001:000105fc       ?TypeMatch@__FrameHandler4@@SAHPEAUHandlerType4@FH4@@PEBU_s_CatchableType@@PEBU_s_ThrowInfo@@@Z 00000001400115fc f   libvcruntime:frame.obj
 0001:00010604       ?WalkBack@UWMap4@FH4@@AEAAXPEAPEAE@Z 0000000140011604 f i libvcruntime:frame.obj
 0001:0001063c       ?WalkBack@iterator@UWMap4@FH4@@QEAAXXZ 000000014001163c f i libvcruntime:frame.obj
 0001:0001067c       ?WalkForward@UWMap4@FH4@@AEAAXPEAPEAE@Z 000000014001167c f i libvcruntime:frame.obj
 0001:00010684       ?_CallMemberFunction1@@YAXQEAX00@Z 0000000140011684 f i libvcruntime:frame.obj
 0001:00010690       ?_CallMemberFunction2@@YAXQEAX00H@Z 0000000140011690 f i libvcruntime:frame.obj
 0001:000106b4       ?begin@HandlerMap4@FH4@@QEAA?AViterator@12@XZ 00000001400116b4 f i libvcruntime:frame.obj
 0001:000106c0       ?begin@HandlerMap@__FrameHandler3@@QEAA?AViterator@12@XZ 00000001400116c0 f i libvcruntime:frame.obj
 0001:000106cc       ?begin@UWMap4@FH4@@QEAA?AViterator@12@XZ 00000001400116cc f i libvcruntime:frame.obj
 0001:000106dc       ?end@HandlerMap4@FH4@@QEAA?AViterator@12@XZ 00000001400116dc f i libvcruntime:frame.obj
 0001:000106e8       ?end@HandlerMap@__FrameHandler3@@QEAA?AViterator@12@XZ 00000001400116e8 f i libvcruntime:frame.obj
 0001:000106f4       ?getESTypes@__FrameHandler3@@SAPEBU_s_ESTypeList@@PEBU_s_FuncInfo@@@Z 00000001400116f4 f i libvcruntime:frame.obj
 0001:0001071c       ?getESTypes@__FrameHandler4@@SAPEBU_s_ESTypeList@@PEAUFuncInfo4@FH4@@@Z 000000014001171c f i libvcruntime:frame.obj
 0001:00010720       ?getLastEntry@HandlerMap4@FH4@@QEAAPEAUHandlerType4@2@XZ 0000000140011720 f i libvcruntime:frame.obj
 0001:00010770       ?getLastEntry@HandlerMap@__FrameHandler3@@QEAAPEBU_s_HandlerType@@XZ 0000000140011770 f i libvcruntime:frame.obj
 0001:00010784       ?getMagicNum@__FrameHandler3@@SAIPEBU_s_FuncInfo@@@Z 0000000140011784 f i libvcruntime:frame.obj
 0001:0001078c       ?getMagicNum@__FrameHandler4@@SAIPEAUFuncInfo4@FH4@@@Z 000000014001178c f i libvcruntime:frame.obj
 0001:00010794       ?getNumTryBlocks@TryBlockMap4@FH4@@QEAAIXZ 0000000140011794 f i libvcruntime:frame.obj
 0001:00010798       ?getNumTryBlocks@TryBlockMap@__FrameHandler3@@QEAAIXZ 0000000140011798 f i libvcruntime:frame.obj
 0001:000107a0       ?getStartStop@UWMap4@FH4@@QEAAXHHAEAViterator@12@0@Z 00000001400117a0 f i libvcruntime:frame.obj
 0001:00010870       ?getStateFromIterators@UWMap4@FH4@@SAHAEBViterator@12@H0H0@Z 0000000140011870 f i libvcruntime:frame.obj
 0001:00010920       ?isEHs@__FrameHandler3@@SA_NPEBU_s_FuncInfo@@@Z 0000000140011920 f i libvcruntime:frame.obj
 0001:00010928       ?isEHs@__FrameHandler4@@SA_NPEAUFuncInfo4@FH4@@@Z 0000000140011928 f i libvcruntime:frame.obj
 0001:00010930       ?isNoExcept@__FrameHandler3@@SA_NPEBU_s_FuncInfo@@@Z 0000000140011930 f i libvcruntime:frame.obj
 0001:0001093c       ?isNoExcept@__FrameHandler4@@SA_NPEAUFuncInfo4@FH4@@@Z 000000014001193c f i libvcruntime:frame.obj
 0001:00010944       ?reset@HandlerType4@FH4@@QEAAXXZ 0000000140011944 f i libvcruntime:frame.obj
 0001:00010958       ?resetBuffer@HandlerMap4@FH4@@QEAAXXZ 0000000140011958 f i libvcruntime:frame.obj
 0001:00010968       ?setBuffer@HandlerMap4@FH4@@QEAAXI@Z 0000000140011968 f i libvcruntime:frame.obj
 0001:000109a4       ?what@exception@std@@UEBAPEBDXZ 00000001400119a4 f i libvcruntime:frame.obj
 0001:000109b8       __BuildCatchObject         00000001400119b8 f   libvcruntime:frame.obj
 0001:000109c0       __BuildCatchObjectHelper   00000001400119c0 f   libvcruntime:frame.obj
 0001:000109c8       __TypeMatch                00000001400119c8 f   libvcruntime:frame.obj
 0001:000109d0       __vcrt_EncodePointer       00000001400119d0 f i libvcruntime:frame.obj
 0001:000109f0       _CallSettingFrame          00000001400119f0 f   libvcruntime:handlers.obj
 0001:00010a40       _CallSettingFrame_LookupContinuationIndex 0000000140011a40 f   libvcruntime:handlers.obj
 0001:00010a70       _CallSettingFrame_NotifyContinuationAddr 0000000140011a70 f   libvcruntime:handlers.obj
 0001:00010aa0       _CallSettingFrameEncoded   0000000140011aa0 f   libvcruntime:handlers.obj
 0001:00010ae8       ??$?RD@__crt_public_free_policy@@QEBAXQEBD@Z 0000000140011ae8 f i libvcruntime:std_exception.obj
 0001:00010af0       ??0?$__crt_unique_heap_ptr@DU__crt_public_free_policy@@@@QEAA@QEAD@Z 0000000140011af0 f i libvcruntime:std_exception.obj
 0001:00010af8       ??1?$__crt_unique_heap_ptr@DU__crt_public_free_policy@@@@QEAA@XZ 0000000140011af8 f i libvcruntime:std_exception.obj
 0001:00010b14       ??B?$__crt_unique_heap_ptr@DU__crt_public_free_policy@@@@QEBA_NXZ 0000000140011b14 f i libvcruntime:std_exception.obj
 0001:00010b1c       ?detach@?$__crt_unique_heap_ptr@DU__crt_public_free_policy@@@@QEAAPEADXZ 0000000140011b1c f i libvcruntime:std_exception.obj
 0001:00010b24       ?get@?$__crt_unique_heap_ptr@DU__crt_public_free_policy@@@@QEBAPEADXZ 0000000140011b24 f i libvcruntime:std_exception.obj
 0001:00010b28       ?is_valid@?$__crt_unique_heap_ptr@DU__crt_public_free_policy@@@@QEBA_NXZ 0000000140011b28 f i libvcruntime:std_exception.obj
 0001:00010b30       ?release@?$__crt_unique_heap_ptr@DU__crt_public_free_policy@@@@QEAAXXZ 0000000140011b30 f i libvcruntime:std_exception.obj
 0001:00010b4c       __std_exception_copy       0000000140011b4c f   libvcruntime:std_exception.obj
 0001:00010bdc       __std_exception_destroy    0000000140011bdc f   libvcruntime:std_exception.obj
 0001:00010c04       _CxxThrowException         0000000140011c04 f   libvcruntime:throw.obj
 0001:00010ca4       ??$?RPEAU__crt_stdio_stream_data@@@__crt_internal_free_policy@@QEBAXQEBQEAU__crt_stdio_stream_data@@@Z 0000000140011ca4 f i libucrt:_file.obj
 0001:00010cac       ??0?$__crt_unique_heap_ptr@PEAU__crt_stdio_stream_data@@U__crt_internal_free_policy@@@@QEAA@QEAPEAU__crt_stdio_stream_data@@@Z 0000000140011cac f i libucrt:_file.obj
 0001:00010cb4       ??0__crt_stdio_stream@@QEAA@QEAU_iobuf@@@Z 0000000140011cb4 f i libucrt:_file.obj
 0001:00010cbc       ??1?$__crt_unique_heap_ptr@PEAU__crt_stdio_stream_data@@U__crt_internal_free_policy@@@@QEAA@XZ 0000000140011cbc f i libucrt:_file.obj
 0001:00010cd8       ??C__crt_stdio_stream@@QEBAPEAU__crt_stdio_stream_data@@XZ 0000000140011cd8 f i libucrt:_file.obj
 0001:00010cdc       ?detach@?$__crt_unique_heap_ptr@PEAU__crt_stdio_stream_data@@U__crt_internal_free_policy@@@@QEAAPEAPEAU__crt_stdio_stream_data@@XZ 0000000140011cdc f i libucrt:_file.obj
 0001:00010ce4       ?release@?$__crt_unique_heap_ptr@PEAU__crt_stdio_stream_data@@U__crt_internal_free_policy@@@@QEAAXXZ 0000000140011ce4 f i libucrt:_file.obj
 0001:00010d00       __acrt_initialize_stdio    0000000140011d00 f   libucrt:_file.obj
 0001:00010e20       __acrt_iob_func            0000000140011e20 f   libucrt:_file.obj
 0001:00010e34       __acrt_uninitialize_stdio  0000000140011e34 f   libucrt:_file.obj
 0001:00010e90       _get_stream_buffer_pointers 0000000140011e90 f   libucrt:_file.obj
 0001:00010ed8       _lock_file                 0000000140011ed8 f   libucrt:_file.obj
 0001:00010ee4       _unlock_file               0000000140011ee4 f   libucrt:_file.obj
 0001:00010f58       ??$__crt_interlocked_read@J@@YAJPEDJ@Z 0000000140011f58 f i libucrt:puts.obj
 0001:00010f8c       ??0?$cached@H@__crt_cached_ptd_host@@QEAA@XZ 0000000140011f8c f i libucrt:puts.obj
 0001:00010f94       ??0?$cached@K@__crt_cached_ptd_host@@QEAA@XZ 0000000140011f94 f i libucrt:puts.obj
 0001:00010f9c       ??0__acrt_stdio_temporary_buffering_guard@@QEAA@QEAU_iobuf@@AEAV__crt_cached_ptd_host@@@Z 0000000140011f9c f i libucrt:puts.obj
 0001:00010fc0       ??0__crt_cached_ptd_host@@QEAA@QEAU__crt_locale_pointers@@@Z 0000000140011fc0 f i libucrt:puts.obj
 0001:00010ff8       ??0__crt_scoped_get_last_error_reset@@QEAA@XZ 0000000140011ff8 f i libucrt:puts.obj
 0001:00011014       ??1__acrt_stdio_temporary_buffering_guard@@QEAA@XZ 0000000140012014 f i libucrt:puts.obj
 0001:00011024       ??1__crt_cached_ptd_host@@QEAA@XZ 0000000140012024 f i libucrt:puts.obj
 0001:00011074       ??1__crt_scoped_get_last_error_reset@@QEAA@XZ 0000000140012074 f i libucrt:puts.obj
 0001:00011138       ?__crt_interlocked_read_32@@YAHPEDH@Z 0000000140012138 f i libucrt:puts.obj
 0001:00011284       ?check_synchronize_global_state_index@__crt_cached_ptd_host@@AEAA_KAEBV__crt_scoped_get_last_error_reset@@@Z 0000000140012284 f i libucrt:puts.obj
 0001:0001129c       ?check_synchronize_per_thread_data@__crt_cached_ptd_host@@AEAAPEAU__acrt_ptd@@XZ 000000014001229c f i libucrt:puts.obj
 0001:00011304       ?force_synchronize_global_state_index@__crt_cached_ptd_host@@AEAA_KAEBV__crt_scoped_get_last_error_reset@@@Z 0000000140012304 f i libucrt:puts.obj
 0001:00011310       ?force_synchronize_per_thread_data@__crt_cached_ptd_host@@AEAAPEAU__acrt_ptd@@XZ 0000000140012310 f i libucrt:puts.obj
 0001:00011364       ?get_current_state_index@__crt_state_management@@YA_KAEBV__crt_scoped_get_last_error_reset@@@Z 0000000140012364 f i libucrt:puts.obj
 0001:00011368       ?get_errno@__crt_cached_ptd_host@@QEAA@XZ 0000000140012368 f i libucrt:puts.obj
 0001:00011370       ?get_flags@__crt_stdio_stream@@QEBAJXZ 0000000140012370 f i libucrt:puts.obj
 0001:00011378       ?get_raw_ptd@__crt_cached_ptd_host@@QEAAPEAU__acrt_ptd@@XZ 0000000140012378 f i libucrt:puts.obj
 0001:000113e0       ?is_string_backed@__crt_stdio_stream@@QEBA_NXZ 00000001400123e0 f i libucrt:puts.obj
 0001:000113f0       ?public_stream@__crt_stdio_stream@@QEBAPEAU_iobuf@@XZ 00000001400123f0 f i libucrt:puts.obj
 0001:000113f4       ?set@?$cached@H@__crt_cached_ptd_host@@QEAAHH@Z 00000001400123f4 f i libucrt:puts.obj
 0001:00011400       ?unsafe_value@?$cached@H@__crt_cached_ptd_host@@QEAAHXZ 0000000140012400 f i libucrt:puts.obj
 0001:00011404       ?unsafe_value@?$cached@K@__crt_cached_ptd_host@@QEAAKXZ 0000000140012404 f i libucrt:puts.obj
 0001:00011408       ?valid@?$cached@H@__crt_cached_ptd_host@@QEBA_NXZ 0000000140012408 f i libucrt:puts.obj
 0001:0001140c       ?valid@?$cached@K@__crt_cached_ptd_host@@QEBA_NXZ 000000014001240c f i libucrt:puts.obj
 0001:00011410       __acrt_enable_global_locale_sync 0000000140012410 f i libucrt:puts.obj
 0001:0001141c       __acrt_locale_changed      000000014001241c f i libucrt:puts.obj
 0001:00011428       puts                       0000000140012428 f   libucrt:puts.obj
 0001:000115d0       ??$?0AEBV?$stream_output_adapter@D@__crt_stdio_output@@AEB_KAEBQEBDAEAV__crt_cached_ptd_host@@AEBQEAD@?$format_validation_base@DV?$stream_output_adapter@D@__crt_stdio_output@@@__crt_stdio_output@@IEAA@AEBV?$stream_output_adapter@D@1@AEB_KAEBQEBDAEAV__crt_cached_ptd_host@@AEBQEAD@Z 00000001400125d0 f i libucrt:output.obj
 0001:00011640       ??$?0AEBV?$stream_output_adapter@D@__crt_stdio_output@@AEB_KAEBQEBDAEAV__crt_cached_ptd_host@@AEBQEAD@?$positional_parameter_base@DV?$stream_output_adapter@D@__crt_stdio_output@@@__crt_stdio_output@@IEAA@AEBV?$stream_output_adapter@D@1@AEB_KAEBQEBDAEAV__crt_cached_ptd_host@@AEBQEAD@Z 0000000140012640 f i libucrt:output.obj
 0001:000116d0       ??$?0AEBV?$stream_output_adapter@D@__crt_stdio_output@@AEB_KAEBQEBDAEAV__crt_cached_ptd_host@@AEBQEAD@?$standard_base@DV?$stream_output_adapter@D@__crt_stdio_output@@@__crt_stdio_output@@IEAA@AEBV?$stream_output_adapter@D@1@AEB_KAEBQEBDAEAV__crt_cached_ptd_host@@AEBQEAD@Z 00000001400126d0 f i libucrt:output.obj
 0001:00011740       ??$?0AEBV?$stream_output_adapter@_W@__crt_stdio_output@@AEB_KAEBQEB_WAEAV__crt_cached_ptd_host@@AEBQEAD@?$format_validation_base@_WV?$stream_output_adapter@_W@__crt_stdio_output@@@__crt_stdio_output@@IEAA@AEBV?$stream_output_adapter@_W@1@AEB_KAEBQEB_WAEAV__crt_cached_ptd_host@@AEBQEAD@Z 0000000140012740 f i libucrt:output.obj
 0001:000117b4       ??$?0AEBV?$stream_output_adapter@_W@__crt_stdio_output@@AEB_KAEBQEB_WAEAV__crt_cached_ptd_host@@AEBQEAD@?$positional_parameter_base@_WV?$stream_output_adapter@_W@__crt_stdio_output@@@__crt_stdio_output@@IEAA@AEBV?$stream_output_adapter@_W@1@AEB_KAEBQEB_WAEAV__crt_cached_ptd_host@@AEBQEAD@Z 00000001400127b4 f i libucrt:output.obj
 0001:00011848       ??$?0AEBV?$stream_output_adapter@_W@__crt_stdio_output@@AEB_KAEBQEB_WAEAV__crt_cached_ptd_host@@AEBQEAD@?$standard_base@_WV?$stream_output_adapter@_W@__crt_stdio_output@@@__crt_stdio_output@@IEAA@AEBV?$stream_output_adapter@_W@1@AEB_KAEBQEB_WAEAV__crt_cached_ptd_host@@AEBQEAD@Z 0000000140012848 f i libucrt:output.obj
 0001:000118bc       ??$?0AEBV?$string_output_adapter@D@__crt_stdio_output@@AEB_KAEBQEBDAEAV__crt_cached_ptd_host@@AEBQEAD@?$format_validation_base@DV?$string_output_adapter@D@__crt_stdio_output@@@__crt_stdio_output@@IEAA@AEBV?$string_output_adapter@D@1@AEB_KAEBQEBDAEAV__crt_cached_ptd_host@@AEBQEAD@Z 00000001400128bc f i libucrt:output.obj
 0001:0001192c       ??$?0AEBV?$string_output_adapter@D@__crt_stdio_output@@AEB_KAEBQEBDAEAV__crt_cached_ptd_host@@AEBQEAD@?$positional_parameter_base@DV?$string_output_adapter@D@__crt_stdio_output@@@__crt_stdio_output@@IEAA@AEBV?$string_output_adapter@D@1@AEB_KAEBQEBDAEAV__crt_cached_ptd_host@@AEBQEAD@Z 000000014001292c f i libucrt:output.obj
 0001:000119bc       ??$?0AEBV?$string_output_adapter@D@__crt_stdio_output@@AEB_KAEBQEBDAEAV__crt_cached_ptd_host@@AEBQEAD@?$standard_base@DV?$string_output_adapter@D@__crt_stdio_output@@@__crt_stdio_output@@IEAA@AEBV?$string_output_adapter@D@1@AEB_KAEBQEBDAEAV__crt_cached_ptd_host@@AEBQEAD@Z 00000001400129bc f i libucrt:output.obj
 0001:00011a2c       ??$?0AEBV?$string_output_adapter@_W@__crt_stdio_output@@AEB_KAEBQEB_WAEAV__crt_cached_ptd_host@@AEBQEAD@?$format_validation_base@_WV?$string_output_adapter@_W@__crt_stdio_output@@@__crt_stdio_output@@IEAA@AEBV?$string_output_adapter@_W@1@AEB_KAEBQEB_WAEAV__crt_cached_ptd_host@@AEBQEAD@Z 0000000140012a2c f i libucrt:output.obj
 0001:00011aa0       ??$?0AEBV?$string_output_adapter@_W@__crt_stdio_output@@AEB_KAEBQEB_WAEAV__crt_cached_ptd_host@@AEBQEAD@?$positional_parameter_base@_WV?$string_output_adapter@_W@__crt_stdio_output@@@__crt_stdio_output@@IEAA@AEBV?$string_output_adapter@_W@1@AEB_KAEBQEB_WAEAV__crt_cached_ptd_host@@AEBQEAD@Z 0000000140012aa0 f i libucrt:output.obj
 0001:00011b34       ??$?0AEBV?$string_output_adapter@_W@__crt_stdio_output@@AEB_KAEBQEB_WAEAV__crt_cached_ptd_host@@AEBQEAD@?$standard_base@_WV?$string_output_adapter@_W@__crt_stdio_output@@@__crt_stdio_output@@IEAA@AEBV?$string_output_adapter@_W@1@AEB_KAEBQEB_WAEAV__crt_cached_ptd_host@@AEBQEAD@Z 0000000140012b34 f i libucrt:output.obj
 0001:00011e18       ??$_tcstol_internal@DPEAPEAD$0A@@@YAJAEAV__crt_cached_ptd_host@@QEBDQEAPEADH@Z 0000000140012e18 f i libucrt:output.obj
 0001:00011e48       ??$_tcstol_internal@_WPEAPEA_W$0A@@@YAJAEAV__crt_cached_ptd_host@@QEB_WQEAPEA_WH@Z 0000000140012e48 f i libucrt:output.obj
 0001:00012f88       ??$count@D@formatting_buffer@__crt_stdio_output@@QEBA_KXZ 0000000140013f88 f i libucrt:output.obj
 0001:00012fa4       ??$count@_W@formatting_buffer@__crt_stdio_output@@QEBA_KXZ 0000000140013fa4 f i libucrt:output.obj
 0001:00012fc0       ??$data@D@formatting_buffer@__crt_stdio_output@@QEAAPEADXZ 0000000140013fc0 f i libucrt:output.obj
 0001:00012fd0       ??$data@_W@formatting_buffer@__crt_stdio_output@@QEAAPEA_WXZ 0000000140013fd0 f i libucrt:output.obj
 0001:00012fe0       ??$ensure_buffer_is_big_enough@D@formatting_buffer@__crt_stdio_output@@QEAA_N_KAEAV__crt_cached_ptd_host@@@Z 0000000140013fe0 f i libucrt:output.obj
 0001:00013088       ??$ensure_buffer_is_big_enough@_W@formatting_buffer@__crt_stdio_output@@QEAA_N_KAEAV__crt_cached_ptd_host@@@Z 0000000140014088 f i libucrt:output.obj
 0001:00013134       ??$extract_argument_from_va_list@C_J@?$positional_parameter_base@DV?$stream_output_adapter@D@__crt_stdio_output@@@__crt_stdio_output@@IEAA_NAEA_J@Z 0000000140014134 f i libucrt:output.obj
 0001:00013240       ??$extract_argument_from_va_list@C_J@?$positional_parameter_base@DV?$string_output_adapter@D@__crt_stdio_output@@@__crt_stdio_output@@IEAA_NAEA_J@Z 0000000140014240 f i libucrt:output.obj
 0001:0001334c       ??$extract_argument_from_va_list@C_J@?$positional_parameter_base@_WV?$stream_output_adapter@_W@__crt_stdio_output@@@__crt_stdio_output@@IEAA_NAEA_J@Z 000000014001434c f i libucrt:output.obj
 0001:00013458       ??$extract_argument_from_va_list@C_J@?$positional_parameter_base@_WV?$string_output_adapter@_W@__crt_stdio_output@@@__crt_stdio_output@@IEAA_NAEA_J@Z 0000000140014458 f i libucrt:output.obj
 0001:00013564       ??$extract_argument_from_va_list@C_J@?$standard_base@DV?$stream_output_adapter@D@__crt_stdio_output@@@__crt_stdio_output@@IEAA_NAEA_J@Z 0000000140014564 f i libucrt:output.obj
 0001:0001357c       ??$extract_argument_from_va_list@C_J@?$standard_base@DV?$string_output_adapter@D@__crt_stdio_output@@@__crt_stdio_output@@IEAA_NAEA_J@Z 000000014001457c f i libucrt:output.obj
 0001:00013594       ??$extract_argument_from_va_list@C_J@?$standard_base@_WV?$stream_output_adapter@_W@__crt_stdio_output@@@__crt_stdio_output@@IEAA_NAEA_J@Z 0000000140014594 f i libucrt:output.obj
 0001:000135ac       ??$extract_argument_from_va_list@C_J@?$standard_base@_WV?$string_output_adapter@_W@__crt_stdio_output@@@__crt_stdio_output@@IEAA_NAEA_J@Z 00000001400145ac f i libucrt:output.obj
 0001:000135c4       ??$extract_argument_from_va_list@E_J@?$positional_parameter_base@DV?$stream_output_adapter@D@__crt_stdio_output@@@__crt_stdio_output@@IEAA_NAEA_J@Z 00000001400145c4 f i libucrt:output.obj
 0001:000136cc       ??$extract_argument_from_va_list@E_J@?$positional_parameter_base@DV?$string_output_adapter@D@__crt_stdio_output@@@__crt_stdio_output@@IEAA_NAEA_J@Z 00000001400146cc f i libucrt:output.obj
 0001:000137d4       ??$extract_argument_from_va_list@E_J@?$positional_parameter_base@_WV?$stream_output_adapter@_W@__crt_stdio_output@@@__crt_stdio_output@@IEAA_NAEA_J@Z 00000001400147d4 f i libucrt:output.obj
 0001:000138e0       ??$extract_argument_from_va_list@E_J@?$positional_parameter_base@_WV?$string_output_adapter@_W@__crt_stdio_output@@@__crt_stdio_output@@IEAA_NAEA_J@Z 00000001400148e0 f i libucrt:output.obj
 0001:000139ec       ??$extract_argument_from_va_list@E_J@?$standard_base@DV?$stream_output_adapter@D@__crt_stdio_output@@@__crt_stdio_output@@IEAA_NAEA_J@Z 00000001400149ec f i libucrt:output.obj
 0001:00013a04       ??$extract_argument_from_va_list@E_J@?$standard_base@DV?$string_output_adapter@D@__crt_stdio_output@@@__crt_stdio_output@@IEAA_NAEA_J@Z 0000000140014a04 f i libucrt:output.obj
 0001:00013a1c       ??$extract_argument_from_va_list@E_J@?$standard_base@_WV?$stream_output_adapter@_W@__crt_stdio_output@@@__crt_stdio_output@@IEAA_NAEA_J@Z 0000000140014a1c f i libucrt:output.obj
 0001:00013a34       ??$extract_argument_from_va_list@E_J@?$standard_base@_WV?$string_output_adapter@_W@__crt_stdio_output@@@__crt_stdio_output@@IEAA_NAEA_J@Z 0000000140014a34 f i libucrt:output.obj
 0001:00013a4c       ??$extract_argument_from_va_list@F_J@?$positional_parameter_base@DV?$stream_output_adapter@D@__crt_stdio_output@@@__crt_stdio_output@@IEAA_NAEA_J@Z 0000000140014a4c f i libucrt:output.obj
 0001:00013b58       ??$extract_argument_from_va_list@F_J@?$positional_parameter_base@DV?$string_output_adapter@D@__crt_stdio_output@@@__crt_stdio_output@@IEAA_NAEA_J@Z 0000000140014b58 f i libucrt:output.obj
 0001:00013c64       ??$extract_argument_from_va_list@F_J@?$positional_parameter_base@_WV?$stream_output_adapter@_W@__crt_stdio_output@@@__crt_stdio_output@@IEAA_NAEA_J@Z 0000000140014c64 f i libucrt:output.obj
 0001:00013d70       ??$extract_argument_from_va_list@F_J@?$positional_parameter_base@_WV?$string_output_adapter@_W@__crt_stdio_output@@@__crt_stdio_output@@IEAA_NAEA_J@Z 0000000140014d70 f i libucrt:output.obj
 0001:00013e7c       ??$extract_argument_from_va_list@F_J@?$standard_base@DV?$stream_output_adapter@D@__crt_stdio_output@@@__crt_stdio_output@@IEAA_NAEA_J@Z 0000000140014e7c f i libucrt:output.obj
 0001:00013e94       ??$extract_argument_from_va_list@F_J@?$standard_base@DV?$string_output_adapter@D@__crt_stdio_output@@@__crt_stdio_output@@IEAA_NAEA_J@Z 0000000140014e94 f i libucrt:output.obj
 0001:00013eac       ??$extract_argument_from_va_list@F_J@?$standard_base@_WV?$stream_output_adapter@_W@__crt_stdio_output@@@__crt_stdio_output@@IEAA_NAEA_J@Z 0000000140014eac f i libucrt:output.obj
 0001:00013ec4       ??$extract_argument_from_va_list@F_J@?$standard_base@_WV?$string_output_adapter@_W@__crt_stdio_output@@@__crt_stdio_output@@IEAA_NAEA_J@Z 0000000140014ec4 f i libucrt:output.obj
 0001:00013edc       ??$extract_argument_from_va_list@GD@?$positional_parameter_base@DV?$stream_output_adapter@D@__crt_stdio_output@@@__crt_stdio_output@@IEAA_NAEAD@Z 0000000140014edc f i libucrt:output.obj
 0001:00013fe0       ??$extract_argument_from_va_list@GD@?$positional_parameter_base@DV?$string_output_adapter@D@__crt_stdio_output@@@__crt_stdio_output@@IEAA_NAEAD@Z 0000000140014fe0 f i libucrt:output.obj
 0001:000140e4       ??$extract_argument_from_va_list@GD@?$standard_base@DV?$stream_output_adapter@D@__crt_stdio_output@@@__crt_stdio_output@@IEAA_NAEAD@Z 00000001400150e4 f i libucrt:output.obj
 0001:000140f8       ??$extract_argument_from_va_list@GD@?$standard_base@DV?$string_output_adapter@D@__crt_stdio_output@@@__crt_stdio_output@@IEAA_NAEAD@Z 00000001400150f8 f i libucrt:output.obj
 0001:0001410c       ??$extract_argument_from_va_list@G_J@?$positional_parameter_base@DV?$stream_output_adapter@D@__crt_stdio_output@@@__crt_stdio_output@@IEAA_NAEA_J@Z 000000014001510c f i libucrt:output.obj
 0001:00014214       ??$extract_argument_from_va_list@G_J@?$positional_parameter_base@DV?$string_output_adapter@D@__crt_stdio_output@@@__crt_stdio_output@@IEAA_NAEA_J@Z 0000000140015214 f i libucrt:output.obj
 0001:0001431c       ??$extract_argument_from_va_list@G_J@?$positional_parameter_base@_WV?$stream_output_adapter@_W@__crt_stdio_output@@@__crt_stdio_output@@IEAA_NAEA_J@Z 000000014001531c f i libucrt:output.obj
 0001:00014428       ??$extract_argument_from_va_list@G_J@?$positional_parameter_base@_WV?$string_output_adapter@_W@__crt_stdio_output@@@__crt_stdio_output@@IEAA_NAEA_J@Z 0000000140015428 f i libucrt:output.obj
 0001:00014534       ??$extract_argument_from_va_list@G_J@?$standard_base@DV?$stream_output_adapter@D@__crt_stdio_output@@@__crt_stdio_output@@IEAA_NAEA_J@Z 0000000140015534 f i libucrt:output.obj
 0001:0001454c       ??$extract_argument_from_va_list@G_J@?$standard_base@DV?$string_output_adapter@D@__crt_stdio_output@@@__crt_stdio_output@@IEAA_NAEA_J@Z 000000014001554c f i libucrt:output.obj
 0001:00014564       ??$extract_argument_from_va_list@G_J@?$standard_base@_WV?$stream_output_adapter@_W@__crt_stdio_output@@@__crt_stdio_output@@IEAA_NAEA_J@Z 0000000140015564 f i libucrt:output.obj
 0001:0001457c       ??$extract_argument_from_va_list@G_J@?$standard_base@_WV?$string_output_adapter@_W@__crt_stdio_output@@@__crt_stdio_output@@IEAA_NAEA_J@Z 000000014001557c f i libucrt:output.obj
 0001:00014594       ??$extract_argument_from_va_list@H_J@?$positional_parameter_base@DV?$stream_output_adapter@D@__crt_stdio_output@@@__crt_stdio_output@@IEAA_NAEA_J@Z 0000000140015594 f i libucrt:output.obj
 0001:0001469c       ??$extract_argument_from_va_list@H_J@?$positional_parameter_base@DV?$string_output_adapter@D@__crt_stdio_output@@@__crt_stdio_output@@IEAA_NAEA_J@Z 000000014001569c f i libucrt:output.obj
 0001:000147a4       ??$extract_argument_from_va_list@H_J@?$positional_parameter_base@_WV?$stream_output_adapter@_W@__crt_stdio_output@@@__crt_stdio_output@@IEAA_NAEA_J@Z 00000001400157a4 f i libucrt:output.obj
 0001:000148b0       ??$extract_argument_from_va_list@H_J@?$positional_parameter_base@_WV?$string_output_adapter@_W@__crt_stdio_output@@@__crt_stdio_output@@IEAA_NAEA_J@Z 00000001400158b0 f i libucrt:output.obj
 0001:000149bc       ??$extract_argument_from_va_list@H_J@?$standard_base@DV?$stream_output_adapter@D@__crt_stdio_output@@@__crt_stdio_output@@IEAA_NAEA_J@Z 00000001400159bc f i libucrt:output.obj
 0001:000149d4       ??$extract_argument_from_va_list@H_J@?$standard_base@DV?$string_output_adapter@D@__crt_stdio_output@@@__crt_stdio_output@@IEAA_NAEA_J@Z 00000001400159d4 f i libucrt:output.obj
 0001:000149ec       ??$extract_argument_from_va_list@H_J@?$standard_base@_WV?$stream_output_adapter@_W@__crt_stdio_output@@@__crt_stdio_output@@IEAA_NAEA_J@Z 00000001400159ec f i libucrt:output.obj
 0001:00014a04       ??$extract_argument_from_va_list@H_J@?$standard_base@_WV?$string_output_adapter@_W@__crt_stdio_output@@@__crt_stdio_output@@IEAA_NAEA_J@Z 0000000140015a04 f i libucrt:output.obj
 0001:00014a1c       ??$extract_argument_from_va_list@I_J@?$positional_parameter_base@DV?$stream_output_adapter@D@__crt_stdio_output@@@__crt_stdio_output@@IEAA_NAEA_J@Z 0000000140015a1c f i libucrt:output.obj
 0001:00014b24       ??$extract_argument_from_va_list@I_J@?$positional_parameter_base@DV?$string_output_adapter@D@__crt_stdio_output@@@__crt_stdio_output@@IEAA_NAEA_J@Z 0000000140015b24 f i libucrt:output.obj
 0001:00014c2c       ??$extract_argument_from_va_list@I_J@?$positional_parameter_base@_WV?$stream_output_adapter@_W@__crt_stdio_output@@@__crt_stdio_output@@IEAA_NAEA_J@Z 0000000140015c2c f i libucrt:output.obj
 0001:00014d34       ??$extract_argument_from_va_list@I_J@?$positional_parameter_base@_WV?$string_output_adapter@_W@__crt_stdio_output@@@__crt_stdio_output@@IEAA_NAEA_J@Z 0000000140015d34 f i libucrt:output.obj
 0001:00014e3c       ??$extract_argument_from_va_list@I_J@?$standard_base@DV?$stream_output_adapter@D@__crt_stdio_output@@@__crt_stdio_output@@IEAA_NAEA_J@Z 0000000140015e3c f i libucrt:output.obj
 0001:00014e54       ??$extract_argument_from_va_list@I_J@?$standard_base@DV?$string_output_adapter@D@__crt_stdio_output@@@__crt_stdio_output@@IEAA_NAEA_J@Z 0000000140015e54 f i libucrt:output.obj
 0001:00014e6c       ??$extract_argument_from_va_list@I_J@?$standard_base@_WV?$stream_output_adapter@_W@__crt_stdio_output@@@__crt_stdio_output@@IEAA_NAEA_J@Z 0000000140015e6c f i libucrt:output.obj
 0001:00014e84       ??$extract_argument_from_va_list@I_J@?$standard_base@_WV?$string_output_adapter@_W@__crt_stdio_output@@@__crt_stdio_output@@IEAA_NAEA_J@Z 0000000140015e84 f i libucrt:output.obj
 0001:00014e9c       ??$extract_argument_from_va_list@PEADPEAD@?$positional_parameter_base@DV?$stream_output_adapter@D@__crt_stdio_output@@@__crt_stdio_output@@IEAA_NAEAPEAD@Z 0000000140015e9c f i libucrt:output.obj
 0001:00014fa4       ??$extract_argument_from_va_list@PEADPEAD@?$positional_parameter_base@DV?$string_output_adapter@D@__crt_stdio_output@@@__crt_stdio_output@@IEAA_NAEAPEAD@Z 0000000140015fa4 f i libucrt:output.obj
 0001:000150ac       ??$extract_argument_from_va_list@PEADPEAD@?$positional_parameter_base@_WV?$stream_output_adapter@_W@__crt_stdio_output@@@__crt_stdio_output@@IEAA_NAEAPEAD@Z 00000001400160ac f i libucrt:output.obj
 0001:000151b8       ??$extract_argument_from_va_list@PEADPEAD@?$positional_parameter_base@_WV?$string_output_adapter@_W@__crt_stdio_output@@@__crt_stdio_output@@IEAA_NAEAPEAD@Z 00000001400161b8 f i libucrt:output.obj
 0001:000152c4       ??$extract_argument_from_va_list@PEADPEAD@?$standard_base@DV?$stream_output_adapter@D@__crt_stdio_output@@@__crt_stdio_output@@IEAA_NAEAPEAD@Z 00000001400162c4 f i libucrt:output.obj
 0001:000152dc       ??$extract_argument_from_va_list@PEADPEAD@?$standard_base@DV?$string_output_adapter@D@__crt_stdio_output@@@__crt_stdio_output@@IEAA_NAEAPEAD@Z 00000001400162dc f i libucrt:output.obj
 0001:000152f4       ??$extract_argument_from_va_list@PEADPEAD@?$standard_base@_WV?$stream_output_adapter@_W@__crt_stdio_output@@@__crt_stdio_output@@IEAA_NAEAPEAD@Z 00000001400162f4 f i libucrt:output.obj
 0001:0001530c       ??$extract_argument_from_va_list@PEADPEAD@?$standard_base@_WV?$string_output_adapter@_W@__crt_stdio_output@@@__crt_stdio_output@@IEAA_NAEAPEAD@Z 000000014001630c f i libucrt:output.obj
 0001:00015324       ??$extract_argument_from_va_list@PEAUansi_string@?1??type_case_Z@?$output_processor@DV?$stream_output_adapter@D@__crt_stdio_output@@V?$format_validation_base@DV?$stream_output_adapter@D@__crt_stdio_output@@@2@@__crt_stdio_output@@AEAA_NXZ@PEAU1?1??234@AEAA_NXZ@@?$standard_base@DV?$stream_output_adapter@D@__crt_stdio_output@@@__crt_stdio_output@@IEAA_NAEAPEAUansi_string@?1??type_case_Z@?$output_processor@DV?$stream_output_adapter@D@__crt_stdio_output@@V?$format_validation_base@DV?$stream_output_adapter@D@__crt_stdio_output@@@2@@1@AEAA_NXZ@@Z 0000000140016324 f i libucrt:output.obj
 0001:0001533c       ??$extract_argument_from_va_list@PEAUansi_string@?1??type_case_Z@?$output_processor@DV?$stream_output_adapter@D@__crt_stdio_output@@V?$positional_parameter_base@DV?$stream_output_adapter@D@__crt_stdio_output@@@2@@__crt_stdio_output@@AEAA_NXZ@PEAU1?1??234@AEAA_NXZ@@?$positional_parameter_base@DV?$stream_output_adapter@D@__crt_stdio_output@@@__crt_stdio_output@@IEAA_NAEAPEAUansi_string@?1??type_case_Z@?$output_processor@DV?$stream_output_adapter@D@__crt_stdio_output@@V?$positional_parameter_base@DV?$stream_output_adapter@D@__crt_stdio_output@@@2@@1@AEAA_NXZ@@Z 000000014001633c f i libucrt:output.obj
 0001:00015444       ??$extract_argument_from_va_list@PEAUansi_string@?1??type_case_Z@?$output_processor@DV?$stream_output_adapter@D@__crt_stdio_output@@V?$positional_parameter_base@DV?$stream_output_adapter@D@__crt_stdio_output@@@2@@__crt_stdio_output@@AEAA_NXZ@PEAU1?1??234@AEAA_NXZ@@?$standard_base@DV?$stream_output_adapter@D@__crt_stdio_output@@@__crt_stdio_output@@IEAA_NAEAPEAUansi_string@?1??type_case_Z@?$output_processor@DV?$stream_output_adapter@D@__crt_stdio_output@@V?$positional_parameter_base@DV?$stream_output_adapter@D@__crt_stdio_output@@@2@@1@AEAA_NXZ@@Z 0000000140016444 f i libucrt:output.obj
 0001:0001545c       ??$extract_argument_from_va_list@PEAUansi_string@?1??type_case_Z@?$output_processor@DV?$stream_output_adapter@D@__crt_stdio_output@@V?$standard_base@DV?$stream_output_adapter@D@__crt_stdio_output@@@2@@__crt_stdio_output@@AEAA_NXZ@PEAU1?1??234@AEAA_NXZ@@?$standard_base@DV?$stream_output_adapter@D@__crt_stdio_output@@@__crt_stdio_output@@IEAA_NAEAPEAUansi_string@?1??type_case_Z@?$output_processor@DV?$stream_output_adapter@D@__crt_stdio_output@@V?$standard_base@DV?$stream_output_adapter@D@__crt_stdio_output@@@2@@1@AEAA_NXZ@@Z 000000014001645c f i libucrt:output.obj
 0001:00015474       ??$extract_argument_from_va_list@PEAUansi_string@?1??type_case_Z@?$output_processor@DV?$string_output_adapter@D@__crt_stdio_output@@V?$format_validation_base@DV?$string_output_adapter@D@__crt_stdio_output@@@2@@__crt_stdio_output@@AEAA_NXZ@PEAU1?1??234@AEAA_NXZ@@?$standard_base@DV?$string_output_adapter@D@__crt_stdio_output@@@__crt_stdio_output@@IEAA_NAEAPEAUansi_string@?1??type_case_Z@?$output_processor@DV?$string_output_adapter@D@__crt_stdio_output@@V?$format_validation_base@DV?$string_output_adapter@D@__crt_stdio_output@@@2@@1@AEAA_NXZ@@Z 0000000140016474 f i libucrt:output.obj
 0001:0001548c       ??$extract_argument_from_va_list@PEAUansi_string@?1??type_case_Z@?$output_processor@DV?$string_output_adapter@D@__crt_stdio_output@@V?$positional_parameter_base@DV?$string_output_adapter@D@__crt_stdio_output@@@2@@__crt_stdio_output@@AEAA_NXZ@PEAU1?1??234@AEAA_NXZ@@?$positional_parameter_base@DV?$string_output_adapter@D@__crt_stdio_output@@@__crt_stdio_output@@IEAA_NAEAPEAUansi_string@?1??type_case_Z@?$output_processor@DV?$string_output_adapter@D@__crt_stdio_output@@V?$positional_parameter_base@DV?$string_output_adapter@D@__crt_stdio_output@@@2@@1@AEAA_NXZ@@Z 000000014001648c f i libucrt:output.obj
 0001:00015594       ??$extract_argument_from_va_list@PEAUansi_string@?1??type_case_Z@?$output_processor@DV?$string_output_adapter@D@__crt_stdio_output@@V?$positional_parameter_base@DV?$string_output_adapter@D@__crt_stdio_output@@@2@@__crt_stdio_output@@AEAA_NXZ@PEAU1?1??234@AEAA_NXZ@@?$standard_base@DV?$string_output_adapter@D@__crt_stdio_output@@@__crt_stdio_output@@IEAA_NAEAPEAUansi_string@?1??type_case_Z@?$output_processor@DV?$string_output_adapter@D@__crt_stdio_output@@V?$positional_parameter_base@DV?$string_output_adapter@D@__crt_stdio_output@@@2@@1@AEAA_NXZ@@Z 0000000140016594 f i libucrt:output.obj
 0001:000155ac       ??$extract_argument_from_va_list@PEAUansi_string@?1??type_case_Z@?$output_processor@DV?$string_output_adapter@D@__crt_stdio_output@@V?$standard_base@DV?$string_output_adapter@D@__crt_stdio_output@@@2@@__crt_stdio_output@@AEAA_NXZ@PEAU1?1??234@AEAA_NXZ@@?$standard_base@DV?$string_output_adapter@D@__crt_stdio_output@@@__crt_stdio_output@@IEAA_NAEAPEAUansi_string@?1??type_case_Z@?$output_processor@DV?$string_output_adapter@D@__crt_stdio_output@@V?$standard_base@DV?$string_output_adapter@D@__crt_stdio_output@@@2@@1@AEAA_NXZ@@Z 00000001400165ac f i libucrt:output.obj
 0001:000155c4       ??$extract_argument_from_va_list@PEAUansi_string@?1??type_case_Z@?$output_processor@_WV?$stream_output_adapter@_W@__crt_stdio_output@@V?$format_validation_base@_WV?$stream_output_adapter@_W@__crt_stdio_output@@@2@@__crt_stdio_output@@AEAA_NXZ@PEAU1?1??234@AEAA_NXZ@@?$standard_base@_WV?$stream_output_adapter@_W@__crt_stdio_output@@@__crt_stdio_output@@IEAA_NAEAPEAUansi_string@?1??type_case_Z@?$output_processor@_WV?$stream_output_adapter@_W@__crt_stdio_output@@V?$format_validation_base@_WV?$stream_output_adapter@_W@__crt_stdio_output@@@2@@1@AEAA_NXZ@@Z 00000001400165c4 f i libucrt:output.obj
 0001:000155dc       ??$extract_argument_from_va_list@PEAUansi_string@?1??type_case_Z@?$output_processor@_WV?$stream_output_adapter@_W@__crt_stdio_output@@V?$positional_parameter_base@_WV?$stream_output_adapter@_W@__crt_stdio_output@@@2@@__crt_stdio_output@@AEAA_NXZ@PEAU1?1??234@AEAA_NXZ@@?$positional_parameter_base@_WV?$stream_output_adapter@_W@__crt_stdio_output@@@__crt_stdio_output@@IEAA_NAEAPEAUansi_string@?1??type_case_Z@?$output_processor@_WV?$stream_output_adapter@_W@__crt_stdio_output@@V?$positional_parameter_base@_WV?$stream_output_adapter@_W@__crt_stdio_output@@@2@@1@AEAA_NXZ@@Z 00000001400165dc f i libucrt:output.obj
 0001:000156e8       ??$extract_argument_from_va_list@PEAUansi_string@?1??type_case_Z@?$output_processor@_WV?$stream_output_adapter@_W@__crt_stdio_output@@V?$positional_parameter_base@_WV?$stream_output_adapter@_W@__crt_stdio_output@@@2@@__crt_stdio_output@@AEAA_NXZ@PEAU1?1??234@AEAA_NXZ@@?$standard_base@_WV?$stream_output_adapter@_W@__crt_stdio_output@@@__crt_stdio_output@@IEAA_NAEAPEAUansi_string@?1??type_case_Z@?$output_processor@_WV?$stream_output_adapter@_W@__crt_stdio_output@@V?$positional_parameter_base@_WV?$stream_output_adapter@_W@__crt_stdio_output@@@2@@1@AEAA_NXZ@@Z 00000001400166e8 f i libucrt:output.obj
 0001:00015700       ??$extract_argument_from_va_list@PEAUansi_string@?1??type_case_Z@?$output_processor@_WV?$stream_output_adapter@_W@__crt_stdio_output@@V?$standard_base@_WV?$stream_output_adapter@_W@__crt_stdio_output@@@2@@__crt_stdio_output@@AEAA_NXZ@PEAU1?1??234@AEAA_NXZ@@?$standard_base@_WV?$stream_output_adapter@_W@__crt_stdio_output@@@__crt_stdio_output@@IEAA_NAEAPEAUansi_string@?1??type_case_Z@?$output_processor@_WV?$stream_output_adapter@_W@__crt_stdio_output@@V?$standard_base@_WV?$stream_output_adapter@_W@__crt_stdio_output@@@2@@1@AEAA_NXZ@@Z 0000000140016700 f i libucrt:output.obj
 0001:00015718       ??$extract_argument_from_va_list@PEAUansi_string@?1??type_case_Z@?$output_processor@_WV?$string_output_adapter@_W@__crt_stdio_output@@V?$format_validation_base@_WV?$string_output_adapter@_W@__crt_stdio_output@@@2@@__crt_stdio_output@@AEAA_NXZ@PEAU1?1??234@AEAA_NXZ@@?$standard_base@_WV?$string_output_adapter@_W@__crt_stdio_output@@@__crt_stdio_output@@IEAA_NAEAPEAUansi_string@?1??type_case_Z@?$output_processor@_WV?$string_output_adapter@_W@__crt_stdio_output@@V?$format_validation_base@_WV?$string_output_adapter@_W@__crt_stdio_output@@@2@@1@AEAA_NXZ@@Z 0000000140016718 f i libucrt:output.obj
 0001:00015730       ??$extract_argument_from_va_list@PEAUansi_string@?1??type_case_Z@?$output_processor@_WV?$string_output_adapter@_W@__crt_stdio_output@@V?$positional_parameter_base@_WV?$string_output_adapter@_W@__crt_stdio_output@@@2@@__crt_stdio_output@@AEAA_NXZ@PEAU1?1??234@AEAA_NXZ@@?$positional_parameter_base@_WV?$string_output_adapter@_W@__crt_stdio_output@@@__crt_stdio_output@@IEAA_NAEAPEAUansi_string@?1??type_case_Z@?$output_processor@_WV?$string_output_adapter@_W@__crt_stdio_output@@V?$positional_parameter_base@_WV?$string_output_adapter@_W@__crt_stdio_output@@@2@@1@AEAA_NXZ@@Z 0000000140016730 f i libucrt:output.obj
 0001:0001583c       ??$extract_argument_from_va_list@PEAUansi_string@?1??type_case_Z@?$output_processor@_WV?$string_output_adapter@_W@__crt_stdio_output@@V?$positional_parameter_base@_WV?$string_output_adapter@_W@__crt_stdio_output@@@2@@__crt_stdio_output@@AEAA_NXZ@PEAU1?1??234@AEAA_NXZ@@?$standard_base@_WV?$string_output_adapter@_W@__crt_stdio_output@@@__crt_stdio_output@@IEAA_NAEAPEAUansi_string@?1??type_case_Z@?$output_processor@_WV?$string_output_adapter@_W@__crt_stdio_output@@V?$positional_parameter_base@_WV?$string_output_adapter@_W@__crt_stdio_output@@@2@@1@AEAA_NXZ@@Z 000000014001683c f i libucrt:output.obj
 0001:00015854       ??$extract_argument_from_va_list@PEAUansi_string@?1??type_case_Z@?$output_processor@_WV?$string_output_adapter@_W@__crt_stdio_output@@V?$standard_base@_WV?$string_output_adapter@_W@__crt_stdio_output@@@2@@__crt_stdio_output@@AEAA_NXZ@PEAU1?1??234@AEAA_NXZ@@?$standard_base@_WV?$string_output_adapter@_W@__crt_stdio_output@@@__crt_stdio_output@@IEAA_NAEAPEAUansi_string@?1??type_case_Z@?$output_processor@_WV?$string_output_adapter@_W@__crt_stdio_output@@V?$standard_base@_WV?$string_output_adapter@_W@__crt_stdio_output@@@2@@1@AEAA_NXZ@@Z 0000000140016854 f i libucrt:output.obj
 0001:0001586c       ??$extract_argument_from_va_list@PEAXPEAX@?$positional_parameter_base@DV?$stream_output_adapter@D@__crt_stdio_output@@@__crt_stdio_output@@IEAA_NAEAPEAX@Z 000000014001686c f i libucrt:output.obj
 0001:00015974       ??$extract_argument_from_va_list@PEAXPEAX@?$positional_parameter_base@DV?$string_output_adapter@D@__crt_stdio_output@@@__crt_stdio_output@@IEAA_NAEAPEAX@Z 0000000140016974 f i libucrt:output.obj
 0001:00015a7c       ??$extract_argument_from_va_list@PEAXPEAX@?$positional_parameter_base@_WV?$stream_output_adapter@_W@__crt_stdio_output@@@__crt_stdio_output@@IEAA_NAEAPEAX@Z 0000000140016a7c f i libucrt:output.obj
 0001:00015b88       ??$extract_argument_from_va_list@PEAXPEAX@?$positional_parameter_base@_WV?$string_output_adapter@_W@__crt_stdio_output@@@__crt_stdio_output@@IEAA_NAEAPEAX@Z 0000000140016b88 f i libucrt:output.obj
 0001:00015c94       ??$extract_argument_from_va_list@PEAXPEAX@?$standard_base@DV?$stream_output_adapter@D@__crt_stdio_output@@@__crt_stdio_output@@IEAA_NAEAPEAX@Z 0000000140016c94 f i libucrt:output.obj
 0001:00015cac       ??$extract_argument_from_va_list@PEAXPEAX@?$standard_base@DV?$string_output_adapter@D@__crt_stdio_output@@@__crt_stdio_output@@IEAA_NAEAPEAX@Z 0000000140016cac f i libucrt:output.obj
 0001:00015cc4       ??$extract_argument_from_va_list@PEAXPEAX@?$standard_base@_WV?$stream_output_adapter@_W@__crt_stdio_output@@@__crt_stdio_output@@IEAA_NAEAPEAX@Z 0000000140016cc4 f i libucrt:output.obj
 0001:00015cdc       ??$extract_argument_from_va_list@PEAXPEAX@?$standard_base@_WV?$string_output_adapter@_W@__crt_stdio_output@@@__crt_stdio_output@@IEAA_NAEAPEAX@Z 0000000140016cdc f i libucrt:output.obj
 0001:00015cf4       ??$extract_argument_from_va_list@U_CRT_DOUBLE@@U1@@?$positional_parameter_base@DV?$stream_output_adapter@D@__crt_stdio_output@@@__crt_stdio_output@@IEAA_NAEAU_CRT_DOUBLE@@@Z 0000000140016cf4 f i libucrt:output.obj
 0001:00015dfc       ??$extract_argument_from_va_list@U_CRT_DOUBLE@@U1@@?$positional_parameter_base@DV?$string_output_adapter@D@__crt_stdio_output@@@__crt_stdio_output@@IEAA_NAEAU_CRT_DOUBLE@@@Z 0000000140016dfc f i libucrt:output.obj
 0001:00015f04       ??$extract_argument_from_va_list@U_CRT_DOUBLE@@U1@@?$positional_parameter_base@_WV?$stream_output_adapter@_W@__crt_stdio_output@@@__crt_stdio_output@@IEAA_NAEAU_CRT_DOUBLE@@@Z 0000000140016f04 f i libucrt:output.obj
 0001:00016010       ??$extract_argument_from_va_list@U_CRT_DOUBLE@@U1@@?$positional_parameter_base@_WV?$string_output_adapter@_W@__crt_stdio_output@@@__crt_stdio_output@@IEAA_NAEAU_CRT_DOUBLE@@@Z 0000000140017010 f i libucrt:output.obj
 0001:0001611c       ??$extract_argument_from_va_list@U_CRT_DOUBLE@@U1@@?$standard_base@DV?$stream_output_adapter@D@__crt_stdio_output@@@__crt_stdio_output@@IEAA_NAEAU_CRT_DOUBLE@@@Z 000000014001711c f i libucrt:output.obj
 0001:00016134       ??$extract_argument_from_va_list@U_CRT_DOUBLE@@U1@@?$standard_base@DV?$string_output_adapter@D@__crt_stdio_output@@@__crt_stdio_output@@IEAA_NAEAU_CRT_DOUBLE@@@Z 0000000140017134 f i libucrt:output.obj
 0001:0001614c       ??$extract_argument_from_va_list@U_CRT_DOUBLE@@U1@@?$standard_base@_WV?$stream_output_adapter@_W@__crt_stdio_output@@@__crt_stdio_output@@IEAA_NAEAU_CRT_DOUBLE@@@Z 000000014001714c f i libucrt:output.obj
 0001:00016164       ??$extract_argument_from_va_list@U_CRT_DOUBLE@@U1@@?$standard_base@_WV?$string_output_adapter@_W@__crt_stdio_output@@@__crt_stdio_output@@IEAA_NAEAU_CRT_DOUBLE@@@Z 0000000140017164 f i libucrt:output.obj
 0001:0001617c       ??$extract_argument_from_va_list@_J_J@?$positional_parameter_base@DV?$stream_output_adapter@D@__crt_stdio_output@@@__crt_stdio_output@@IEAA_NAEA_J@Z 000000014001717c f i libucrt:output.obj
 0001:00016284       ??$extract_argument_from_va_list@_J_J@?$positional_parameter_base@DV?$string_output_adapter@D@__crt_stdio_output@@@__crt_stdio_output@@IEAA_NAEA_J@Z 0000000140017284 f i libucrt:output.obj
 0001:0001638c       ??$extract_argument_from_va_list@_J_J@?$positional_parameter_base@_WV?$stream_output_adapter@_W@__crt_stdio_output@@@__crt_stdio_output@@IEAA_NAEA_J@Z 000000014001738c f i libucrt:output.obj
 0001:00016498       ??$extract_argument_from_va_list@_J_J@?$positional_parameter_base@_WV?$string_output_adapter@_W@__crt_stdio_output@@@__crt_stdio_output@@IEAA_NAEA_J@Z 0000000140017498 f i libucrt:output.obj
 0001:000165a4       ??$extract_argument_from_va_list@_J_J@?$standard_base@DV?$stream_output_adapter@D@__crt_stdio_output@@@__crt_stdio_output@@IEAA_NAEA_J@Z 00000001400175a4 f i libucrt:output.obj
 0001:000165bc       ??$extract_argument_from_va_list@_J_J@?$standard_base@DV?$string_output_adapter@D@__crt_stdio_output@@@__crt_stdio_output@@IEAA_NAEA_J@Z 00000001400175bc f i libucrt:output.obj
 0001:000165d4       ??$extract_argument_from_va_list@_J_J@?$standard_base@_WV?$stream_output_adapter@_W@__crt_stdio_output@@@__crt_stdio_output@@IEAA_NAEA_J@Z 00000001400175d4 f i libucrt:output.obj
 0001:000165ec       ??$extract_argument_from_va_list@_J_J@?$standard_base@_WV?$string_output_adapter@_W@__crt_stdio_output@@@__crt_stdio_output@@IEAA_NAEA_J@Z 00000001400175ec f i libucrt:output.obj
 0001:00016604       ??$extract_argument_from_va_list@_K_J@?$positional_parameter_base@DV?$stream_output_adapter@D@__crt_stdio_output@@@__crt_stdio_output@@IEAA_NAEA_J@Z 0000000140017604 f i libucrt:output.obj
 0001:0001670c       ??$extract_argument_from_va_list@_K_J@?$positional_parameter_base@DV?$string_output_adapter@D@__crt_stdio_output@@@__crt_stdio_output@@IEAA_NAEA_J@Z 000000014001770c f i libucrt:output.obj
 0001:00016814       ??$extract_argument_from_va_list@_K_J@?$positional_parameter_base@_WV?$stream_output_adapter@_W@__crt_stdio_output@@@__crt_stdio_output@@IEAA_NAEA_J@Z 0000000140017814 f i libucrt:output.obj
 0001:00016920       ??$extract_argument_from_va_list@_K_J@?$positional_parameter_base@_WV?$string_output_adapter@_W@__crt_stdio_output@@@__crt_stdio_output@@IEAA_NAEA_J@Z 0000000140017920 f i libucrt:output.obj
 0001:00016a2c       ??$extract_argument_from_va_list@_K_J@?$standard_base@DV?$stream_output_adapter@D@__crt_stdio_output@@@__crt_stdio_output@@IEAA_NAEA_J@Z 0000000140017a2c f i libucrt:output.obj
 0001:00016a44       ??$extract_argument_from_va_list@_K_J@?$standard_base@DV?$string_output_adapter@D@__crt_stdio_output@@@__crt_stdio_output@@IEAA_NAEA_J@Z 0000000140017a44 f i libucrt:output.obj
 0001:00016a5c       ??$extract_argument_from_va_list@_K_J@?$standard_base@_WV?$stream_output_adapter@_W@__crt_stdio_output@@@__crt_stdio_output@@IEAA_NAEA_J@Z 0000000140017a5c f i libucrt:output.obj
 0001:00016a74       ??$extract_argument_from_va_list@_K_J@?$standard_base@_WV?$string_output_adapter@_W@__crt_stdio_output@@@__crt_stdio_output@@IEAA_NAEA_J@Z 0000000140017a74 f i libucrt:output.obj
 0001:00016a8c       ??$extract_argument_from_va_list@_W_W@?$positional_parameter_base@DV?$stream_output_adapter@D@__crt_stdio_output@@@__crt_stdio_output@@IEAA_NAEA_W@Z 0000000140017a8c f i libucrt:output.obj
 0001:00016b94       ??$extract_argument_from_va_list@_W_W@?$positional_parameter_base@DV?$string_output_adapter@D@__crt_stdio_output@@@__crt_stdio_output@@IEAA_NAEA_W@Z 0000000140017b94 f i libucrt:output.obj
 0001:00016c9c       ??$extract_argument_from_va_list@_W_W@?$positional_parameter_base@_WV?$stream_output_adapter@_W@__crt_stdio_output@@@__crt_stdio_output@@IEAA_NAEA_W@Z 0000000140017c9c f i libucrt:output.obj
 0001:00016da8       ??$extract_argument_from_va_list@_W_W@?$positional_parameter_base@_WV?$string_output_adapter@_W@__crt_stdio_output@@@__crt_stdio_output@@IEAA_NAEA_W@Z 0000000140017da8 f i libucrt:output.obj
 0001:00016eb4       ??$extract_argument_from_va_list@_W_W@?$standard_base@DV?$stream_output_adapter@D@__crt_stdio_output@@@__crt_stdio_output@@IEAA_NAEA_W@Z 0000000140017eb4 f i libucrt:output.obj
 0001:00016ecc       ??$extract_argument_from_va_list@_W_W@?$standard_base@DV?$string_output_adapter@D@__crt_stdio_output@@@__crt_stdio_output@@IEAA_NAEA_W@Z 0000000140017ecc f i libucrt:output.obj
 0001:00016ee4       ??$extract_argument_from_va_list@_W_W@?$standard_base@_WV?$stream_output_adapter@_W@__crt_stdio_output@@@__crt_stdio_output@@IEAA_NAEA_W@Z 0000000140017ee4 f i libucrt:output.obj
 0001:00016efc       ??$extract_argument_from_va_list@_W_W@?$standard_base@_WV?$string_output_adapter@_W@__crt_stdio_output@@@__crt_stdio_output@@IEAA_NAEA_W@Z 0000000140017efc f i libucrt:output.obj
 0001:00016f14       ??$get_parameter_type@D@?$positional_parameter_base@DV?$stream_output_adapter@D@__crt_stdio_output@@@__crt_stdio_output@@CA?AW4parameter_type@01@PEAD@Z 0000000140017f14 f i libucrt:output.obj
 0001:00016f1c       ??$get_parameter_type@D@?$positional_parameter_base@DV?$string_output_adapter@D@__crt_stdio_output@@@__crt_stdio_output@@CA?AW4parameter_type@01@PEAD@Z 0000000140017f1c f i libucrt:output.obj
 0001:00016f24       ??$get_parameter_type@D@?$positional_parameter_base@_WV?$stream_output_adapter@_W@__crt_stdio_output@@@__crt_stdio_output@@CA?AW4parameter_type@01@PEAD@Z 0000000140017f24 f i libucrt:output.obj
 0001:00016f2c       ??$get_parameter_type@D@?$positional_parameter_base@_WV?$string_output_adapter@_W@__crt_stdio_output@@@__crt_stdio_output@@CA?AW4parameter_type@01@PEAD@Z 0000000140017f2c f i libucrt:output.obj
 0001:00016f34       ??$get_parameter_type@Uansi_string@?1??type_case_Z@?$output_processor@DV?$stream_output_adapter@D@__crt_stdio_output@@V?$positional_parameter_base@DV?$stream_output_adapter@D@__crt_stdio_output@@@2@@__crt_stdio_output@@AEAA_NXZ@@?$positional_parameter_base@DV?$stream_output_adapter@D@__crt_stdio_output@@@__crt_stdio_output@@CA?AW4parameter_type@01@PEAUansi_string@?1??type_case_Z@?$output_processor@DV?$stream_output_adapter@D@__crt_stdio_output@@V?$positional_parameter_base@DV?$stream_output_adapter@D@__crt_stdio_output@@@2@@1@AEAA_NXZ@@Z 0000000140017f34 f i libucrt:output.obj
 0001:00016f3c       ??$get_parameter_type@Uansi_string@?1??type_case_Z@?$output_processor@DV?$string_output_adapter@D@__crt_stdio_output@@V?$positional_parameter_base@DV?$string_output_adapter@D@__crt_stdio_output@@@2@@__crt_stdio_output@@AEAA_NXZ@@?$positional_parameter_base@DV?$string_output_adapter@D@__crt_stdio_output@@@__crt_stdio_output@@CA?AW4parameter_type@01@PEAUansi_string@?1??type_case_Z@?$output_processor@DV?$string_output_adapter@D@__crt_stdio_output@@V?$positional_parameter_base@DV?$string_output_adapter@D@__crt_stdio_output@@@2@@1@AEAA_NXZ@@Z 0000000140017f3c f i libucrt:output.obj
 0001:00016f44       ??$get_parameter_type@Uansi_string@?1??type_case_Z@?$output_processor@_WV?$stream_output_adapter@_W@__crt_stdio_output@@V?$positional_parameter_base@_WV?$stream_output_adapter@_W@__crt_stdio_output@@@2@@__crt_stdio_output@@AEAA_NXZ@@?$positional_parameter_base@_WV?$stream_output_adapter@_W@__crt_stdio_output@@@__crt_stdio_output@@CA?AW4parameter_type@01@PEAUansi_string@?1??type_case_Z@?$output_processor@_WV?$stream_output_adapter@_W@__crt_stdio_output@@V?$positional_parameter_base@_WV?$stream_output_adapter@_W@__crt_stdio_output@@@2@@1@AEAA_NXZ@@Z 0000000140017f44 f i libucrt:output.obj
 0001:00016f4c       ??$get_parameter_type@Uansi_string@?1??type_case_Z@?$output_processor@_WV?$string_output_adapter@_W@__crt_stdio_output@@V?$positional_parameter_base@_WV?$string_output_adapter@_W@__crt_stdio_output@@@2@@__crt_stdio_output@@AEAA_NXZ@@?$positional_parameter_base@_WV?$string_output_adapter@_W@__crt_stdio_output@@@__crt_stdio_output@@CA?AW4parameter_type@01@PEAUansi_string@?1??type_case_Z@?$output_processor@_WV?$string_output_adapter@_W@__crt_stdio_output@@V?$positional_parameter_base@_WV?$string_output_adapter@_W@__crt_stdio_output@@@2@@1@AEAA_NXZ@@Z 0000000140017f4c f i libucrt:output.obj
 0001:00016f54       ??$get_parameter_type@X@?$positional_parameter_base@DV?$stream_output_adapter@D@__crt_stdio_output@@@__crt_stdio_output@@CA?AW4parameter_type@01@PEAX@Z 0000000140017f54 f i libucrt:output.obj
 0001:00016f5c       ??$get_parameter_type@X@?$positional_parameter_base@DV?$string_output_adapter@D@__crt_stdio_output@@@__crt_stdio_output@@CA?AW4parameter_type@01@PEAX@Z 0000000140017f5c f i libucrt:output.obj
 0001:00016f64       ??$get_parameter_type@X@?$positional_parameter_base@_WV?$stream_output_adapter@_W@__crt_stdio_output@@@__crt_stdio_output@@CA?AW4parameter_type@01@PEAX@Z 0000000140017f64 f i libucrt:output.obj
 0001:00016f6c       ??$get_parameter_type@X@?$positional_parameter_base@_WV?$string_output_adapter@_W@__crt_stdio_output@@@__crt_stdio_output@@CA?AW4parameter_type@01@PEAX@Z 0000000140017f6c f i libucrt:output.obj
 0001:00016f74       ??$is_character_specifier@D@?$positional_parameter_base@DV?$stream_output_adapter@D@__crt_stdio_output@@@__crt_stdio_output@@CA_ND@Z 0000000140017f74 f i libucrt:output.obj
 0001:00016f80       ??$is_character_specifier@D@?$positional_parameter_base@DV?$string_output_adapter@D@__crt_stdio_output@@@__crt_stdio_output@@CA_ND@Z 0000000140017f80 f i libucrt:output.obj
 0001:00016f8c       ??$is_character_specifier@_W@?$positional_parameter_base@_WV?$stream_output_adapter@_W@__crt_stdio_output@@@__crt_stdio_output@@CA_N_W@Z 0000000140017f8c f i libucrt:output.obj
 0001:00016f9c       ??$is_character_specifier@_W@?$positional_parameter_base@_WV?$string_output_adapter@_W@__crt_stdio_output@@@__crt_stdio_output@@CA_N_W@Z 0000000140017f9c f i libucrt:output.obj
 0001:00016fac       ??$is_integral_specifier@D@?$positional_parameter_base@DV?$stream_output_adapter@D@__crt_stdio_output@@@__crt_stdio_output@@CA_ND@Z 0000000140017fac f i libucrt:output.obj
 0001:00016fd0       ??$is_integral_specifier@D@?$positional_parameter_base@DV?$string_output_adapter@D@__crt_stdio_output@@@__crt_stdio_output@@CA_ND@Z 0000000140017fd0 f i libucrt:output.obj
 0001:00016ff4       ??$is_integral_specifier@_W@?$positional_parameter_base@_WV?$stream_output_adapter@_W@__crt_stdio_output@@@__crt_stdio_output@@CA_N_W@Z 0000000140017ff4 f i libucrt:output.obj
 0001:0001701c       ??$is_integral_specifier@_W@?$positional_parameter_base@_WV?$string_output_adapter@_W@__crt_stdio_output@@@__crt_stdio_output@@CA_N_W@Z 000000014001801c f i libucrt:output.obj
 0001:00017044       ??$is_overflow_condition@K@__crt_strtox@@YA_NIK@Z 0000000140018044 f i libucrt:output.obj
 0001:0001706c       ??$is_pointer_specifier@D@?$positional_parameter_base@DV?$stream_output_adapter@D@__crt_stdio_output@@@__crt_stdio_output@@CA_ND@Z 000000014001806c f i libucrt:output.obj
 0001:00017074       ??$is_pointer_specifier@D@?$positional_parameter_base@DV?$string_output_adapter@D@__crt_stdio_output@@@__crt_stdio_output@@CA_ND@Z 0000000140018074 f i libucrt:output.obj
 0001:0001707c       ??$is_pointer_specifier@_W@?$positional_parameter_base@_WV?$stream_output_adapter@_W@__crt_stdio_output@@@__crt_stdio_output@@CA_N_W@Z 000000014001807c f i libucrt:output.obj
 0001:00017084       ??$is_pointer_specifier@_W@?$positional_parameter_base@_WV?$string_output_adapter@_W@__crt_stdio_output@@@__crt_stdio_output@@CA_N_W@Z 0000000140018084 f i libucrt:output.obj
 0001:0001708c       ??$is_string_specifier@D@?$positional_parameter_base@DV?$stream_output_adapter@D@__crt_stdio_output@@@__crt_stdio_output@@CA_ND@Z 000000014001808c f i libucrt:output.obj
 0001:00017098       ??$is_string_specifier@D@?$positional_parameter_base@DV?$string_output_adapter@D@__crt_stdio_output@@@__crt_stdio_output@@CA_ND@Z 0000000140018098 f i libucrt:output.obj
 0001:000170a4       ??$is_string_specifier@_W@?$positional_parameter_base@_WV?$stream_output_adapter@_W@__crt_stdio_output@@@__crt_stdio_output@@CA_N_W@Z 00000001400180a4 f i libucrt:output.obj
 0001:000170b4       ??$is_string_specifier@_W@?$positional_parameter_base@_WV?$string_output_adapter@_W@__crt_stdio_output@@@__crt_stdio_output@@CA_N_W@Z 00000001400180b4 f i libucrt:output.obj
 0001:000170c4       ??$is_wide_character_specifier@D@__crt_stdio_output@@YA_N_KDW4length_modifier@0@@Z 00000001400180c4 f i libucrt:output.obj
 0001:000170ec       ??$is_wide_character_specifier@_W@__crt_stdio_output@@YA_N_K_WW4length_modifier@0@@Z 00000001400180ec f i libucrt:output.obj
 0001:0001712c       ??$make_c_string_character_source@DPEAPEAD@__crt_strtox@@YA?AV?$c_string_character_source@D@0@QEBDQEAPEAD@Z 000000014001812c f i libucrt:output.obj
 0001:00017140       ??$make_c_string_character_source@_WPEAPEA_W@__crt_strtox@@YA?AV?$c_string_character_source@_W@0@QEB_WQEAPEA_W@Z 0000000140018140 f i libucrt:output.obj
 0001:00017154       ??$parse_integer@KV?$c_string_character_source@D@__crt_strtox@@$0A@@__crt_strtox@@YAKAEAV__crt_cached_ptd_host@@V?$c_string_character_source@D@0@H_N@Z 0000000140018154 f i libucrt:output.obj
 0001:00017408       ??$parse_integer@KV?$c_string_character_source@_W@__crt_strtox@@$0A@@__crt_strtox@@YAKAEAV__crt_cached_ptd_host@@V?$c_string_character_source@_W@0@H_N@Z 0000000140018408 f i libucrt:output.obj
 0001:00017b80       ??$peek_va_arg@C@__crt_stdio_output@@YACPEAD@Z 0000000140018b80 f i libucrt:output.obj
 0001:00017b84       ??$peek_va_arg@E@__crt_stdio_output@@YAEPEAD@Z 0000000140018b84 f i libucrt:output.obj
 0001:00017b88       ??$peek_va_arg@F@__crt_stdio_output@@YAFPEAD@Z 0000000140018b88 f i libucrt:output.obj
 0001:00017b8c       ??$peek_va_arg@G@__crt_stdio_output@@YAGPEAD@Z 0000000140018b8c f i libucrt:output.obj
 0001:00017b90       ??$peek_va_arg@H@__crt_stdio_output@@YAHPEAD@Z 0000000140018b90 f i libucrt:output.obj
 0001:00017b94       ??$peek_va_arg@I@__crt_stdio_output@@YAIPEAD@Z 0000000140018b94 f i libucrt:output.obj
 0001:00017b98       ??$peek_va_arg@PEAD@__crt_stdio_output@@YAPEADPEAD@Z 0000000140018b98 f i libucrt:output.obj
 0001:00017b9c       ??$peek_va_arg@PEAUansi_string@?1??type_case_Z@?$output_processor@DV?$stream_output_adapter@D@__crt_stdio_output@@V?$positional_parameter_base@DV?$stream_output_adapter@D@__crt_stdio_output@@@2@@__crt_stdio_output@@AEAA_NXZ@@__crt_stdio_output@@YAPEAUansi_string@?1??type_case_Z@?$output_processor@DV?$stream_output_adapter@D@__crt_stdio_output@@V?$positional_parameter_base@DV?$stream_output_adapter@D@__crt_stdio_output@@@2@@0@AEAA_NXZ@PEAD@Z 0000000140018b9c f i libucrt:output.obj
 0001:00017ba0       ??$peek_va_arg@PEAUansi_string@?1??type_case_Z@?$output_processor@DV?$string_output_adapter@D@__crt_stdio_output@@V?$positional_parameter_base@DV?$string_output_adapter@D@__crt_stdio_output@@@2@@__crt_stdio_output@@AEAA_NXZ@@__crt_stdio_output@@YAPEAUansi_string@?1??type_case_Z@?$output_processor@DV?$string_output_adapter@D@__crt_stdio_output@@V?$positional_parameter_base@DV?$string_output_adapter@D@__crt_stdio_output@@@2@@0@AEAA_NXZ@PEAD@Z 0000000140018ba0 f i libucrt:output.obj
 0001:00017ba4       ??$peek_va_arg@PEAUansi_string@?1??type_case_Z@?$output_processor@_WV?$stream_output_adapter@_W@__crt_stdio_output@@V?$positional_parameter_base@_WV?$stream_output_adapter@_W@__crt_stdio_output@@@2@@__crt_stdio_output@@AEAA_NXZ@@__crt_stdio_output@@YAPEAUansi_string@?1??type_case_Z@?$output_processor@_WV?$stream_output_adapter@_W@__crt_stdio_output@@V?$positional_parameter_base@_WV?$stream_output_adapter@_W@__crt_stdio_output@@@2@@0@AEAA_NXZ@PEAD@Z 0000000140018ba4 f i libucrt:output.obj
 0001:00017ba8       ??$peek_va_arg@PEAUansi_string@?1??type_case_Z@?$output_processor@_WV?$string_output_adapter@_W@__crt_stdio_output@@V?$positional_parameter_base@_WV?$string_output_adapter@_W@__crt_stdio_output@@@2@@__crt_stdio_output@@AEAA_NXZ@@__crt_stdio_output@@YAPEAUansi_string@?1??type_case_Z@?$output_processor@_WV?$string_output_adapter@_W@__crt_stdio_output@@V?$positional_parameter_base@_WV?$string_output_adapter@_W@__crt_stdio_output@@@2@@0@AEAA_NXZ@PEAD@Z 0000000140018ba8 f i libucrt:output.obj
 0001:00017bac       ??$peek_va_arg@PEAX@__crt_stdio_output@@YAPEAXPEAD@Z 0000000140018bac f i libucrt:output.obj
 0001:00017bb0       ??$peek_va_arg@U_CRT_DOUBLE@@@__crt_stdio_output@@YA?AU_CRT_DOUBLE@@PEAD@Z 0000000140018bb0 f i libucrt:output.obj
 0001:00017bb4       ??$peek_va_arg@_J@__crt_stdio_output@@YA_JPEAD@Z 0000000140018bb4 f i libucrt:output.obj
 0001:00017bb8       ??$peek_va_arg@_K@__crt_stdio_output@@YA_KPEAD@Z 0000000140018bb8 f i libucrt:output.obj
 0001:00017bbc       ??$peek_va_arg@_W@__crt_stdio_output@@YA_WPEAD@Z 0000000140018bbc f i libucrt:output.obj
 0001:00017bc0       ??$puttc_nolock_internal@AEBDPEAU_iobuf@@AEAV__crt_cached_ptd_host@@@?$__crt_char_traits@D@@SAHAEBD$$QEAPEAU_iobuf@@AEAV__crt_cached_ptd_host@@@Z 0000000140018bc0 f i libucrt:output.obj
 0001:00017bcc       ??$puttc_nolock_internal@AEB_WPEAU_iobuf@@AEAV__crt_cached_ptd_host@@@?$__crt_char_traits@_W@@SAGAEB_W$$QEAPEAU_iobuf@@AEAV__crt_cached_ptd_host@@@Z 0000000140018bcc f i libucrt:output.obj
 0001:00017bd8       ??$read_va_arg@C@__crt_stdio_output@@YACAEAPEAD@Z 0000000140018bd8 f i libucrt:output.obj
 0001:00017be8       ??$read_va_arg@E@__crt_stdio_output@@YAEAEAPEAD@Z 0000000140018be8 f i libucrt:output.obj
 0001:00017bf8       ??$read_va_arg@F@__crt_stdio_output@@YAFAEAPEAD@Z 0000000140018bf8 f i libucrt:output.obj
 0001:00017c08       ??$read_va_arg@G@__crt_stdio_output@@YAGAEAPEAD@Z 0000000140018c08 f i libucrt:output.obj
 0001:00017c18       ??$read_va_arg@H@__crt_stdio_output@@YAHAEAPEAD@Z 0000000140018c18 f i libucrt:output.obj
 0001:00017c28       ??$read_va_arg@I@__crt_stdio_output@@YAIAEAPEAD@Z 0000000140018c28 f i libucrt:output.obj
 0001:00017c38       ??$read_va_arg@PEAD@__crt_stdio_output@@YAPEADAEAPEAD@Z 0000000140018c38 f i libucrt:output.obj
 0001:00017c48       ??$read_va_arg@PEAUansi_string@?1??type_case_Z@?$output_processor@DV?$stream_output_adapter@D@__crt_stdio_output@@V?$format_validation_base@DV?$stream_output_adapter@D@__crt_stdio_output@@@2@@__crt_stdio_output@@AEAA_NXZ@@__crt_stdio_output@@YAPEAUansi_string@?1??type_case_Z@?$output_processor@DV?$stream_output_adapter@D@__crt_stdio_output@@V?$format_validation_base@DV?$stream_output_adapter@D@__crt_stdio_output@@@2@@0@AEAA_NXZ@AEAPEAD@Z 0000000140018c48 f i libucrt:output.obj
 0001:00017c58       ??$read_va_arg@PEAUansi_string@?1??type_case_Z@?$output_processor@DV?$stream_output_adapter@D@__crt_stdio_output@@V?$positional_parameter_base@DV?$stream_output_adapter@D@__crt_stdio_output@@@2@@__crt_stdio_output@@AEAA_NXZ@@__crt_stdio_output@@YAPEAUansi_string@?1??type_case_Z@?$output_processor@DV?$stream_output_adapter@D@__crt_stdio_output@@V?$positional_parameter_base@DV?$stream_output_adapter@D@__crt_stdio_output@@@2@@0@AEAA_NXZ@AEAPEAD@Z 0000000140018c58 f i libucrt:output.obj
 0001:00017c68       ??$read_va_arg@PEAUansi_string@?1??type_case_Z@?$output_processor@DV?$stream_output_adapter@D@__crt_stdio_output@@V?$standard_base@DV?$stream_output_adapter@D@__crt_stdio_output@@@2@@__crt_stdio_output@@AEAA_NXZ@@__crt_stdio_output@@YAPEAUansi_string@?1??type_case_Z@?$output_processor@DV?$stream_output_adapter@D@__crt_stdio_output@@V?$standard_base@DV?$stream_output_adapter@D@__crt_stdio_output@@@2@@0@AEAA_NXZ@AEAPEAD@Z 0000000140018c68 f i libucrt:output.obj
 0001:00017c78       ??$read_va_arg@PEAUansi_string@?1??type_case_Z@?$output_processor@DV?$string_output_adapter@D@__crt_stdio_output@@V?$format_validation_base@DV?$string_output_adapter@D@__crt_stdio_output@@@2@@__crt_stdio_output@@AEAA_NXZ@@__crt_stdio_output@@YAPEAUansi_string@?1??type_case_Z@?$output_processor@DV?$string_output_adapter@D@__crt_stdio_output@@V?$format_validation_base@DV?$string_output_adapter@D@__crt_stdio_output@@@2@@0@AEAA_NXZ@AEAPEAD@Z 0000000140018c78 f i libucrt:output.obj
 0001:00017c88       ??$read_va_arg@PEAUansi_string@?1??type_case_Z@?$output_processor@DV?$string_output_adapter@D@__crt_stdio_output@@V?$positional_parameter_base@DV?$string_output_adapter@D@__crt_stdio_output@@@2@@__crt_stdio_output@@AEAA_NXZ@@__crt_stdio_output@@YAPEAUansi_string@?1??type_case_Z@?$output_processor@DV?$string_output_adapter@D@__crt_stdio_output@@V?$positional_parameter_base@DV?$string_output_adapter@D@__crt_stdio_output@@@2@@0@AEAA_NXZ@AEAPEAD@Z 0000000140018c88 f i libucrt:output.obj
 0001:00017c98       ??$read_va_arg@PEAUansi_string@?1??type_case_Z@?$output_processor@DV?$string_output_adapter@D@__crt_stdio_output@@V?$standard_base@DV?$string_output_adapter@D@__crt_stdio_output@@@2@@__crt_stdio_output@@AEAA_NXZ@@__crt_stdio_output@@YAPEAUansi_string@?1??type_case_Z@?$output_processor@DV?$string_output_adapter@D@__crt_stdio_output@@V?$standard_base@DV?$string_output_adapter@D@__crt_stdio_output@@@2@@0@AEAA_NXZ@AEAPEAD@Z 0000000140018c98 f i libucrt:output.obj
 0001:00017ca8       ??$read_va_arg@PEAUansi_string@?1??type_case_Z@?$output_processor@_WV?$stream_output_adapter@_W@__crt_stdio_output@@V?$format_validation_base@_WV?$stream_output_adapter@_W@__crt_stdio_output@@@2@@__crt_stdio_output@@AEAA_NXZ@@__crt_stdio_output@@YAPEAUansi_string@?1??type_case_Z@?$output_processor@_WV?$stream_output_adapter@_W@__crt_stdio_output@@V?$format_validation_base@_WV?$stream_output_adapter@_W@__crt_stdio_output@@@2@@0@AEAA_NXZ@AEAPEAD@Z 0000000140018ca8 f i libucrt:output.obj
 0001:00017cb8       ??$read_va_arg@PEAUansi_string@?1??type_case_Z@?$output_processor@_WV?$stream_output_adapter@_W@__crt_stdio_output@@V?$positional_parameter_base@_WV?$stream_output_adapter@_W@__crt_stdio_output@@@2@@__crt_stdio_output@@AEAA_NXZ@@__crt_stdio_output@@YAPEAUansi_string@?1??type_case_Z@?$output_processor@_WV?$stream_output_adapter@_W@__crt_stdio_output@@V?$positional_parameter_base@_WV?$stream_output_adapter@_W@__crt_stdio_output@@@2@@0@AEAA_NXZ@AEAPEAD@Z 0000000140018cb8 f i libucrt:output.obj
 0001:00017cc8       ??$read_va_arg@PEAUansi_string@?1??type_case_Z@?$output_processor@_WV?$stream_output_adapter@_W@__crt_stdio_output@@V?$standard_base@_WV?$stream_output_adapter@_W@__crt_stdio_output@@@2@@__crt_stdio_output@@AEAA_NXZ@@__crt_stdio_output@@YAPEAUansi_string@?1??type_case_Z@?$output_processor@_WV?$stream_output_adapter@_W@__crt_stdio_output@@V?$standard_base@_WV?$stream_output_adapter@_W@__crt_stdio_output@@@2@@0@AEAA_NXZ@AEAPEAD@Z 0000000140018cc8 f i libucrt:output.obj
 0001:00017cd8       ??$read_va_arg@PEAUansi_string@?1??type_case_Z@?$output_processor@_WV?$string_output_adapter@_W@__crt_stdio_output@@V?$format_validation_base@_WV?$string_output_adapter@_W@__crt_stdio_output@@@2@@__crt_stdio_output@@AEAA_NXZ@@__crt_stdio_output@@YAPEAUansi_string@?1??type_case_Z@?$output_processor@_WV?$string_output_adapter@_W@__crt_stdio_output@@V?$format_validation_base@_WV?$string_output_adapter@_W@__crt_stdio_output@@@2@@0@AEAA_NXZ@AEAPEAD@Z 0000000140018cd8 f i libucrt:output.obj
 0001:00017ce8       ??$read_va_arg@PEAUansi_string@?1??type_case_Z@?$output_processor@_WV?$string_output_adapter@_W@__crt_stdio_output@@V?$positional_parameter_base@_WV?$string_output_adapter@_W@__crt_stdio_output@@@2@@__crt_stdio_output@@AEAA_NXZ@@__crt_stdio_output@@YAPEAUansi_string@?1??type_case_Z@?$output_processor@_WV?$string_output_adapter@_W@__crt_stdio_output@@V?$positional_parameter_base@_WV?$string_output_adapter@_W@__crt_stdio_output@@@2@@0@AEAA_NXZ@AEAPEAD@Z 0000000140018ce8 f i libucrt:output.obj
 0001:00017cf8       ??$read_va_arg@PEAUansi_string@?1??type_case_Z@?$output_processor@_WV?$string_output_adapter@_W@__crt_stdio_output@@V?$standard_base@_WV?$string_output_adapter@_W@__crt_stdio_output@@@2@@__crt_stdio_output@@AEAA_NXZ@@__crt_stdio_output@@YAPEAUansi_string@?1??type_case_Z@?$output_processor@_WV?$string_output_adapter@_W@__crt_stdio_output@@V?$standard_base@_WV?$string_output_adapter@_W@__crt_stdio_output@@@2@@0@AEAA_NXZ@AEAPEAD@Z 0000000140018cf8 f i libucrt:output.obj
 0001:00017d08       ??$read_va_arg@PEAX@__crt_stdio_output@@YAPEAXAEAPEAD@Z 0000000140018d08 f i libucrt:output.obj
 0001:00017d18       ??$read_va_arg@U_CRT_DOUBLE@@@__crt_stdio_output@@YA?AU_CRT_DOUBLE@@AEAPEAD@Z 0000000140018d18 f i libucrt:output.obj
 0001:00017d28       ??$read_va_arg@_J@__crt_stdio_output@@YA_JAEAPEAD@Z 0000000140018d28 f i libucrt:output.obj
 0001:00017d38       ??$read_va_arg@_K@__crt_stdio_output@@YA_KAEAPEAD@Z 0000000140018d38 f i libucrt:output.obj
 0001:00017d48       ??$read_va_arg@_W@__crt_stdio_output@@YA_WAEAPEAD@Z 0000000140018d48 f i libucrt:output.obj
 0001:00017d58       ??$scratch_count@D@formatting_buffer@__crt_stdio_output@@QEBA_KXZ 0000000140018d58 f i libucrt:output.obj
 0001:00017d74       ??$scratch_data@D@formatting_buffer@__crt_stdio_output@@QEAAPEADXZ 0000000140018d74 f i libucrt:output.obj
 0001:00017d98       ??$type_case_integer@$07@?$output_processor@DV?$stream_output_adapter@D@__crt_stdio_output@@V?$format_validation_base@DV?$stream_output_adapter@D@__crt_stdio_output@@@2@@__crt_stdio_output@@AEAA_N_N@Z 0000000140018d98 f i libucrt:output.obj
 0001:00017f9c       ??$type_case_integer@$07@?$output_processor@DV?$stream_output_adapter@D@__crt_stdio_output@@V?$positional_parameter_base@DV?$stream_output_adapter@D@__crt_stdio_output@@@2@@__crt_stdio_output@@AEAA_N_N@Z 0000000140018f9c f i libucrt:output.obj
 0001:000181c8       ??$type_case_integer@$07@?$output_processor@DV?$stream_output_adapter@D@__crt_stdio_output@@V?$standard_base@DV?$stream_output_adapter@D@__crt_stdio_output@@@2@@__crt_stdio_output@@AEAA_N_N@Z 00000001400191c8 f i libucrt:output.obj
 0001:000183cc       ??$type_case_integer@$07@?$output_processor@DV?$string_output_adapter@D@__crt_stdio_output@@V?$format_validation_base@DV?$string_output_adapter@D@__crt_stdio_output@@@2@@__crt_stdio_output@@AEAA_N_N@Z 00000001400193cc f i libucrt:output.obj
 0001:000185d0       ??$type_case_integer@$07@?$output_processor@DV?$string_output_adapter@D@__crt_stdio_output@@V?$positional_parameter_base@DV?$string_output_adapter@D@__crt_stdio_output@@@2@@__crt_stdio_output@@AEAA_N_N@Z 00000001400195d0 f i libucrt:output.obj
 0001:000187fc       ??$type_case_integer@$07@?$output_processor@DV?$string_output_adapter@D@__crt_stdio_output@@V?$standard_base@DV?$string_output_adapter@D@__crt_stdio_output@@@2@@__crt_stdio_output@@AEAA_N_N@Z 00000001400197fc f i libucrt:output.obj
 0001:00018a00       ??$type_case_integer@$07@?$output_processor@_WV?$stream_output_adapter@_W@__crt_stdio_output@@V?$format_validation_base@_WV?$stream_output_adapter@_W@__crt_stdio_output@@@2@@__crt_stdio_output@@AEAA_N_N@Z 0000000140019a00 f i libucrt:output.obj
 0001:00018c0c       ??$type_case_integer@$07@?$output_processor@_WV?$stream_output_adapter@_W@__crt_stdio_output@@V?$positional_parameter_base@_WV?$stream_output_adapter@_W@__crt_stdio_output@@@2@@__crt_stdio_output@@AEAA_N_N@Z 0000000140019c0c f i libucrt:output.obj
 0001:00018e40       ??$type_case_integer@$07@?$output_processor@_WV?$stream_output_adapter@_W@__crt_stdio_output@@V?$standard_base@_WV?$stream_output_adapter@_W@__crt_stdio_output@@@2@@__crt_stdio_output@@AEAA_N_N@Z 0000000140019e40 f i libucrt:output.obj
 0001:0001904c       ??$type_case_integer@$07@?$output_processor@_WV?$string_output_adapter@_W@__crt_stdio_output@@V?$format_validation_base@_WV?$string_output_adapter@_W@__crt_stdio_output@@@2@@__crt_stdio_output@@AEAA_N_N@Z 000000014001a04c f i libucrt:output.obj
 0001:00019258       ??$type_case_integer@$07@?$output_processor@_WV?$string_output_adapter@_W@__crt_stdio_output@@V?$positional_parameter_base@_WV?$string_output_adapter@_W@__crt_stdio_output@@@2@@__crt_stdio_output@@AEAA_N_N@Z 000000014001a258 f i libucrt:output.obj
 0001:0001948c       ??$type_case_integer@$07@?$output_processor@_WV?$string_output_adapter@_W@__crt_stdio_output@@V?$standard_base@_WV?$string_output_adapter@_W@__crt_stdio_output@@@2@@__crt_stdio_output@@AEAA_N_N@Z 000000014001a48c f i libucrt:output.obj
 0001:00019698       ??$type_case_integer@$09@?$output_processor@DV?$stream_output_adapter@D@__crt_stdio_output@@V?$format_validation_base@DV?$stream_output_adapter@D@__crt_stdio_output@@@2@@__crt_stdio_output@@AEAA_N_N@Z 000000014001a698 f i libucrt:output.obj
 0001:0001989c       ??$type_case_integer@$09@?$output_processor@DV?$stream_output_adapter@D@__crt_stdio_output@@V?$positional_parameter_base@DV?$stream_output_adapter@D@__crt_stdio_output@@@2@@__crt_stdio_output@@AEAA_N_N@Z 000000014001a89c f i libucrt:output.obj
 0001:00019ac8       ??$type_case_integer@$09@?$output_processor@DV?$stream_output_adapter@D@__crt_stdio_output@@V?$standard_base@DV?$stream_output_adapter@D@__crt_stdio_output@@@2@@__crt_stdio_output@@AEAA_N_N@Z 000000014001aac8 f i libucrt:output.obj
 0001:00019ccc       ??$type_case_integer@$09@?$output_processor@DV?$string_output_adapter@D@__crt_stdio_output@@V?$format_validation_base@DV?$string_output_adapter@D@__crt_stdio_output@@@2@@__crt_stdio_output@@AEAA_N_N@Z 000000014001accc f i libucrt:output.obj
 0001:00019ed0       ??$type_case_integer@$09@?$output_processor@DV?$string_output_adapter@D@__crt_stdio_output@@V?$positional_parameter_base@DV?$string_output_adapter@D@__crt_stdio_output@@@2@@__crt_stdio_output@@AEAA_N_N@Z 000000014001aed0 f i libucrt:output.obj
 0001:0001a0fc       ??$type_case_integer@$09@?$output_processor@DV?$string_output_adapter@D@__crt_stdio_output@@V?$standard_base@DV?$string_output_adapter@D@__crt_stdio_output@@@2@@__crt_stdio_output@@AEAA_N_N@Z 000000014001b0fc f i libucrt:output.obj
 0001:0001a300       ??$type_case_integer@$09@?$output_processor@_WV?$stream_output_adapter@_W@__crt_stdio_output@@V?$format_validation_base@_WV?$stream_output_adapter@_W@__crt_stdio_output@@@2@@__crt_stdio_output@@AEAA_N_N@Z 000000014001b300 f i libucrt:output.obj
 0001:0001a50c       ??$type_case_integer@$09@?$output_processor@_WV?$stream_output_adapter@_W@__crt_stdio_output@@V?$positional_parameter_base@_WV?$stream_output_adapter@_W@__crt_stdio_output@@@2@@__crt_stdio_output@@AEAA_N_N@Z 000000014001b50c f i libucrt:output.obj
 0001:0001a740       ??$type_case_integer@$09@?$output_processor@_WV?$stream_output_adapter@_W@__crt_stdio_output@@V?$standard_base@_WV?$stream_output_adapter@_W@__crt_stdio_output@@@2@@__crt_stdio_output@@AEAA_N_N@Z 000000014001b740 f i libucrt:output.obj
 0001:0001a94c       ??$type_case_integer@$09@?$output_processor@_WV?$string_output_adapter@_W@__crt_stdio_output@@V?$format_validation_base@_WV?$string_output_adapter@_W@__crt_stdio_output@@@2@@__crt_stdio_output@@AEAA_N_N@Z 000000014001b94c f i libucrt:output.obj
 0001:0001ab58       ??$type_case_integer@$09@?$output_processor@_WV?$string_output_adapter@_W@__crt_stdio_output@@V?$positional_parameter_base@_WV?$string_output_adapter@_W@__crt_stdio_output@@@2@@__crt_stdio_output@@AEAA_N_N@Z 000000014001bb58 f i libucrt:output.obj
 0001:0001ad8c       ??$type_case_integer@$09@?$output_processor@_WV?$string_output_adapter@_W@__crt_stdio_output@@V?$standard_base@_WV?$string_output_adapter@_W@__crt_stdio_output@@@2@@__crt_stdio_output@@AEAA_N_N@Z 000000014001bd8c f i libucrt:output.obj
 0001:0001af98       ??$type_case_integer@$0BA@@?$output_processor@DV?$stream_output_adapter@D@__crt_stdio_output@@V?$format_validation_base@DV?$stream_output_adapter@D@__crt_stdio_output@@@2@@__crt_stdio_output@@AEAA_N_N@Z 000000014001bf98 f i libucrt:output.obj
 0001:0001b19c       ??$type_case_integer@$0BA@@?$output_processor@DV?$stream_output_adapter@D@__crt_stdio_output@@V?$positional_parameter_base@DV?$stream_output_adapter@D@__crt_stdio_output@@@2@@__crt_stdio_output@@AEAA_N_N@Z 000000014001c19c f i libucrt:output.obj
 0001:0001b3c8       ??$type_case_integer@$0BA@@?$output_processor@DV?$stream_output_adapter@D@__crt_stdio_output@@V?$standard_base@DV?$stream_output_adapter@D@__crt_stdio_output@@@2@@__crt_stdio_output@@AEAA_N_N@Z 000000014001c3c8 f i libucrt:output.obj
 0001:0001b5cc       ??$type_case_integer@$0BA@@?$output_processor@DV?$string_output_adapter@D@__crt_stdio_output@@V?$format_validation_base@DV?$string_output_adapter@D@__crt_stdio_output@@@2@@__crt_stdio_output@@AEAA_N_N@Z 000000014001c5cc f i libucrt:output.obj
 0001:0001b7d0       ??$type_case_integer@$0BA@@?$output_processor@DV?$string_output_adapter@D@__crt_stdio_output@@V?$positional_parameter_base@DV?$string_output_adapter@D@__crt_stdio_output@@@2@@__crt_stdio_output@@AEAA_N_N@Z 000000014001c7d0 f i libucrt:output.obj
 0001:0001b9fc       ??$type_case_integer@$0BA@@?$output_processor@DV?$string_output_adapter@D@__crt_stdio_output@@V?$standard_base@DV?$string_output_adapter@D@__crt_stdio_output@@@2@@__crt_stdio_output@@AEAA_N_N@Z 000000014001c9fc f i libucrt:output.obj
 0001:0001bc00       ??$type_case_integer@$0BA@@?$output_processor@_WV?$stream_output_adapter@_W@__crt_stdio_output@@V?$format_validation_base@_WV?$stream_output_adapter@_W@__crt_stdio_output@@@2@@__crt_stdio_output@@AEAA_N_N@Z 000000014001cc00 f i libucrt:output.obj
 0001:0001be0c       ??$type_case_integer@$0BA@@?$output_processor@_WV?$stream_output_adapter@_W@__crt_stdio_output@@V?$positional_parameter_base@_WV?$stream_output_adapter@_W@__crt_stdio_output@@@2@@__crt_stdio_output@@AEAA_N_N@Z 000000014001ce0c f i libucrt:output.obj
 0001:0001c040       ??$type_case_integer@$0BA@@?$output_processor@_WV?$stream_output_adapter@_W@__crt_stdio_output@@V?$standard_base@_WV?$stream_output_adapter@_W@__crt_stdio_output@@@2@@__crt_stdio_output@@AEAA_N_N@Z 000000014001d040 f i libucrt:output.obj
 0001:0001c24c       ??$type_case_integer@$0BA@@?$output_processor@_WV?$string_output_adapter@_W@__crt_stdio_output@@V?$format_validation_base@_WV?$string_output_adapter@_W@__crt_stdio_output@@@2@@__crt_stdio_output@@AEAA_N_N@Z 000000014001d24c f i libucrt:output.obj
 0001:0001c458       ??$type_case_integer@$0BA@@?$output_processor@_WV?$string_output_adapter@_W@__crt_stdio_output@@V?$positional_parameter_base@_WV?$string_output_adapter@_W@__crt_stdio_output@@@2@@__crt_stdio_output@@AEAA_N_N@Z 000000014001d458 f i libucrt:output.obj
 0001:0001c68c       ??$type_case_integer@$0BA@@?$output_processor@_WV?$string_output_adapter@_W@__crt_stdio_output@@V?$standard_base@_WV?$string_output_adapter@_W@__crt_stdio_output@@@2@@__crt_stdio_output@@AEAA_N_N@Z 000000014001d68c f i libucrt:output.obj
 0001:0001c898       ??$type_case_integer_parse_into_buffer@I$07@?$output_processor@DV?$stream_output_adapter@D@__crt_stdio_output@@V?$format_validation_base@DV?$stream_output_adapter@D@__crt_stdio_output@@@2@@__crt_stdio_output@@AEAAXI_N@Z 000000014001d898 f i libucrt:output.obj
 0001:0001c908       ??$type_case_integer_parse_into_buffer@I$07@?$output_processor@DV?$stream_output_adapter@D@__crt_stdio_output@@V?$positional_parameter_base@DV?$stream_output_adapter@D@__crt_stdio_output@@@2@@__crt_stdio_output@@AEAAXI_N@Z 000000014001d908 f i libucrt:output.obj
 0001:0001c978       ??$type_case_integer_parse_into_buffer@I$07@?$output_processor@DV?$stream_output_adapter@D@__crt_stdio_output@@V?$standard_base@DV?$stream_output_adapter@D@__crt_stdio_output@@@2@@__crt_stdio_output@@AEAAXI_N@Z 000000014001d978 f i libucrt:output.obj
 0001:0001c9e8       ??$type_case_integer_parse_into_buffer@I$07@?$output_processor@DV?$string_output_adapter@D@__crt_stdio_output@@V?$format_validation_base@DV?$string_output_adapter@D@__crt_stdio_output@@@2@@__crt_stdio_output@@AEAAXI_N@Z 000000014001d9e8 f i libucrt:output.obj
 0001:0001ca58       ??$type_case_integer_parse_into_buffer@I$07@?$output_processor@DV?$string_output_adapter@D@__crt_stdio_output@@V?$positional_parameter_base@DV?$string_output_adapter@D@__crt_stdio_output@@@2@@__crt_stdio_output@@AEAAXI_N@Z 000000014001da58 f i libucrt:output.obj
 0001:0001cac8       ??$type_case_integer_parse_into_buffer@I$07@?$output_processor@DV?$string_output_adapter@D@__crt_stdio_output@@V?$standard_base@DV?$string_output_adapter@D@__crt_stdio_output@@@2@@__crt_stdio_output@@AEAAXI_N@Z 000000014001dac8 f i libucrt:output.obj
 0001:0001cb38       ??$type_case_integer_parse_into_buffer@I$07@?$output_processor@_WV?$stream_output_adapter@_W@__crt_stdio_output@@V?$format_validation_base@_WV?$stream_output_adapter@_W@__crt_stdio_output@@@2@@__crt_stdio_output@@AEAAXI_N@Z 000000014001db38 f i libucrt:output.obj
 0001:0001cbbc       ??$type_case_integer_parse_into_buffer@I$07@?$output_processor@_WV?$stream_output_adapter@_W@__crt_stdio_output@@V?$positional_parameter_base@_WV?$stream_output_adapter@_W@__crt_stdio_output@@@2@@__crt_stdio_output@@AEAAXI_N@Z 000000014001dbbc f i libucrt:output.obj
 0001:0001cc40       ??$type_case_integer_parse_into_buffer@I$07@?$output_processor@_WV?$stream_output_adapter@_W@__crt_stdio_output@@V?$standard_base@_WV?$stream_output_adapter@_W@__crt_stdio_output@@@2@@__crt_stdio_output@@AEAAXI_N@Z 000000014001dc40 f i libucrt:output.obj
 0001:0001ccc4       ??$type_case_integer_parse_into_buffer@I$07@?$output_processor@_WV?$string_output_adapter@_W@__crt_stdio_output@@V?$format_validation_base@_WV?$string_output_adapter@_W@__crt_stdio_output@@@2@@__crt_stdio_output@@AEAAXI_N@Z 000000014001dcc4 f i libucrt:output.obj
 0001:0001cd48       ??$type_case_integer_parse_into_buffer@I$07@?$output_processor@_WV?$string_output_adapter@_W@__crt_stdio_output@@V?$positional_parameter_base@_WV?$string_output_adapter@_W@__crt_stdio_output@@@2@@__crt_stdio_output@@AEAAXI_N@Z 000000014001dd48 f i libucrt:output.obj
 0001:0001cdcc       ??$type_case_integer_parse_into_buffer@I$07@?$output_processor@_WV?$string_output_adapter@_W@__crt_stdio_output@@V?$standard_base@_WV?$string_output_adapter@_W@__crt_stdio_output@@@2@@__crt_stdio_output@@AEAAXI_N@Z 000000014001ddcc f i libucrt:output.obj
 0001:0001ce50       ??$type_case_integer_parse_into_buffer@I$09@?$output_processor@DV?$stream_output_adapter@D@__crt_stdio_output@@V?$format_validation_base@DV?$stream_output_adapter@D@__crt_stdio_output@@@2@@__crt_stdio_output@@AEAAXI_N@Z 000000014001de50 f i libucrt:output.obj
 0001:0001cefc       ??$type_case_integer_parse_into_buffer@I$09@?$output_processor@DV?$stream_output_adapter@D@__crt_stdio_output@@V?$positional_parameter_base@DV?$stream_output_adapter@D@__crt_stdio_output@@@2@@__crt_stdio_output@@AEAAXI_N@Z 000000014001defc f i libucrt:output.obj
 0001:0001cfa8       ??$type_case_integer_parse_into_buffer@I$09@?$output_processor@DV?$stream_output_adapter@D@__crt_stdio_output@@V?$standard_base@DV?$stream_output_adapter@D@__crt_stdio_output@@@2@@__crt_stdio_output@@AEAAXI_N@Z 000000014001dfa8 f i libucrt:output.obj
 0001:0001d054       ??$type_case_integer_parse_into_buffer@I$09@?$output_processor@DV?$string_output_adapter@D@__crt_stdio_output@@V?$format_validation_base@DV?$string_output_adapter@D@__crt_stdio_output@@@2@@__crt_stdio_output@@AEAAXI_N@Z 000000014001e054 f i libucrt:output.obj
 0001:0001d100       ??$type_case_integer_parse_into_buffer@I$09@?$output_processor@DV?$string_output_adapter@D@__crt_stdio_output@@V?$positional_parameter_base@DV?$string_output_adapter@D@__crt_stdio_output@@@2@@__crt_stdio_output@@AEAAXI_N@Z 000000014001e100 f i libucrt:output.obj
 0001:0001d1ac       ??$type_case_integer_parse_into_buffer@I$09@?$output_processor@DV?$string_output_adapter@D@__crt_stdio_output@@V?$standard_base@DV?$string_output_adapter@D@__crt_stdio_output@@@2@@__crt_stdio_output@@AEAAXI_N@Z 000000014001e1ac f i libucrt:output.obj
 0001:0001d258       ??$type_case_integer_parse_into_buffer@I$09@?$output_processor@_WV?$stream_output_adapter@_W@__crt_stdio_output@@V?$format_validation_base@_WV?$stream_output_adapter@_W@__crt_stdio_output@@@2@@__crt_stdio_output@@AEAAXI_N@Z 000000014001e258 f i libucrt:output.obj
 0001:0001d318       ??$type_case_integer_parse_into_buffer@I$09@?$output_processor@_WV?$stream_output_adapter@_W@__crt_stdio_output@@V?$positional_parameter_base@_WV?$stream_output_adapter@_W@__crt_stdio_output@@@2@@__crt_stdio_output@@AEAAXI_N@Z 000000014001e318 f i libucrt:output.obj
 0001:0001d3d8       ??$type_case_integer_parse_into_buffer@I$09@?$output_processor@_WV?$stream_output_adapter@_W@__crt_stdio_output@@V?$standard_base@_WV?$stream_output_adapter@_W@__crt_stdio_output@@@2@@__crt_stdio_output@@AEAAXI_N@Z 000000014001e3d8 f i libucrt:output.obj
 0001:0001d498       ??$type_case_integer_parse_into_buffer@I$09@?$output_processor@_WV?$string_output_adapter@_W@__crt_stdio_output@@V?$format_validation_base@_WV?$string_output_adapter@_W@__crt_stdio_output@@@2@@__crt_stdio_output@@AEAAXI_N@Z 000000014001e498 f i libucrt:output.obj
 0001:0001d558       ??$type_case_integer_parse_into_buffer@I$09@?$output_processor@_WV?$string_output_adapter@_W@__crt_stdio_output@@V?$positional_parameter_base@_WV?$string_output_adapter@_W@__crt_stdio_output@@@2@@__crt_stdio_output@@AEAAXI_N@Z 000000014001e558 f i libucrt:output.obj
 0001:0001d618       ??$type_case_integer_parse_into_buffer@I$09@?$output_processor@_WV?$string_output_adapter@_W@__crt_stdio_output@@V?$standard_base@_WV?$string_output_adapter@_W@__crt_stdio_output@@@2@@__crt_stdio_output@@AEAAXI_N@Z 000000014001e618 f i libucrt:output.obj
 0001:0001d6d8       ??$type_case_integer_parse_into_buffer@I$0BA@@?$output_processor@DV?$stream_output_adapter@D@__crt_stdio_output@@V?$format_validation_base@DV?$stream_output_adapter@D@__crt_stdio_output@@@2@@__crt_stdio_output@@AEAAXI_N@Z 000000014001e6d8 f i libucrt:output.obj
 0001:0001d75c       ??$type_case_integer_parse_into_buffer@I$0BA@@?$output_processor@DV?$stream_output_adapter@D@__crt_stdio_output@@V?$positional_parameter_base@DV?$stream_output_adapter@D@__crt_stdio_output@@@2@@__crt_stdio_output@@AEAAXI_N@Z 000000014001e75c f i libucrt:output.obj
 0001:0001d7e0       ??$type_case_integer_parse_into_buffer@I$0BA@@?$output_processor@DV?$stream_output_adapter@D@__crt_stdio_output@@V?$standard_base@DV?$stream_output_adapter@D@__crt_stdio_output@@@2@@__crt_stdio_output@@AEAAXI_N@Z 000000014001e7e0 f i libucrt:output.obj
 0001:0001d864       ??$type_case_integer_parse_into_buffer@I$0BA@@?$output_processor@DV?$string_output_adapter@D@__crt_stdio_output@@V?$format_validation_base@DV?$string_output_adapter@D@__crt_stdio_output@@@2@@__crt_stdio_output@@AEAAXI_N@Z 000000014001e864 f i libucrt:output.obj
 0001:0001d8e8       ??$type_case_integer_parse_into_buffer@I$0BA@@?$output_processor@DV?$string_output_adapter@D@__crt_stdio_output@@V?$positional_parameter_base@DV?$string_output_adapter@D@__crt_stdio_output@@@2@@__crt_stdio_output@@AEAAXI_N@Z 000000014001e8e8 f i libucrt:output.obj
 0001:0001d96c       ??$type_case_integer_parse_into_buffer@I$0BA@@?$output_processor@DV?$string_output_adapter@D@__crt_stdio_output@@V?$standard_base@DV?$string_output_adapter@D@__crt_stdio_output@@@2@@__crt_stdio_output@@AEAAXI_N@Z 000000014001e96c f i libucrt:output.obj
 0001:0001d9f0       ??$type_case_integer_parse_into_buffer@I$0BA@@?$output_processor@_WV?$stream_output_adapter@_W@__crt_stdio_output@@V?$format_validation_base@_WV?$stream_output_adapter@_W@__crt_stdio_output@@@2@@__crt_stdio_output@@AEAAXI_N@Z 000000014001e9f0 f i libucrt:output.obj
 0001:0001da90       ??$type_case_integer_parse_into_buffer@I$0BA@@?$output_processor@_WV?$stream_output_adapter@_W@__crt_stdio_output@@V?$positional_parameter_base@_WV?$stream_output_adapter@_W@__crt_stdio_output@@@2@@__crt_stdio_output@@AEAAXI_N@Z 000000014001ea90 f i libucrt:output.obj
 0001:0001db30       ??$type_case_integer_parse_into_buffer@I$0BA@@?$output_processor@_WV?$stream_output_adapter@_W@__crt_stdio_output@@V?$standard_base@_WV?$stream_output_adapter@_W@__crt_stdio_output@@@2@@__crt_stdio_output@@AEAAXI_N@Z 000000014001eb30 f i libucrt:output.obj
 0001:0001dbd0       ??$type_case_integer_parse_into_buffer@I$0BA@@?$output_processor@_WV?$string_output_adapter@_W@__crt_stdio_output@@V?$format_validation_base@_WV?$string_output_adapter@_W@__crt_stdio_output@@@2@@__crt_stdio_output@@AEAAXI_N@Z 000000014001ebd0 f i libucrt:output.obj
 0001:0001dc70       ??$type_case_integer_parse_into_buffer@I$0BA@@?$output_processor@_WV?$string_output_adapter@_W@__crt_stdio_output@@V?$positional_parameter_base@_WV?$string_output_adapter@_W@__crt_stdio_output@@@2@@__crt_stdio_output@@AEAAXI_N@Z 000000014001ec70 f i libucrt:output.obj
 0001:0001dd10       ??$type_case_integer_parse_into_buffer@I$0BA@@?$output_processor@_WV?$string_output_adapter@_W@__crt_stdio_output@@V?$standard_base@_WV?$string_output_adapter@_W@__crt_stdio_output@@@2@@__crt_stdio_output@@AEAAXI_N@Z 000000014001ed10 f i libucrt:output.obj
 0001:0001ddb0       ??$type_case_integer_parse_into_buffer@_K$07@?$output_processor@DV?$stream_output_adapter@D@__crt_stdio_output@@V?$format_validation_base@DV?$stream_output_adapter@D@__crt_stdio_output@@@2@@__crt_stdio_output@@AEAAX_K_N@Z 000000014001edb0 f i libucrt:output.obj
 0001:0001de20       ??$type_case_integer_parse_into_buffer@_K$07@?$output_processor@DV?$stream_output_adapter@D@__crt_stdio_output@@V?$positional_parameter_base@DV?$stream_output_adapter@D@__crt_stdio_output@@@2@@__crt_stdio_output@@AEAAX_K_N@Z 000000014001ee20 f i libucrt:output.obj
 0001:0001de90       ??$type_case_integer_parse_into_buffer@_K$07@?$output_processor@DV?$stream_output_adapter@D@__crt_stdio_output@@V?$standard_base@DV?$stream_output_adapter@D@__crt_stdio_output@@@2@@__crt_stdio_output@@AEAAX_K_N@Z 000000014001ee90 f i libucrt:output.obj
 0001:0001df00       ??$type_case_integer_parse_into_buffer@_K$07@?$output_processor@DV?$string_output_adapter@D@__crt_stdio_output@@V?$format_validation_base@DV?$string_output_adapter@D@__crt_stdio_output@@@2@@__crt_stdio_output@@AEAAX_K_N@Z 000000014001ef00 f i libucrt:output.obj
 0001:0001df70       ??$type_case_integer_parse_into_buffer@_K$07@?$output_processor@DV?$string_output_adapter@D@__crt_stdio_output@@V?$positional_parameter_base@DV?$string_output_adapter@D@__crt_stdio_output@@@2@@__crt_stdio_output@@AEAAX_K_N@Z 000000014001ef70 f i libucrt:output.obj
 0001:0001dfe0       ??$type_case_integer_parse_into_buffer@_K$07@?$output_processor@DV?$string_output_adapter@D@__crt_stdio_output@@V?$standard_base@DV?$string_output_adapter@D@__crt_stdio_output@@@2@@__crt_stdio_output@@AEAAX_K_N@Z 000000014001efe0 f i libucrt:output.obj
 0001:0001e050       ??$type_case_integer_parse_into_buffer@_K$07@?$output_processor@_WV?$stream_output_adapter@_W@__crt_stdio_output@@V?$format_validation_base@_WV?$stream_output_adapter@_W@__crt_stdio_output@@@2@@__crt_stdio_output@@AEAAX_K_N@Z 000000014001f050 f i libucrt:output.obj
 0001:0001e0d8       ??$type_case_integer_parse_into_buffer@_K$07@?$output_processor@_WV?$stream_output_adapter@_W@__crt_stdio_output@@V?$positional_parameter_base@_WV?$stream_output_adapter@_W@__crt_stdio_output@@@2@@__crt_stdio_output@@AEAAX_K_N@Z 000000014001f0d8 f i libucrt:output.obj
 0001:0001e160       ??$type_case_integer_parse_into_buffer@_K$07@?$output_processor@_WV?$stream_output_adapter@_W@__crt_stdio_output@@V?$standard_base@_WV?$stream_output_adapter@_W@__crt_stdio_output@@@2@@__crt_stdio_output@@AEAAX_K_N@Z 000000014001f160 f i libucrt:output.obj
 0001:0001e1e8       ??$type_case_integer_parse_into_buffer@_K$07@?$output_processor@_WV?$string_output_adapter@_W@__crt_stdio_output@@V?$format_validation_base@_WV?$string_output_adapter@_W@__crt_stdio_output@@@2@@__crt_stdio_output@@AEAAX_K_N@Z 000000014001f1e8 f i libucrt:output.obj
 0001:0001e270       ??$type_case_integer_parse_into_buffer@_K$07@?$output_processor@_WV?$string_output_adapter@_W@__crt_stdio_output@@V?$positional_parameter_base@_WV?$string_output_adapter@_W@__crt_stdio_output@@@2@@__crt_stdio_output@@AEAAX_K_N@Z 000000014001f270 f i libucrt:output.obj
 0001:0001e2f8       ??$type_case_integer_parse_into_buffer@_K$07@?$output_processor@_WV?$string_output_adapter@_W@__crt_stdio_output@@V?$standard_base@_WV?$string_output_adapter@_W@__crt_stdio_output@@@2@@__crt_stdio_output@@AEAAX_K_N@Z 000000014001f2f8 f i libucrt:output.obj
 0001:0001e380       ??$type_case_integer_parse_into_buffer@_K$09@?$output_processor@DV?$stream_output_adapter@D@__crt_stdio_output@@V?$format_validation_base@DV?$stream_output_adapter@D@__crt_stdio_output@@@2@@__crt_stdio_output@@AEAAX_K_N@Z 000000014001f380 f i libucrt:output.obj
 0001:0001e430       ??$type_case_integer_parse_into_buffer@_K$09@?$output_processor@DV?$stream_output_adapter@D@__crt_stdio_output@@V?$positional_parameter_base@DV?$stream_output_adapter@D@__crt_stdio_output@@@2@@__crt_stdio_output@@AEAAX_K_N@Z 000000014001f430 f i libucrt:output.obj
 0001:0001e4e0       ??$type_case_integer_parse_into_buffer@_K$09@?$output_processor@DV?$stream_output_adapter@D@__crt_stdio_output@@V?$standard_base@DV?$stream_output_adapter@D@__crt_stdio_output@@@2@@__crt_stdio_output@@AEAAX_K_N@Z 000000014001f4e0 f i libucrt:output.obj
 0001:0001e590       ??$type_case_integer_parse_into_buffer@_K$09@?$output_processor@DV?$string_output_adapter@D@__crt_stdio_output@@V?$format_validation_base@DV?$string_output_adapter@D@__crt_stdio_output@@@2@@__crt_stdio_output@@AEAAX_K_N@Z 000000014001f590 f i libucrt:output.obj
 0001:0001e640       ??$type_case_integer_parse_into_buffer@_K$09@?$output_processor@DV?$string_output_adapter@D@__crt_stdio_output@@V?$positional_parameter_base@DV?$string_output_adapter@D@__crt_stdio_output@@@2@@__crt_stdio_output@@AEAAX_K_N@Z 000000014001f640 f i libucrt:output.obj
 0001:0001e6f0       ??$type_case_integer_parse_into_buffer@_K$09@?$output_processor@DV?$string_output_adapter@D@__crt_stdio_output@@V?$standard_base@DV?$string_output_adapter@D@__crt_stdio_output@@@2@@__crt_stdio_output@@AEAAX_K_N@Z 000000014001f6f0 f i libucrt:output.obj
 0001:0001e7a0       ??$type_case_integer_parse_into_buffer@_K$09@?$output_processor@_WV?$stream_output_adapter@_W@__crt_stdio_output@@V?$format_validation_base@_WV?$stream_output_adapter@_W@__crt_stdio_output@@@2@@__crt_stdio_output@@AEAAX_K_N@Z 000000014001f7a0 f i libucrt:output.obj
 0001:0001e864       ??$type_case_integer_parse_into_buffer@_K$09@?$output_processor@_WV?$stream_output_adapter@_W@__crt_stdio_output@@V?$positional_parameter_base@_WV?$stream_output_adapter@_W@__crt_stdio_output@@@2@@__crt_stdio_output@@AEAAX_K_N@Z 000000014001f864 f i libucrt:output.obj
 0001:0001e928       ??$type_case_integer_parse_into_buffer@_K$09@?$output_processor@_WV?$stream_output_adapter@_W@__crt_stdio_output@@V?$standard_base@_WV?$stream_output_adapter@_W@__crt_stdio_output@@@2@@__crt_stdio_output@@AEAAX_K_N@Z 000000014001f928 f i libucrt:output.obj
 0001:0001e9ec       ??$type_case_integer_parse_into_buffer@_K$09@?$output_processor@_WV?$string_output_adapter@_W@__crt_stdio_output@@V?$format_validation_base@_WV?$string_output_adapter@_W@__crt_stdio_output@@@2@@__crt_stdio_output@@AEAAX_K_N@Z 000000014001f9ec f i libucrt:output.obj
 0001:0001eab0       ??$type_case_integer_parse_into_buffer@_K$09@?$output_processor@_WV?$string_output_adapter@_W@__crt_stdio_output@@V?$positional_parameter_base@_WV?$string_output_adapter@_W@__crt_stdio_output@@@2@@__crt_stdio_output@@AEAAX_K_N@Z 000000014001fab0 f i libucrt:output.obj
 0001:0001eb74       ??$type_case_integer_parse_into_buffer@_K$09@?$output_processor@_WV?$string_output_adapter@_W@__crt_stdio_output@@V?$standard_base@_WV?$string_output_adapter@_W@__crt_stdio_output@@@2@@__crt_stdio_output@@AEAAX_K_N@Z 000000014001fb74 f i libucrt:output.obj
 0001:0001ec38       ??$type_case_integer_parse_into_buffer@_K$0BA@@?$output_processor@DV?$stream_output_adapter@D@__crt_stdio_output@@V?$format_validation_base@DV?$stream_output_adapter@D@__crt_stdio_output@@@2@@__crt_stdio_output@@AEAAX_K_N@Z 000000014001fc38 f i libucrt:output.obj
 0001:0001ecbc       ??$type_case_integer_parse_into_buffer@_K$0BA@@?$output_processor@DV?$stream_output_adapter@D@__crt_stdio_output@@V?$positional_parameter_base@DV?$stream_output_adapter@D@__crt_stdio_output@@@2@@__crt_stdio_output@@AEAAX_K_N@Z 000000014001fcbc f i libucrt:output.obj
 0001:0001ed40       ??$type_case_integer_parse_into_buffer@_K$0BA@@?$output_processor@DV?$stream_output_adapter@D@__crt_stdio_output@@V?$standard_base@DV?$stream_output_adapter@D@__crt_stdio_output@@@2@@__crt_stdio_output@@AEAAX_K_N@Z 000000014001fd40 f i libucrt:output.obj
 0001:0001edc4       ??$type_case_integer_parse_into_buffer@_K$0BA@@?$output_processor@DV?$string_output_adapter@D@__crt_stdio_output@@V?$format_validation_base@DV?$string_output_adapter@D@__crt_stdio_output@@@2@@__crt_stdio_output@@AEAAX_K_N@Z 000000014001fdc4 f i libucrt:output.obj
 0001:0001ee48       ??$type_case_integer_parse_into_buffer@_K$0BA@@?$output_processor@DV?$string_output_adapter@D@__crt_stdio_output@@V?$positional_parameter_base@DV?$string_output_adapter@D@__crt_stdio_output@@@2@@__crt_stdio_output@@AEAAX_K_N@Z 000000014001fe48 f i libucrt:output.obj
 0001:0001eecc       ??$type_case_integer_parse_into_buffer@_K$0BA@@?$output_processor@DV?$string_output_adapter@D@__crt_stdio_output@@V?$standard_base@DV?$string_output_adapter@D@__crt_stdio_output@@@2@@__crt_stdio_output@@AEAAX_K_N@Z 000000014001fecc f i libucrt:output.obj
 0001:0001ef50       ??$type_case_integer_parse_into_buffer@_K$0BA@@?$output_processor@_WV?$stream_output_adapter@_W@__crt_stdio_output@@V?$format_validation_base@_WV?$stream_output_adapter@_W@__crt_stdio_output@@@2@@__crt_stdio_output@@AEAAX_K_N@Z 000000014001ff50 f i libucrt:output.obj
 0001:0001eff0       ??$type_case_integer_parse_into_buffer@_K$0BA@@?$output_processor@_WV?$stream_output_adapter@_W@__crt_stdio_output@@V?$positional_parameter_base@_WV?$stream_output_adapter@_W@__crt_stdio_output@@@2@@__crt_stdio_output@@AEAAX_K_N@Z 000000014001fff0 f i libucrt:output.obj
 0001:0001f090       ??$type_case_integer_parse_into_buffer@_K$0BA@@?$output_processor@_WV?$stream_output_adapter@_W@__crt_stdio_output@@V?$standard_base@_WV?$stream_output_adapter@_W@__crt_stdio_output@@@2@@__crt_stdio_output@@AEAAX_K_N@Z 0000000140020090 f i libucrt:output.obj
 0001:0001f130       ??$type_case_integer_parse_into_buffer@_K$0BA@@?$output_processor@_WV?$string_output_adapter@_W@__crt_stdio_output@@V?$format_validation_base@_WV?$string_output_adapter@_W@__crt_stdio_output@@@2@@__crt_stdio_output@@AEAAX_K_N@Z 0000000140020130 f i libucrt:output.obj
 0001:0001f1d0       ??$type_case_integer_parse_into_buffer@_K$0BA@@?$output_processor@_WV?$string_output_adapter@_W@__crt_stdio_output@@V?$positional_parameter_base@_WV?$string_output_adapter@_W@__crt_stdio_output@@@2@@__crt_stdio_output@@AEAAX_K_N@Z 00000001400201d0 f i libucrt:output.obj
 0001:0001f270       ??$type_case_integer_parse_into_buffer@_K$0BA@@?$output_processor@_WV?$string_output_adapter@_W@__crt_stdio_output@@V?$standard_base@_WV?$string_output_adapter@_W@__crt_stdio_output@@@2@@__crt_stdio_output@@AEAAX_K_N@Z 0000000140020270 f i libucrt:output.obj
 0001:0001f310       ??$write_multiple_characters@V?$stream_output_adapter@D@__crt_stdio_output@@D@__crt_stdio_output@@YAXAEBV?$stream_output_adapter@D@0@DHQEAHAEAV__crt_cached_ptd_host@@@Z 0000000140020310 f i libucrt:output.obj
 0001:0001f3a4       ??$write_multiple_characters@V?$stream_output_adapter@_W@__crt_stdio_output@@D@__crt_stdio_output@@YAXAEBV?$stream_output_adapter@_W@0@DHQEAHAEAV__crt_cached_ptd_host@@@Z 00000001400203a4 f i libucrt:output.obj
 0001:0001f43c       ??$write_multiple_characters@V?$string_output_adapter@D@__crt_stdio_output@@D@__crt_stdio_output@@YAXAEBV?$string_output_adapter@D@0@DHQEAHAEAV__crt_cached_ptd_host@@@Z 000000014002043c f i libucrt:output.obj
 0001:0001f4b4       ??$write_multiple_characters@V?$string_output_adapter@_W@__crt_stdio_output@@D@__crt_stdio_output@@YAXAEBV?$string_output_adapter@_W@0@DHQEAHAEAV__crt_cached_ptd_host@@@Z 00000001400204b4 f i libucrt:output.obj
 0001:0001f694       ??0?$c_string_character_source@D@__crt_strtox@@QEAA@QEBDQEAPEBD@Z 0000000140020694 f i libucrt:output.obj
 0001:0001f6a8       ??0?$c_string_character_source@_W@__crt_strtox@@QEAA@QEB_WQEAPEB_W@Z 00000001400206a8 f i libucrt:output.obj
 0001:0001f6bc       ??0?$common_data@D@__crt_stdio_output@@IEAA@AEAV__crt_cached_ptd_host@@@Z 00000001400206bc f i libucrt:output.obj
 0001:0001f6f8       ??0?$common_data@_W@__crt_stdio_output@@IEAA@AEAV__crt_cached_ptd_host@@@Z 00000001400206f8 f i libucrt:output.obj
 0001:0001f738       ??0?$output_adapter_data@DV?$stream_output_adapter@D@__crt_stdio_output@@@__crt_stdio_output@@IEAA@AEBV?$stream_output_adapter@D@1@_KQEBDAEAV__crt_cached_ptd_host@@QEAD@Z 0000000140020738 f i libucrt:output.obj
 0001:0001f798       ??0?$output_adapter_data@DV?$string_output_adapter@D@__crt_stdio_output@@@__crt_stdio_output@@IEAA@AEBV?$string_output_adapter@D@1@_KQEBDAEAV__crt_cached_ptd_host@@QEAD@Z 0000000140020798 f i libucrt:output.obj
 0001:0001f7f8       ??0?$output_adapter_data@_WV?$stream_output_adapter@_W@__crt_stdio_output@@@__crt_stdio_output@@IEAA@AEBV?$stream_output_adapter@_W@1@_KQEB_WAEAV__crt_cached_ptd_host@@QEAD@Z 00000001400207f8 f i libucrt:output.obj
 0001:0001f85c       ??0?$output_adapter_data@_WV?$string_output_adapter@_W@__crt_stdio_output@@@__crt_stdio_output@@IEAA@AEBV?$string_output_adapter@_W@1@_KQEB_WAEAV__crt_cached_ptd_host@@QEAD@Z 000000014002085c f i libucrt:output.obj
 0001:0001f8c0       ??0?$output_processor@DV?$stream_output_adapter@D@__crt_stdio_output@@V?$format_validation_base@DV?$stream_output_adapter@D@__crt_stdio_output@@@2@@__crt_stdio_output@@QEAA@AEBV?$stream_output_adapter@D@1@_KQEBDAEAV__crt_cached_ptd_host@@QEAD@Z 00000001400208c0 f i libucrt:output.obj
 0001:0001f928       ??0?$output_processor@DV?$stream_output_adapter@D@__crt_stdio_output@@V?$positional_parameter_base@DV?$stream_output_adapter@D@__crt_stdio_output@@@2@@__crt_stdio_output@@QEAA@AEBV?$stream_output_adapter@D@1@_KQEBDAEAV__crt_cached_ptd_host@@QEAD@Z 0000000140020928 f i libucrt:output.obj
 0001:0001f9ac       ??0?$output_processor@DV?$stream_output_adapter@D@__crt_stdio_output@@V?$standard_base@DV?$stream_output_adapter@D@__crt_stdio_output@@@2@@__crt_stdio_output@@QEAA@AEBV?$stream_output_adapter@D@1@_KQEBDAEAV__crt_cached_ptd_host@@QEAD@Z 00000001400209ac f i libucrt:output.obj
 0001:0001fa14       ??0?$output_processor@DV?$string_output_adapter@D@__crt_stdio_output@@V?$format_validation_base@DV?$string_output_adapter@D@__crt_stdio_output@@@2@@__crt_stdio_output@@QEAA@AEBV?$string_output_adapter@D@1@_KQEBDAEAV__crt_cached_ptd_host@@QEAD@Z 0000000140020a14 f i libucrt:output.obj
 0001:0001fa7c       ??0?$output_processor@DV?$string_output_adapter@D@__crt_stdio_output@@V?$positional_parameter_base@DV?$string_output_adapter@D@__crt_stdio_output@@@2@@__crt_stdio_output@@QEAA@AEBV?$string_output_adapter@D@1@_KQEBDAEAV__crt_cached_ptd_host@@QEAD@Z 0000000140020a7c f i libucrt:output.obj
 0001:0001fb00       ??0?$output_processor@DV?$string_output_adapter@D@__crt_stdio_output@@V?$standard_base@DV?$string_output_adapter@D@__crt_stdio_output@@@2@@__crt_stdio_output@@QEAA@AEBV?$string_output_adapter@D@1@_KQEBDAEAV__crt_cached_ptd_host@@QEAD@Z 0000000140020b00 f i libucrt:output.obj
 0001:0001fb68       ??0?$output_processor@_WV?$stream_output_adapter@_W@__crt_stdio_output@@V?$format_validation_base@_WV?$stream_output_adapter@_W@__crt_stdio_output@@@2@@__crt_stdio_output@@QEAA@AEBV?$stream_output_adapter@_W@1@_KQEB_WAEAV__crt_cached_ptd_host@@QEAD@Z 0000000140020b68 f i libucrt:output.obj
 0001:0001fbd4       ??0?$output_processor@_WV?$stream_output_adapter@_W@__crt_stdio_output@@V?$positional_parameter_base@_WV?$stream_output_adapter@_W@__crt_stdio_output@@@2@@__crt_stdio_output@@QEAA@AEBV?$stream_output_adapter@_W@1@_KQEB_WAEAV__crt_cached_ptd_host@@QEAD@Z 0000000140020bd4 f i libucrt:output.obj
 0001:0001fc5c       ??0?$output_processor@_WV?$stream_output_adapter@_W@__crt_stdio_output@@V?$standard_base@_WV?$stream_output_adapter@_W@__crt_stdio_output@@@2@@__crt_stdio_output@@QEAA@AEBV?$stream_output_adapter@_W@1@_KQEB_WAEAV__crt_cached_ptd_host@@QEAD@Z 0000000140020c5c f i libucrt:output.obj
 0001:0001fcc8       ??0?$output_processor@_WV?$string_output_adapter@_W@__crt_stdio_output@@V?$format_validation_base@_WV?$string_output_adapter@_W@__crt_stdio_output@@@2@@__crt_stdio_output@@QEAA@AEBV?$string_output_adapter@_W@1@_KQEB_WAEAV__crt_cached_ptd_host@@QEAD@Z 0000000140020cc8 f i libucrt:output.obj
 0001:0001fd34       ??0?$output_processor@_WV?$string_output_adapter@_W@__crt_stdio_output@@V?$positional_parameter_base@_WV?$string_output_adapter@_W@__crt_stdio_output@@@2@@__crt_stdio_output@@QEAA@AEBV?$string_output_adapter@_W@1@_KQEB_WAEAV__crt_cached_ptd_host@@QEAD@Z 0000000140020d34 f i libucrt:output.obj
 0001:0001fdbc       ??0?$output_processor@_WV?$string_output_adapter@_W@__crt_stdio_output@@V?$standard_base@_WV?$string_output_adapter@_W@__crt_stdio_output@@@2@@__crt_stdio_output@@QEAA@AEBV?$string_output_adapter@_W@1@_KQEB_WAEAV__crt_cached_ptd_host@@QEAD@Z 0000000140020dbc f i libucrt:output.obj
 0001:0001fe28       ??0?$stream_output_adapter@D@__crt_stdio_output@@QEAA@QEAU_iobuf@@@Z 0000000140020e28 f i libucrt:output.obj
 0001:0001fe30       ??0?$stream_output_adapter@_W@__crt_stdio_output@@QEAA@QEAU_iobuf@@@Z 0000000140020e30 f i libucrt:output.obj
 0001:0001fe38       ??0?$string_output_adapter@D@__crt_stdio_output@@QEAA@QEAU?$string_output_adapter_context@D@1@@Z 0000000140020e38 f i libucrt:output.obj
 0001:0001fe40       ??0?$string_output_adapter@_W@__crt_stdio_output@@QEAA@QEAU?$string_output_adapter_context@_W@1@@Z 0000000140020e40 f i libucrt:output.obj
 0001:0001fe48       ??0formatting_buffer@__crt_stdio_output@@QEAA@XZ 0000000140020e48 f i libucrt:output.obj
 0001:0001fe5c       ??0guard@?$cached@H@__crt_cached_ptd_host@@QEAA@AEAU12@@Z 0000000140020e5c f i libucrt:output.obj
 0001:0001fe70       ??1?$c_string_character_source@D@__crt_strtox@@QEAA@XZ 0000000140020e70 f i libucrt:output.obj
 0001:0001fe80       ??1?$c_string_character_source@_W@__crt_strtox@@QEAA@XZ 0000000140020e80 f i libucrt:output.obj
 0001:0001fe90       ??1?$common_data@D@__crt_stdio_output@@QEAA@XZ 0000000140020e90 f i libucrt:output.obj
 0001:0001feb4       ??1?$common_data@_W@__crt_stdio_output@@QEAA@XZ 0000000140020eb4 f i libucrt:output.obj
 0001:0001fed8       ??1?$format_validation_base@DV?$stream_output_adapter@D@__crt_stdio_output@@@__crt_stdio_output@@QEAA@XZ 0000000140020ed8 f i libucrt:output.obj
 0001:0001fefc       ??1?$format_validation_base@DV?$string_output_adapter@D@__crt_stdio_output@@@__crt_stdio_output@@QEAA@XZ 0000000140020efc f i libucrt:output.obj
 0001:0001ff20       ??1?$format_validation_base@_WV?$stream_output_adapter@_W@__crt_stdio_output@@@__crt_stdio_output@@QEAA@XZ 0000000140020f20 f i libucrt:output.obj
 0001:0001ff44       ??1?$format_validation_base@_WV?$string_output_adapter@_W@__crt_stdio_output@@@__crt_stdio_output@@QEAA@XZ 0000000140020f44 f i libucrt:output.obj
 0001:0001ff68       ??1?$output_adapter_data@DV?$stream_output_adapter@D@__crt_stdio_output@@@__crt_stdio_output@@QEAA@XZ 0000000140020f68 f i libucrt:output.obj
 0001:0001ff8c       ??1?$output_adapter_data@DV?$string_output_adapter@D@__crt_stdio_output@@@__crt_stdio_output@@QEAA@XZ 0000000140020f8c f i libucrt:output.obj
 0001:0001ffb0       ??1?$output_adapter_data@_WV?$stream_output_adapter@_W@__crt_stdio_output@@@__crt_stdio_output@@QEAA@XZ 0000000140020fb0 f i libucrt:output.obj
 0001:0001ffd4       ??1?$output_adapter_data@_WV?$string_output_adapter@_W@__crt_stdio_output@@@__crt_stdio_output@@QEAA@XZ 0000000140020fd4 f i libucrt:output.obj
 0001:0001fff8       ??1?$output_processor@DV?$stream_output_adapter@D@__crt_stdio_output@@V?$format_validation_base@DV?$stream_output_adapter@D@__crt_stdio_output@@@2@@__crt_stdio_output@@QEAA@XZ 0000000140020ff8 f i libucrt:output.obj
 0001:0002001c       ??1?$output_processor@DV?$stream_output_adapter@D@__crt_stdio_output@@V?$positional_parameter_base@DV?$stream_output_adapter@D@__crt_stdio_output@@@2@@__crt_stdio_output@@QEAA@XZ 000000014002101c f i libucrt:output.obj
 0001:00020040       ??1?$output_processor@DV?$stream_output_adapter@D@__crt_stdio_output@@V?$standard_base@DV?$stream_output_adapter@D@__crt_stdio_output@@@2@@__crt_stdio_output@@QEAA@XZ 0000000140021040 f i libucrt:output.obj
 0001:00020064       ??1?$output_processor@DV?$string_output_adapter@D@__crt_stdio_output@@V?$format_validation_base@DV?$string_output_adapter@D@__crt_stdio_output@@@2@@__crt_stdio_output@@QEAA@XZ 0000000140021064 f i libucrt:output.obj
 0001:00020088       ??1?$output_processor@DV?$string_output_adapter@D@__crt_stdio_output@@V?$positional_parameter_base@DV?$string_output_adapter@D@__crt_stdio_output@@@2@@__crt_stdio_output@@QEAA@XZ 0000000140021088 f i libucrt:output.obj
 0001:000200ac       ??1?$output_processor@DV?$string_output_adapter@D@__crt_stdio_output@@V?$standard_base@DV?$string_output_adapter@D@__crt_stdio_output@@@2@@__crt_stdio_output@@QEAA@XZ 00000001400210ac f i libucrt:output.obj
 0001:000200d0       ??1?$output_processor@_WV?$stream_output_adapter@_W@__crt_stdio_output@@V?$format_validation_base@_WV?$stream_output_adapter@_W@__crt_stdio_output@@@2@@__crt_stdio_output@@QEAA@XZ 00000001400210d0 f i libucrt:output.obj
 0001:000200f4       ??1?$output_processor@_WV?$stream_output_adapter@_W@__crt_stdio_output@@V?$positional_parameter_base@_WV?$stream_output_adapter@_W@__crt_stdio_output@@@2@@__crt_stdio_output@@QEAA@XZ 00000001400210f4 f i libucrt:output.obj
 0001:00020118       ??1?$output_processor@_WV?$stream_output_adapter@_W@__crt_stdio_output@@V?$standard_base@_WV?$stream_output_adapter@_W@__crt_stdio_output@@@2@@__crt_stdio_output@@QEAA@XZ 0000000140021118 f i libucrt:output.obj
 0001:0002013c       ??1?$output_processor@_WV?$string_output_adapter@_W@__crt_stdio_output@@V?$format_validation_base@_WV?$string_output_adapter@_W@__crt_stdio_output@@@2@@__crt_stdio_output@@QEAA@XZ 000000014002113c f i libucrt:output.obj
 0001:00020160       ??1?$output_processor@_WV?$string_output_adapter@_W@__crt_stdio_output@@V?$positional_parameter_base@_WV?$string_output_adapter@_W@__crt_stdio_output@@@2@@__crt_stdio_output@@QEAA@XZ 0000000140021160 f i libucrt:output.obj
 0001:00020184       ??1?$output_processor@_WV?$string_output_adapter@_W@__crt_stdio_output@@V?$standard_base@_WV?$string_output_adapter@_W@__crt_stdio_output@@@2@@__crt_stdio_output@@QEAA@XZ 0000000140021184 f i libucrt:output.obj
 0001:000201a8       ??1?$positional_parameter_base@DV?$stream_output_adapter@D@__crt_stdio_output@@@__crt_stdio_output@@QEAA@XZ 00000001400211a8 f i libucrt:output.obj
 0001:000201cc       ??1?$positional_parameter_base@DV?$string_output_adapter@D@__crt_stdio_output@@@__crt_stdio_output@@QEAA@XZ 00000001400211cc f i libucrt:output.obj
 0001:000201f0       ??1?$positional_parameter_base@_WV?$stream_output_adapter@_W@__crt_stdio_output@@@__crt_stdio_output@@QEAA@XZ 00000001400211f0 f i libucrt:output.obj
 0001:00020214       ??1?$positional_parameter_base@_WV?$string_output_adapter@_W@__crt_stdio_output@@@__crt_stdio_output@@QEAA@XZ 0000000140021214 f i libucrt:output.obj
 0001:00020238       ??1?$standard_base@DV?$stream_output_adapter@D@__crt_stdio_output@@@__crt_stdio_output@@QEAA@XZ 0000000140021238 f i libucrt:output.obj
 0001:0002025c       ??1?$standard_base@DV?$string_output_adapter@D@__crt_stdio_output@@@__crt_stdio_output@@QEAA@XZ 000000014002125c f i libucrt:output.obj
 0001:00020280       ??1?$standard_base@_WV?$stream_output_adapter@_W@__crt_stdio_output@@@__crt_stdio_output@@QEAA@XZ 0000000140021280 f i libucrt:output.obj
 0001:000202a4       ??1?$standard_base@_WV?$string_output_adapter@_W@__crt_stdio_output@@@__crt_stdio_output@@QEAA@XZ 00000001400212a4 f i libucrt:output.obj
 0001:000202c8       ??1formatting_buffer@__crt_stdio_output@@QEAA@XZ 00000001400212c8 f i libucrt:output.obj
 0001:000202ec       ??1guard@?$cached@H@__crt_cached_ptd_host@@QEAA@XZ 00000001400212ec f i libucrt:output.obj
 0001:00020300       ??4?$__crt_unique_heap_ptr@DU__crt_internal_free_policy@@@@QEAAAEAV0@$$QEAV0@@Z 0000000140021300 f i libucrt:output.obj
 0001:00020334       ??A?$spectre_mitigated_lookup_table@Ustate_transition_pair@__crt_stdio_output@@$0IA@@__crt_stdio_output@@QEBAAEBUstate_transition_pair@1@_K@Z 0000000140021334 f i libucrt:output.obj
 0001:00020a80       ?adjust_hexit@?$output_processor@DV?$stream_output_adapter@D@__crt_stdio_output@@V?$format_validation_base@DV?$stream_output_adapter@D@__crt_stdio_output@@@2@@__crt_stdio_output@@CADH_N@Z 0000000140021a80 f i libucrt:output.obj
 0001:00020a8c       ?adjust_hexit@?$output_processor@DV?$stream_output_adapter@D@__crt_stdio_output@@V?$positional_parameter_base@DV?$stream_output_adapter@D@__crt_stdio_output@@@2@@__crt_stdio_output@@CADH_N@Z 0000000140021a8c f i libucrt:output.obj
 0001:00020a98       ?adjust_hexit@?$output_processor@DV?$stream_output_adapter@D@__crt_stdio_output@@V?$standard_base@DV?$stream_output_adapter@D@__crt_stdio_output@@@2@@__crt_stdio_output@@CADH_N@Z 0000000140021a98 f i libucrt:output.obj
 0001:00020aa4       ?adjust_hexit@?$output_processor@DV?$string_output_adapter@D@__crt_stdio_output@@V?$format_validation_base@DV?$string_output_adapter@D@__crt_stdio_output@@@2@@__crt_stdio_output@@CADH_N@Z 0000000140021aa4 f i libucrt:output.obj
 0001:00020ab0       ?adjust_hexit@?$output_processor@DV?$string_output_adapter@D@__crt_stdio_output@@V?$positional_parameter_base@DV?$string_output_adapter@D@__crt_stdio_output@@@2@@__crt_stdio_output@@CADH_N@Z 0000000140021ab0 f i libucrt:output.obj
 0001:00020abc       ?adjust_hexit@?$output_processor@DV?$string_output_adapter@D@__crt_stdio_output@@V?$standard_base@DV?$string_output_adapter@D@__crt_stdio_output@@@2@@__crt_stdio_output@@CADH_N@Z 0000000140021abc f i libucrt:output.obj
 0001:00020ac8       ?adjust_hexit@?$output_processor@_WV?$stream_output_adapter@_W@__crt_stdio_output@@V?$format_validation_base@_WV?$stream_output_adapter@_W@__crt_stdio_output@@@2@@__crt_stdio_output@@CADH_N@Z 0000000140021ac8 f i libucrt:output.obj
 0001:00020ad4       ?adjust_hexit@?$output_processor@_WV?$stream_output_adapter@_W@__crt_stdio_output@@V?$positional_parameter_base@_WV?$stream_output_adapter@_W@__crt_stdio_output@@@2@@__crt_stdio_output@@CADH_N@Z 0000000140021ad4 f i libucrt:output.obj
 0001:00020ae0       ?adjust_hexit@?$output_processor@_WV?$stream_output_adapter@_W@__crt_stdio_output@@V?$standard_base@_WV?$stream_output_adapter@_W@__crt_stdio_output@@@2@@__crt_stdio_output@@CADH_N@Z 0000000140021ae0 f i libucrt:output.obj
 0001:00020aec       ?adjust_hexit@?$output_processor@_WV?$string_output_adapter@_W@__crt_stdio_output@@V?$format_validation_base@_WV?$string_output_adapter@_W@__crt_stdio_output@@@2@@__crt_stdio_output@@CADH_N@Z 0000000140021aec f i libucrt:output.obj
 0001:00020af8       ?adjust_hexit@?$output_processor@_WV?$string_output_adapter@_W@__crt_stdio_output@@V?$positional_parameter_base@_WV?$string_output_adapter@_W@__crt_stdio_output@@@2@@__crt_stdio_output@@CADH_N@Z 0000000140021af8 f i libucrt:output.obj
 0001:00020b04       ?adjust_hexit@?$output_processor@_WV?$string_output_adapter@_W@__crt_stdio_output@@V?$standard_base@_WV?$string_output_adapter@_W@__crt_stdio_output@@@2@@__crt_stdio_output@@CADH_N@Z 0000000140021b04 f i libucrt:output.obj
 0001:00020b10       ?advance_to_next_pass@?$positional_parameter_base@DV?$stream_output_adapter@D@__crt_stdio_output@@@__crt_stdio_output@@IEAA_NXZ 0000000140021b10 f i libucrt:output.obj
 0001:00020b64       ?advance_to_next_pass@?$positional_parameter_base@DV?$string_output_adapter@D@__crt_stdio_output@@@__crt_stdio_output@@IEAA_NXZ 0000000140021b64 f i libucrt:output.obj
 0001:00020bb8       ?advance_to_next_pass@?$positional_parameter_base@_WV?$stream_output_adapter@_W@__crt_stdio_output@@@__crt_stdio_output@@IEAA_NXZ 0000000140021bb8 f i libucrt:output.obj
 0001:00020c0c       ?advance_to_next_pass@?$positional_parameter_base@_WV?$string_output_adapter@_W@__crt_stdio_output@@@__crt_stdio_output@@IEAA_NXZ 0000000140021c0c f i libucrt:output.obj
 0001:00020c60       ?advance_to_next_pass@?$standard_base@DV?$stream_output_adapter@D@__crt_stdio_output@@@__crt_stdio_output@@IEAA_NXZ 0000000140021c60 f i libucrt:output.obj
 0001:00020c74       ?advance_to_next_pass@?$standard_base@DV?$string_output_adapter@D@__crt_stdio_output@@@__crt_stdio_output@@IEAA_NXZ 0000000140021c74 f i libucrt:output.obj
 0001:00020c88       ?advance_to_next_pass@?$standard_base@_WV?$stream_output_adapter@_W@__crt_stdio_output@@@__crt_stdio_output@@IEAA_NXZ 0000000140021c88 f i libucrt:output.obj
 0001:00020c9c       ?advance_to_next_pass@?$standard_base@_WV?$string_output_adapter@_W@__crt_stdio_output@@@__crt_stdio_output@@IEAA_NXZ 0000000140021c9c f i libucrt:output.obj
 0001:00020cb0       ?check@?$cached@H@__crt_cached_ptd_host@@QEBA_NH@Z 0000000140021cb0 f i libucrt:output.obj
 0001:00020cc0       ?create_guard@?$cached@H@__crt_cached_ptd_host@@QEAA?AVguard@12@XZ 0000000140021cc0 f i libucrt:output.obj
 0001:00020cd4       ?crop_zeroes@__crt_stdio_output@@YAXPEADQEAU__crt_locale_pointers@@@Z 0000000140021cd4 f i libucrt:output.obj
 0001:00020d40       ?disable@guard@?$cached@H@__crt_cached_ptd_host@@QEAAXXZ 0000000140021d40 f i libucrt:output.obj
 0001:00020d48       ?enable@guard@?$cached@H@__crt_cached_ptd_host@@QEAAXXZ 0000000140021d48 f i libucrt:output.obj
 0001:00020d50       ?find_next_state@?$output_processor@DV?$stream_output_adapter@D@__crt_stdio_output@@V?$format_validation_base@DV?$stream_output_adapter@D@__crt_stdio_output@@@2@@__crt_stdio_output@@AEBA?AW4state@2@DW432@@Z 0000000140021d50 f i libucrt:output.obj
 0001:00020d88       ?find_next_state@?$output_processor@DV?$stream_output_adapter@D@__crt_stdio_output@@V?$positional_parameter_base@DV?$stream_output_adapter@D@__crt_stdio_output@@@2@@__crt_stdio_output@@AEBA?AW4state@2@DW432@@Z 0000000140021d88 f i libucrt:output.obj
 0001:00020dc0       ?find_next_state@?$output_processor@DV?$stream_output_adapter@D@__crt_stdio_output@@V?$standard_base@DV?$stream_output_adapter@D@__crt_stdio_output@@@2@@__crt_stdio_output@@AEBA?AW4state@2@DW432@@Z 0000000140021dc0 f i libucrt:output.obj
 0001:00020df4       ?find_next_state@?$output_processor@DV?$string_output_adapter@D@__crt_stdio_output@@V?$format_validation_base@DV?$string_output_adapter@D@__crt_stdio_output@@@2@@__crt_stdio_output@@AEBA?AW4state@2@DW432@@Z 0000000140021df4 f i libucrt:output.obj
 0001:00020e2c       ?find_next_state@?$output_processor@DV?$string_output_adapter@D@__crt_stdio_output@@V?$positional_parameter_base@DV?$string_output_adapter@D@__crt_stdio_output@@@2@@__crt_stdio_output@@AEBA?AW4state@2@DW432@@Z 0000000140021e2c f i libucrt:output.obj
 0001:00020e64       ?find_next_state@?$output_processor@DV?$string_output_adapter@D@__crt_stdio_output@@V?$standard_base@DV?$string_output_adapter@D@__crt_stdio_output@@@2@@__crt_stdio_output@@AEBA?AW4state@2@DW432@@Z 0000000140021e64 f i libucrt:output.obj
 0001:00020e98       ?find_next_state@?$output_processor@_WV?$stream_output_adapter@_W@__crt_stdio_output@@V?$format_validation_base@_WV?$stream_output_adapter@_W@__crt_stdio_output@@@2@@__crt_stdio_output@@AEBA?AW4state@2@_WW432@@Z 0000000140021e98 f i libucrt:output.obj
 0001:00020ed8       ?find_next_state@?$output_processor@_WV?$stream_output_adapter@_W@__crt_stdio_output@@V?$positional_parameter_base@_WV?$stream_output_adapter@_W@__crt_stdio_output@@@2@@__crt_stdio_output@@AEBA?AW4state@2@_WW432@@Z 0000000140021ed8 f i libucrt:output.obj
 0001:00020f18       ?find_next_state@?$output_processor@_WV?$stream_output_adapter@_W@__crt_stdio_output@@V?$standard_base@_WV?$stream_output_adapter@_W@__crt_stdio_output@@@2@@__crt_stdio_output@@AEBA?AW4state@2@_WW432@@Z 0000000140021f18 f i libucrt:output.obj
 0001:00020f54       ?find_next_state@?$output_processor@_WV?$string_output_adapter@_W@__crt_stdio_output@@V?$format_validation_base@_WV?$string_output_adapter@_W@__crt_stdio_output@@@2@@__crt_stdio_output@@AEBA?AW4state@2@_WW432@@Z 0000000140021f54 f i libucrt:output.obj
 0001:00020f94       ?find_next_state@?$output_processor@_WV?$string_output_adapter@_W@__crt_stdio_output@@V?$positional_parameter_base@_WV?$string_output_adapter@_W@__crt_stdio_output@@@2@@__crt_stdio_output@@AEBA?AW4state@2@_WW432@@Z 0000000140021f94 f i libucrt:output.obj
 0001:00020fd4       ?find_next_state@?$output_processor@_WV?$string_output_adapter@_W@__crt_stdio_output@@V?$standard_base@_WV?$string_output_adapter@_W@__crt_stdio_output@@@2@@__crt_stdio_output@@AEBA?AW4state@2@_WW432@@Z 0000000140021fd4 f i libucrt:output.obj
 0001:00021010       ?force_decimal_point@__crt_stdio_output@@YAXPEADQEAU__crt_locale_pointers@@@Z 0000000140022010 f i libucrt:output.obj
 0001:00021070       ?get@?$c_string_character_source@D@__crt_strtox@@QEAADXZ 0000000140022070 f i libucrt:output.obj
 0001:0002107c       ?get@?$c_string_character_source@_W@__crt_strtox@@QEAA_WXZ 000000014002207c f i libucrt:output.obj
 0001:00021090       ?get_locale@__crt_cached_ptd_host@@QEAAPEAU__crt_locale_pointers@@XZ 0000000140022090 f i libucrt:output.obj
 0001:000210b8       ?get_parameter_type@?$positional_parameter_base@DV?$stream_output_adapter@D@__crt_stdio_output@@@__crt_stdio_output@@CA?AW4parameter_type@12@F@Z 00000001400220b8 f i libucrt:output.obj
 0001:000210c0       ?get_parameter_type@?$positional_parameter_base@DV?$stream_output_adapter@D@__crt_stdio_output@@@__crt_stdio_output@@CA?AW4parameter_type@12@G@Z 00000001400220c0 f i libucrt:output.obj
 0001:000210c8       ?get_parameter_type@?$positional_parameter_base@DV?$stream_output_adapter@D@__crt_stdio_output@@@__crt_stdio_output@@CA?AW4parameter_type@12@H@Z 00000001400220c8 f i libucrt:output.obj
 0001:000210d0       ?get_parameter_type@?$positional_parameter_base@DV?$stream_output_adapter@D@__crt_stdio_output@@@__crt_stdio_output@@CA?AW4parameter_type@12@I@Z 00000001400220d0 f i libucrt:output.obj
 0001:000210d8       ?get_parameter_type@?$positional_parameter_base@DV?$stream_output_adapter@D@__crt_stdio_output@@@__crt_stdio_output@@CA?AW4parameter_type@12@U_CRT_DOUBLE@@@Z 00000001400220d8 f i libucrt:output.obj
 0001:000210e0       ?get_parameter_type@?$positional_parameter_base@DV?$stream_output_adapter@D@__crt_stdio_output@@@__crt_stdio_output@@CA?AW4parameter_type@12@_J@Z 00000001400220e0 f i libucrt:output.obj
 0001:000210e8       ?get_parameter_type@?$positional_parameter_base@DV?$stream_output_adapter@D@__crt_stdio_output@@@__crt_stdio_output@@CA?AW4parameter_type@12@_K@Z 00000001400220e8 f i libucrt:output.obj
 0001:000210f0       ?get_parameter_type@?$positional_parameter_base@DV?$stream_output_adapter@D@__crt_stdio_output@@@__crt_stdio_output@@CA?AW4parameter_type@12@_W@Z 00000001400220f0 f i libucrt:output.obj
 0001:000210f8       ?get_parameter_type@?$positional_parameter_base@DV?$string_output_adapter@D@__crt_stdio_output@@@__crt_stdio_output@@CA?AW4parameter_type@12@F@Z 00000001400220f8 f i libucrt:output.obj
 0001:00021100       ?get_parameter_type@?$positional_parameter_base@DV?$string_output_adapter@D@__crt_stdio_output@@@__crt_stdio_output@@CA?AW4parameter_type@12@G@Z 0000000140022100 f i libucrt:output.obj
 0001:00021108       ?get_parameter_type@?$positional_parameter_base@DV?$string_output_adapter@D@__crt_stdio_output@@@__crt_stdio_output@@CA?AW4parameter_type@12@H@Z 0000000140022108 f i libucrt:output.obj
 0001:00021110       ?get_parameter_type@?$positional_parameter_base@DV?$string_output_adapter@D@__crt_stdio_output@@@__crt_stdio_output@@CA?AW4parameter_type@12@I@Z 0000000140022110 f i libucrt:output.obj
 0001:00021118       ?get_parameter_type@?$positional_parameter_base@DV?$string_output_adapter@D@__crt_stdio_output@@@__crt_stdio_output@@CA?AW4parameter_type@12@U_CRT_DOUBLE@@@Z 0000000140022118 f i libucrt:output.obj
 0001:00021120       ?get_parameter_type@?$positional_parameter_base@DV?$string_output_adapter@D@__crt_stdio_output@@@__crt_stdio_output@@CA?AW4parameter_type@12@_J@Z 0000000140022120 f i libucrt:output.obj
 0001:00021128       ?get_parameter_type@?$positional_parameter_base@DV?$string_output_adapter@D@__crt_stdio_output@@@__crt_stdio_output@@CA?AW4parameter_type@12@_K@Z 0000000140022128 f i libucrt:output.obj
 0001:00021130       ?get_parameter_type@?$positional_parameter_base@DV?$string_output_adapter@D@__crt_stdio_output@@@__crt_stdio_output@@CA?AW4parameter_type@12@_W@Z 0000000140022130 f i libucrt:output.obj
 0001:00021138       ?get_parameter_type@?$positional_parameter_base@_WV?$stream_output_adapter@_W@__crt_stdio_output@@@__crt_stdio_output@@CA?AW4parameter_type@12@F@Z 0000000140022138 f i libucrt:output.obj
 0001:00021140       ?get_parameter_type@?$positional_parameter_base@_WV?$stream_output_adapter@_W@__crt_stdio_output@@@__crt_stdio_output@@CA?AW4parameter_type@12@G@Z 0000000140022140 f i libucrt:output.obj
 0001:00021148       ?get_parameter_type@?$positional_parameter_base@_WV?$stream_output_adapter@_W@__crt_stdio_output@@@__crt_stdio_output@@CA?AW4parameter_type@12@H@Z 0000000140022148 f i libucrt:output.obj
 0001:00021150       ?get_parameter_type@?$positional_parameter_base@_WV?$stream_output_adapter@_W@__crt_stdio_output@@@__crt_stdio_output@@CA?AW4parameter_type@12@I@Z 0000000140022150 f i libucrt:output.obj
 0001:00021158       ?get_parameter_type@?$positional_parameter_base@_WV?$stream_output_adapter@_W@__crt_stdio_output@@@__crt_stdio_output@@CA?AW4parameter_type@12@U_CRT_DOUBLE@@@Z 0000000140022158 f i libucrt:output.obj
 0001:00021160       ?get_parameter_type@?$positional_parameter_base@_WV?$stream_output_adapter@_W@__crt_stdio_output@@@__crt_stdio_output@@CA?AW4parameter_type@12@_J@Z 0000000140022160 f i libucrt:output.obj
 0001:00021168       ?get_parameter_type@?$positional_parameter_base@_WV?$stream_output_adapter@_W@__crt_stdio_output@@@__crt_stdio_output@@CA?AW4parameter_type@12@_K@Z 0000000140022168 f i libucrt:output.obj
 0001:00021170       ?get_parameter_type@?$positional_parameter_base@_WV?$stream_output_adapter@_W@__crt_stdio_output@@@__crt_stdio_output@@CA?AW4parameter_type@12@_W@Z 0000000140022170 f i libucrt:output.obj
 0001:00021178       ?get_parameter_type@?$positional_parameter_base@_WV?$string_output_adapter@_W@__crt_stdio_output@@@__crt_stdio_output@@CA?AW4parameter_type@12@F@Z 0000000140022178 f i libucrt:output.obj
 0001:00021180       ?get_parameter_type@?$positional_parameter_base@_WV?$string_output_adapter@_W@__crt_stdio_output@@@__crt_stdio_output@@CA?AW4parameter_type@12@G@Z 0000000140022180 f i libucrt:output.obj
 0001:00021188       ?get_parameter_type@?$positional_parameter_base@_WV?$string_output_adapter@_W@__crt_stdio_output@@@__crt_stdio_output@@CA?AW4parameter_type@12@H@Z 0000000140022188 f i libucrt:output.obj
 0001:00021190       ?get_parameter_type@?$positional_parameter_base@_WV?$string_output_adapter@_W@__crt_stdio_output@@@__crt_stdio_output@@CA?AW4parameter_type@12@I@Z 0000000140022190 f i libucrt:output.obj
 0001:00021198       ?get_parameter_type@?$positional_parameter_base@_WV?$string_output_adapter@_W@__crt_stdio_output@@@__crt_stdio_output@@CA?AW4parameter_type@12@U_CRT_DOUBLE@@@Z 0000000140022198 f i libucrt:output.obj
 0001:000211a0       ?get_parameter_type@?$positional_parameter_base@_WV?$string_output_adapter@_W@__crt_stdio_output@@@__crt_stdio_output@@CA?AW4parameter_type@12@_J@Z 00000001400221a0 f i libucrt:output.obj
 0001:000211a8       ?get_parameter_type@?$positional_parameter_base@_WV?$string_output_adapter@_W@__crt_stdio_output@@@__crt_stdio_output@@CA?AW4parameter_type@12@_K@Z 00000001400221a8 f i libucrt:output.obj
 0001:000211b0       ?get_parameter_type@?$positional_parameter_base@_WV?$string_output_adapter@_W@__crt_stdio_output@@@__crt_stdio_output@@CA?AW4parameter_type@12@_W@Z 00000001400221b0 f i libucrt:output.obj
 0001:000211b8       ?has_flag@?$output_processor@DV?$stream_output_adapter@D@__crt_stdio_output@@V?$format_validation_base@DV?$stream_output_adapter@D@__crt_stdio_output@@@2@@__crt_stdio_output@@AEBA_NI@Z 00000001400221b8 f i libucrt:output.obj
 0001:000211c0       ?has_flag@?$output_processor@DV?$stream_output_adapter@D@__crt_stdio_output@@V?$positional_parameter_base@DV?$stream_output_adapter@D@__crt_stdio_output@@@2@@__crt_stdio_output@@AEBA_NI@Z 00000001400221c0 f i libucrt:output.obj
 0001:000211c8       ?has_flag@?$output_processor@DV?$stream_output_adapter@D@__crt_stdio_output@@V?$standard_base@DV?$stream_output_adapter@D@__crt_stdio_output@@@2@@__crt_stdio_output@@AEBA_NI@Z 00000001400221c8 f i libucrt:output.obj
 0001:000211d0       ?has_flag@?$output_processor@DV?$string_output_adapter@D@__crt_stdio_output@@V?$format_validation_base@DV?$string_output_adapter@D@__crt_stdio_output@@@2@@__crt_stdio_output@@AEBA_NI@Z 00000001400221d0 f i libucrt:output.obj
 0001:000211d8       ?has_flag@?$output_processor@DV?$string_output_adapter@D@__crt_stdio_output@@V?$positional_parameter_base@DV?$string_output_adapter@D@__crt_stdio_output@@@2@@__crt_stdio_output@@AEBA_NI@Z 00000001400221d8 f i libucrt:output.obj
 0001:000211e0       ?has_flag@?$output_processor@DV?$string_output_adapter@D@__crt_stdio_output@@V?$standard_base@DV?$string_output_adapter@D@__crt_stdio_output@@@2@@__crt_stdio_output@@AEBA_NI@Z 00000001400221e0 f i libucrt:output.obj
 0001:000211e8       ?has_flag@?$output_processor@_WV?$stream_output_adapter@_W@__crt_stdio_output@@V?$format_validation_base@_WV?$stream_output_adapter@_W@__crt_stdio_output@@@2@@__crt_stdio_output@@AEBA_NI@Z 00000001400221e8 f i libucrt:output.obj
 0001:000211f0       ?has_flag@?$output_processor@_WV?$stream_output_adapter@_W@__crt_stdio_output@@V?$positional_parameter_base@_WV?$stream_output_adapter@_W@__crt_stdio_output@@@2@@__crt_stdio_output@@AEBA_NI@Z 00000001400221f0 f i libucrt:output.obj
 0001:000211f8       ?has_flag@?$output_processor@_WV?$stream_output_adapter@_W@__crt_stdio_output@@V?$standard_base@_WV?$stream_output_adapter@_W@__crt_stdio_output@@@2@@__crt_stdio_output@@AEBA_NI@Z 00000001400221f8 f i libucrt:output.obj
 0001:00021200       ?has_flag@?$output_processor@_WV?$string_output_adapter@_W@__crt_stdio_output@@V?$format_validation_base@_WV?$string_output_adapter@_W@__crt_stdio_output@@@2@@__crt_stdio_output@@AEBA_NI@Z 0000000140022200 f i libucrt:output.obj
 0001:00021208       ?has_flag@?$output_processor@_WV?$string_output_adapter@_W@__crt_stdio_output@@V?$positional_parameter_base@_WV?$string_output_adapter@_W@__crt_stdio_output@@@2@@__crt_stdio_output@@AEBA_NI@Z 0000000140022208 f i libucrt:output.obj
 0001:00021210       ?has_flag@?$output_processor@_WV?$string_output_adapter@_W@__crt_stdio_output@@V?$standard_base@_WV?$string_output_adapter@_W@__crt_stdio_output@@@2@@__crt_stdio_output@@AEBA_NI@Z 0000000140022210 f i libucrt:output.obj
 0001:00021218       ?is_positional_parameter_reappearance_consistent@?$positional_parameter_base@DV?$stream_output_adapter@D@__crt_stdio_output@@@__crt_stdio_output@@AEAA_NAEBUparameter_data@12@W4parameter_type@12@DW4length_modifier@2@@Z 0000000140022218 f i libucrt:output.obj
 0001:0002144c       ?is_positional_parameter_reappearance_consistent@?$positional_parameter_base@DV?$string_output_adapter@D@__crt_stdio_output@@@__crt_stdio_output@@AEAA_NAEBUparameter_data@12@W4parameter_type@12@DW4length_modifier@2@@Z 000000014002244c f i libucrt:output.obj
 0001:00021680       ?is_positional_parameter_reappearance_consistent@?$positional_parameter_base@_WV?$stream_output_adapter@_W@__crt_stdio_output@@@__crt_stdio_output@@AEAA_NAEBUparameter_data@12@W4parameter_type@12@_WW4length_modifier@2@@Z 0000000140022680 f i libucrt:output.obj
 0001:00021884       ?is_positional_parameter_reappearance_consistent@?$positional_parameter_base@_WV?$string_output_adapter@_W@__crt_stdio_output@@@__crt_stdio_output@@AEAA_NAEBUparameter_data@12@W4parameter_type@12@_WW4length_modifier@2@@Z 0000000140022884 f i libucrt:output.obj
 0001:00021a88       ?maximum_signed_value@__crt_strtox@@YAJK@Z 0000000140022a88 f i libucrt:output.obj
 0001:00021a90       ?minimum_signed_value@__crt_strtox@@YAJK@Z 0000000140022a90 f i libucrt:output.obj
 0001:00021a98       ?narrow_null_string@?$output_processor@DV?$stream_output_adapter@D@__crt_stdio_output@@V?$format_validation_base@DV?$stream_output_adapter@D@__crt_stdio_output@@@2@@__crt_stdio_output@@CAPEADXZ 0000000140022a98 f i libucrt:output.obj
 0001:00021aa0       ?narrow_null_string@?$output_processor@DV?$stream_output_adapter@D@__crt_stdio_output@@V?$positional_parameter_base@DV?$stream_output_adapter@D@__crt_stdio_output@@@2@@__crt_stdio_output@@CAPEADXZ 0000000140022aa0 f i libucrt:output.obj
 0001:00021aa8       ?narrow_null_string@?$output_processor@DV?$stream_output_adapter@D@__crt_stdio_output@@V?$standard_base@DV?$stream_output_adapter@D@__crt_stdio_output@@@2@@__crt_stdio_output@@CAPEADXZ 0000000140022aa8 f i libucrt:output.obj
 0001:00021ab0       ?narrow_null_string@?$output_processor@DV?$string_output_adapter@D@__crt_stdio_output@@V?$format_validation_base@DV?$string_output_adapter@D@__crt_stdio_output@@@2@@__crt_stdio_output@@CAPEADXZ 0000000140022ab0 f i libucrt:output.obj
 0001:00021ab8       ?narrow_null_string@?$output_processor@DV?$string_output_adapter@D@__crt_stdio_output@@V?$positional_parameter_base@DV?$string_output_adapter@D@__crt_stdio_output@@@2@@__crt_stdio_output@@CAPEADXZ 0000000140022ab8 f i libucrt:output.obj
 0001:00021ac0       ?narrow_null_string@?$output_processor@DV?$string_output_adapter@D@__crt_stdio_output@@V?$standard_base@DV?$string_output_adapter@D@__crt_stdio_output@@@2@@__crt_stdio_output@@CAPEADXZ 0000000140022ac0 f i libucrt:output.obj
 0001:00021ac8       ?narrow_null_string@?$output_processor@_WV?$stream_output_adapter@_W@__crt_stdio_output@@V?$format_validation_base@_WV?$stream_output_adapter@_W@__crt_stdio_output@@@2@@__crt_stdio_output@@CAPEADXZ 0000000140022ac8 f i libucrt:output.obj
 0001:00021ad0       ?narrow_null_string@?$output_processor@_WV?$stream_output_adapter@_W@__crt_stdio_output@@V?$positional_parameter_base@_WV?$stream_output_adapter@_W@__crt_stdio_output@@@2@@__crt_stdio_output@@CAPEADXZ 0000000140022ad0 f i libucrt:output.obj
 0001:00021ad8       ?narrow_null_string@?$output_processor@_WV?$stream_output_adapter@_W@__crt_stdio_output@@V?$standard_base@_WV?$stream_output_adapter@_W@__crt_stdio_output@@@2@@__crt_stdio_output@@CAPEADXZ 0000000140022ad8 f i libucrt:output.obj
 0001:00021ae0       ?narrow_null_string@?$output_processor@_WV?$string_output_adapter@_W@__crt_stdio_output@@V?$format_validation_base@_WV?$string_output_adapter@_W@__crt_stdio_output@@@2@@__crt_stdio_output@@CAPEADXZ 0000000140022ae0 f i libucrt:output.obj
 0001:00021ae8       ?narrow_null_string@?$output_processor@_WV?$string_output_adapter@_W@__crt_stdio_output@@V?$positional_parameter_base@_WV?$string_output_adapter@_W@__crt_stdio_output@@@2@@__crt_stdio_output@@CAPEADXZ 0000000140022ae8 f i libucrt:output.obj
 0001:00021af0       ?narrow_null_string@?$output_processor@_WV?$string_output_adapter@_W@__crt_stdio_output@@V?$standard_base@_WV?$string_output_adapter@_W@__crt_stdio_output@@@2@@__crt_stdio_output@@CAPEADXZ 0000000140022af0 f i libucrt:output.obj
 0001:00021af8       ?parse_digit@__crt_strtox@@YAID@Z 0000000140022af8 f i libucrt:output.obj
 0001:00021b28       ?parse_digit@__crt_strtox@@YAI_W@Z 0000000140022b28 f i libucrt:output.obj
 0001:00021ce4       ?parse_int_from_format_string@?$output_processor@DV?$stream_output_adapter@D@__crt_stdio_output@@V?$format_validation_base@DV?$stream_output_adapter@D@__crt_stdio_output@@@2@@__crt_stdio_output@@AEAA_NQEAH@Z 0000000140022ce4 f i libucrt:output.obj
 0001:00021d74       ?parse_int_from_format_string@?$output_processor@DV?$stream_output_adapter@D@__crt_stdio_output@@V?$positional_parameter_base@DV?$stream_output_adapter@D@__crt_stdio_output@@@2@@__crt_stdio_output@@AEAA_NQEAH@Z 0000000140022d74 f i libucrt:output.obj
 0001:00021e04       ?parse_int_from_format_string@?$output_processor@DV?$stream_output_adapter@D@__crt_stdio_output@@V?$standard_base@DV?$stream_output_adapter@D@__crt_stdio_output@@@2@@__crt_stdio_output@@AEAA_NQEAH@Z 0000000140022e04 f i libucrt:output.obj
 0001:00021e94       ?parse_int_from_format_string@?$output_processor@DV?$string_output_adapter@D@__crt_stdio_output@@V?$format_validation_base@DV?$string_output_adapter@D@__crt_stdio_output@@@2@@__crt_stdio_output@@AEAA_NQEAH@Z 0000000140022e94 f i libucrt:output.obj
 0001:00021f24       ?parse_int_from_format_string@?$output_processor@DV?$string_output_adapter@D@__crt_stdio_output@@V?$positional_parameter_base@DV?$string_output_adapter@D@__crt_stdio_output@@@2@@__crt_stdio_output@@AEAA_NQEAH@Z 0000000140022f24 f i libucrt:output.obj
 0001:00021fb4       ?parse_int_from_format_string@?$output_processor@DV?$string_output_adapter@D@__crt_stdio_output@@V?$standard_base@DV?$string_output_adapter@D@__crt_stdio_output@@@2@@__crt_stdio_output@@AEAA_NQEAH@Z 0000000140022fb4 f i libucrt:output.obj
 0001:00022044       ?parse_int_from_format_string@?$output_processor@_WV?$stream_output_adapter@_W@__crt_stdio_output@@V?$format_validation_base@_WV?$stream_output_adapter@_W@__crt_stdio_output@@@2@@__crt_stdio_output@@AEAA_NQEAH@Z 0000000140023044 f i libucrt:output.obj
 0001:000220d4       ?parse_int_from_format_string@?$output_processor@_WV?$stream_output_adapter@_W@__crt_stdio_output@@V?$positional_parameter_base@_WV?$stream_output_adapter@_W@__crt_stdio_output@@@2@@__crt_stdio_output@@AEAA_NQEAH@Z 00000001400230d4 f i libucrt:output.obj
 0001:00022164       ?parse_int_from_format_string@?$output_processor@_WV?$stream_output_adapter@_W@__crt_stdio_output@@V?$standard_base@_WV?$stream_output_adapter@_W@__crt_stdio_output@@@2@@__crt_stdio_output@@AEAA_NQEAH@Z 0000000140023164 f i libucrt:output.obj
 0001:000221f4       ?parse_int_from_format_string@?$output_processor@_WV?$string_output_adapter@_W@__crt_stdio_output@@V?$format_validation_base@_WV?$string_output_adapter@_W@__crt_stdio_output@@@2@@__crt_stdio_output@@AEAA_NQEAH@Z 00000001400231f4 f i libucrt:output.obj
 0001:00022284       ?parse_int_from_format_string@?$output_processor@_WV?$string_output_adapter@_W@__crt_stdio_output@@V?$positional_parameter_base@_WV?$string_output_adapter@_W@__crt_stdio_output@@@2@@__crt_stdio_output@@AEAA_NQEAH@Z 0000000140023284 f i libucrt:output.obj
 0001:00022314       ?parse_int_from_format_string@?$output_processor@_WV?$string_output_adapter@_W@__crt_stdio_output@@V?$standard_base@_WV?$string_output_adapter@_W@__crt_stdio_output@@@2@@__crt_stdio_output@@AEAA_NQEAH@Z 0000000140023314 f i libucrt:output.obj
 0001:000223a4       ?process@?$output_processor@DV?$stream_output_adapter@D@__crt_stdio_output@@V?$format_validation_base@DV?$stream_output_adapter@D@__crt_stdio_output@@@2@@__crt_stdio_output@@QEAAHXZ 00000001400233a4 f i libucrt:output.obj
 0001:00022740       ?process@?$output_processor@DV?$stream_output_adapter@D@__crt_stdio_output@@V?$positional_parameter_base@DV?$stream_output_adapter@D@__crt_stdio_output@@@2@@__crt_stdio_output@@QEAAHXZ 0000000140023740 f i libucrt:output.obj
 0001:00022b74       ?process@?$output_processor@DV?$stream_output_adapter@D@__crt_stdio_output@@V?$standard_base@DV?$stream_output_adapter@D@__crt_stdio_output@@@2@@__crt_stdio_output@@QEAAHXZ 0000000140023b74 f i libucrt:output.obj
 0001:00022f0c       ?process@?$output_processor@DV?$string_output_adapter@D@__crt_stdio_output@@V?$format_validation_base@DV?$string_output_adapter@D@__crt_stdio_output@@@2@@__crt_stdio_output@@QEAAHXZ 0000000140023f0c f i libucrt:output.obj
 0001:00023290       ?process@?$output_processor@DV?$string_output_adapter@D@__crt_stdio_output@@V?$positional_parameter_base@DV?$string_output_adapter@D@__crt_stdio_output@@@2@@__crt_stdio_output@@QEAAHXZ 0000000140024290 f i libucrt:output.obj
 0001:000236a8       ?process@?$output_processor@DV?$string_output_adapter@D@__crt_stdio_output@@V?$standard_base@DV?$string_output_adapter@D@__crt_stdio_output@@@2@@__crt_stdio_output@@QEAAHXZ 00000001400246a8 f i libucrt:output.obj
 0001:00023a28       ?process@?$output_processor@_WV?$stream_output_adapter@_W@__crt_stdio_output@@V?$format_validation_base@_WV?$stream_output_adapter@_W@__crt_stdio_output@@@2@@__crt_stdio_output@@QEAAHXZ 0000000140024a28 f i libucrt:output.obj
 0001:00023d08       ?process@?$output_processor@_WV?$stream_output_adapter@_W@__crt_stdio_output@@V?$positional_parameter_base@_WV?$stream_output_adapter@_W@__crt_stdio_output@@@2@@__crt_stdio_output@@QEAAHXZ 0000000140024d08 f i libucrt:output.obj
 0001:00024078       ?process@?$output_processor@_WV?$stream_output_adapter@_W@__crt_stdio_output@@V?$standard_base@_WV?$stream_output_adapter@_W@__crt_stdio_output@@@2@@__crt_stdio_output@@QEAAHXZ 0000000140025078 f i libucrt:output.obj
 0001:00024348       ?process@?$output_processor@_WV?$string_output_adapter@_W@__crt_stdio_output@@V?$format_validation_base@_WV?$string_output_adapter@_W@__crt_stdio_output@@@2@@__crt_stdio_output@@QEAAHXZ 0000000140025348 f i libucrt:output.obj
 0001:00024620       ?process@?$output_processor@_WV?$string_output_adapter@_W@__crt_stdio_output@@V?$positional_parameter_base@_WV?$string_output_adapter@_W@__crt_stdio_output@@@2@@__crt_stdio_output@@QEAAHXZ 0000000140025620 f i libucrt:output.obj
 0001:0002498c       ?process@?$output_processor@_WV?$string_output_adapter@_W@__crt_stdio_output@@V?$standard_base@_WV?$string_output_adapter@_W@__crt_stdio_output@@@2@@__crt_stdio_output@@QEAAHXZ 000000014002598c f i libucrt:output.obj
 0001:00024c64       ?restore_state@?$c_string_character_source@D@__crt_strtox@@QEAA_NQEBD@Z 0000000140025c64 f i libucrt:output.obj
 0001:00024c6c       ?restore_state@?$c_string_character_source@_W@__crt_strtox@@QEAA_NQEB_W@Z 0000000140025c6c f i libucrt:output.obj
 0001:00024c74       ?save_state@?$c_string_character_source@D@__crt_strtox@@QEBAPEBDXZ 0000000140025c74 f i libucrt:output.obj
 0001:00024c78       ?save_state@?$c_string_character_source@_W@__crt_strtox@@QEBAPEB_WXZ 0000000140025c78 f i libucrt:output.obj
 0001:00024c7c       ?set_flag@?$output_processor@DV?$stream_output_adapter@D@__crt_stdio_output@@V?$format_validation_base@DV?$stream_output_adapter@D@__crt_stdio_output@@@2@@__crt_stdio_output@@AEAAXI@Z 0000000140025c7c f i libucrt:output.obj
 0001:00024c80       ?set_flag@?$output_processor@DV?$stream_output_adapter@D@__crt_stdio_output@@V?$positional_parameter_base@DV?$stream_output_adapter@D@__crt_stdio_output@@@2@@__crt_stdio_output@@AEAAXI@Z 0000000140025c80 f i libucrt:output.obj
 0001:00024c84       ?set_flag@?$output_processor@DV?$stream_output_adapter@D@__crt_stdio_output@@V?$standard_base@DV?$stream_output_adapter@D@__crt_stdio_output@@@2@@__crt_stdio_output@@AEAAXI@Z 0000000140025c84 f i libucrt:output.obj
 0001:00024c88       ?set_flag@?$output_processor@DV?$string_output_adapter@D@__crt_stdio_output@@V?$format_validation_base@DV?$string_output_adapter@D@__crt_stdio_output@@@2@@__crt_stdio_output@@AEAAXI@Z 0000000140025c88 f i libucrt:output.obj
 0001:00024c8c       ?set_flag@?$output_processor@DV?$string_output_adapter@D@__crt_stdio_output@@V?$positional_parameter_base@DV?$string_output_adapter@D@__crt_stdio_output@@@2@@__crt_stdio_output@@AEAAXI@Z 0000000140025c8c f i libucrt:output.obj
 0001:00024c90       ?set_flag@?$output_processor@DV?$string_output_adapter@D@__crt_stdio_output@@V?$standard_base@DV?$string_output_adapter@D@__crt_stdio_output@@@2@@__crt_stdio_output@@AEAAXI@Z 0000000140025c90 f i libucrt:output.obj
 0001:00024c94       ?set_flag@?$output_processor@_WV?$stream_output_adapter@_W@__crt_stdio_output@@V?$format_validation_base@_WV?$stream_output_adapter@_W@__crt_stdio_output@@@2@@__crt_stdio_output@@AEAAXI@Z 0000000140025c94 f i libucrt:output.obj
 0001:00024c98       ?set_flag@?$output_processor@_WV?$stream_output_adapter@_W@__crt_stdio_output@@V?$positional_parameter_base@_WV?$stream_output_adapter@_W@__crt_stdio_output@@@2@@__crt_stdio_output@@AEAAXI@Z 0000000140025c98 f i libucrt:output.obj
 0001:00024c9c       ?set_flag@?$output_processor@_WV?$stream_output_adapter@_W@__crt_stdio_output@@V?$standard_base@_WV?$stream_output_adapter@_W@__crt_stdio_output@@@2@@__crt_stdio_output@@AEAAXI@Z 0000000140025c9c f i libucrt:output.obj
 0001:00024ca0       ?set_flag@?$output_processor@_WV?$string_output_adapter@_W@__crt_stdio_output@@V?$format_validation_base@_WV?$string_output_adapter@_W@__crt_stdio_output@@@2@@__crt_stdio_output@@AEAAXI@Z 0000000140025ca0 f i libucrt:output.obj
 0001:00024ca4       ?set_flag@?$output_processor@_WV?$string_output_adapter@_W@__crt_stdio_output@@V?$positional_parameter_base@_WV?$string_output_adapter@_W@__crt_stdio_output@@@2@@__crt_stdio_output@@AEAAXI@Z 0000000140025ca4 f i libucrt:output.obj
 0001:00024ca8       ?set_flag@?$output_processor@_WV?$string_output_adapter@_W@__crt_stdio_output@@V?$standard_base@_WV?$string_output_adapter@_W@__crt_stdio_output@@@2@@__crt_stdio_output@@AEAAXI@Z 0000000140025ca8 f i libucrt:output.obj
 0001:00024cac       ?should_format@?$positional_parameter_base@DV?$stream_output_adapter@D@__crt_stdio_output@@@__crt_stdio_output@@IEAA_NXZ 0000000140025cac f i libucrt:output.obj
 0001:00024cc4       ?should_format@?$positional_parameter_base@DV?$string_output_adapter@D@__crt_stdio_output@@@__crt_stdio_output@@IEAA_NXZ 0000000140025cc4 f i libucrt:output.obj
 0001:00024cdc       ?should_format@?$positional_parameter_base@_WV?$stream_output_adapter@_W@__crt_stdio_output@@@__crt_stdio_output@@IEAA_NXZ 0000000140025cdc f i libucrt:output.obj
 0001:00024cf4       ?should_format@?$positional_parameter_base@_WV?$string_output_adapter@_W@__crt_stdio_output@@@__crt_stdio_output@@IEAA_NXZ 0000000140025cf4 f i libucrt:output.obj
 0001:00024d0c       ?should_format@?$standard_base@DV?$stream_output_adapter@D@__crt_stdio_output@@@__crt_stdio_output@@IEAA_NXZ 0000000140025d0c f i libucrt:output.obj
 0001:00024d10       ?should_format@?$standard_base@DV?$string_output_adapter@D@__crt_stdio_output@@@__crt_stdio_output@@IEAA_NXZ 0000000140025d10 f i libucrt:output.obj
 0001:00024d14       ?should_format@?$standard_base@_WV?$stream_output_adapter@_W@__crt_stdio_output@@@__crt_stdio_output@@IEAA_NXZ 0000000140025d14 f i libucrt:output.obj
 0001:00024d18       ?should_format@?$standard_base@_WV?$string_output_adapter@_W@__crt_stdio_output@@@__crt_stdio_output@@IEAA_NXZ 0000000140025d18 f i libucrt:output.obj
 0001:00024d1c       ?should_skip_normal_state_processing@?$positional_parameter_base@DV?$stream_output_adapter@D@__crt_stdio_output@@@__crt_stdio_output@@IEAA_NXZ 0000000140025d1c f i libucrt:output.obj
 0001:00024d48       ?should_skip_normal_state_processing@?$positional_parameter_base@DV?$string_output_adapter@D@__crt_stdio_output@@@__crt_stdio_output@@IEAA_NXZ 0000000140025d48 f i libucrt:output.obj
 0001:00024d74       ?should_skip_normal_state_processing@?$positional_parameter_base@_WV?$stream_output_adapter@_W@__crt_stdio_output@@@__crt_stdio_output@@IEAA_NXZ 0000000140025d74 f i libucrt:output.obj
 0001:00024da0       ?should_skip_normal_state_processing@?$positional_parameter_base@_WV?$string_output_adapter@_W@__crt_stdio_output@@@__crt_stdio_output@@IEAA_NXZ 0000000140025da0 f i libucrt:output.obj
 0001:00024dcc       ?should_skip_normal_state_processing@?$standard_base@DV?$stream_output_adapter@D@__crt_stdio_output@@@__crt_stdio_output@@IEAA_NXZ 0000000140025dcc f i libucrt:output.obj
 0001:00024dd0       ?should_skip_normal_state_processing@?$standard_base@DV?$string_output_adapter@D@__crt_stdio_output@@@__crt_stdio_output@@IEAA_NXZ 0000000140025dd0 f i libucrt:output.obj
 0001:00024dd4       ?should_skip_normal_state_processing@?$standard_base@_WV?$stream_output_adapter@_W@__crt_stdio_output@@@__crt_stdio_output@@IEAA_NXZ 0000000140025dd4 f i libucrt:output.obj
 0001:00024dd8       ?should_skip_normal_state_processing@?$standard_base@_WV?$string_output_adapter@_W@__crt_stdio_output@@@__crt_stdio_output@@IEAA_NXZ 0000000140025dd8 f i libucrt:output.obj
 0001:00024ddc       ?should_skip_type_state_output@?$positional_parameter_base@DV?$stream_output_adapter@D@__crt_stdio_output@@@__crt_stdio_output@@IEBA_NXZ 0000000140025ddc f i libucrt:output.obj
 0001:00024df8       ?should_skip_type_state_output@?$positional_parameter_base@DV?$string_output_adapter@D@__crt_stdio_output@@@__crt_stdio_output@@IEBA_NXZ 0000000140025df8 f i libucrt:output.obj
 0001:00024e14       ?should_skip_type_state_output@?$positional_parameter_base@_WV?$stream_output_adapter@_W@__crt_stdio_output@@@__crt_stdio_output@@IEBA_NXZ 0000000140025e14 f i libucrt:output.obj
 0001:00024e30       ?should_skip_type_state_output@?$positional_parameter_base@_WV?$string_output_adapter@_W@__crt_stdio_output@@@__crt_stdio_output@@IEBA_NXZ 0000000140025e30 f i libucrt:output.obj
 0001:00024e4c       ?should_skip_type_state_output@?$standard_base@DV?$stream_output_adapter@D@__crt_stdio_output@@@__crt_stdio_output@@IEBA_NXZ 0000000140025e4c f i libucrt:output.obj
 0001:00024e50       ?should_skip_type_state_output@?$standard_base@DV?$string_output_adapter@D@__crt_stdio_output@@@__crt_stdio_output@@IEBA_NXZ 0000000140025e50 f i libucrt:output.obj
 0001:00024e54       ?should_skip_type_state_output@?$standard_base@_WV?$stream_output_adapter@_W@__crt_stdio_output@@@__crt_stdio_output@@IEBA_NXZ 0000000140025e54 f i libucrt:output.obj
 0001:00024e58       ?should_skip_type_state_output@?$standard_base@_WV?$string_output_adapter@_W@__crt_stdio_output@@@__crt_stdio_output@@IEBA_NXZ 0000000140025e58 f i libucrt:output.obj
 0001:00024e5c       ?state_case_dot@?$output_processor@DV?$stream_output_adapter@D@__crt_stdio_output@@V?$format_validation_base@DV?$stream_output_adapter@D@__crt_stdio_output@@@2@@__crt_stdio_output@@AEAA_NXZ 0000000140025e5c f i libucrt:output.obj
 0001:00024e64       ?state_case_dot@?$output_processor@DV?$stream_output_adapter@D@__crt_stdio_output@@V?$positional_parameter_base@DV?$stream_output_adapter@D@__crt_stdio_output@@@2@@__crt_stdio_output@@AEAA_NXZ 0000000140025e64 f i libucrt:output.obj
 0001:00024e6c       ?state_case_dot@?$output_processor@DV?$stream_output_adapter@D@__crt_stdio_output@@V?$standard_base@DV?$stream_output_adapter@D@__crt_stdio_output@@@2@@__crt_stdio_output@@AEAA_NXZ 0000000140025e6c f i libucrt:output.obj
 0001:00024e74       ?state_case_dot@?$output_processor@DV?$string_output_adapter@D@__crt_stdio_output@@V?$format_validation_base@DV?$string_output_adapter@D@__crt_stdio_output@@@2@@__crt_stdio_output@@AEAA_NXZ 0000000140025e74 f i libucrt:output.obj
 0001:00024e7c       ?state_case_dot@?$output_processor@DV?$string_output_adapter@D@__crt_stdio_output@@V?$positional_parameter_base@DV?$string_output_adapter@D@__crt_stdio_output@@@2@@__crt_stdio_output@@AEAA_NXZ 0000000140025e7c f i libucrt:output.obj
 0001:00024e84       ?state_case_dot@?$output_processor@DV?$string_output_adapter@D@__crt_stdio_output@@V?$standard_base@DV?$string_output_adapter@D@__crt_stdio_output@@@2@@__crt_stdio_output@@AEAA_NXZ 0000000140025e84 f i libucrt:output.obj
 0001:00024e8c       ?state_case_dot@?$output_processor@_WV?$stream_output_adapter@_W@__crt_stdio_output@@V?$format_validation_base@_WV?$stream_output_adapter@_W@__crt_stdio_output@@@2@@__crt_stdio_output@@AEAA_NXZ 0000000140025e8c f i libucrt:output.obj
 0001:00024e94       ?state_case_dot@?$output_processor@_WV?$stream_output_adapter@_W@__crt_stdio_output@@V?$positional_parameter_base@_WV?$stream_output_adapter@_W@__crt_stdio_output@@@2@@__crt_stdio_output@@AEAA_NXZ 0000000140025e94 f i libucrt:output.obj
 0001:00024e9c       ?state_case_dot@?$output_processor@_WV?$stream_output_adapter@_W@__crt_stdio_output@@V?$standard_base@_WV?$stream_output_adapter@_W@__crt_stdio_output@@@2@@__crt_stdio_output@@AEAA_NXZ 0000000140025e9c f i libucrt:output.obj
 0001:00024ea4       ?state_case_dot@?$output_processor@_WV?$string_output_adapter@_W@__crt_stdio_output@@V?$format_validation_base@_WV?$string_output_adapter@_W@__crt_stdio_output@@@2@@__crt_stdio_output@@AEAA_NXZ 0000000140025ea4 f i libucrt:output.obj
 0001:00024eac       ?state_case_dot@?$output_processor@_WV?$string_output_adapter@_W@__crt_stdio_output@@V?$positional_parameter_base@_WV?$string_output_adapter@_W@__crt_stdio_output@@@2@@__crt_stdio_output@@AEAA_NXZ 0000000140025eac f i libucrt:output.obj
 0001:00024eb4       ?state_case_dot@?$output_processor@_WV?$string_output_adapter@_W@__crt_stdio_output@@V?$standard_base@_WV?$string_output_adapter@_W@__crt_stdio_output@@@2@@__crt_stdio_output@@AEAA_NXZ 0000000140025eb4 f i libucrt:output.obj
 0001:00024ebc       ?state_case_flag@?$output_processor@DV?$stream_output_adapter@D@__crt_stdio_output@@V?$format_validation_base@DV?$stream_output_adapter@D@__crt_stdio_output@@@2@@__crt_stdio_output@@AEAA_NXZ 0000000140025ebc f i libucrt:output.obj
 0001:00024ef4       ?state_case_flag@?$output_processor@DV?$stream_output_adapter@D@__crt_stdio_output@@V?$positional_parameter_base@DV?$stream_output_adapter@D@__crt_stdio_output@@@2@@__crt_stdio_output@@AEAA_NXZ 0000000140025ef4 f i libucrt:output.obj
 0001:00024f2c       ?state_case_flag@?$output_processor@DV?$stream_output_adapter@D@__crt_stdio_output@@V?$standard_base@DV?$stream_output_adapter@D@__crt_stdio_output@@@2@@__crt_stdio_output@@AEAA_NXZ 0000000140025f2c f i libucrt:output.obj
 0001:00024f64       ?state_case_flag@?$output_processor@DV?$string_output_adapter@D@__crt_stdio_output@@V?$format_validation_base@DV?$string_output_adapter@D@__crt_stdio_output@@@2@@__crt_stdio_output@@AEAA_NXZ 0000000140025f64 f i libucrt:output.obj
 0001:00024f9c       ?state_case_flag@?$output_processor@DV?$string_output_adapter@D@__crt_stdio_output@@V?$positional_parameter_base@DV?$string_output_adapter@D@__crt_stdio_output@@@2@@__crt_stdio_output@@AEAA_NXZ 0000000140025f9c f i libucrt:output.obj
 0001:00024fd4       ?state_case_flag@?$output_processor@DV?$string_output_adapter@D@__crt_stdio_output@@V?$standard_base@DV?$string_output_adapter@D@__crt_stdio_output@@@2@@__crt_stdio_output@@AEAA_NXZ 0000000140025fd4 f i libucrt:output.obj
 0001:0002500c       ?state_case_flag@?$output_processor@_WV?$stream_output_adapter@_W@__crt_stdio_output@@V?$format_validation_base@_WV?$stream_output_adapter@_W@__crt_stdio_output@@@2@@__crt_stdio_output@@AEAA_NXZ 000000014002600c f i libucrt:output.obj
 0001:00025050       ?state_case_flag@?$output_processor@_WV?$stream_output_adapter@_W@__crt_stdio_output@@V?$positional_parameter_base@_WV?$stream_output_adapter@_W@__crt_stdio_output@@@2@@__crt_stdio_output@@AEAA_NXZ 0000000140026050 f i libucrt:output.obj
 0001:00025094       ?state_case_flag@?$output_processor@_WV?$stream_output_adapter@_W@__crt_stdio_output@@V?$standard_base@_WV?$stream_output_adapter@_W@__crt_stdio_output@@@2@@__crt_stdio_output@@AEAA_NXZ 0000000140026094 f i libucrt:output.obj
 0001:000250d8       ?state_case_flag@?$output_processor@_WV?$string_output_adapter@_W@__crt_stdio_output@@V?$format_validation_base@_WV?$string_output_adapter@_W@__crt_stdio_output@@@2@@__crt_stdio_output@@AEAA_NXZ 00000001400260d8 f i libucrt:output.obj
 0001:0002511c       ?state_case_flag@?$output_processor@_WV?$string_output_adapter@_W@__crt_stdio_output@@V?$positional_parameter_base@_WV?$string_output_adapter@_W@__crt_stdio_output@@@2@@__crt_stdio_output@@AEAA_NXZ 000000014002611c f i libucrt:output.obj
 0001:00025160       ?state_case_flag@?$output_processor@_WV?$string_output_adapter@_W@__crt_stdio_output@@V?$standard_base@_WV?$string_output_adapter@_W@__crt_stdio_output@@@2@@__crt_stdio_output@@AEAA_NXZ 0000000140026160 f i libucrt:output.obj
 0001:000251a4       ?state_case_normal@?$output_processor@DV?$stream_output_adapter@D@__crt_stdio_output@@V?$format_validation_base@DV?$stream_output_adapter@D@__crt_stdio_output@@@2@@__crt_stdio_output@@AEAA_NXZ 00000001400261a4 f i libucrt:output.obj
 0001:000252f8       ?state_case_normal@?$output_processor@DV?$stream_output_adapter@D@__crt_stdio_output@@V?$positional_parameter_base@DV?$stream_output_adapter@D@__crt_stdio_output@@@2@@__crt_stdio_output@@AEAA_NXZ 00000001400262f8 f i libucrt:output.obj
 0001:00025478       ?state_case_normal@?$output_processor@DV?$stream_output_adapter@D@__crt_stdio_output@@V?$standard_base@DV?$stream_output_adapter@D@__crt_stdio_output@@@2@@__crt_stdio_output@@AEAA_NXZ 0000000140026478 f i libucrt:output.obj
 0001:000255cc       ?state_case_normal@?$output_processor@DV?$string_output_adapter@D@__crt_stdio_output@@V?$format_validation_base@DV?$string_output_adapter@D@__crt_stdio_output@@@2@@__crt_stdio_output@@AEAA_NXZ 00000001400265cc f i libucrt:output.obj
 0001:00025718       ?state_case_normal@?$output_processor@DV?$string_output_adapter@D@__crt_stdio_output@@V?$positional_parameter_base@DV?$string_output_adapter@D@__crt_stdio_output@@@2@@__crt_stdio_output@@AEAA_NXZ 0000000140026718 f i libucrt:output.obj
 0001:00025890       ?state_case_normal@?$output_processor@DV?$string_output_adapter@D@__crt_stdio_output@@V?$standard_base@DV?$string_output_adapter@D@__crt_stdio_output@@@2@@__crt_stdio_output@@AEAA_NXZ 0000000140026890 f i libucrt:output.obj
 0001:000259dc       ?state_case_normal@?$output_processor@_WV?$stream_output_adapter@_W@__crt_stdio_output@@V?$format_validation_base@_WV?$stream_output_adapter@_W@__crt_stdio_output@@@2@@__crt_stdio_output@@AEAA_NXZ 00000001400269dc f i libucrt:output.obj
 0001:00025a3c       ?state_case_normal@?$output_processor@_WV?$stream_output_adapter@_W@__crt_stdio_output@@V?$positional_parameter_base@_WV?$stream_output_adapter@_W@__crt_stdio_output@@@2@@__crt_stdio_output@@AEAA_NXZ 0000000140026a3c f i libucrt:output.obj
 0001:00025ac0       ?state_case_normal@?$output_processor@_WV?$stream_output_adapter@_W@__crt_stdio_output@@V?$standard_base@_WV?$stream_output_adapter@_W@__crt_stdio_output@@@2@@__crt_stdio_output@@AEAA_NXZ 0000000140026ac0 f i libucrt:output.obj
 0001:00025b20       ?state_case_normal@?$output_processor@_WV?$string_output_adapter@_W@__crt_stdio_output@@V?$format_validation_base@_WV?$string_output_adapter@_W@__crt_stdio_output@@@2@@__crt_stdio_output@@AEAA_NXZ 0000000140026b20 f i libucrt:output.obj
 0001:00025b74       ?state_case_normal@?$output_processor@_WV?$string_output_adapter@_W@__crt_stdio_output@@V?$positional_parameter_base@_WV?$string_output_adapter@_W@__crt_stdio_output@@@2@@__crt_stdio_output@@AEAA_NXZ 0000000140026b74 f i libucrt:output.obj
 0001:00025bec       ?state_case_normal@?$output_processor@_WV?$string_output_adapter@_W@__crt_stdio_output@@V?$standard_base@_WV?$string_output_adapter@_W@__crt_stdio_output@@@2@@__crt_stdio_output@@AEAA_NXZ 0000000140026bec f i libucrt:output.obj
 0001:00025c40       ?state_case_normal_common@?$output_processor@DV?$stream_output_adapter@D@__crt_stdio_output@@V?$format_validation_base@DV?$stream_output_adapter@D@__crt_stdio_output@@@2@@__crt_stdio_output@@AEAA_NXZ 0000000140026c40 f i libucrt:output.obj
 0001:00025d6c       ?state_case_normal_common@?$output_processor@DV?$stream_output_adapter@D@__crt_stdio_output@@V?$positional_parameter_base@DV?$stream_output_adapter@D@__crt_stdio_output@@@2@@__crt_stdio_output@@AEAA_NXZ 0000000140026d6c f i libucrt:output.obj
 0001:00025e98       ?state_case_normal_common@?$output_processor@DV?$stream_output_adapter@D@__crt_stdio_output@@V?$standard_base@DV?$stream_output_adapter@D@__crt_stdio_output@@@2@@__crt_stdio_output@@AEAA_NXZ 0000000140026e98 f i libucrt:output.obj
 0001:00025fc4       ?state_case_normal_common@?$output_processor@DV?$string_output_adapter@D@__crt_stdio_output@@V?$format_validation_base@DV?$string_output_adapter@D@__crt_stdio_output@@@2@@__crt_stdio_output@@AEAA_NXZ 0000000140026fc4 f i libucrt:output.obj
 0001:000260e8       ?state_case_normal_common@?$output_processor@DV?$string_output_adapter@D@__crt_stdio_output@@V?$positional_parameter_base@DV?$string_output_adapter@D@__crt_stdio_output@@@2@@__crt_stdio_output@@AEAA_NXZ 00000001400270e8 f i libucrt:output.obj
 0001:0002620c       ?state_case_normal_common@?$output_processor@DV?$string_output_adapter@D@__crt_stdio_output@@V?$standard_base@DV?$string_output_adapter@D@__crt_stdio_output@@@2@@__crt_stdio_output@@AEAA_NXZ 000000014002720c f i libucrt:output.obj
 0001:00026330       ?state_case_normal_common@?$output_processor@_WV?$stream_output_adapter@_W@__crt_stdio_output@@V?$format_validation_base@_WV?$stream_output_adapter@_W@__crt_stdio_output@@@2@@__crt_stdio_output@@AEAA_NXZ 0000000140027330 f i libucrt:output.obj
 0001:00026390       ?state_case_normal_common@?$output_processor@_WV?$stream_output_adapter@_W@__crt_stdio_output@@V?$positional_parameter_base@_WV?$stream_output_adapter@_W@__crt_stdio_output@@@2@@__crt_stdio_output@@AEAA_NXZ 0000000140027390 f i libucrt:output.obj
 0001:000263f0       ?state_case_normal_common@?$output_processor@_WV?$stream_output_adapter@_W@__crt_stdio_output@@V?$standard_base@_WV?$stream_output_adapter@_W@__crt_stdio_output@@@2@@__crt_stdio_output@@AEAA_NXZ 00000001400273f0 f i libucrt:output.obj
 0001:00026450       ?state_case_normal_common@?$output_processor@_WV?$string_output_adapter@_W@__crt_stdio_output@@V?$format_validation_base@_WV?$string_output_adapter@_W@__crt_stdio_output@@@2@@__crt_stdio_output@@AEAA_NXZ 0000000140027450 f i libucrt:output.obj
 0001:000264a4       ?state_case_normal_common@?$output_processor@_WV?$string_output_adapter@_W@__crt_stdio_output@@V?$positional_parameter_base@_WV?$string_output_adapter@_W@__crt_stdio_output@@@2@@__crt_stdio_output@@AEAA_NXZ 00000001400274a4 f i libucrt:output.obj
 0001:000264f8       ?state_case_normal_common@?$output_processor@_WV?$string_output_adapter@_W@__crt_stdio_output@@V?$standard_base@_WV?$string_output_adapter@_W@__crt_stdio_output@@@2@@__crt_stdio_output@@AEAA_NXZ 00000001400274f8 f i libucrt:output.obj
 0001:0002654c       ?state_case_normal_tchar@?$output_processor@DV?$stream_output_adapter@D@__crt_stdio_output@@V?$format_validation_base@DV?$stream_output_adapter@D@__crt_stdio_output@@@2@@__crt_stdio_output@@AEAA_ND@Z 000000014002754c f i libucrt:output.obj
 0001:0002662c       ?state_case_normal_tchar@?$output_processor@DV?$stream_output_adapter@D@__crt_stdio_output@@V?$positional_parameter_base@DV?$stream_output_adapter@D@__crt_stdio_output@@@2@@__crt_stdio_output@@AEAA_ND@Z 000000014002762c f i libucrt:output.obj
 0001:0002670c       ?state_case_normal_tchar@?$output_processor@DV?$stream_output_adapter@D@__crt_stdio_output@@V?$standard_base@DV?$stream_output_adapter@D@__crt_stdio_output@@@2@@__crt_stdio_output@@AEAA_ND@Z 000000014002770c f i libucrt:output.obj
 0001:000267ec       ?state_case_normal_tchar@?$output_processor@DV?$string_output_adapter@D@__crt_stdio_output@@V?$format_validation_base@DV?$string_output_adapter@D@__crt_stdio_output@@@2@@__crt_stdio_output@@AEAA_ND@Z 00000001400277ec f i libucrt:output.obj
 0001:000268c8       ?state_case_normal_tchar@?$output_processor@DV?$string_output_adapter@D@__crt_stdio_output@@V?$positional_parameter_base@DV?$string_output_adapter@D@__crt_stdio_output@@@2@@__crt_stdio_output@@AEAA_ND@Z 00000001400278c8 f i libucrt:output.obj
 0001:000269a4       ?state_case_normal_tchar@?$output_processor@DV?$string_output_adapter@D@__crt_stdio_output@@V?$standard_base@DV?$string_output_adapter@D@__crt_stdio_output@@@2@@__crt_stdio_output@@AEAA_ND@Z 00000001400279a4 f i libucrt:output.obj
 0001:00026a80       ?state_case_normal_tchar@?$output_processor@_WV?$stream_output_adapter@_W@__crt_stdio_output@@V?$format_validation_base@_WV?$stream_output_adapter@_W@__crt_stdio_output@@@2@@__crt_stdio_output@@AEAA_N_W@Z 0000000140027a80 f i libucrt:output.obj
 0001:00026a88       ?state_case_normal_tchar@?$output_processor@_WV?$stream_output_adapter@_W@__crt_stdio_output@@V?$positional_parameter_base@_WV?$stream_output_adapter@_W@__crt_stdio_output@@@2@@__crt_stdio_output@@AEAA_N_W@Z 0000000140027a88 f i libucrt:output.obj
 0001:00026a90       ?state_case_normal_tchar@?$output_processor@_WV?$stream_output_adapter@_W@__crt_stdio_output@@V?$standard_base@_WV?$stream_output_adapter@_W@__crt_stdio_output@@@2@@__crt_stdio_output@@AEAA_N_W@Z 0000000140027a90 f i libucrt:output.obj
 0001:00026a98       ?state_case_normal_tchar@?$output_processor@_WV?$string_output_adapter@_W@__crt_stdio_output@@V?$format_validation_base@_WV?$string_output_adapter@_W@__crt_stdio_output@@@2@@__crt_stdio_output@@AEAA_N_W@Z 0000000140027a98 f i libucrt:output.obj
 0001:00026aa0       ?state_case_normal_tchar@?$output_processor@_WV?$string_output_adapter@_W@__crt_stdio_output@@V?$positional_parameter_base@_WV?$string_output_adapter@_W@__crt_stdio_output@@@2@@__crt_stdio_output@@AEAA_N_W@Z 0000000140027aa0 f i libucrt:output.obj
 0001:00026aa8       ?state_case_normal_tchar@?$output_processor@_WV?$string_output_adapter@_W@__crt_stdio_output@@V?$standard_base@_WV?$string_output_adapter@_W@__crt_stdio_output@@@2@@__crt_stdio_output@@AEAA_N_W@Z 0000000140027aa8 f i libucrt:output.obj
 0001:00026ab0       ?state_case_percent@?$output_processor@DV?$stream_output_adapter@D@__crt_stdio_output@@V?$format_validation_base@DV?$stream_output_adapter@D@__crt_stdio_output@@@2@@__crt_stdio_output@@AEAA_NXZ 0000000140027ab0 f i libucrt:output.obj
 0001:00026ac8       ?state_case_percent@?$output_processor@DV?$stream_output_adapter@D@__crt_stdio_output@@V?$positional_parameter_base@DV?$stream_output_adapter@D@__crt_stdio_output@@@2@@__crt_stdio_output@@AEAA_NXZ 0000000140027ac8 f i libucrt:output.obj
 0001:00026ae0       ?state_case_percent@?$output_processor@DV?$stream_output_adapter@D@__crt_stdio_output@@V?$standard_base@DV?$stream_output_adapter@D@__crt_stdio_output@@@2@@__crt_stdio_output@@AEAA_NXZ 0000000140027ae0 f i libucrt:output.obj
 0001:00026af8       ?state_case_percent@?$output_processor@DV?$string_output_adapter@D@__crt_stdio_output@@V?$format_validation_base@DV?$string_output_adapter@D@__crt_stdio_output@@@2@@__crt_stdio_output@@AEAA_NXZ 0000000140027af8 f i libucrt:output.obj
 0001:00026b10       ?state_case_percent@?$output_processor@DV?$string_output_adapter@D@__crt_stdio_output@@V?$positional_parameter_base@DV?$string_output_adapter@D@__crt_stdio_output@@@2@@__crt_stdio_output@@AEAA_NXZ 0000000140027b10 f i libucrt:output.obj
 0001:00026b28       ?state_case_percent@?$output_processor@DV?$string_output_adapter@D@__crt_stdio_output@@V?$standard_base@DV?$string_output_adapter@D@__crt_stdio_output@@@2@@__crt_stdio_output@@AEAA_NXZ 0000000140027b28 f i libucrt:output.obj
 0001:00026b40       ?state_case_percent@?$output_processor@_WV?$stream_output_adapter@_W@__crt_stdio_output@@V?$format_validation_base@_WV?$stream_output_adapter@_W@__crt_stdio_output@@@2@@__crt_stdio_output@@AEAA_NXZ 0000000140027b40 f i libucrt:output.obj
 0001:00026b58       ?state_case_percent@?$output_processor@_WV?$stream_output_adapter@_W@__crt_stdio_output@@V?$positional_parameter_base@_WV?$stream_output_adapter@_W@__crt_stdio_output@@@2@@__crt_stdio_output@@AEAA_NXZ 0000000140027b58 f i libucrt:output.obj
 0001:00026b70       ?state_case_percent@?$output_processor@_WV?$stream_output_adapter@_W@__crt_stdio_output@@V?$standard_base@_WV?$stream_output_adapter@_W@__crt_stdio_output@@@2@@__crt_stdio_output@@AEAA_NXZ 0000000140027b70 f i libucrt:output.obj
 0001:00026b88       ?state_case_percent@?$output_processor@_WV?$string_output_adapter@_W@__crt_stdio_output@@V?$format_validation_base@_WV?$string_output_adapter@_W@__crt_stdio_output@@@2@@__crt_stdio_output@@AEAA_NXZ 0000000140027b88 f i libucrt:output.obj
 0001:00026ba0       ?state_case_percent@?$output_processor@_WV?$string_output_adapter@_W@__crt_stdio_output@@V?$positional_parameter_base@_WV?$string_output_adapter@_W@__crt_stdio_output@@@2@@__crt_stdio_output@@AEAA_NXZ 0000000140027ba0 f i libucrt:output.obj
 0001:00026bb8       ?state_case_percent@?$output_processor@_WV?$string_output_adapter@_W@__crt_stdio_output@@V?$standard_base@_WV?$string_output_adapter@_W@__crt_stdio_output@@@2@@__crt_stdio_output@@AEAA_NXZ 0000000140027bb8 f i libucrt:output.obj
 0001:00026bd0       ?state_case_precision@?$output_processor@DV?$stream_output_adapter@D@__crt_stdio_output@@V?$format_validation_base@DV?$stream_output_adapter@D@__crt_stdio_output@@@2@@__crt_stdio_output@@AEAA_NXZ 0000000140027bd0 f i libucrt:output.obj
 0001:00026c00       ?state_case_precision@?$output_processor@DV?$stream_output_adapter@D@__crt_stdio_output@@V?$positional_parameter_base@DV?$stream_output_adapter@D@__crt_stdio_output@@@2@@__crt_stdio_output@@AEAA_NXZ 0000000140027c00 f i libucrt:output.obj
 0001:00026c4c       ?state_case_precision@?$output_processor@DV?$stream_output_adapter@D@__crt_stdio_output@@V?$standard_base@DV?$stream_output_adapter@D@__crt_stdio_output@@@2@@__crt_stdio_output@@AEAA_NXZ 0000000140027c4c f i libucrt:output.obj
 0001:00026c7c       ?state_case_precision@?$output_processor@DV?$string_output_adapter@D@__crt_stdio_output@@V?$format_validation_base@DV?$string_output_adapter@D@__crt_stdio_output@@@2@@__crt_stdio_output@@AEAA_NXZ 0000000140027c7c f i libucrt:output.obj
 0001:00026cac       ?state_case_precision@?$output_processor@DV?$string_output_adapter@D@__crt_stdio_output@@V?$positional_parameter_base@DV?$string_output_adapter@D@__crt_stdio_output@@@2@@__crt_stdio_output@@AEAA_NXZ 0000000140027cac f i libucrt:output.obj
 0001:00026cf8       ?state_case_precision@?$output_processor@DV?$string_output_adapter@D@__crt_stdio_output@@V?$standard_base@DV?$string_output_adapter@D@__crt_stdio_output@@@2@@__crt_stdio_output@@AEAA_NXZ 0000000140027cf8 f i libucrt:output.obj
 0001:00026d28       ?state_case_precision@?$output_processor@_WV?$stream_output_adapter@_W@__crt_stdio_output@@V?$format_validation_base@_WV?$stream_output_adapter@_W@__crt_stdio_output@@@2@@__crt_stdio_output@@AEAA_NXZ 0000000140027d28 f i libucrt:output.obj
 0001:00026d5c       ?state_case_precision@?$output_processor@_WV?$stream_output_adapter@_W@__crt_stdio_output@@V?$positional_parameter_base@_WV?$stream_output_adapter@_W@__crt_stdio_output@@@2@@__crt_stdio_output@@AEAA_NXZ 0000000140027d5c f i libucrt:output.obj
 0001:00026da8       ?state_case_precision@?$output_processor@_WV?$stream_output_adapter@_W@__crt_stdio_output@@V?$standard_base@_WV?$stream_output_adapter@_W@__crt_stdio_output@@@2@@__crt_stdio_output@@AEAA_NXZ 0000000140027da8 f i libucrt:output.obj
 0001:00026ddc       ?state_case_precision@?$output_processor@_WV?$string_output_adapter@_W@__crt_stdio_output@@V?$format_validation_base@_WV?$string_output_adapter@_W@__crt_stdio_output@@@2@@__crt_stdio_output@@AEAA_NXZ 0000000140027ddc f i libucrt:output.obj
 0001:00026e10       ?state_case_precision@?$output_processor@_WV?$string_output_adapter@_W@__crt_stdio_output@@V?$positional_parameter_base@_WV?$string_output_adapter@_W@__crt_stdio_output@@@2@@__crt_stdio_output@@AEAA_NXZ 0000000140027e10 f i libucrt:output.obj
 0001:00026e5c       ?state_case_precision@?$output_processor@_WV?$string_output_adapter@_W@__crt_stdio_output@@V?$standard_base@_WV?$string_output_adapter@_W@__crt_stdio_output@@@2@@__crt_stdio_output@@AEAA_NXZ 0000000140027e5c f i libucrt:output.obj
 0001:00026e90       ?state_case_size@?$output_processor@DV?$stream_output_adapter@D@__crt_stdio_output@@V?$format_validation_base@DV?$stream_output_adapter@D@__crt_stdio_output@@@2@@__crt_stdio_output@@AEAA_NXZ 0000000140027e90 f i libucrt:output.obj
 0001:00027018       ?state_case_size@?$output_processor@DV?$stream_output_adapter@D@__crt_stdio_output@@V?$positional_parameter_base@DV?$stream_output_adapter@D@__crt_stdio_output@@@2@@__crt_stdio_output@@AEAA_NXZ 0000000140028018 f i libucrt:output.obj
 0001:000271a0       ?state_case_size@?$output_processor@DV?$stream_output_adapter@D@__crt_stdio_output@@V?$standard_base@DV?$stream_output_adapter@D@__crt_stdio_output@@@2@@__crt_stdio_output@@AEAA_NXZ 00000001400281a0 f i libucrt:output.obj
 0001:00027328       ?state_case_size@?$output_processor@DV?$string_output_adapter@D@__crt_stdio_output@@V?$format_validation_base@DV?$string_output_adapter@D@__crt_stdio_output@@@2@@__crt_stdio_output@@AEAA_NXZ 0000000140028328 f i libucrt:output.obj
 0001:000274b0       ?state_case_size@?$output_processor@DV?$string_output_adapter@D@__crt_stdio_output@@V?$positional_parameter_base@DV?$string_output_adapter@D@__crt_stdio_output@@@2@@__crt_stdio_output@@AEAA_NXZ 00000001400284b0 f i libucrt:output.obj
 0001:00027638       ?state_case_size@?$output_processor@DV?$string_output_adapter@D@__crt_stdio_output@@V?$standard_base@DV?$string_output_adapter@D@__crt_stdio_output@@@2@@__crt_stdio_output@@AEAA_NXZ 0000000140028638 f i libucrt:output.obj
 0001:000277c0       ?state_case_size@?$output_processor@_WV?$stream_output_adapter@_W@__crt_stdio_output@@V?$format_validation_base@_WV?$stream_output_adapter@_W@__crt_stdio_output@@@2@@__crt_stdio_output@@AEAA_NXZ 00000001400287c0 f i libucrt:output.obj
 0001:00027970       ?state_case_size@?$output_processor@_WV?$stream_output_adapter@_W@__crt_stdio_output@@V?$positional_parameter_base@_WV?$stream_output_adapter@_W@__crt_stdio_output@@@2@@__crt_stdio_output@@AEAA_NXZ 0000000140028970 f i libucrt:output.obj
 0001:00027b20       ?state_case_size@?$output_processor@_WV?$stream_output_adapter@_W@__crt_stdio_output@@V?$standard_base@_WV?$stream_output_adapter@_W@__crt_stdio_output@@@2@@__crt_stdio_output@@AEAA_NXZ 0000000140028b20 f i libucrt:output.obj
 0001:00027cd0       ?state_case_size@?$output_processor@_WV?$string_output_adapter@_W@__crt_stdio_output@@V?$format_validation_base@_WV?$string_output_adapter@_W@__crt_stdio_output@@@2@@__crt_stdio_output@@AEAA_NXZ 0000000140028cd0 f i libucrt:output.obj
 0001:00027e80       ?state_case_size@?$output_processor@_WV?$string_output_adapter@_W@__crt_stdio_output@@V?$positional_parameter_base@_WV?$string_output_adapter@_W@__crt_stdio_output@@@2@@__crt_stdio_output@@AEAA_NXZ 0000000140028e80 f i libucrt:output.obj
 0001:00028030       ?state_case_size@?$output_processor@_WV?$string_output_adapter@_W@__crt_stdio_output@@V?$standard_base@_WV?$string_output_adapter@_W@__crt_stdio_output@@@2@@__crt_stdio_output@@AEAA_NXZ 0000000140029030 f i libucrt:output.obj
 0001:000281e0       ?state_case_type@?$output_processor@DV?$stream_output_adapter@D@__crt_stdio_output@@V?$format_validation_base@DV?$stream_output_adapter@D@__crt_stdio_output@@@2@@__crt_stdio_output@@AEAA_NXZ 00000001400291e0 f i libucrt:output.obj
 0001:00028618       ?state_case_type@?$output_processor@DV?$stream_output_adapter@D@__crt_stdio_output@@V?$positional_parameter_base@DV?$stream_output_adapter@D@__crt_stdio_output@@@2@@__crt_stdio_output@@AEAA_NXZ 0000000140029618 f i libucrt:output.obj
 0001:00028a80       ?state_case_type@?$output_processor@DV?$stream_output_adapter@D@__crt_stdio_output@@V?$standard_base@DV?$stream_output_adapter@D@__crt_stdio_output@@@2@@__crt_stdio_output@@AEAA_NXZ 0000000140029a80 f i libucrt:output.obj
 0001:00028eb8       ?state_case_type@?$output_processor@DV?$string_output_adapter@D@__crt_stdio_output@@V?$format_validation_base@DV?$string_output_adapter@D@__crt_stdio_output@@@2@@__crt_stdio_output@@AEAA_NXZ 0000000140029eb8 f i libucrt:output.obj
 0001:000292bc       ?state_case_type@?$output_processor@DV?$string_output_adapter@D@__crt_stdio_output@@V?$positional_parameter_base@DV?$string_output_adapter@D@__crt_stdio_output@@@2@@__crt_stdio_output@@AEAA_NXZ 000000014002a2bc f i libucrt:output.obj
 0001:000296d4       ?state_case_type@?$output_processor@DV?$string_output_adapter@D@__crt_stdio_output@@V?$standard_base@DV?$string_output_adapter@D@__crt_stdio_output@@@2@@__crt_stdio_output@@AEAA_NXZ 000000014002a6d4 f i libucrt:output.obj
 0001:00029ad8       ?state_case_type@?$output_processor@_WV?$stream_output_adapter@_W@__crt_stdio_output@@V?$format_validation_base@_WV?$stream_output_adapter@_W@__crt_stdio_output@@@2@@__crt_stdio_output@@AEAA_NXZ 000000014002aad8 f i libucrt:output.obj
 0001:00029f9c       ?state_case_type@?$output_processor@_WV?$stream_output_adapter@_W@__crt_stdio_output@@V?$positional_parameter_base@_WV?$stream_output_adapter@_W@__crt_stdio_output@@@2@@__crt_stdio_output@@AEAA_NXZ 000000014002af9c f i libucrt:output.obj
 0001:0002a478       ?state_case_type@?$output_processor@_WV?$stream_output_adapter@_W@__crt_stdio_output@@V?$standard_base@_WV?$stream_output_adapter@_W@__crt_stdio_output@@@2@@__crt_stdio_output@@AEAA_NXZ 000000014002b478 f i libucrt:output.obj
 0001:0002a93c       ?state_case_type@?$output_processor@_WV?$string_output_adapter@_W@__crt_stdio_output@@V?$format_validation_base@_WV?$string_output_adapter@_W@__crt_stdio_output@@@2@@__crt_stdio_output@@AEAA_NXZ 000000014002b93c f i libucrt:output.obj
 0001:0002ada0       ?state_case_type@?$output_processor@_WV?$string_output_adapter@_W@__crt_stdio_output@@V?$positional_parameter_base@_WV?$string_output_adapter@_W@__crt_stdio_output@@@2@@__crt_stdio_output@@AEAA_NXZ 000000014002bda0 f i libucrt:output.obj
 0001:0002b230       ?state_case_type@?$output_processor@_WV?$string_output_adapter@_W@__crt_stdio_output@@V?$standard_base@_WV?$string_output_adapter@_W@__crt_stdio_output@@@2@@__crt_stdio_output@@AEAA_NXZ 000000014002c230 f i libucrt:output.obj
 0001:0002b694       ?state_case_width@?$output_processor@DV?$stream_output_adapter@D@__crt_stdio_output@@V?$format_validation_base@DV?$stream_output_adapter@D@__crt_stdio_output@@@2@@__crt_stdio_output@@AEAA_NXZ 000000014002c694 f i libucrt:output.obj
 0001:0002b6c8       ?state_case_width@?$output_processor@DV?$stream_output_adapter@D@__crt_stdio_output@@V?$positional_parameter_base@DV?$stream_output_adapter@D@__crt_stdio_output@@@2@@__crt_stdio_output@@AEAA_NXZ 000000014002c6c8 f i libucrt:output.obj
 0001:0002b718       ?state_case_width@?$output_processor@DV?$stream_output_adapter@D@__crt_stdio_output@@V?$standard_base@DV?$stream_output_adapter@D@__crt_stdio_output@@@2@@__crt_stdio_output@@AEAA_NXZ 000000014002c718 f i libucrt:output.obj
 0001:0002b74c       ?state_case_width@?$output_processor@DV?$string_output_adapter@D@__crt_stdio_output@@V?$format_validation_base@DV?$string_output_adapter@D@__crt_stdio_output@@@2@@__crt_stdio_output@@AEAA_NXZ 000000014002c74c f i libucrt:output.obj
 0001:0002b780       ?state_case_width@?$output_processor@DV?$string_output_adapter@D@__crt_stdio_output@@V?$positional_parameter_base@DV?$string_output_adapter@D@__crt_stdio_output@@@2@@__crt_stdio_output@@AEAA_NXZ 000000014002c780 f i libucrt:output.obj
 0001:0002b7d0       ?state_case_width@?$output_processor@DV?$string_output_adapter@D@__crt_stdio_output@@V?$standard_base@DV?$string_output_adapter@D@__crt_stdio_output@@@2@@__crt_stdio_output@@AEAA_NXZ 000000014002c7d0 f i libucrt:output.obj
 0001:0002b804       ?state_case_width@?$output_processor@_WV?$stream_output_adapter@_W@__crt_stdio_output@@V?$format_validation_base@_WV?$stream_output_adapter@_W@__crt_stdio_output@@@2@@__crt_stdio_output@@AEAA_NXZ 000000014002c804 f i libucrt:output.obj
 0001:0002b838       ?state_case_width@?$output_processor@_WV?$stream_output_adapter@_W@__crt_stdio_output@@V?$positional_parameter_base@_WV?$stream_output_adapter@_W@__crt_stdio_output@@@2@@__crt_stdio_output@@AEAA_NXZ 000000014002c838 f i libucrt:output.obj
 0001:0002b88c       ?state_case_width@?$output_processor@_WV?$stream_output_adapter@_W@__crt_stdio_output@@V?$standard_base@_WV?$stream_output_adapter@_W@__crt_stdio_output@@@2@@__crt_stdio_output@@AEAA_NXZ 000000014002c88c f i libucrt:output.obj
 0001:0002b8c0       ?state_case_width@?$output_processor@_WV?$string_output_adapter@_W@__crt_stdio_output@@V?$format_validation_base@_WV?$string_output_adapter@_W@__crt_stdio_output@@@2@@__crt_stdio_output@@AEAA_NXZ 000000014002c8c0 f i libucrt:output.obj
 0001:0002b8f4       ?state_case_width@?$output_processor@_WV?$string_output_adapter@_W@__crt_stdio_output@@V?$positional_parameter_base@_WV?$string_output_adapter@_W@__crt_stdio_output@@@2@@__crt_stdio_output@@AEAA_NXZ 000000014002c8f4 f i libucrt:output.obj
 0001:0002b948       ?state_case_width@?$output_processor@_WV?$string_output_adapter@_W@__crt_stdio_output@@V?$standard_base@_WV?$string_output_adapter@_W@__crt_stdio_output@@@2@@__crt_stdio_output@@AEAA_NXZ 000000014002c948 f i libucrt:output.obj
 0001:0002b97c       ?state_count@?$format_validation_base@DV?$stream_output_adapter@D@__crt_stdio_output@@@__crt_stdio_output@@KAIXZ 000000014002c97c f i libucrt:output.obj
 0001:0002b984       ?state_count@?$format_validation_base@DV?$string_output_adapter@D@__crt_stdio_output@@@__crt_stdio_output@@KAIXZ 000000014002c984 f i libucrt:output.obj
 0001:0002b98c       ?state_count@?$format_validation_base@_WV?$stream_output_adapter@_W@__crt_stdio_output@@@__crt_stdio_output@@KAIXZ 000000014002c98c f i libucrt:output.obj
 0001:0002b994       ?state_count@?$format_validation_base@_WV?$string_output_adapter@_W@__crt_stdio_output@@@__crt_stdio_output@@KAIXZ 000000014002c994 f i libucrt:output.obj
 0001:0002b99c       ?state_count@?$standard_base@DV?$stream_output_adapter@D@__crt_stdio_output@@@__crt_stdio_output@@KAIXZ 000000014002c99c f i libucrt:output.obj
 0001:0002b9a4       ?state_count@?$standard_base@DV?$string_output_adapter@D@__crt_stdio_output@@@__crt_stdio_output@@KAIXZ 000000014002c9a4 f i libucrt:output.obj
 0001:0002b9ac       ?state_count@?$standard_base@_WV?$stream_output_adapter@_W@__crt_stdio_output@@@__crt_stdio_output@@KAIXZ 000000014002c9ac f i libucrt:output.obj
 0001:0002b9b4       ?state_count@?$standard_base@_WV?$string_output_adapter@_W@__crt_stdio_output@@@__crt_stdio_output@@KAIXZ 000000014002c9b4 f i libucrt:output.obj
 0001:0002b9bc       ?state_transition_table@?$format_validation_base@DV?$stream_output_adapter@D@__crt_stdio_output@@@__crt_stdio_output@@KAAEBV?$spectre_mitigated_lookup_table@Ustate_transition_pair@__crt_stdio_output@@$0IA@@2@XZ 000000014002c9bc f i libucrt:output.obj
 0001:0002b9c4       ?state_transition_table@?$format_validation_base@DV?$string_output_adapter@D@__crt_stdio_output@@@__crt_stdio_output@@KAAEBV?$spectre_mitigated_lookup_table@Ustate_transition_pair@__crt_stdio_output@@$0IA@@2@XZ 000000014002c9c4 f i libucrt:output.obj
 0001:0002b9cc       ?state_transition_table@?$format_validation_base@_WV?$stream_output_adapter@_W@__crt_stdio_output@@@__crt_stdio_output@@KAAEBV?$spectre_mitigated_lookup_table@Ustate_transition_pair@__crt_stdio_output@@$0IA@@2@XZ 000000014002c9cc f i libucrt:output.obj
 0001:0002b9d4       ?state_transition_table@?$format_validation_base@_WV?$string_output_adapter@_W@__crt_stdio_output@@@__crt_stdio_output@@KAAEBV?$spectre_mitigated_lookup_table@Ustate_transition_pair@__crt_stdio_output@@$0IA@@2@XZ 000000014002c9d4 f i libucrt:output.obj
 0001:0002b9dc       ?state_transition_table@?$standard_base@DV?$stream_output_adapter@D@__crt_stdio_output@@@__crt_stdio_output@@KAAEBV?$spectre_mitigated_lookup_table@Ustate_transition_pair@__crt_stdio_output@@$0IA@@2@XZ 000000014002c9dc f i libucrt:output.obj
 0001:0002b9e4       ?state_transition_table@?$standard_base@DV?$string_output_adapter@D@__crt_stdio_output@@@__crt_stdio_output@@KAAEBV?$spectre_mitigated_lookup_table@Ustate_transition_pair@__crt_stdio_output@@$0IA@@2@XZ 000000014002c9e4 f i libucrt:output.obj
 0001:0002b9ec       ?state_transition_table@?$standard_base@_WV?$stream_output_adapter@_W@__crt_stdio_output@@@__crt_stdio_output@@KAAEBV?$spectre_mitigated_lookup_table@Ustate_transition_pair@__crt_stdio_output@@$0IA@@2@XZ 000000014002c9ec f i libucrt:output.obj
 0001:0002b9f4       ?state_transition_table@?$standard_base@_WV?$string_output_adapter@_W@__crt_stdio_output@@@__crt_stdio_output@@KAAEBV?$spectre_mitigated_lookup_table@Ustate_transition_pair@__crt_stdio_output@@$0IA@@2@XZ 000000014002c9f4 f i libucrt:output.obj
 0001:0002b9fc       ?tchar_string@?$common_data@D@__crt_stdio_output@@IEAAAEAPEADD@Z 000000014002c9fc f i libucrt:output.obj
 0001:0002ba04       ?tchar_string@?$common_data@D@__crt_stdio_output@@IEAAAEAPEADXZ 000000014002ca04 f i libucrt:output.obj
 0001:0002ba0c       ?tchar_string@?$common_data@_W@__crt_stdio_output@@IEAAAEAPEA_WXZ 000000014002ca0c f i libucrt:output.obj
 0001:0002ba14       ?tchar_string@?$common_data@_W@__crt_stdio_output@@IEAAAEAPEA_W_W@Z 000000014002ca14 f i libucrt:output.obj
 0001:0002ba1c       ?to_integer_size@__crt_stdio_output@@YA_KW4length_modifier@1@@Z 000000014002ca1c f i libucrt:output.obj
 0001:0002ba64       ?type_case_X@?$output_processor@DV?$stream_output_adapter@D@__crt_stdio_output@@V?$format_validation_base@DV?$stream_output_adapter@D@__crt_stdio_output@@@2@@__crt_stdio_output@@AEAA_NXZ 000000014002ca64 f i libucrt:output.obj
 0001:0002ba6c       ?type_case_X@?$output_processor@DV?$stream_output_adapter@D@__crt_stdio_output@@V?$positional_parameter_base@DV?$stream_output_adapter@D@__crt_stdio_output@@@2@@__crt_stdio_output@@AEAA_NXZ 000000014002ca6c f i libucrt:output.obj
 0001:0002ba74       ?type_case_X@?$output_processor@DV?$stream_output_adapter@D@__crt_stdio_output@@V?$standard_base@DV?$stream_output_adapter@D@__crt_stdio_output@@@2@@__crt_stdio_output@@AEAA_NXZ 000000014002ca74 f i libucrt:output.obj
 0001:0002ba7c       ?type_case_X@?$output_processor@DV?$string_output_adapter@D@__crt_stdio_output@@V?$format_validation_base@DV?$string_output_adapter@D@__crt_stdio_output@@@2@@__crt_stdio_output@@AEAA_NXZ 000000014002ca7c f i libucrt:output.obj
 0001:0002ba84       ?type_case_X@?$output_processor@DV?$string_output_adapter@D@__crt_stdio_output@@V?$positional_parameter_base@DV?$string_output_adapter@D@__crt_stdio_output@@@2@@__crt_stdio_output@@AEAA_NXZ 000000014002ca84 f i libucrt:output.obj
 0001:0002ba8c       ?type_case_X@?$output_processor@DV?$string_output_adapter@D@__crt_stdio_output@@V?$standard_base@DV?$string_output_adapter@D@__crt_stdio_output@@@2@@__crt_stdio_output@@AEAA_NXZ 000000014002ca8c f i libucrt:output.obj
 0001:0002ba94       ?type_case_X@?$output_processor@_WV?$stream_output_adapter@_W@__crt_stdio_output@@V?$format_validation_base@_WV?$stream_output_adapter@_W@__crt_stdio_output@@@2@@__crt_stdio_output@@AEAA_NXZ 000000014002ca94 f i libucrt:output.obj
 0001:0002ba9c       ?type_case_X@?$output_processor@_WV?$stream_output_adapter@_W@__crt_stdio_output@@V?$positional_parameter_base@_WV?$stream_output_adapter@_W@__crt_stdio_output@@@2@@__crt_stdio_output@@AEAA_NXZ 000000014002ca9c f i libucrt:output.obj
 0001:0002baa4       ?type_case_X@?$output_processor@_WV?$stream_output_adapter@_W@__crt_stdio_output@@V?$standard_base@_WV?$stream_output_adapter@_W@__crt_stdio_output@@@2@@__crt_stdio_output@@AEAA_NXZ 000000014002caa4 f i libucrt:output.obj
 0001:0002baac       ?type_case_X@?$output_processor@_WV?$string_output_adapter@_W@__crt_stdio_output@@V?$format_validation_base@_WV?$string_output_adapter@_W@__crt_stdio_output@@@2@@__crt_stdio_output@@AEAA_NXZ 000000014002caac f i libucrt:output.obj
 0001:0002bab4       ?type_case_X@?$output_processor@_WV?$string_output_adapter@_W@__crt_stdio_output@@V?$positional_parameter_base@_WV?$string_output_adapter@_W@__crt_stdio_output@@@2@@__crt_stdio_output@@AEAA_NXZ 000000014002cab4 f i libucrt:output.obj
 0001:0002babc       ?type_case_X@?$output_processor@_WV?$string_output_adapter@_W@__crt_stdio_output@@V?$standard_base@_WV?$string_output_adapter@_W@__crt_stdio_output@@@2@@__crt_stdio_output@@AEAA_NXZ 000000014002cabc f i libucrt:output.obj
 0001:0002bac4       ?type_case_Z@?$output_processor@DV?$stream_output_adapter@D@__crt_stdio_output@@V?$format_validation_base@DV?$stream_output_adapter@D@__crt_stdio_output@@@2@@__crt_stdio_output@@AEAA_NXZ 000000014002cac4 f i libucrt:output.obj
 0001:0002bb40       ?type_case_Z@?$output_processor@DV?$stream_output_adapter@D@__crt_stdio_output@@V?$positional_parameter_base@DV?$stream_output_adapter@D@__crt_stdio_output@@@2@@__crt_stdio_output@@AEAA_NXZ 000000014002cb40 f i libucrt:output.obj
 0001:0002bbe8       ?type_case_Z@?$output_processor@DV?$stream_output_adapter@D@__crt_stdio_output@@V?$standard_base@DV?$stream_output_adapter@D@__crt_stdio_output@@@2@@__crt_stdio_output@@AEAA_NXZ 000000014002cbe8 f i libucrt:output.obj
 0001:0002bc64       ?type_case_Z@?$output_processor@DV?$string_output_adapter@D@__crt_stdio_output@@V?$format_validation_base@DV?$string_output_adapter@D@__crt_stdio_output@@@2@@__crt_stdio_output@@AEAA_NXZ 000000014002cc64 f i libucrt:output.obj
 0001:0002bce0       ?type_case_Z@?$output_processor@DV?$string_output_adapter@D@__crt_stdio_output@@V?$positional_parameter_base@DV?$string_output_adapter@D@__crt_stdio_output@@@2@@__crt_stdio_output@@AEAA_NXZ 000000014002cce0 f i libucrt:output.obj
 0001:0002bd88       ?type_case_Z@?$output_processor@DV?$string_output_adapter@D@__crt_stdio_output@@V?$standard_base@DV?$string_output_adapter@D@__crt_stdio_output@@@2@@__crt_stdio_output@@AEAA_NXZ 000000014002cd88 f i libucrt:output.obj
 0001:0002be04       ?type_case_Z@?$output_processor@_WV?$stream_output_adapter@_W@__crt_stdio_output@@V?$format_validation_base@_WV?$stream_output_adapter@_W@__crt_stdio_output@@@2@@__crt_stdio_output@@AEAA_NXZ 000000014002ce04 f i libucrt:output.obj
 0001:0002be84       ?type_case_Z@?$output_processor@_WV?$stream_output_adapter@_W@__crt_stdio_output@@V?$positional_parameter_base@_WV?$stream_output_adapter@_W@__crt_stdio_output@@@2@@__crt_stdio_output@@AEAA_NXZ 000000014002ce84 f i libucrt:output.obj
 0001:0002bf1c       ?type_case_Z@?$output_processor@_WV?$stream_output_adapter@_W@__crt_stdio_output@@V?$standard_base@_WV?$stream_output_adapter@_W@__crt_stdio_output@@@2@@__crt_stdio_output@@AEAA_NXZ 000000014002cf1c f i libucrt:output.obj
 0001:0002bf9c       ?type_case_Z@?$output_processor@_WV?$string_output_adapter@_W@__crt_stdio_output@@V?$format_validation_base@_WV?$string_output_adapter@_W@__crt_stdio_output@@@2@@__crt_stdio_output@@AEAA_NXZ 000000014002cf9c f i libucrt:output.obj
 0001:0002c01c       ?type_case_Z@?$output_processor@_WV?$string_output_adapter@_W@__crt_stdio_output@@V?$positional_parameter_base@_WV?$string_output_adapter@_W@__crt_stdio_output@@@2@@__crt_stdio_output@@AEAA_NXZ 000000014002d01c f i libucrt:output.obj
 0001:0002c0b4       ?type_case_Z@?$output_processor@_WV?$string_output_adapter@_W@__crt_stdio_output@@V?$standard_base@_WV?$string_output_adapter@_W@__crt_stdio_output@@@2@@__crt_stdio_output@@AEAA_NXZ 000000014002d0b4 f i libucrt:output.obj
 0001:0002c134       ?type_case_a@?$output_processor@DV?$stream_output_adapter@D@__crt_stdio_output@@V?$format_validation_base@DV?$stream_output_adapter@D@__crt_stdio_output@@@2@@__crt_stdio_output@@AEAA_NXZ 000000014002d134 f i libucrt:output.obj
 0001:0002c388       ?type_case_a@?$output_processor@DV?$stream_output_adapter@D@__crt_stdio_output@@V?$positional_parameter_base@DV?$stream_output_adapter@D@__crt_stdio_output@@@2@@__crt_stdio_output@@AEAA_NXZ 000000014002d388 f i libucrt:output.obj
 0001:0002c604       ?type_case_a@?$output_processor@DV?$stream_output_adapter@D@__crt_stdio_output@@V?$standard_base@DV?$stream_output_adapter@D@__crt_stdio_output@@@2@@__crt_stdio_output@@AEAA_NXZ 000000014002d604 f i libucrt:output.obj
 0001:0002c858       ?type_case_a@?$output_processor@DV?$string_output_adapter@D@__crt_stdio_output@@V?$format_validation_base@DV?$string_output_adapter@D@__crt_stdio_output@@@2@@__crt_stdio_output@@AEAA_NXZ 000000014002d858 f i libucrt:output.obj
 0001:0002caac       ?type_case_a@?$output_processor@DV?$string_output_adapter@D@__crt_stdio_output@@V?$positional_parameter_base@DV?$string_output_adapter@D@__crt_stdio_output@@@2@@__crt_stdio_output@@AEAA_NXZ 000000014002daac f i libucrt:output.obj
 0001:0002cd28       ?type_case_a@?$output_processor@DV?$string_output_adapter@D@__crt_stdio_output@@V?$standard_base@DV?$string_output_adapter@D@__crt_stdio_output@@@2@@__crt_stdio_output@@AEAA_NXZ 000000014002dd28 f i libucrt:output.obj
 0001:0002cf7c       ?type_case_a@?$output_processor@_WV?$stream_output_adapter@_W@__crt_stdio_output@@V?$format_validation_base@_WV?$stream_output_adapter@_W@__crt_stdio_output@@@2@@__crt_stdio_output@@AEAA_NXZ 000000014002df7c f i libucrt:output.obj
 0001:0002d1e4       ?type_case_a@?$output_processor@_WV?$stream_output_adapter@_W@__crt_stdio_output@@V?$positional_parameter_base@_WV?$stream_output_adapter@_W@__crt_stdio_output@@@2@@__crt_stdio_output@@AEAA_NXZ 000000014002e1e4 f i libucrt:output.obj
 0001:0002d478       ?type_case_a@?$output_processor@_WV?$stream_output_adapter@_W@__crt_stdio_output@@V?$standard_base@_WV?$stream_output_adapter@_W@__crt_stdio_output@@@2@@__crt_stdio_output@@AEAA_NXZ 000000014002e478 f i libucrt:output.obj
 0001:0002d6e0       ?type_case_a@?$output_processor@_WV?$string_output_adapter@_W@__crt_stdio_output@@V?$format_validation_base@_WV?$string_output_adapter@_W@__crt_stdio_output@@@2@@__crt_stdio_output@@AEAA_NXZ 000000014002e6e0 f i libucrt:output.obj
 0001:0002d948       ?type_case_a@?$output_processor@_WV?$string_output_adapter@_W@__crt_stdio_output@@V?$positional_parameter_base@_WV?$string_output_adapter@_W@__crt_stdio_output@@@2@@__crt_stdio_output@@AEAA_NXZ 000000014002e948 f i libucrt:output.obj
 0001:0002dbdc       ?type_case_a@?$output_processor@_WV?$string_output_adapter@_W@__crt_stdio_output@@V?$standard_base@_WV?$string_output_adapter@_W@__crt_stdio_output@@@2@@__crt_stdio_output@@AEAA_NXZ 000000014002ebdc f i libucrt:output.obj
 0001:0002de44       ?type_case_c@?$output_processor@DV?$stream_output_adapter@D@__crt_stdio_output@@V?$format_validation_base@DV?$stream_output_adapter@D@__crt_stdio_output@@@2@@__crt_stdio_output@@AEAA_NXZ 000000014002ee44 f i libucrt:output.obj
 0001:0002de4c       ?type_case_c@?$output_processor@DV?$stream_output_adapter@D@__crt_stdio_output@@V?$positional_parameter_base@DV?$stream_output_adapter@D@__crt_stdio_output@@@2@@__crt_stdio_output@@AEAA_NXZ 000000014002ee4c f i libucrt:output.obj
 0001:0002de54       ?type_case_c@?$output_processor@DV?$stream_output_adapter@D@__crt_stdio_output@@V?$standard_base@DV?$stream_output_adapter@D@__crt_stdio_output@@@2@@__crt_stdio_output@@AEAA_NXZ 000000014002ee54 f i libucrt:output.obj
 0001:0002de5c       ?type_case_c@?$output_processor@DV?$string_output_adapter@D@__crt_stdio_output@@V?$format_validation_base@DV?$string_output_adapter@D@__crt_stdio_output@@@2@@__crt_stdio_output@@AEAA_NXZ 000000014002ee5c f i libucrt:output.obj
 0001:0002de64       ?type_case_c@?$output_processor@DV?$string_output_adapter@D@__crt_stdio_output@@V?$positional_parameter_base@DV?$string_output_adapter@D@__crt_stdio_output@@@2@@__crt_stdio_output@@AEAA_NXZ 000000014002ee64 f i libucrt:output.obj
 0001:0002de6c       ?type_case_c@?$output_processor@DV?$string_output_adapter@D@__crt_stdio_output@@V?$standard_base@DV?$string_output_adapter@D@__crt_stdio_output@@@2@@__crt_stdio_output@@AEAA_NXZ 000000014002ee6c f i libucrt:output.obj
 0001:0002de74       ?type_case_c@?$output_processor@_WV?$stream_output_adapter@_W@__crt_stdio_output@@V?$format_validation_base@_WV?$stream_output_adapter@_W@__crt_stdio_output@@@2@@__crt_stdio_output@@AEAA_NXZ 000000014002ee74 f i libucrt:output.obj
 0001:0002de7c       ?type_case_c@?$output_processor@_WV?$stream_output_adapter@_W@__crt_stdio_output@@V?$positional_parameter_base@_WV?$stream_output_adapter@_W@__crt_stdio_output@@@2@@__crt_stdio_output@@AEAA_NXZ 000000014002ee7c f i libucrt:output.obj
 0001:0002de84       ?type_case_c@?$output_processor@_WV?$stream_output_adapter@_W@__crt_stdio_output@@V?$standard_base@_WV?$stream_output_adapter@_W@__crt_stdio_output@@@2@@__crt_stdio_output@@AEAA_NXZ 000000014002ee84 f i libucrt:output.obj
 0001:0002de8c       ?type_case_c@?$output_processor@_WV?$string_output_adapter@_W@__crt_stdio_output@@V?$format_validation_base@_WV?$string_output_adapter@_W@__crt_stdio_output@@@2@@__crt_stdio_output@@AEAA_NXZ 000000014002ee8c f i libucrt:output.obj
 0001:0002de94       ?type_case_c@?$output_processor@_WV?$string_output_adapter@_W@__crt_stdio_output@@V?$positional_parameter_base@_WV?$string_output_adapter@_W@__crt_stdio_output@@@2@@__crt_stdio_output@@AEAA_NXZ 000000014002ee94 f i libucrt:output.obj
 0001:0002de9c       ?type_case_c@?$output_processor@_WV?$string_output_adapter@_W@__crt_stdio_output@@V?$standard_base@_WV?$string_output_adapter@_W@__crt_stdio_output@@@2@@__crt_stdio_output@@AEAA_NXZ 000000014002ee9c f i libucrt:output.obj
 0001:0002dea4       ?type_case_c_tchar@?$output_processor@DV?$stream_output_adapter@D@__crt_stdio_output@@V?$format_validation_base@DV?$stream_output_adapter@D@__crt_stdio_output@@@2@@__crt_stdio_output@@AEAA_ND@Z 000000014002eea4 f i libucrt:output.obj
 0001:0002df78       ?type_case_c_tchar@?$output_processor@DV?$stream_output_adapter@D@__crt_stdio_output@@V?$positional_parameter_base@DV?$stream_output_adapter@D@__crt_stdio_output@@@2@@__crt_stdio_output@@AEAA_ND@Z 000000014002ef78 f i libucrt:output.obj
 0001:0002e094       ?type_case_c_tchar@?$output_processor@DV?$stream_output_adapter@D@__crt_stdio_output@@V?$standard_base@DV?$stream_output_adapter@D@__crt_stdio_output@@@2@@__crt_stdio_output@@AEAA_ND@Z 000000014002f094 f i libucrt:output.obj
 0001:0002e168       ?type_case_c_tchar@?$output_processor@DV?$string_output_adapter@D@__crt_stdio_output@@V?$format_validation_base@DV?$string_output_adapter@D@__crt_stdio_output@@@2@@__crt_stdio_output@@AEAA_ND@Z 000000014002f168 f i libucrt:output.obj
 0001:0002e23c       ?type_case_c_tchar@?$output_processor@DV?$string_output_adapter@D@__crt_stdio_output@@V?$positional_parameter_base@DV?$string_output_adapter@D@__crt_stdio_output@@@2@@__crt_stdio_output@@AEAA_ND@Z 000000014002f23c f i libucrt:output.obj
 0001:0002e358       ?type_case_c_tchar@?$output_processor@DV?$string_output_adapter@D@__crt_stdio_output@@V?$standard_base@DV?$string_output_adapter@D@__crt_stdio_output@@@2@@__crt_stdio_output@@AEAA_ND@Z 000000014002f358 f i libucrt:output.obj
 0001:0002e42c       ?type_case_c_tchar@?$output_processor@_WV?$stream_output_adapter@_W@__crt_stdio_output@@V?$format_validation_base@_WV?$stream_output_adapter@_W@__crt_stdio_output@@@2@@__crt_stdio_output@@AEAA_N_W@Z 000000014002f42c f i libucrt:output.obj
 0001:0002e4f0       ?type_case_c_tchar@?$output_processor@_WV?$stream_output_adapter@_W@__crt_stdio_output@@V?$positional_parameter_base@_WV?$stream_output_adapter@_W@__crt_stdio_output@@@2@@__crt_stdio_output@@AEAA_N_W@Z 000000014002f4f0 f i libucrt:output.obj
 0001:0002e5e8       ?type_case_c_tchar@?$output_processor@_WV?$stream_output_adapter@_W@__crt_stdio_output@@V?$standard_base@_WV?$stream_output_adapter@_W@__crt_stdio_output@@@2@@__crt_stdio_output@@AEAA_N_W@Z 000000014002f5e8 f i libucrt:output.obj
 0001:0002e6ac       ?type_case_c_tchar@?$output_processor@_WV?$string_output_adapter@_W@__crt_stdio_output@@V?$format_validation_base@_WV?$string_output_adapter@_W@__crt_stdio_output@@@2@@__crt_stdio_output@@AEAA_N_W@Z 000000014002f6ac f i libucrt:output.obj
 0001:0002e770       ?type_case_c_tchar@?$output_processor@_WV?$string_output_adapter@_W@__crt_stdio_output@@V?$positional_parameter_base@_WV?$string_output_adapter@_W@__crt_stdio_output@@@2@@__crt_stdio_output@@AEAA_N_W@Z 000000014002f770 f i libucrt:output.obj
 0001:0002e868       ?type_case_c_tchar@?$output_processor@_WV?$string_output_adapter@_W@__crt_stdio_output@@V?$standard_base@_WV?$string_output_adapter@_W@__crt_stdio_output@@@2@@__crt_stdio_output@@AEAA_N_W@Z 000000014002f868 f i libucrt:output.obj
 0001:0002e92c       ?type_case_d@?$output_processor@DV?$stream_output_adapter@D@__crt_stdio_output@@V?$format_validation_base@DV?$stream_output_adapter@D@__crt_stdio_output@@@2@@__crt_stdio_output@@AEAA_NXZ 000000014002f92c f i libucrt:output.obj
 0001:0002e938       ?type_case_d@?$output_processor@DV?$stream_output_adapter@D@__crt_stdio_output@@V?$positional_parameter_base@DV?$stream_output_adapter@D@__crt_stdio_output@@@2@@__crt_stdio_output@@AEAA_NXZ 000000014002f938 f i libucrt:output.obj
 0001:0002e944       ?type_case_d@?$output_processor@DV?$stream_output_adapter@D@__crt_stdio_output@@V?$standard_base@DV?$stream_output_adapter@D@__crt_stdio_output@@@2@@__crt_stdio_output@@AEAA_NXZ 000000014002f944 f i libucrt:output.obj
 0001:0002e950       ?type_case_d@?$output_processor@DV?$string_output_adapter@D@__crt_stdio_output@@V?$format_validation_base@DV?$string_output_adapter@D@__crt_stdio_output@@@2@@__crt_stdio_output@@AEAA_NXZ 000000014002f950 f i libucrt:output.obj
 0001:0002e95c       ?type_case_d@?$output_processor@DV?$string_output_adapter@D@__crt_stdio_output@@V?$positional_parameter_base@DV?$string_output_adapter@D@__crt_stdio_output@@@2@@__crt_stdio_output@@AEAA_NXZ 000000014002f95c f i libucrt:output.obj
 0001:0002e968       ?type_case_d@?$output_processor@DV?$string_output_adapter@D@__crt_stdio_output@@V?$standard_base@DV?$string_output_adapter@D@__crt_stdio_output@@@2@@__crt_stdio_output@@AEAA_NXZ 000000014002f968 f i libucrt:output.obj
 0001:0002e974       ?type_case_d@?$output_processor@_WV?$stream_output_adapter@_W@__crt_stdio_output@@V?$format_validation_base@_WV?$stream_output_adapter@_W@__crt_stdio_output@@@2@@__crt_stdio_output@@AEAA_NXZ 000000014002f974 f i libucrt:output.obj
 0001:0002e980       ?type_case_d@?$output_processor@_WV?$stream_output_adapter@_W@__crt_stdio_output@@V?$positional_parameter_base@_WV?$stream_output_adapter@_W@__crt_stdio_output@@@2@@__crt_stdio_output@@AEAA_NXZ 000000014002f980 f i libucrt:output.obj
 0001:0002e98c       ?type_case_d@?$output_processor@_WV?$stream_output_adapter@_W@__crt_stdio_output@@V?$standard_base@_WV?$stream_output_adapter@_W@__crt_stdio_output@@@2@@__crt_stdio_output@@AEAA_NXZ 000000014002f98c f i libucrt:output.obj
 0001:0002e998       ?type_case_d@?$output_processor@_WV?$string_output_adapter@_W@__crt_stdio_output@@V?$format_validation_base@_WV?$string_output_adapter@_W@__crt_stdio_output@@@2@@__crt_stdio_output@@AEAA_NXZ 000000014002f998 f i libucrt:output.obj
 0001:0002e9a4       ?type_case_d@?$output_processor@_WV?$string_output_adapter@_W@__crt_stdio_output@@V?$positional_parameter_base@_WV?$string_output_adapter@_W@__crt_stdio_output@@@2@@__crt_stdio_output@@AEAA_NXZ 000000014002f9a4 f i libucrt:output.obj
 0001:0002e9b0       ?type_case_d@?$output_processor@_WV?$string_output_adapter@_W@__crt_stdio_output@@V?$standard_base@_WV?$string_output_adapter@_W@__crt_stdio_output@@@2@@__crt_stdio_output@@AEAA_NXZ 000000014002f9b0 f i libucrt:output.obj
 0001:0002e9bc       ?type_case_n@?$output_processor@DV?$stream_output_adapter@D@__crt_stdio_output@@V?$format_validation_base@DV?$stream_output_adapter@D@__crt_stdio_output@@@2@@__crt_stdio_output@@AEAA_NXZ 000000014002f9bc f i libucrt:output.obj
 0001:0002ea74       ?type_case_n@?$output_processor@DV?$stream_output_adapter@D@__crt_stdio_output@@V?$positional_parameter_base@DV?$stream_output_adapter@D@__crt_stdio_output@@@2@@__crt_stdio_output@@AEAA_NXZ 000000014002fa74 f i libucrt:output.obj
 0001:0002eb58       ?type_case_n@?$output_processor@DV?$stream_output_adapter@D@__crt_stdio_output@@V?$standard_base@DV?$stream_output_adapter@D@__crt_stdio_output@@@2@@__crt_stdio_output@@AEAA_NXZ 000000014002fb58 f i libucrt:output.obj
 0001:0002ec10       ?type_case_n@?$output_processor@DV?$string_output_adapter@D@__crt_stdio_output@@V?$format_validation_base@DV?$string_output_adapter@D@__crt_stdio_output@@@2@@__crt_stdio_output@@AEAA_NXZ 000000014002fc10 f i libucrt:output.obj
 0001:0002ecc8       ?type_case_n@?$output_processor@DV?$string_output_adapter@D@__crt_stdio_output@@V?$positional_parameter_base@DV?$string_output_adapter@D@__crt_stdio_output@@@2@@__crt_stdio_output@@AEAA_NXZ 000000014002fcc8 f i libucrt:output.obj
 0001:0002edac       ?type_case_n@?$output_processor@DV?$string_output_adapter@D@__crt_stdio_output@@V?$standard_base@DV?$string_output_adapter@D@__crt_stdio_output@@@2@@__crt_stdio_output@@AEAA_NXZ 000000014002fdac f i libucrt:output.obj
 0001:0002ee64       ?type_case_n@?$output_processor@_WV?$stream_output_adapter@_W@__crt_stdio_output@@V?$format_validation_base@_WV?$stream_output_adapter@_W@__crt_stdio_output@@@2@@__crt_stdio_output@@AEAA_NXZ 000000014002fe64 f i libucrt:output.obj
 0001:0002ef1c       ?type_case_n@?$output_processor@_WV?$stream_output_adapter@_W@__crt_stdio_output@@V?$positional_parameter_base@_WV?$stream_output_adapter@_W@__crt_stdio_output@@@2@@__crt_stdio_output@@AEAA_NXZ 000000014002ff1c f i libucrt:output.obj
 0001:0002f000       ?type_case_n@?$output_processor@_WV?$stream_output_adapter@_W@__crt_stdio_output@@V?$standard_base@_WV?$stream_output_adapter@_W@__crt_stdio_output@@@2@@__crt_stdio_output@@AEAA_NXZ 0000000140030000 f i libucrt:output.obj
 0001:0002f0b8       ?type_case_n@?$output_processor@_WV?$string_output_adapter@_W@__crt_stdio_output@@V?$format_validation_base@_WV?$string_output_adapter@_W@__crt_stdio_output@@@2@@__crt_stdio_output@@AEAA_NXZ 00000001400300b8 f i libucrt:output.obj
 0001:0002f170       ?type_case_n@?$output_processor@_WV?$string_output_adapter@_W@__crt_stdio_output@@V?$positional_parameter_base@_WV?$string_output_adapter@_W@__crt_stdio_output@@@2@@__crt_stdio_output@@AEAA_NXZ 0000000140030170 f i libucrt:output.obj
 0001:0002f254       ?type_case_n@?$output_processor@_WV?$string_output_adapter@_W@__crt_stdio_output@@V?$standard_base@_WV?$string_output_adapter@_W@__crt_stdio_output@@@2@@__crt_stdio_output@@AEAA_NXZ 0000000140030254 f i libucrt:output.obj
 0001:0002f30c       ?type_case_o@?$output_processor@DV?$stream_output_adapter@D@__crt_stdio_output@@V?$format_validation_base@DV?$stream_output_adapter@D@__crt_stdio_output@@@2@@__crt_stdio_output@@AEAA_NXZ 000000014003030c f i libucrt:output.obj
 0001:0002f328       ?type_case_o@?$output_processor@DV?$stream_output_adapter@D@__crt_stdio_output@@V?$positional_parameter_base@DV?$stream_output_adapter@D@__crt_stdio_output@@@2@@__crt_stdio_output@@AEAA_NXZ 0000000140030328 f i libucrt:output.obj
 0001:0002f344       ?type_case_o@?$output_processor@DV?$stream_output_adapter@D@__crt_stdio_output@@V?$standard_base@DV?$stream_output_adapter@D@__crt_stdio_output@@@2@@__crt_stdio_output@@AEAA_NXZ 0000000140030344 f i libucrt:output.obj
 0001:0002f360       ?type_case_o@?$output_processor@DV?$string_output_adapter@D@__crt_stdio_output@@V?$format_validation_base@DV?$string_output_adapter@D@__crt_stdio_output@@@2@@__crt_stdio_output@@AEAA_NXZ 0000000140030360 f i libucrt:output.obj
 0001:0002f37c       ?type_case_o@?$output_processor@DV?$string_output_adapter@D@__crt_stdio_output@@V?$positional_parameter_base@DV?$string_output_adapter@D@__crt_stdio_output@@@2@@__crt_stdio_output@@AEAA_NXZ 000000014003037c f i libucrt:output.obj
 0001:0002f398       ?type_case_o@?$output_processor@DV?$string_output_adapter@D@__crt_stdio_output@@V?$standard_base@DV?$string_output_adapter@D@__crt_stdio_output@@@2@@__crt_stdio_output@@AEAA_NXZ 0000000140030398 f i libucrt:output.obj
 0001:0002f3b4       ?type_case_o@?$output_processor@_WV?$stream_output_adapter@_W@__crt_stdio_output@@V?$format_validation_base@_WV?$stream_output_adapter@_W@__crt_stdio_output@@@2@@__crt_stdio_output@@AEAA_NXZ 00000001400303b4 f i libucrt:output.obj
 0001:0002f3d0       ?type_case_o@?$output_processor@_WV?$stream_output_adapter@_W@__crt_stdio_output@@V?$positional_parameter_base@_WV?$stream_output_adapter@_W@__crt_stdio_output@@@2@@__crt_stdio_output@@AEAA_NXZ 00000001400303d0 f i libucrt:output.obj
 0001:0002f3ec       ?type_case_o@?$output_processor@_WV?$stream_output_adapter@_W@__crt_stdio_output@@V?$standard_base@_WV?$stream_output_adapter@_W@__crt_stdio_output@@@2@@__crt_stdio_output@@AEAA_NXZ 00000001400303ec f i libucrt:output.obj
 0001:0002f408       ?type_case_o@?$output_processor@_WV?$string_output_adapter@_W@__crt_stdio_output@@V?$format_validation_base@_WV?$string_output_adapter@_W@__crt_stdio_output@@@2@@__crt_stdio_output@@AEAA_NXZ 0000000140030408 f i libucrt:output.obj
 0001:0002f424       ?type_case_o@?$output_processor@_WV?$string_output_adapter@_W@__crt_stdio_output@@V?$positional_parameter_base@_WV?$string_output_adapter@_W@__crt_stdio_output@@@2@@__crt_stdio_output@@AEAA_NXZ 0000000140030424 f i libucrt:output.obj
 0001:0002f440       ?type_case_o@?$output_processor@_WV?$string_output_adapter@_W@__crt_stdio_output@@V?$standard_base@_WV?$string_output_adapter@_W@__crt_stdio_output@@@2@@__crt_stdio_output@@AEAA_NXZ 0000000140030440 f i libucrt:output.obj
 0001:0002f45c       ?type_case_p@?$output_processor@DV?$stream_output_adapter@D@__crt_stdio_output@@V?$format_validation_base@DV?$stream_output_adapter@D@__crt_stdio_output@@@2@@__crt_stdio_output@@AEAA_NXZ 000000014003045c f i libucrt:output.obj
 0001:0002f474       ?type_case_p@?$output_processor@DV?$stream_output_adapter@D@__crt_stdio_output@@V?$positional_parameter_base@DV?$stream_output_adapter@D@__crt_stdio_output@@@2@@__crt_stdio_output@@AEAA_NXZ 0000000140030474 f i libucrt:output.obj
 0001:0002f48c       ?type_case_p@?$output_processor@DV?$stream_output_adapter@D@__crt_stdio_output@@V?$standard_base@DV?$stream_output_adapter@D@__crt_stdio_output@@@2@@__crt_stdio_output@@AEAA_NXZ 000000014003048c f i libucrt:output.obj
 0001:0002f4a4       ?type_case_p@?$output_processor@DV?$string_output_adapter@D@__crt_stdio_output@@V?$format_validation_base@DV?$string_output_adapter@D@__crt_stdio_output@@@2@@__crt_stdio_output@@AEAA_NXZ 00000001400304a4 f i libucrt:output.obj
 0001:0002f4bc       ?type_case_p@?$output_processor@DV?$string_output_adapter@D@__crt_stdio_output@@V?$positional_parameter_base@DV?$string_output_adapter@D@__crt_stdio_output@@@2@@__crt_stdio_output@@AEAA_NXZ 00000001400304bc f i libucrt:output.obj
 0001:0002f4d4       ?type_case_p@?$output_processor@DV?$string_output_adapter@D@__crt_stdio_output@@V?$standard_base@DV?$string_output_adapter@D@__crt_stdio_output@@@2@@__crt_stdio_output@@AEAA_NXZ 00000001400304d4 f i libucrt:output.obj
 0001:0002f4ec       ?type_case_p@?$output_processor@_WV?$stream_output_adapter@_W@__crt_stdio_output@@V?$format_validation_base@_WV?$stream_output_adapter@_W@__crt_stdio_output@@@2@@__crt_stdio_output@@AEAA_NXZ 00000001400304ec f i libucrt:output.obj
 0001:0002f504       ?type_case_p@?$output_processor@_WV?$stream_output_adapter@_W@__crt_stdio_output@@V?$positional_parameter_base@_WV?$stream_output_adapter@_W@__crt_stdio_output@@@2@@__crt_stdio_output@@AEAA_NXZ 0000000140030504 f i libucrt:output.obj
 0001:0002f51c       ?type_case_p@?$output_processor@_WV?$stream_output_adapter@_W@__crt_stdio_output@@V?$standard_base@_WV?$stream_output_adapter@_W@__crt_stdio_output@@@2@@__crt_stdio_output@@AEAA_NXZ 000000014003051c f i libucrt:output.obj
 0001:0002f534       ?type_case_p@?$output_processor@_WV?$string_output_adapter@_W@__crt_stdio_output@@V?$format_validation_base@_WV?$string_output_adapter@_W@__crt_stdio_output@@@2@@__crt_stdio_output@@AEAA_NXZ 0000000140030534 f i libucrt:output.obj
 0001:0002f54c       ?type_case_p@?$output_processor@_WV?$string_output_adapter@_W@__crt_stdio_output@@V?$positional_parameter_base@_WV?$string_output_adapter@_W@__crt_stdio_output@@@2@@__crt_stdio_output@@AEAA_NXZ 000000014003054c f i libucrt:output.obj
 0001:0002f564       ?type_case_p@?$output_processor@_WV?$string_output_adapter@_W@__crt_stdio_output@@V?$standard_base@_WV?$string_output_adapter@_W@__crt_stdio_output@@@2@@__crt_stdio_output@@AEAA_NXZ 0000000140030564 f i libucrt:output.obj
 0001:0002f57c       ?type_case_s@?$output_processor@DV?$stream_output_adapter@D@__crt_stdio_output@@V?$format_validation_base@DV?$stream_output_adapter@D@__crt_stdio_output@@@2@@__crt_stdio_output@@AEAA_NXZ 000000014003057c f i libucrt:output.obj
 0001:0002f618       ?type_case_s@?$output_processor@DV?$stream_output_adapter@D@__crt_stdio_output@@V?$positional_parameter_base@DV?$stream_output_adapter@D@__crt_stdio_output@@@2@@__crt_stdio_output@@AEAA_NXZ 0000000140030618 f i libucrt:output.obj
 0001:0002f6d4       ?type_case_s@?$output_processor@DV?$stream_output_adapter@D@__crt_stdio_output@@V?$standard_base@DV?$stream_output_adapter@D@__crt_stdio_output@@@2@@__crt_stdio_output@@AEAA_NXZ 00000001400306d4 f i libucrt:output.obj
 0001:0002f770       ?type_case_s@?$output_processor@DV?$string_output_adapter@D@__crt_stdio_output@@V?$format_validation_base@DV?$string_output_adapter@D@__crt_stdio_output@@@2@@__crt_stdio_output@@AEAA_NXZ 0000000140030770 f i libucrt:output.obj
 0001:0002f80c       ?type_case_s@?$output_processor@DV?$string_output_adapter@D@__crt_stdio_output@@V?$positional_parameter_base@DV?$string_output_adapter@D@__crt_stdio_output@@@2@@__crt_stdio_output@@AEAA_NXZ 000000014003080c f i libucrt:output.obj
 0001:0002f8c8       ?type_case_s@?$output_processor@DV?$string_output_adapter@D@__crt_stdio_output@@V?$standard_base@DV?$string_output_adapter@D@__crt_stdio_output@@@2@@__crt_stdio_output@@AEAA_NXZ 00000001400308c8 f i libucrt:output.obj
 0001:0002f964       ?type_case_s@?$output_processor@_WV?$stream_output_adapter@_W@__crt_stdio_output@@V?$format_validation_base@_WV?$stream_output_adapter@_W@__crt_stdio_output@@@2@@__crt_stdio_output@@AEAA_NXZ 0000000140030964 f i libucrt:output.obj
 0001:0002fa00       ?type_case_s@?$output_processor@_WV?$stream_output_adapter@_W@__crt_stdio_output@@V?$positional_parameter_base@_WV?$stream_output_adapter@_W@__crt_stdio_output@@@2@@__crt_stdio_output@@AEAA_NXZ 0000000140030a00 f i libucrt:output.obj
 0001:0002fab4       ?type_case_s@?$output_processor@_WV?$stream_output_adapter@_W@__crt_stdio_output@@V?$standard_base@_WV?$stream_output_adapter@_W@__crt_stdio_output@@@2@@__crt_stdio_output@@AEAA_NXZ 0000000140030ab4 f i libucrt:output.obj
 0001:0002fb50       ?type_case_s@?$output_processor@_WV?$string_output_adapter@_W@__crt_stdio_output@@V?$format_validation_base@_WV?$string_output_adapter@_W@__crt_stdio_output@@@2@@__crt_stdio_output@@AEAA_NXZ 0000000140030b50 f i libucrt:output.obj
 0001:0002fbec       ?type_case_s@?$output_processor@_WV?$string_output_adapter@_W@__crt_stdio_output@@V?$positional_parameter_base@_WV?$string_output_adapter@_W@__crt_stdio_output@@@2@@__crt_stdio_output@@AEAA_NXZ 0000000140030bec f i libucrt:output.obj
 0001:0002fca0       ?type_case_s@?$output_processor@_WV?$string_output_adapter@_W@__crt_stdio_output@@V?$standard_base@_WV?$string_output_adapter@_W@__crt_stdio_output@@@2@@__crt_stdio_output@@AEAA_NXZ 0000000140030ca0 f i libucrt:output.obj
 0001:0002fd3c       ?type_case_s_compute_narrow_string_length@?$output_processor@DV?$stream_output_adapter@D@__crt_stdio_output@@V?$format_validation_base@DV?$stream_output_adapter@D@__crt_stdio_output@@@2@@__crt_stdio_output@@AEAAHHD@Z 0000000140030d3c f i libucrt:output.obj
 0001:0002fd48       ?type_case_s_compute_narrow_string_length@?$output_processor@DV?$stream_output_adapter@D@__crt_stdio_output@@V?$positional_parameter_base@DV?$stream_output_adapter@D@__crt_stdio_output@@@2@@__crt_stdio_output@@AEAAHHD@Z 0000000140030d48 f i libucrt:output.obj
 0001:0002fd54       ?type_case_s_compute_narrow_string_length@?$output_processor@DV?$stream_output_adapter@D@__crt_stdio_output@@V?$standard_base@DV?$stream_output_adapter@D@__crt_stdio_output@@@2@@__crt_stdio_output@@AEAAHHD@Z 0000000140030d54 f i libucrt:output.obj
 0001:0002fd60       ?type_case_s_compute_narrow_string_length@?$output_processor@DV?$string_output_adapter@D@__crt_stdio_output@@V?$format_validation_base@DV?$string_output_adapter@D@__crt_stdio_output@@@2@@__crt_stdio_output@@AEAAHHD@Z 0000000140030d60 f i libucrt:output.obj
 0001:0002fd6c       ?type_case_s_compute_narrow_string_length@?$output_processor@DV?$string_output_adapter@D@__crt_stdio_output@@V?$positional_parameter_base@DV?$string_output_adapter@D@__crt_stdio_output@@@2@@__crt_stdio_output@@AEAAHHD@Z 0000000140030d6c f i libucrt:output.obj
 0001:0002fd78       ?type_case_s_compute_narrow_string_length@?$output_processor@DV?$string_output_adapter@D@__crt_stdio_output@@V?$standard_base@DV?$string_output_adapter@D@__crt_stdio_output@@@2@@__crt_stdio_output@@AEAAHHD@Z 0000000140030d78 f i libucrt:output.obj
 0001:0002fd84       ?type_case_s_compute_narrow_string_length@?$output_processor@_WV?$stream_output_adapter@_W@__crt_stdio_output@@V?$format_validation_base@_WV?$stream_output_adapter@_W@__crt_stdio_output@@@2@@__crt_stdio_output@@AEAAHH_W@Z 0000000140030d84 f i libucrt:output.obj
 0001:0002fdf8       ?type_case_s_compute_narrow_string_length@?$output_processor@_WV?$stream_output_adapter@_W@__crt_stdio_output@@V?$positional_parameter_base@_WV?$stream_output_adapter@_W@__crt_stdio_output@@@2@@__crt_stdio_output@@AEAAHH_W@Z 0000000140030df8 f i libucrt:output.obj
 0001:0002fe6c       ?type_case_s_compute_narrow_string_length@?$output_processor@_WV?$stream_output_adapter@_W@__crt_stdio_output@@V?$standard_base@_WV?$stream_output_adapter@_W@__crt_stdio_output@@@2@@__crt_stdio_output@@AEAAHH_W@Z 0000000140030e6c f i libucrt:output.obj
 0001:0002fee0       ?type_case_s_compute_narrow_string_length@?$output_processor@_WV?$string_output_adapter@_W@__crt_stdio_output@@V?$format_validation_base@_WV?$string_output_adapter@_W@__crt_stdio_output@@@2@@__crt_stdio_output@@AEAAHH_W@Z 0000000140030ee0 f i libucrt:output.obj
 0001:0002ff54       ?type_case_s_compute_narrow_string_length@?$output_processor@_WV?$string_output_adapter@_W@__crt_stdio_output@@V?$positional_parameter_base@_WV?$string_output_adapter@_W@__crt_stdio_output@@@2@@__crt_stdio_output@@AEAAHH_W@Z 0000000140030f54 f i libucrt:output.obj
 0001:0002ffc8       ?type_case_s_compute_narrow_string_length@?$output_processor@_WV?$string_output_adapter@_W@__crt_stdio_output@@V?$standard_base@_WV?$string_output_adapter@_W@__crt_stdio_output@@@2@@__crt_stdio_output@@AEAAHH_W@Z 0000000140030fc8 f i libucrt:output.obj
 0001:0003003c       ?type_case_u@?$output_processor@DV?$stream_output_adapter@D@__crt_stdio_output@@V?$format_validation_base@DV?$stream_output_adapter@D@__crt_stdio_output@@@2@@__crt_stdio_output@@AEAA_NXZ 000000014003103c f i libucrt:output.obj
 0001:00030044       ?type_case_u@?$output_processor@DV?$stream_output_adapter@D@__crt_stdio_output@@V?$positional_parameter_base@DV?$stream_output_adapter@D@__crt_stdio_output@@@2@@__crt_stdio_output@@AEAA_NXZ 0000000140031044 f i libucrt:output.obj
 0001:0003004c       ?type_case_u@?$output_processor@DV?$stream_output_adapter@D@__crt_stdio_output@@V?$standard_base@DV?$stream_output_adapter@D@__crt_stdio_output@@@2@@__crt_stdio_output@@AEAA_NXZ 000000014003104c f i libucrt:output.obj
 0001:00030054       ?type_case_u@?$output_processor@DV?$string_output_adapter@D@__crt_stdio_output@@V?$format_validation_base@DV?$string_output_adapter@D@__crt_stdio_output@@@2@@__crt_stdio_output@@AEAA_NXZ 0000000140031054 f i libucrt:output.obj
 0001:0003005c       ?type_case_u@?$output_processor@DV?$string_output_adapter@D@__crt_stdio_output@@V?$positional_parameter_base@DV?$string_output_adapter@D@__crt_stdio_output@@@2@@__crt_stdio_output@@AEAA_NXZ 000000014003105c f i libucrt:output.obj
 0001:00030064       ?type_case_u@?$output_processor@DV?$string_output_adapter@D@__crt_stdio_output@@V?$standard_base@DV?$string_output_adapter@D@__crt_stdio_output@@@2@@__crt_stdio_output@@AEAA_NXZ 0000000140031064 f i libucrt:output.obj
 0001:0003006c       ?type_case_u@?$output_processor@_WV?$stream_output_adapter@_W@__crt_stdio_output@@V?$format_validation_base@_WV?$stream_output_adapter@_W@__crt_stdio_output@@@2@@__crt_stdio_output@@AEAA_NXZ 000000014003106c f i libucrt:output.obj
 0001:00030074       ?type_case_u@?$output_processor@_WV?$stream_output_adapter@_W@__crt_stdio_output@@V?$positional_parameter_base@_WV?$stream_output_adapter@_W@__crt_stdio_output@@@2@@__crt_stdio_output@@AEAA_NXZ 0000000140031074 f i libucrt:output.obj
 0001:0003007c       ?type_case_u@?$output_processor@_WV?$stream_output_adapter@_W@__crt_stdio_output@@V?$standard_base@_WV?$stream_output_adapter@_W@__crt_stdio_output@@@2@@__crt_stdio_output@@AEAA_NXZ 000000014003107c f i libucrt:output.obj
 0001:00030084       ?type_case_u@?$output_processor@_WV?$string_output_adapter@_W@__crt_stdio_output@@V?$format_validation_base@_WV?$string_output_adapter@_W@__crt_stdio_output@@@2@@__crt_stdio_output@@AEAA_NXZ 0000000140031084 f i libucrt:output.obj
 0001:0003008c       ?type_case_u@?$output_processor@_WV?$string_output_adapter@_W@__crt_stdio_output@@V?$positional_parameter_base@_WV?$string_output_adapter@_W@__crt_stdio_output@@@2@@__crt_stdio_output@@AEAA_NXZ 000000014003108c f i libucrt:output.obj
 0001:00030094       ?type_case_u@?$output_processor@_WV?$string_output_adapter@_W@__crt_stdio_output@@V?$standard_base@_WV?$string_output_adapter@_W@__crt_stdio_output@@@2@@__crt_stdio_output@@AEAA_NXZ 0000000140031094 f i libucrt:output.obj
 0001:0003009c       ?type_case_x@?$output_processor@DV?$stream_output_adapter@D@__crt_stdio_output@@V?$format_validation_base@DV?$stream_output_adapter@D@__crt_stdio_output@@@2@@__crt_stdio_output@@AEAA_NXZ 000000014003109c f i libucrt:output.obj
 0001:000300a4       ?type_case_x@?$output_processor@DV?$stream_output_adapter@D@__crt_stdio_output@@V?$positional_parameter_base@DV?$stream_output_adapter@D@__crt_stdio_output@@@2@@__crt_stdio_output@@AEAA_NXZ 00000001400310a4 f i libucrt:output.obj
 0001:000300ac       ?type_case_x@?$output_processor@DV?$stream_output_adapter@D@__crt_stdio_output@@V?$standard_base@DV?$stream_output_adapter@D@__crt_stdio_output@@@2@@__crt_stdio_output@@AEAA_NXZ 00000001400310ac f i libucrt:output.obj
 0001:000300b4       ?type_case_x@?$output_processor@DV?$string_output_adapter@D@__crt_stdio_output@@V?$format_validation_base@DV?$string_output_adapter@D@__crt_stdio_output@@@2@@__crt_stdio_output@@AEAA_NXZ 00000001400310b4 f i libucrt:output.obj
 0001:000300bc       ?type_case_x@?$output_processor@DV?$string_output_adapter@D@__crt_stdio_output@@V?$positional_parameter_base@DV?$string_output_adapter@D@__crt_stdio_output@@@2@@__crt_stdio_output@@AEAA_NXZ 00000001400310bc f i libucrt:output.obj
 0001:000300c4       ?type_case_x@?$output_processor@DV?$string_output_adapter@D@__crt_stdio_output@@V?$standard_base@DV?$string_output_adapter@D@__crt_stdio_output@@@2@@__crt_stdio_output@@AEAA_NXZ 00000001400310c4 f i libucrt:output.obj
 0001:000300cc       ?type_case_x@?$output_processor@_WV?$stream_output_adapter@_W@__crt_stdio_output@@V?$format_validation_base@_WV?$stream_output_adapter@_W@__crt_stdio_output@@@2@@__crt_stdio_output@@AEAA_NXZ 00000001400310cc f i libucrt:output.obj
 0001:000300d4       ?type_case_x@?$output_processor@_WV?$stream_output_adapter@_W@__crt_stdio_output@@V?$positional_parameter_base@_WV?$stream_output_adapter@_W@__crt_stdio_output@@@2@@__crt_stdio_output@@AEAA_NXZ 00000001400310d4 f i libucrt:output.obj
 0001:000300dc       ?type_case_x@?$output_processor@_WV?$stream_output_adapter@_W@__crt_stdio_output@@V?$standard_base@_WV?$stream_output_adapter@_W@__crt_stdio_output@@@2@@__crt_stdio_output@@AEAA_NXZ 00000001400310dc f i libucrt:output.obj
 0001:000300e4       ?type_case_x@?$output_processor@_WV?$string_output_adapter@_W@__crt_stdio_output@@V?$format_validation_base@_WV?$string_output_adapter@_W@__crt_stdio_output@@@2@@__crt_stdio_output@@AEAA_NXZ 00000001400310e4 f i libucrt:output.obj
 0001:000300ec       ?type_case_x@?$output_processor@_WV?$string_output_adapter@_W@__crt_stdio_output@@V?$positional_parameter_base@_WV?$string_output_adapter@_W@__crt_stdio_output@@@2@@__crt_stdio_output@@AEAA_NXZ 00000001400310ec f i libucrt:output.obj
 0001:000300f4       ?type_case_x@?$output_processor@_WV?$string_output_adapter@_W@__crt_stdio_output@@V?$standard_base@_WV?$string_output_adapter@_W@__crt_stdio_output@@@2@@__crt_stdio_output@@AEAA_NXZ 00000001400310f4 f i libucrt:output.obj
 0001:000300fc       ?unget@?$c_string_character_source@D@__crt_strtox@@QEAAXD@Z 00000001400310fc f i libucrt:output.obj
 0001:00030128       ?unget@?$c_string_character_source@_W@__crt_strtox@@QEAAX_W@Z 0000000140031128 f i libucrt:output.obj
 0001:00030158       ?unset_flag@?$output_processor@DV?$stream_output_adapter@D@__crt_stdio_output@@V?$format_validation_base@DV?$stream_output_adapter@D@__crt_stdio_output@@@2@@__crt_stdio_output@@AEAAXI@Z 0000000140031158 f i libucrt:output.obj
 0001:00030160       ?unset_flag@?$output_processor@DV?$stream_output_adapter@D@__crt_stdio_output@@V?$positional_parameter_base@DV?$stream_output_adapter@D@__crt_stdio_output@@@2@@__crt_stdio_output@@AEAAXI@Z 0000000140031160 f i libucrt:output.obj
 0001:00030168       ?unset_flag@?$output_processor@DV?$stream_output_adapter@D@__crt_stdio_output@@V?$standard_base@DV?$stream_output_adapter@D@__crt_stdio_output@@@2@@__crt_stdio_output@@AEAAXI@Z 0000000140031168 f i libucrt:output.obj
 0001:00030170       ?unset_flag@?$output_processor@DV?$string_output_adapter@D@__crt_stdio_output@@V?$format_validation_base@DV?$string_output_adapter@D@__crt_stdio_output@@@2@@__crt_stdio_output@@AEAAXI@Z 0000000140031170 f i libucrt:output.obj
 0001:00030178       ?unset_flag@?$output_processor@DV?$string_output_adapter@D@__crt_stdio_output@@V?$positional_parameter_base@DV?$string_output_adapter@D@__crt_stdio_output@@@2@@__crt_stdio_output@@AEAAXI@Z 0000000140031178 f i libucrt:output.obj
 0001:00030180       ?unset_flag@?$output_processor@DV?$string_output_adapter@D@__crt_stdio_output@@V?$standard_base@DV?$string_output_adapter@D@__crt_stdio_output@@@2@@__crt_stdio_output@@AEAAXI@Z 0000000140031180 f i libucrt:output.obj
 0001:00030188       ?unset_flag@?$output_processor@_WV?$stream_output_adapter@_W@__crt_stdio_output@@V?$format_validation_base@_WV?$stream_output_adapter@_W@__crt_stdio_output@@@2@@__crt_stdio_output@@AEAAXI@Z 0000000140031188 f i libucrt:output.obj
 0001:00030190       ?unset_flag@?$output_processor@_WV?$stream_output_adapter@_W@__crt_stdio_output@@V?$positional_parameter_base@_WV?$stream_output_adapter@_W@__crt_stdio_output@@@2@@__crt_stdio_output@@AEAAXI@Z 0000000140031190 f i libucrt:output.obj
 0001:00030198       ?unset_flag@?$output_processor@_WV?$stream_output_adapter@_W@__crt_stdio_output@@V?$standard_base@_WV?$stream_output_adapter@_W@__crt_stdio_output@@@2@@__crt_stdio_output@@AEAAXI@Z 0000000140031198 f i libucrt:output.obj
 0001:000301a0       ?unset_flag@?$output_processor@_WV?$string_output_adapter@_W@__crt_stdio_output@@V?$format_validation_base@_WV?$string_output_adapter@_W@__crt_stdio_output@@@2@@__crt_stdio_output@@AEAAXI@Z 00000001400311a0 f i libucrt:output.obj
 0001:000301a8       ?unset_flag@?$output_processor@_WV?$string_output_adapter@_W@__crt_stdio_output@@V?$positional_parameter_base@_WV?$string_output_adapter@_W@__crt_stdio_output@@@2@@__crt_stdio_output@@AEAAXI@Z 00000001400311a8 f i libucrt:output.obj
 0001:000301b0       ?unset_flag@?$output_processor@_WV?$string_output_adapter@_W@__crt_stdio_output@@V?$standard_base@_WV?$string_output_adapter@_W@__crt_stdio_output@@@2@@__crt_stdio_output@@AEAAXI@Z 00000001400311b0 f i libucrt:output.obj
 0001:000301b8       ?update_field_width@?$positional_parameter_base@DV?$stream_output_adapter@D@__crt_stdio_output@@@__crt_stdio_output@@IEAA_NXZ 00000001400311b8 f i libucrt:output.obj
 0001:00030328       ?update_field_width@?$positional_parameter_base@DV?$string_output_adapter@D@__crt_stdio_output@@@__crt_stdio_output@@IEAA_NXZ 0000000140031328 f i libucrt:output.obj
 0001:00030498       ?update_field_width@?$positional_parameter_base@_WV?$stream_output_adapter@_W@__crt_stdio_output@@@__crt_stdio_output@@IEAA_NXZ 0000000140031498 f i libucrt:output.obj
 0001:0003060c       ?update_field_width@?$positional_parameter_base@_WV?$string_output_adapter@_W@__crt_stdio_output@@@__crt_stdio_output@@IEAA_NXZ 000000014003160c f i libucrt:output.obj
 0001:00030780       ?update_field_width@?$standard_base@DV?$stream_output_adapter@D@__crt_stdio_output@@@__crt_stdio_output@@IEAA_NXZ 0000000140031780 f i libucrt:output.obj
 0001:00030794       ?update_field_width@?$standard_base@DV?$string_output_adapter@D@__crt_stdio_output@@@__crt_stdio_output@@IEAA_NXZ 0000000140031794 f i libucrt:output.obj
 0001:000307a8       ?update_field_width@?$standard_base@_WV?$stream_output_adapter@_W@__crt_stdio_output@@@__crt_stdio_output@@IEAA_NXZ 00000001400317a8 f i libucrt:output.obj
 0001:000307bc       ?update_field_width@?$standard_base@_WV?$string_output_adapter@_W@__crt_stdio_output@@@__crt_stdio_output@@IEAA_NXZ 00000001400317bc f i libucrt:output.obj
 0001:000307d0       ?update_locale@__crt_cached_ptd_host@@AEAAXXZ 00000001400317d0 f i libucrt:output.obj
 0001:000307e0       ?update_locale_slow@__crt_cached_ptd_host@@AEAAXXZ 00000001400317e0 f i libucrt:output.obj
 0001:00030858       ?update_precision@?$positional_parameter_base@DV?$stream_output_adapter@D@__crt_stdio_output@@@__crt_stdio_output@@IEAA_NXZ 0000000140031858 f i libucrt:output.obj
 0001:000309c8       ?update_precision@?$positional_parameter_base@DV?$string_output_adapter@D@__crt_stdio_output@@@__crt_stdio_output@@IEAA_NXZ 00000001400319c8 f i libucrt:output.obj
 0001:00030b38       ?update_precision@?$positional_parameter_base@_WV?$stream_output_adapter@_W@__crt_stdio_output@@@__crt_stdio_output@@IEAA_NXZ 0000000140031b38 f i libucrt:output.obj
 0001:00030cac       ?update_precision@?$positional_parameter_base@_WV?$string_output_adapter@_W@__crt_stdio_output@@@__crt_stdio_output@@IEAA_NXZ 0000000140031cac f i libucrt:output.obj
 0001:00030e20       ?update_precision@?$standard_base@DV?$stream_output_adapter@D@__crt_stdio_output@@@__crt_stdio_output@@IEAA_NXZ 0000000140031e20 f i libucrt:output.obj
 0001:00030e34       ?update_precision@?$standard_base@DV?$string_output_adapter@D@__crt_stdio_output@@@__crt_stdio_output@@IEAA_NXZ 0000000140031e34 f i libucrt:output.obj
 0001:00030e48       ?update_precision@?$standard_base@_WV?$stream_output_adapter@_W@__crt_stdio_output@@@__crt_stdio_output@@IEAA_NXZ 0000000140031e48 f i libucrt:output.obj
 0001:00030e5c       ?update_precision@?$standard_base@_WV?$string_output_adapter@_W@__crt_stdio_output@@@__crt_stdio_output@@IEAA_NXZ 0000000140031e5c f i libucrt:output.obj
 0001:00030e70       ?valid@__crt_stdio_stream@@QEBA_NXZ 0000000140031e70 f i libucrt:output.obj
 0001:00030e78       ?validate@?$c_string_character_source@D@__crt_strtox@@QEBA_NXZ 0000000140031e78 f i libucrt:output.obj
 0001:00030ea0       ?validate@?$c_string_character_source@_W@__crt_strtox@@QEBA_NXZ 0000000140031ea0 f i libucrt:output.obj
 0001:00030ec8       ?validate@?$stream_output_adapter@D@__crt_stdio_output@@QEBA_NAEAV__crt_cached_ptd_host@@@Z 0000000140031ec8 f i libucrt:output.obj
 0001:00030f08       ?validate@?$stream_output_adapter@_W@__crt_stdio_output@@QEBA_NAEAV__crt_cached_ptd_host@@@Z 0000000140031f08 f i libucrt:output.obj
 0001:00030f44       ?validate@?$string_output_adapter@D@__crt_stdio_output@@QEBA_NAEAV__crt_cached_ptd_host@@@Z 0000000140031f44 f i libucrt:output.obj
 0001:00030f80       ?validate@?$string_output_adapter@_W@__crt_stdio_output@@QEBA_NAEAV__crt_cached_ptd_host@@@Z 0000000140031f80 f i libucrt:output.obj
 0001:00030fbc       ?validate_and_store_parameter_data@?$positional_parameter_base@DV?$stream_output_adapter@D@__crt_stdio_output@@@__crt_stdio_output@@AEAA_NAEAUparameter_data@12@W4parameter_type@12@DW4length_modifier@2@@Z 0000000140031fbc f i libucrt:output.obj
 0001:00031020       ?validate_and_store_parameter_data@?$positional_parameter_base@DV?$string_output_adapter@D@__crt_stdio_output@@@__crt_stdio_output@@AEAA_NAEAUparameter_data@12@W4parameter_type@12@DW4length_modifier@2@@Z 0000000140032020 f i libucrt:output.obj
 0001:00031084       ?validate_and_store_parameter_data@?$positional_parameter_base@_WV?$stream_output_adapter@_W@__crt_stdio_output@@@__crt_stdio_output@@AEAA_NAEAUparameter_data@12@W4parameter_type@12@_WW4length_modifier@2@@Z 0000000140032084 f i libucrt:output.obj
 0001:000310e8       ?validate_and_store_parameter_data@?$positional_parameter_base@_WV?$string_output_adapter@_W@__crt_stdio_output@@@__crt_stdio_output@@AEAA_NAEAUparameter_data@12@W4parameter_type@12@_WW4length_modifier@2@@Z 00000001400320e8 f i libucrt:output.obj
 0001:0003114c       ?validate_and_update_state_at_beginning_of_format_character@?$positional_parameter_base@DV?$stream_output_adapter@D@__crt_stdio_output@@@__crt_stdio_output@@IEAA_NXZ 000000014003214c f i libucrt:output.obj
 0001:00031290       ?validate_and_update_state_at_beginning_of_format_character@?$positional_parameter_base@DV?$string_output_adapter@D@__crt_stdio_output@@@__crt_stdio_output@@IEAA_NXZ 0000000140032290 f i libucrt:output.obj
 0001:000313d4       ?validate_and_update_state_at_beginning_of_format_character@?$positional_parameter_base@_WV?$stream_output_adapter@_W@__crt_stdio_output@@@__crt_stdio_output@@IEAA_NXZ 00000001400323d4 f i libucrt:output.obj
 0001:00031524       ?validate_and_update_state_at_beginning_of_format_character@?$positional_parameter_base@_WV?$string_output_adapter@_W@__crt_stdio_output@@@__crt_stdio_output@@IEAA_NXZ 0000000140032524 f i libucrt:output.obj
 0001:00031674       ?validate_and_update_state_at_beginning_of_format_character@?$standard_base@DV?$stream_output_adapter@D@__crt_stdio_output@@@__crt_stdio_output@@IEAA_NXZ 0000000140032674 f i libucrt:output.obj
 0001:00031678       ?validate_and_update_state_at_beginning_of_format_character@?$standard_base@DV?$string_output_adapter@D@__crt_stdio_output@@@__crt_stdio_output@@IEAA_NXZ 0000000140032678 f i libucrt:output.obj
 0001:0003167c       ?validate_and_update_state_at_beginning_of_format_character@?$standard_base@_WV?$stream_output_adapter@_W@__crt_stdio_output@@@__crt_stdio_output@@IEAA_NXZ 000000014003267c f i libucrt:output.obj
 0001:00031680       ?validate_and_update_state_at_beginning_of_format_character@?$standard_base@_WV?$string_output_adapter@_W@__crt_stdio_output@@@__crt_stdio_output@@IEAA_NXZ 0000000140032680 f i libucrt:output.obj
 0001:00031684       ?validate_and_update_state_at_end_of_format_string@?$format_validation_base@DV?$stream_output_adapter@D@__crt_stdio_output@@@__crt_stdio_output@@IEAA_NXZ 0000000140032684 f i libucrt:output.obj
 0001:000316cc       ?validate_and_update_state_at_end_of_format_string@?$format_validation_base@DV?$string_output_adapter@D@__crt_stdio_output@@@__crt_stdio_output@@IEAA_NXZ 00000001400326cc f i libucrt:output.obj
 0001:00031714       ?validate_and_update_state_at_end_of_format_string@?$format_validation_base@_WV?$stream_output_adapter@_W@__crt_stdio_output@@@__crt_stdio_output@@IEAA_NXZ 0000000140032714 f i libucrt:output.obj
 0001:0003175c       ?validate_and_update_state_at_end_of_format_string@?$format_validation_base@_WV?$string_output_adapter@_W@__crt_stdio_output@@@__crt_stdio_output@@IEAA_NXZ 000000014003275c f i libucrt:output.obj
 0001:000317a4       ?validate_and_update_state_at_end_of_format_string@?$positional_parameter_base@DV?$stream_output_adapter@D@__crt_stdio_output@@@__crt_stdio_output@@IEAA_NXZ 00000001400327a4 f i libucrt:output.obj
 0001:0003185c       ?validate_and_update_state_at_end_of_format_string@?$positional_parameter_base@DV?$string_output_adapter@D@__crt_stdio_output@@@__crt_stdio_output@@IEAA_NXZ 000000014003285c f i libucrt:output.obj
 0001:00031914       ?validate_and_update_state_at_end_of_format_string@?$positional_parameter_base@_WV?$stream_output_adapter@_W@__crt_stdio_output@@@__crt_stdio_output@@IEAA_NXZ 0000000140032914 f i libucrt:output.obj
 0001:000319cc       ?validate_and_update_state_at_end_of_format_string@?$positional_parameter_base@_WV?$string_output_adapter@_W@__crt_stdio_output@@@__crt_stdio_output@@IEAA_NXZ 00000001400329cc f i libucrt:output.obj
 0001:00031a84       ?validate_and_update_state_at_end_of_format_string@?$standard_base@DV?$stream_output_adapter@D@__crt_stdio_output@@@__crt_stdio_output@@IEBA_NXZ 0000000140032a84 f i libucrt:output.obj
 0001:00031a88       ?validate_and_update_state_at_end_of_format_string@?$standard_base@DV?$string_output_adapter@D@__crt_stdio_output@@@__crt_stdio_output@@IEBA_NXZ 0000000140032a88 f i libucrt:output.obj
 0001:00031a8c       ?validate_and_update_state_at_end_of_format_string@?$standard_base@_WV?$stream_output_adapter@_W@__crt_stdio_output@@@__crt_stdio_output@@IEBA_NXZ 0000000140032a8c f i libucrt:output.obj
 0001:00031a90       ?validate_and_update_state_at_end_of_format_string@?$standard_base@_WV?$string_output_adapter@_W@__crt_stdio_output@@@__crt_stdio_output@@IEBA_NXZ 0000000140032a90 f i libucrt:output.obj
 0001:00031a94       ?validate_state_for_type_case_a@?$positional_parameter_base@DV?$stream_output_adapter@D@__crt_stdio_output@@@__crt_stdio_output@@IEAA_NXZ 0000000140032a94 f i libucrt:output.obj
 0001:00031b78       ?validate_state_for_type_case_a@?$positional_parameter_base@DV?$string_output_adapter@D@__crt_stdio_output@@@__crt_stdio_output@@IEAA_NXZ 0000000140032b78 f i libucrt:output.obj
 0001:00031c5c       ?validate_state_for_type_case_a@?$positional_parameter_base@_WV?$stream_output_adapter@_W@__crt_stdio_output@@@__crt_stdio_output@@IEAA_NXZ 0000000140032c5c f i libucrt:output.obj
 0001:00031d40       ?validate_state_for_type_case_a@?$positional_parameter_base@_WV?$string_output_adapter@_W@__crt_stdio_output@@@__crt_stdio_output@@IEAA_NXZ 0000000140032d40 f i libucrt:output.obj
 0001:00031e24       ?validate_state_for_type_case_a@?$standard_base@DV?$stream_output_adapter@D@__crt_stdio_output@@@__crt_stdio_output@@IEBA_NXZ 0000000140032e24 f i libucrt:output.obj
 0001:00031e28       ?validate_state_for_type_case_a@?$standard_base@DV?$string_output_adapter@D@__crt_stdio_output@@@__crt_stdio_output@@IEBA_NXZ 0000000140032e28 f i libucrt:output.obj
 0001:00031e2c       ?validate_state_for_type_case_a@?$standard_base@_WV?$stream_output_adapter@_W@__crt_stdio_output@@@__crt_stdio_output@@IEBA_NXZ 0000000140032e2c f i libucrt:output.obj
 0001:00031e30       ?validate_state_for_type_case_a@?$standard_base@_WV?$string_output_adapter@_W@__crt_stdio_output@@@__crt_stdio_output@@IEBA_NXZ 0000000140032e30 f i libucrt:output.obj
 0001:00031e34       ?validate_stream_is_ansi_if_required@?$__acrt_stdio_char_traits@D@@SA_NQEAU_iobuf@@@Z 0000000140032e34 f i libucrt:output.obj
 0001:00031ed0       ?validate_stream_is_ansi_if_required@?$__acrt_stdio_char_traits@_W@@SA_NQEAU_iobuf@@@Z 0000000140032ed0 f i libucrt:output.obj
 0001:00031ed4       ?wide_character_to_digit@__crt_strtox@@YAH_W@Z 0000000140032ed4 f i libucrt:output.obj
 0001:00032074       ?wide_null_string@?$output_processor@DV?$stream_output_adapter@D@__crt_stdio_output@@V?$format_validation_base@DV?$stream_output_adapter@D@__crt_stdio_output@@@2@@__crt_stdio_output@@CAPEA_WXZ 0000000140033074 f i libucrt:output.obj
 0001:0003207c       ?wide_null_string@?$output_processor@DV?$stream_output_adapter@D@__crt_stdio_output@@V?$positional_parameter_base@DV?$stream_output_adapter@D@__crt_stdio_output@@@2@@__crt_stdio_output@@CAPEA_WXZ 000000014003307c f i libucrt:output.obj
 0001:00032084       ?wide_null_string@?$output_processor@DV?$stream_output_adapter@D@__crt_stdio_output@@V?$standard_base@DV?$stream_output_adapter@D@__crt_stdio_output@@@2@@__crt_stdio_output@@CAPEA_WXZ 0000000140033084 f i libucrt:output.obj
 0001:0003208c       ?wide_null_string@?$output_processor@DV?$string_output_adapter@D@__crt_stdio_output@@V?$format_validation_base@DV?$string_output_adapter@D@__crt_stdio_output@@@2@@__crt_stdio_output@@CAPEA_WXZ 000000014003308c f i libucrt:output.obj
 0001:00032094       ?wide_null_string@?$output_processor@DV?$string_output_adapter@D@__crt_stdio_output@@V?$positional_parameter_base@DV?$string_output_adapter@D@__crt_stdio_output@@@2@@__crt_stdio_output@@CAPEA_WXZ 0000000140033094 f i libucrt:output.obj
 0001:0003209c       ?wide_null_string@?$output_processor@DV?$string_output_adapter@D@__crt_stdio_output@@V?$standard_base@DV?$string_output_adapter@D@__crt_stdio_output@@@2@@__crt_stdio_output@@CAPEA_WXZ 000000014003309c f i libucrt:output.obj
 0001:000320a4       ?wide_null_string@?$output_processor@_WV?$stream_output_adapter@_W@__crt_stdio_output@@V?$format_validation_base@_WV?$stream_output_adapter@_W@__crt_stdio_output@@@2@@__crt_stdio_output@@CAPEA_WXZ 00000001400330a4 f i libucrt:output.obj
 0001:000320ac       ?wide_null_string@?$output_processor@_WV?$stream_output_adapter@_W@__crt_stdio_output@@V?$positional_parameter_base@_WV?$stream_output_adapter@_W@__crt_stdio_output@@@2@@__crt_stdio_output@@CAPEA_WXZ 00000001400330ac f i libucrt:output.obj
 0001:000320b4       ?wide_null_string@?$output_processor@_WV?$stream_output_adapter@_W@__crt_stdio_output@@V?$standard_base@_WV?$stream_output_adapter@_W@__crt_stdio_output@@@2@@__crt_stdio_output@@CAPEA_WXZ 00000001400330b4 f i libucrt:output.obj
 0001:000320bc       ?wide_null_string@?$output_processor@_WV?$string_output_adapter@_W@__crt_stdio_output@@V?$format_validation_base@_WV?$string_output_adapter@_W@__crt_stdio_output@@@2@@__crt_stdio_output@@CAPEA_WXZ 00000001400330bc f i libucrt:output.obj
 0001:000320c4       ?wide_null_string@?$output_processor@_WV?$string_output_adapter@_W@__crt_stdio_output@@V?$positional_parameter_base@_WV?$string_output_adapter@_W@__crt_stdio_output@@@2@@__crt_stdio_output@@CAPEA_WXZ 00000001400330c4 f i libucrt:output.obj
 0001:000320cc       ?wide_null_string@?$output_processor@_WV?$string_output_adapter@_W@__crt_stdio_output@@V?$standard_base@_WV?$string_output_adapter@_W@__crt_stdio_output@@@2@@__crt_stdio_output@@CAPEA_WXZ 00000001400330cc f i libucrt:output.obj
 0001:000320d4       ?write_character@?$output_adapter_common@DV?$stream_output_adapter@D@__crt_stdio_output@@@__crt_stdio_output@@QEBAXDQEAHAEAV__crt_cached_ptd_host@@@Z 00000001400330d4 f i libucrt:output.obj
 0001:00032120       ?write_character@?$output_adapter_common@_WV?$stream_output_adapter@_W@__crt_stdio_output@@@__crt_stdio_output@@QEBAX_WQEAHAEAV__crt_cached_ptd_host@@@Z 0000000140033120 f i libucrt:output.obj
 0001:00032170       ?write_character@?$string_output_adapter@D@__crt_stdio_output@@QEBA_NDQEAHAEAV__crt_cached_ptd_host@@@Z 0000000140033170 f i libucrt:output.obj
 0001:000321b8       ?write_character@?$string_output_adapter@_W@__crt_stdio_output@@QEBA_N_WQEAHAEAV__crt_cached_ptd_host@@@Z 00000001400331b8 f i libucrt:output.obj
 0001:00032200       ?write_character_without_count_update@?$stream_output_adapter@D@__crt_stdio_output@@QEBA_NDAEAV__crt_cached_ptd_host@@@Z 0000000140033200 f i libucrt:output.obj
 0001:00032240       ?write_character_without_count_update@?$stream_output_adapter@_W@__crt_stdio_output@@QEBA_N_WAEAV__crt_cached_ptd_host@@@Z 0000000140033240 f i libucrt:output.obj
 0001:00032284       ?write_stored_string_tchar@?$output_processor@DV?$stream_output_adapter@D@__crt_stdio_output@@V?$format_validation_base@DV?$stream_output_adapter@D@__crt_stdio_output@@@2@@__crt_stdio_output@@AEAA_ND@Z 0000000140033284 f i libucrt:output.obj
 0001:000323b8       ?write_stored_string_tchar@?$output_processor@DV?$stream_output_adapter@D@__crt_stdio_output@@V?$positional_parameter_base@DV?$stream_output_adapter@D@__crt_stdio_output@@@2@@__crt_stdio_output@@AEAA_ND@Z 00000001400333b8 f i libucrt:output.obj
 0001:000324ec       ?write_stored_string_tchar@?$output_processor@DV?$stream_output_adapter@D@__crt_stdio_output@@V?$standard_base@DV?$stream_output_adapter@D@__crt_stdio_output@@@2@@__crt_stdio_output@@AEAA_ND@Z 00000001400334ec f i libucrt:output.obj
 0001:00032620       ?write_stored_string_tchar@?$output_processor@DV?$string_output_adapter@D@__crt_stdio_output@@V?$format_validation_base@DV?$string_output_adapter@D@__crt_stdio_output@@@2@@__crt_stdio_output@@AEAA_ND@Z 0000000140033620 f i libucrt:output.obj
 0001:00032708       ?write_stored_string_tchar@?$output_processor@DV?$string_output_adapter@D@__crt_stdio_output@@V?$positional_parameter_base@DV?$string_output_adapter@D@__crt_stdio_output@@@2@@__crt_stdio_output@@AEAA_ND@Z 0000000140033708 f i libucrt:output.obj
 0001:000327f0       ?write_stored_string_tchar@?$output_processor@DV?$string_output_adapter@D@__crt_stdio_output@@V?$standard_base@DV?$string_output_adapter@D@__crt_stdio_output@@@2@@__crt_stdio_output@@AEAA_ND@Z 00000001400337f0 f i libucrt:output.obj
 0001:000328d8       ?write_stored_string_tchar@?$output_processor@_WV?$stream_output_adapter@_W@__crt_stdio_output@@V?$format_validation_base@_WV?$stream_output_adapter@_W@__crt_stdio_output@@@2@@__crt_stdio_output@@AEAA_N_W@Z 00000001400338d8 f i libucrt:output.obj
 0001:00032a0c       ?write_stored_string_tchar@?$output_processor@_WV?$stream_output_adapter@_W@__crt_stdio_output@@V?$positional_parameter_base@_WV?$stream_output_adapter@_W@__crt_stdio_output@@@2@@__crt_stdio_output@@AEAA_N_W@Z 0000000140033a0c f i libucrt:output.obj
 0001:00032b40       ?write_stored_string_tchar@?$output_processor@_WV?$stream_output_adapter@_W@__crt_stdio_output@@V?$standard_base@_WV?$stream_output_adapter@_W@__crt_stdio_output@@@2@@__crt_stdio_output@@AEAA_N_W@Z 0000000140033b40 f i libucrt:output.obj
 0001:00032c74       ?write_stored_string_tchar@?$output_processor@_WV?$string_output_adapter@_W@__crt_stdio_output@@V?$format_validation_base@_WV?$string_output_adapter@_W@__crt_stdio_output@@@2@@__crt_stdio_output@@AEAA_N_W@Z 0000000140033c74 f i libucrt:output.obj
 0001:00032d88       ?write_stored_string_tchar@?$output_processor@_WV?$string_output_adapter@_W@__crt_stdio_output@@V?$positional_parameter_base@_WV?$string_output_adapter@_W@__crt_stdio_output@@@2@@__crt_stdio_output@@AEAA_N_W@Z 0000000140033d88 f i libucrt:output.obj
 0001:00032e9c       ?write_stored_string_tchar@?$output_processor@_WV?$string_output_adapter@_W@__crt_stdio_output@@V?$standard_base@_WV?$string_output_adapter@_W@__crt_stdio_output@@@2@@__crt_stdio_output@@AEAA_N_W@Z 0000000140033e9c f i libucrt:output.obj
 0001:00032fb0       ?write_string@?$stream_output_adapter@D@__crt_stdio_output@@QEBAXQEBDHQEAHAEAV__crt_cached_ptd_host@@@Z 0000000140033fb0 f i libucrt:output.obj
 0001:00032fd8       ?write_string@?$stream_output_adapter@_W@__crt_stdio_output@@QEBAXQEB_WHQEAHAEAV__crt_cached_ptd_host@@@Z 0000000140033fd8 f i libucrt:output.obj
 0001:00033000       ?write_string@?$string_output_adapter@D@__crt_stdio_output@@QEBAXQEBDHQEAHAEAV__crt_cached_ptd_host@@@Z 0000000140034000 f i libucrt:output.obj
 0001:000330a4       ?write_string@?$string_output_adapter@_W@__crt_stdio_output@@QEBAXQEB_WHQEAHAEAV__crt_cached_ptd_host@@@Z 00000001400340a4 f i libucrt:output.obj
 0001:0003314c       ?write_string_impl@?$output_adapter_common@DV?$stream_output_adapter@D@__crt_stdio_output@@@__crt_stdio_output@@IEBAXQEBDHQEAHAEAV__crt_cached_ptd_host@@@Z 000000014003414c f i libucrt:output.obj
 0001:00033218       ?write_string_impl@?$output_adapter_common@_WV?$stream_output_adapter@_W@__crt_stdio_output@@@__crt_stdio_output@@IEBAXQEB_WHQEAHAEAV__crt_cached_ptd_host@@@Z 0000000140034218 f i libucrt:output.obj
 0001:000332f8       __acrt_disable_global_locale_sync 00000001400342f8 f i libucrt:output.obj
 0001:00033300       __acrt_isleadbyte_l_noupdate 0000000140034300 f i libucrt:output.obj
 0001:00033324       __acrt_locale_get_ctype_array_value 0000000140034324 f i libucrt:output.obj
 0001:0003333c       __ascii_iswalpha           000000014003433c f i libucrt:output.obj
 0001:00033358       __ascii_toupper            0000000140034358 f i libucrt:output.obj
 0001:00033368       __ascii_towupper           0000000140034368 f i libucrt:output.obj
 0001:00033378       __stdio_common_vfprintf    0000000140034378 f   libucrt:output.obj
 0001:0003349c       __stdio_common_vfprintf_p  000000014003449c f   libucrt:output.obj
 0001:000335c0       __stdio_common_vfprintf_s  00000001400345c0 f   libucrt:output.obj
 0001:000336e4       __stdio_common_vfwprintf   00000001400346e4 f   libucrt:output.obj
 0001:00033808       __stdio_common_vfwprintf_p 0000000140034808 f   libucrt:output.obj
 0001:0003392c       __stdio_common_vfwprintf_s 000000014003492c f   libucrt:output.obj
 0001:00033a50       __stdio_common_vsnprintf_s 0000000140034a50 f   libucrt:output.obj
 0001:00033c28       __stdio_common_vsnwprintf_s 0000000140034c28 f   libucrt:output.obj
 0001:00033e04       __stdio_common_vsprintf    0000000140034e04 f   libucrt:output.obj
 0001:00034058       __stdio_common_vsprintf_p  0000000140035058 f   libucrt:output.obj
 0001:00034110       __stdio_common_vsprintf_s  0000000140035110 f   libucrt:output.obj
 0001:00034224       __stdio_common_vswprintf   0000000140035224 f   libucrt:output.obj
 0001:00034480       __stdio_common_vswprintf_p 0000000140035480 f   libucrt:output.obj
 0001:00034538       __stdio_common_vswprintf_s 0000000140035538 f   libucrt:output.obj
 0001:0003464c       _ctype_fast_check_internal 000000014003564c f i libucrt:output.obj
 0001:00034660       _isdigit_fast_internal     0000000140035660 f i libucrt:output.obj
 0001:00034674       _tolower_fast_internal     0000000140035674 f i libucrt:output.obj
 0001:000346a8       _seh_filter_dll            00000001400356a8 f   libucrt:exception_filter.obj
 0001:000346bc       _seh_filter_exe            00000001400356bc f   libucrt:exception_filter.obj
 0001:0003491c       __acrt_report_runtime_error 000000014003591c f   libucrt:report_runtime_error.obj
 0001:00034a7c       _invoke_watson_if_error    0000000140035a7c f i libucrt:report_runtime_error.obj
 0001:00034ab0       _query_app_type            0000000140035ab0 f   libucrt:report_runtime_error.obj
 0001:00034ab8       _set_app_type              0000000140035ab8 f   libucrt:report_runtime_error.obj
 0001:00034ac0       ??$__crt_fast_decode_pointer@P6AHPEAU_exception@@@Z@@YAP6AHPEAU_exception@@@ZQ6AH0@Z@Z 0000000140035ac0 f i libucrt:matherr.obj
 0001:00034ad8       ??$__crt_fast_encode_pointer@P6AHPEAU_exception@@@Z@@YAP6AHPEAU_exception@@@ZQ6AH0@Z@Z 0000000140035ad8 f i libucrt:matherr.obj
 0001:00034af8       ?__crt_rotate_pointer_value@@YA_K_KH@Z 0000000140035af8 f i libucrt:matherr.obj
 0001:00034b04       ?get_current_state_index@__crt_state_management@@YA_KXZ 0000000140035b04 f i libucrt:matherr.obj
 0001:00034b08       ?initialize@?$dual_state_global@P6AHPEAU_exception@@@Z@__crt_state_management@@QEAAXQ6AHPEAU_exception@@@Z@Z 0000000140035b08 f i libucrt:matherr.obj
 0001:00034b18       ?value@?$dual_state_global@P6AHPEAU_exception@@@Z@__crt_state_management@@QEAAAEAP6AHPEAU_exception@@@ZXZ 0000000140035b18 f i libucrt:matherr.obj
 0001:00034b1c       __acrt_has_user_matherr    0000000140035b1c f   libucrt:matherr.obj
 0001:00034b3c       __acrt_initialize_user_matherr 0000000140035b3c f   libucrt:matherr.obj
 0001:00034b44       __acrt_invoke_user_matherr 0000000140035b44 f   libucrt:matherr.obj
 0001:00034b80       __setusermatherr           0000000140035b80 f   libucrt:matherr.obj
 0001:00034ba8       ??$?RE@__crt_internal_free_policy@@QEBAXQEBE@Z 0000000140035ba8 f i libucrt:argv_parsing.obj
 0001:00034bb0       ??$?RPEAD@__crt_internal_free_policy@@QEBAXQEBQEAD@Z 0000000140035bb0 f i libucrt:argv_parsing.obj
 0001:00034bb8       ??$?RPEA_W@__crt_internal_free_policy@@QEBAXQEBQEA_W@Z 0000000140035bb8 f i libucrt:argv_parsing.obj
 0001:00034eb4       ??$get_module_file_name@$$TAEAY0BAF@DH@?$__crt_char_traits@D@@SAK$$QEA$$TAEAY0BAF@D$$QEAH@Z 0000000140035eb4 f i libucrt:argv_parsing.obj
 0001:00034ec0       ??$get_module_file_name@$$TAEAY0BAF@_WH@?$__crt_char_traits@_W@@SAK$$QEA$$TAEAY0BAF@_W$$QEAH@Z 0000000140035ec0 f i libucrt:argv_parsing.obj
 0001:0003523c       ??$set_program_name@PEAD@?$__crt_char_traits@D@@SAX$$QEAPEAD@Z 000000014003623c f i libucrt:argv_parsing.obj
 0001:00035248       ??$set_program_name@PEA_W@?$__crt_char_traits@_W@@SAX$$QEAPEA_W@Z 0000000140036248 f i libucrt:argv_parsing.obj
 0001:00035264       ??0?$__crt_unique_heap_ptr@EU__crt_internal_free_policy@@@@QEAA@QEAE@Z 0000000140036264 f i libucrt:argv_parsing.obj
 0001:0003526c       ??0?$__crt_unique_heap_ptr@PEADU__crt_internal_free_policy@@@@QEAA@QEAPEAD@Z 000000014003626c f i libucrt:argv_parsing.obj
 0001:00035274       ??0?$__crt_unique_heap_ptr@PEA_WU__crt_internal_free_policy@@@@QEAA@QEAPEA_W@Z 0000000140036274 f i libucrt:argv_parsing.obj
 0001:0003527c       ??1?$__crt_unique_heap_ptr@EU__crt_internal_free_policy@@@@QEAA@XZ 000000014003627c f i libucrt:argv_parsing.obj
 0001:00035298       ??1?$__crt_unique_heap_ptr@PEADU__crt_internal_free_policy@@@@QEAA@XZ 0000000140036298 f i libucrt:argv_parsing.obj
 0001:000352b4       ??1?$__crt_unique_heap_ptr@PEA_WU__crt_internal_free_policy@@@@QEAA@XZ 00000001400362b4 f i libucrt:argv_parsing.obj
 0001:000352d0       ??B?$__crt_unique_heap_ptr@EU__crt_internal_free_policy@@@@QEBA_NXZ 00000001400362d0 f i libucrt:argv_parsing.obj
 0001:00035310       ?detach@?$__crt_unique_heap_ptr@EU__crt_internal_free_policy@@@@QEAAPEAEXZ 0000000140036310 f i libucrt:argv_parsing.obj
 0001:00035318       ?detach@?$__crt_unique_heap_ptr@PEADU__crt_internal_free_policy@@@@QEAAPEAPEADXZ 0000000140036318 f i libucrt:argv_parsing.obj
 0001:00035320       ?detach@?$__crt_unique_heap_ptr@PEA_WU__crt_internal_free_policy@@@@QEAAPEAPEA_WXZ 0000000140036320 f i libucrt:argv_parsing.obj
 0001:00035344       ?get@?$__crt_unique_heap_ptr@EU__crt_internal_free_policy@@@@QEBAPEAEXZ 0000000140036344 f i libucrt:argv_parsing.obj
 0001:00035348       ?get@?$__crt_unique_heap_ptr@PEADU__crt_internal_free_policy@@@@QEBAPEAPEADXZ 0000000140036348 f i libucrt:argv_parsing.obj
 0001:0003534c       ?get@?$__crt_unique_heap_ptr@PEA_WU__crt_internal_free_policy@@@@QEBAPEAPEA_WXZ 000000014003634c f i libucrt:argv_parsing.obj
 0001:00035350       ?get_address_of@?$__crt_unique_heap_ptr@PEADU__crt_internal_free_policy@@@@QEAAPEAPEAPEADXZ 0000000140036350 f i libucrt:argv_parsing.obj
 0001:00035354       ?get_address_of@?$__crt_unique_heap_ptr@PEA_WU__crt_internal_free_policy@@@@QEAAPEAPEAPEA_WXZ 0000000140036354 f i libucrt:argv_parsing.obj
 0001:00035378       ?is_valid@?$__crt_unique_heap_ptr@EU__crt_internal_free_policy@@@@QEBA_NXZ 0000000140036378 f i libucrt:argv_parsing.obj
 0001:00035380       ?release@?$__crt_unique_heap_ptr@EU__crt_internal_free_policy@@@@QEAAXXZ 0000000140036380 f i libucrt:argv_parsing.obj
 0001:0003539c       ?release@?$__crt_unique_heap_ptr@PEADU__crt_internal_free_policy@@@@QEAAXXZ 000000014003639c f i libucrt:argv_parsing.obj
 0001:000353b8       ?release@?$__crt_unique_heap_ptr@PEA_WU__crt_internal_free_policy@@@@QEAAXXZ 00000001400363b8 f i libucrt:argv_parsing.obj
 0001:000353f0       __acrt_allocate_buffer_for_argv 00000001400363f0 f   libucrt:argv_parsing.obj
 0001:00035450       _configure_narrow_argv     0000000140036450 f   libucrt:argv_parsing.obj
 0001:000355d8       _configure_wide_argv       00000001400365d8 f   libucrt:argv_parsing.obj
 0001:0003575c       _set_pgmptr                000000014003675c f i libucrt:argv_parsing.obj
 0001:00035764       _set_wpgmptr               0000000140036764 f i libucrt:argv_parsing.obj
 0001:0003576c       ??$?R_W@__crt_internal_free_policy@@QEBAXQEB_W@Z 000000014003676c f i libucrt:environment_initialization.obj
 0001:00035c94       ??$get_environment_from_os@$$V@?$__crt_char_traits@D@@SAPEADXZ 0000000140036c94 f i libucrt:environment_initialization.obj
 0001:00035c9c       ??$get_environment_from_os@$$V@?$__crt_char_traits@_W@@SAPEA_WXZ 0000000140036c9c f i libucrt:environment_initialization.obj
 0001:00035e40       ??$set_variable_in_environment_nolock@PEADH@?$__crt_char_traits@D@@SAH$$QEAPEAD$$QEAH@Z 0000000140036e40 f i libucrt:environment_initialization.obj
 0001:00035e4c       ??$set_variable_in_environment_nolock@PEA_WH@?$__crt_char_traits@_W@@SAH$$QEAPEA_W$$QEAH@Z 0000000140036e4c f i libucrt:environment_initialization.obj
 0001:00035e58       ??$tcscpy_s@PEADAEB_KAEAPEAD@?$__crt_char_traits@D@@SAH$$QEAPEADAEB_KAEAPEAD@Z 0000000140036e58 f i libucrt:environment_initialization.obj
 0001:00035e68       ??$tcscpy_s@PEA_WAEB_KAEAPEA_W@?$__crt_char_traits@_W@@SAH$$QEAPEA_WAEB_KAEAPEA_W@Z 0000000140036e68 f i libucrt:environment_initialization.obj
 0001:00035e78       ??$tcslen@AEAPEAD@?$__crt_char_traits@D@@SA_KAEAPEAD@Z 0000000140036e78 f i libucrt:environment_initialization.obj
 0001:00035e8c       ??$tcslen@AEAPEA_W@?$__crt_char_traits@_W@@SA_KAEAPEA_W@Z 0000000140036e8c f i libucrt:environment_initialization.obj
 0001:00035ea0       ??$uninitialize@A6AXAEAPEAPEAD@_E@?$dual_state_global@PEAPEAD@__crt_state_management@@QEAAXA6AXAEAPEAPEAD@_E@Z 0000000140036ea0 f i libucrt:environment_initialization.obj
 0001:00035ef8       ??$uninitialize@A6AXAEAPEAPEA_W@_E@?$dual_state_global@PEAPEA_W@__crt_state_management@@QEAAXA6AXAEAPEAPEA_W@_E@Z 0000000140036ef8 f i libucrt:environment_initialization.obj
 0001:00035f88       ??0?$__crt_unique_heap_ptr@_WU__crt_internal_free_policy@@@@QEAA@QEA_W@Z 0000000140036f88 f i libucrt:environment_initialization.obj
 0001:00035f90       ??1?$__crt_unique_heap_ptr@_WU__crt_internal_free_policy@@@@QEAA@XZ 0000000140036f90 f i libucrt:environment_initialization.obj
 0001:00035fac       ??B?$__crt_unique_heap_ptr@PEADU__crt_internal_free_policy@@@@QEBA_NXZ 0000000140036fac f i libucrt:environment_initialization.obj
 0001:00035fb4       ??B?$__crt_unique_heap_ptr@PEA_WU__crt_internal_free_policy@@@@QEBA_NXZ 0000000140036fb4 f i libucrt:environment_initialization.obj
 0001:00035fbc       ??B?$__crt_unique_heap_ptr@_WU__crt_internal_free_policy@@@@QEBA_NXZ 0000000140036fbc f i libucrt:environment_initialization.obj
 0001:00035fc4       ?__crt_compute_required_transform_buffer_count@@YA_KIQEBD@Z 0000000140036fc4 f i libucrt:environment_initialization.obj
 0001:00035fe8       ?__crt_compute_required_transform_buffer_count@@YA_KIQEB_W@Z 0000000140036fe8 f i libucrt:environment_initialization.obj
 0001:00036018       ?__crt_transform_string@@YA_KIQEBDQEA_W_K@Z 0000000140037018 f i libucrt:environment_initialization.obj
 0001:0003603c       ?__crt_transform_string@@YA_KIQEB_WQEAD_K@Z 000000014003703c f i libucrt:environment_initialization.obj
 0001:0003606c       ?detach@?$__crt_unique_heap_ptr@DU__crt_internal_free_policy@@@@QEAAPEADXZ 000000014003706c f i libucrt:environment_initialization.obj
 0001:00036074       ?detach@?$__crt_unique_heap_ptr@_WU__crt_internal_free_policy@@@@QEAAPEA_WXZ 0000000140037074 f i libucrt:environment_initialization.obj
 0001:0003607c       ?get@?$__crt_unique_heap_ptr@_WU__crt_internal_free_policy@@@@QEBAPEA_WXZ 000000014003707c f i libucrt:environment_initialization.obj
 0001:000360b0       ?initialize@?$dual_state_global@PEAPEAD@__crt_state_management@@QEAAXQEAPEAD@Z 00000001400370b0 f i libucrt:environment_initialization.obj
 0001:000360c0       ?initialize@?$dual_state_global@PEAPEA_W@__crt_state_management@@QEAAXQEAPEA_W@Z 00000001400370c0 f i libucrt:environment_initialization.obj
 0001:000360d0       ?is_valid@?$__crt_unique_heap_ptr@PEADU__crt_internal_free_policy@@@@QEBA_NXZ 00000001400370d0 f i libucrt:environment_initialization.obj
 0001:000360d8       ?is_valid@?$__crt_unique_heap_ptr@PEA_WU__crt_internal_free_policy@@@@QEBA_NXZ 00000001400370d8 f i libucrt:environment_initialization.obj
 0001:000360e0       ?is_valid@?$__crt_unique_heap_ptr@_WU__crt_internal_free_policy@@@@QEBA_NXZ 00000001400370e0 f i libucrt:environment_initialization.obj
 0001:000360f4       ?release@?$__crt_unique_heap_ptr@_WU__crt_internal_free_policy@@@@QEAAXXZ 00000001400370f4 f i libucrt:environment_initialization.obj
 0001:00036110       ?value@?$dual_state_global@PEAPEAD@__crt_state_management@@QEAAAEAPEAPEADXZ 0000000140037110 f i libucrt:environment_initialization.obj
 0001:00036114       ?value@?$dual_state_global@PEAPEA_W@__crt_state_management@@QEAAAEAPEAPEA_WXZ 0000000140037114 f i libucrt:environment_initialization.obj
 0001:00036118       __dcrt_get_or_create_narrow_environment_nolock 0000000140037118 f   libucrt:environment_initialization.obj
 0001:00036154       __dcrt_get_or_create_wide_environment_nolock 0000000140037154 f   libucrt:environment_initialization.obj
 0001:00036190       __dcrt_uninitialize_environments_nolock 0000000140037190 f   libucrt:environment_initialization.obj
 0001:000361d4       __p__environ               00000001400371d4 f   libucrt:environment_initialization.obj
 0001:000361dc       __p__wenviron              00000001400371dc f   libucrt:environment_initialization.obj
 0001:000361e4       _get_initial_narrow_environment 00000001400371e4 f   libucrt:environment_initialization.obj
 0001:00036234       _get_initial_wide_environment 0000000140037234 f   libucrt:environment_initialization.obj
 0001:00036284       _initialize_narrow_environment 0000000140037284 f   libucrt:environment_initialization.obj
 0001:0003628c       _initialize_wide_environment 000000014003728c f   libucrt:environment_initialization.obj
 0001:00036294       _initterm                  0000000140037294 f   libucrt:initterm.obj
 0001:000362d8       _initterm_e                00000001400372d8 f   libucrt:initterm.obj
 0001:00036320       ??$?B$$A6AXPEAXK0@Z@__crt_fast_encoded_nullptr_t@@QEBAP6AXPEAXK0@ZXZ 0000000140037320 f i libucrt:exit.obj
 0001:00036390       ??$__crt_fast_decode_pointer@P6AXPEAXK0@Z@@YAP6AXPEAXK0@ZQ6AX0K0@Z@Z 0000000140037390 f i libucrt:exit.obj
 0001:000363a8       ??$__crt_fast_encode_pointer@P6AXPEAXK0@Z@@YAP6AXPEAXK0@ZQ6AX0K0@Z@Z 00000001400373a8 f i libucrt:exit.obj
 0001:000363c8       ??$__crt_get_proc_address@P6AXI@Z@@YAP6AXI@ZQEAUHINSTANCE__@@QEBD@Z 00000001400373c8 f i libucrt:exit.obj
 0001:000363f0       ??0?$__crt_unique_handle_t@U__crt_hmodule_traits@@@@QEAA@QEAUHINSTANCE__@@@Z 00000001400373f0 f i libucrt:exit.obj
 0001:000363f8       ??1?$__crt_unique_handle_t@U__crt_hmodule_traits@@@@QEAA@XZ 00000001400373f8 f i libucrt:exit.obj
 0001:000364f8       ?__acrt_select_exit_lock@@YA?AW4__acrt_lock_id@@XZ 00000001400374f8 f i libucrt:exit.obj
 0001:00036500       ?__crt_fast_encode_pointer@@YA?AU__crt_fast_encoded_nullptr_t@@$$T@Z 0000000140037500 f i libucrt:exit.obj
 0001:00036514       ?close@?$__crt_unique_handle_t@U__crt_hmodule_traits@@@@QEAAXXZ 0000000140037514 f i libucrt:exit.obj
 0001:00036538       ?close@__crt_hmodule_traits@@SA_NPEAUHINSTANCE__@@@Z 0000000140037538 f i libucrt:exit.obj
 0001:00036648       ?get@?$__crt_unique_handle_t@U__crt_hmodule_traits@@@@QEBAPEAUHINSTANCE__@@XZ 0000000140037648 f i libucrt:exit.obj
 0001:0003664c       ?get_address_of@?$__crt_unique_handle_t@U__crt_hmodule_traits@@@@QEAAPEAPEAUHINSTANCE__@@XZ 000000014003764c f i libucrt:exit.obj
 0001:00036650       ?get_invalid_value@__crt_hmodule_traits@@SAPEAUHINSTANCE__@@XZ 0000000140037650 f i libucrt:exit.obj
 0001:0003673c       _Exit                      000000014003773c f   libucrt:exit.obj
 0001:00036748       __acrt_initialize_thread_local_exit_callback 0000000140037748 f   libucrt:exit.obj
 0001:00036750       _c_exit                    0000000140037750 f   libucrt:exit.obj
 0001:00036760       _cexit                     0000000140037760 f   libucrt:exit.obj
 0001:00036770       _exit                      0000000140037770 f   libucrt:exit.obj
 0001:0003677c       _is_c_termination_complete 000000014003777c f   libucrt:exit.obj
 0001:00036784       _register_thread_local_exe_atexit_callback 0000000140037784 f   libucrt:exit.obj
 0001:000367c4       exit                       00000001400377c4 f   libucrt:exit.obj
 0001:000367d0       quick_exit                 00000001400377d0 f   libucrt:exit.obj
 0001:000367dc       ??$__crt_interlocked_read@H@@YAHPEDH@Z 00000001400377dc f i libucrt:setmode.obj
 0001:000367e0       ?value@?$dual_state_global@H@__crt_state_management@@QEAAAEAHXZ 00000001400377e0 f i libucrt:setmode.obj
 0001:000367e4       _get_fmode                 00000001400377e4 f   libucrt:setmode.obj
 0001:00036814       _set_fmode                 0000000140037814 f   libucrt:setmode.obj
 0001:00036854       _setmode                   0000000140037854 f   libucrt:setmode.obj
 0001:00036970       _setmode_nolock            0000000140037970 f   libucrt:setmode.obj
 0001:00036a54       __acrt_initialize_command_line 0000000140037a54 f   libucrt:argv_data.obj
 0001:00036a7c       __acrt_uninitialize_command_line 0000000140037a7c f   libucrt:argv_data.obj
 0001:00036a80       __p___argc                 0000000140037a80 f   libucrt:argv_data.obj
 0001:00036a88       __p___argv                 0000000140037a88 f   libucrt:argv_data.obj
 0001:00036a90       __p___wargv                0000000140037a90 f   libucrt:argv_data.obj
 0001:00036a98       __p__acmdln                0000000140037a98 f   libucrt:argv_data.obj
 0001:00036aa0       __p__pgmptr                0000000140037aa0 f   libucrt:argv_data.obj
 0001:00036aa8       __p__wcmdln                0000000140037aa8 f   libucrt:argv_data.obj
 0001:00036ab0       __p__wpgmptr               0000000140037ab0 f   libucrt:argv_data.obj
 0001:00036ab8       _get_pgmptr                0000000140037ab8 f   libucrt:argv_data.obj
 0001:00036af0       _get_wpgmptr               0000000140037af0 f   libucrt:argv_data.obj
 0001:00036b2c       ??$?RU__crt_locale_data@@@__crt_internal_free_policy@@QEBAXQEBU__crt_locale_data@@@Z 0000000140037b2c f i libucrt:wsetlocale.obj
 0001:00036b34       ??$?RU__crt_locale_pointers@@@__crt_internal_free_policy@@QEBAXQEBU__crt_locale_pointers@@@Z 0000000140037b34 f i libucrt:wsetlocale.obj
 0001:00036b3c       ??$?RU__crt_multibyte_data@@@__crt_internal_free_policy@@QEBAXQEBU__crt_multibyte_data@@@Z 0000000140037b3c f i libucrt:wsetlocale.obj
 0001:00036f40       ??0?$__crt_unique_heap_ptr@U__crt_locale_data@@U__crt_internal_free_policy@@@@QEAA@QEAU__crt_locale_data@@@Z 0000000140037f40 f i libucrt:wsetlocale.obj
 0001:00036f48       ??0?$__crt_unique_heap_ptr@U__crt_locale_pointers@@U__crt_internal_free_policy@@@@QEAA@QEAU__crt_locale_pointers@@@Z 0000000140037f48 f i libucrt:wsetlocale.obj
 0001:00036f50       ??0?$__crt_unique_heap_ptr@U__crt_multibyte_data@@U__crt_internal_free_policy@@@@QEAA@QEAU__crt_multibyte_data@@@Z 0000000140037f50 f i libucrt:wsetlocale.obj
 0001:00036f58       ??0_expandlocale_locale_name_cache@@QEAA@QEA_W_KQEAU__crt_qualified_locale_data@@@Z 0000000140037f58 f i libucrt:wsetlocale.obj
 0001:00036fb4       ??1?$__crt_unique_heap_ptr@U__crt_locale_data@@U__crt_internal_free_policy@@@@QEAA@XZ 0000000140037fb4 f i libucrt:wsetlocale.obj
 0001:00036fd0       ??1?$__crt_unique_heap_ptr@U__crt_locale_pointers@@U__crt_internal_free_policy@@@@QEAA@XZ 0000000140037fd0 f i libucrt:wsetlocale.obj
 0001:00036fec       ??1?$__crt_unique_heap_ptr@U__crt_multibyte_data@@U__crt_internal_free_policy@@@@QEAA@XZ 0000000140037fec f i libucrt:wsetlocale.obj
 0001:00037008       ??1_expandlocale_locale_name_cache@@QEAA@XZ 0000000140038008 f i libucrt:wsetlocale.obj
 0001:00037050       ??B?$__crt_unique_heap_ptr@U__crt_locale_data@@U__crt_internal_free_policy@@@@QEBA_NXZ 0000000140038050 f i libucrt:wsetlocale.obj
 0001:00037058       ??B?$__crt_unique_heap_ptr@U__crt_locale_pointers@@U__crt_internal_free_policy@@@@QEBA_NXZ 0000000140038058 f i libucrt:wsetlocale.obj
 0001:00037060       ??B?$__crt_unique_heap_ptr@U__crt_multibyte_data@@U__crt_internal_free_policy@@@@QEBA_NXZ 0000000140038060 f i libucrt:wsetlocale.obj
 0001:000372e0       ?commit_locale_name@_expandlocale_locale_name_cache@@QEAAXQEB_W_K@Z 00000001400382e0 f i libucrt:wsetlocale.obj
 0001:00037358       ?commit_locale_name_cache_already_updated@_expandlocale_locale_name_cache@@QEAAXQEB_W_K@Z 0000000140038358 f i libucrt:wsetlocale.obj
 0001:00037398       ?detach@?$__crt_unique_heap_ptr@U__crt_locale_data@@U__crt_internal_free_policy@@@@QEAAPEAU__crt_locale_data@@XZ 0000000140038398 f i libucrt:wsetlocale.obj
 0001:000373a0       ?detach@?$__crt_unique_heap_ptr@U__crt_locale_pointers@@U__crt_internal_free_policy@@@@QEAAPEAU__crt_locale_pointers@@XZ 00000001400383a0 f i libucrt:wsetlocale.obj
 0001:000373a8       ?detach@?$__crt_unique_heap_ptr@U__crt_multibyte_data@@U__crt_internal_free_policy@@@@QEAAPEAU__crt_multibyte_data@@XZ 00000001400383a8 f i libucrt:wsetlocale.obj
 0001:000373b0       ?get@?$__crt_unique_heap_ptr@U__crt_locale_data@@U__crt_internal_free_policy@@@@QEBAPEAU__crt_locale_data@@XZ 00000001400383b0 f i libucrt:wsetlocale.obj
 0001:000373b4       ?get@?$__crt_unique_heap_ptr@U__crt_locale_pointers@@U__crt_internal_free_policy@@@@QEBAPEAU__crt_locale_pointers@@XZ 00000001400383b4 f i libucrt:wsetlocale.obj
 0001:000373b8       ?get@?$__crt_unique_heap_ptr@U__crt_multibyte_data@@U__crt_internal_free_policy@@@@QEBAPEAU__crt_multibyte_data@@XZ 00000001400383b8 f i libucrt:wsetlocale.obj
 0001:000373bc       ?is_valid@?$__crt_unique_heap_ptr@U__crt_locale_data@@U__crt_internal_free_policy@@@@QEBA_NXZ 00000001400383bc f i libucrt:wsetlocale.obj
 0001:000373c4       ?is_valid@?$__crt_unique_heap_ptr@U__crt_locale_pointers@@U__crt_internal_free_policy@@@@QEBA_NXZ 00000001400383c4 f i libucrt:wsetlocale.obj
 0001:000373cc       ?is_valid@?$__crt_unique_heap_ptr@U__crt_multibyte_data@@U__crt_internal_free_policy@@@@QEBA_NXZ 00000001400383cc f i libucrt:wsetlocale.obj
 0001:000373d4       ?release@?$__crt_unique_heap_ptr@U__crt_locale_data@@U__crt_internal_free_policy@@@@QEAAXXZ 00000001400383d4 f i libucrt:wsetlocale.obj
 0001:000373f0       ?release@?$__crt_unique_heap_ptr@U__crt_locale_pointers@@U__crt_internal_free_policy@@@@QEAAXXZ 00000001400383f0 f i libucrt:wsetlocale.obj
 0001:0003740c       ?release@?$__crt_unique_heap_ptr@U__crt_multibyte_data@@U__crt_internal_free_policy@@@@QEAAXXZ 000000014003840c f i libucrt:wsetlocale.obj
 0001:00037428       ?value@?$dual_state_global@PEAU__crt_locale_data@@@__crt_state_management@@QEAAAEAPEAU__crt_locale_data@@XZ 0000000140038428 f i libucrt:wsetlocale.obj
 0001:0003742c       __acrt_copy_locale_name    000000014003842c f   libucrt:wsetlocale.obj
 0001:000374b0       __acrt_set_locale_changed  00000001400384b0 f   libucrt:wsetlocale.obj
 0001:000374bc       __acrt_uninitialize_locale 00000001400384bc f   libucrt:wsetlocale.obj
 0001:000374ec       __ascii_tolower            00000001400384ec f i libucrt:wsetlocale.obj
 0001:000374fc       __ascii_towlower           00000001400384fc f i libucrt:wsetlocale.obj
 0001:0003750c       __lc_lctowcs               000000014003850c f   libucrt:wsetlocale.obj
 0001:000375b0       __lc_wcstolc               00000001400385b0 f   libucrt:wsetlocale.obj
 0001:00037718       _configthreadlocale        0000000140038718 f   libucrt:wsetlocale.obj
 0001:00037844       _create_locale             0000000140038844 f   libucrt:wsetlocale.obj
 0001:00037d3c       _free_locale               0000000140038d3c f   libucrt:wsetlocale.obj
 0001:00037de0       _get_current_locale        0000000140038de0 f   libucrt:wsetlocale.obj
 0001:00037e9c       _wcreate_locale            0000000140038e9c f   libucrt:wsetlocale.obj
 0001:00037fe4       _wcscats                   0000000140038fe4 f   libucrt:wsetlocale.obj
 0001:0003804c       _wsetlocale                000000014003904c f   libucrt:wsetlocale.obj
 0001:00038e68       ?value@?$dual_state_global@J@__crt_state_management@@QEAAAEAJXZ 0000000140039e68 f i libucrt:new_mode.obj
 0001:00038e6c       _query_new_mode            0000000140039e6c f   libucrt:new_mode.obj
 0001:00038e74       _set_new_mode              0000000140039e74 f   libucrt:new_mode.obj
 0001:00038ea0       __p__commode               0000000140039ea0 f   libucrt:ncommode.obj
 0001:00038ea8       ??$?B$$A6AXXZ@__crt_fast_encoded_nullptr_t@@QEBAP6AXXZXZ 0000000140039ea8 f i libucrt:onexit.obj
 0001:00038eb0       ??$?BP6AXXZ@__crt_fast_encoded_nullptr_t@@QEBAPEAP6AXXZXZ 0000000140039eb0 f i libucrt:onexit.obj
 0001:00038eb8       ??$?RP6AXXZ@__crt_internal_free_policy@@QEBAXQEBQ6AXXZ@Z 0000000140039eb8 f i libucrt:onexit.obj
 0001:00038f90       ??$__crt_fast_decode_pointer@P6AXXZ@@YAP6AXXZQ6AXXZ@Z 0000000140039f90 f i libucrt:onexit.obj
 0001:00038fa8       ??$__crt_fast_decode_pointer@PEAP6AXXZ@@YAPEAP6AXXZQEAP6AXXZ@Z 0000000140039fa8 f i libucrt:onexit.obj
 0001:00038fc0       ??$__crt_fast_encode_pointer@P6AHXZ@@YAP6AHXZQ6AHXZ@Z 0000000140039fc0 f i libucrt:onexit.obj
 0001:00038fe0       ??$__crt_fast_encode_pointer@P6AXXZ@@YAP6AXXZQ6AXXZ@Z 0000000140039fe0 f i libucrt:onexit.obj
 0001:00039000       ??$__crt_fast_encode_pointer@PEAP6AXXZ@@YAPEAP6AXXZQEAP6AXXZ@Z 000000014003a000 f i libucrt:onexit.obj
 0001:00039054       ??0?$__crt_unique_heap_ptr@P6AXXZU__crt_internal_free_policy@@@@QEAA@QEAP6AXXZ@Z 000000014003a054 f i libucrt:onexit.obj
 0001:0003905c       ??1?$__crt_unique_heap_ptr@P6AXXZU__crt_internal_free_policy@@@@QEAA@XZ 000000014003a05c f i libucrt:onexit.obj
 0001:00039078       ??1scoped_global_state_reset@__crt_state_management@@QEAA@XZ 000000014003a078 f i libucrt:onexit.obj
 0001:0003936c       ?detach@?$__crt_unique_heap_ptr@P6AXXZU__crt_internal_free_policy@@@@QEAAPEAP6AXXZXZ 000000014003a36c f i libucrt:onexit.obj
 0001:00039374       ?release@?$__crt_unique_heap_ptr@P6AXXZU__crt_internal_free_policy@@@@QEAAXXZ 000000014003a374 f i libucrt:onexit.obj
 0001:00039390       _crt_at_quick_exit         000000014003a390 f   libucrt:onexit.obj
 0001:000393a0       _crt_atexit                000000014003a3a0 f   libucrt:onexit.obj
 0001:000393b0       _execute_onexit_table      000000014003a3b0 f   libucrt:onexit.obj
 0001:000393f4       _initialize_onexit_table   000000014003a3f4 f   libucrt:onexit.obj
 0001:0003941c       _register_onexit_function  000000014003a41c f   libucrt:onexit.obj
 0001:000395a4       ??$?BX@__crt_fast_encoded_nullptr_t@@QEBAPEAXXZ 000000014003a5a4 f i libucrt:initialization.obj
 0001:000395ac       ??$__crt_fast_encode_pointer@PEAX@@YAPEAXQEAX@Z 000000014003a5ac f i libucrt:initialization.obj
 0001:00039668       ?__acrt_stdio_is_initialized@@YA_NXZ 000000014003a668 f i libucrt:initialization.obj
 0001:00039674       ?initialize@?$dual_state_global@PEAU__crt_locale_data@@@__crt_state_management@@QEAAXQEAU__crt_locale_data@@@Z 000000014003a674 f i libucrt:initialization.obj
 0001:00039684       __acrt_initialize          000000014003a684 f   libucrt:initialization.obj
 0001:00039698       __acrt_thread_attach       000000014003a698 f   libucrt:initialization.obj
 0001:000396ac       __acrt_thread_detach       000000014003a6ac f   libucrt:initialization.obj
 0001:000396bc       __acrt_uninitialize        000000014003a6bc f   libucrt:initialization.obj
 0001:000396f4       __acrt_uninitialize_critical 000000014003a6f4 f   libucrt:initialization.obj
 0001:00039718       _get_terminate             000000014003a718 f   libucrt:terminate.obj
 0001:0003973c       set_terminate              000000014003a73c f   libucrt:terminate.obj
 0001:00039768       terminate                  000000014003a768 f   libucrt:terminate.obj
 0001:00039794       free                       000000014003a794 f   libucrt:free.obj
 0001:000397a8       malloc                     000000014003a7a8 f   libucrt:malloc.obj
 0001:00039814       strcpy_s                   000000014003a814 f   libucrt:strcpy_s.obj
 0001:00039874       _set_abort_behavior        000000014003a874 f   libucrt:abort.obj
 0001:00039890       abort                      000000014003a890 f   libucrt:abort.obj
 0001:000398e8       calloc                     000000014003a8e8 f   libucrt:calloc.obj
 0001:000398f0       ??$is_overflow_condition@_K@__crt_strtox@@YA_NI_K@Z 000000014003a8f0 f i libucrt:atox.obj
 0001:00039928       ??$make_c_string_character_source@D$$T@__crt_strtox@@YA?AV?$c_string_character_source@D@0@QEBD$$T@Z 000000014003a928 f i libucrt:atox.obj
 0001:0003993c       ??$make_c_string_character_source@_W$$T@__crt_strtox@@YA?AV?$c_string_character_source@_W@0@QEB_W$$T@Z 000000014003a93c f i libucrt:atox.obj
 0001:00039950       ??$parse_integer@KV?$c_string_character_source@D@__crt_strtox@@$00@__crt_strtox@@YAKAEAV__crt_cached_ptd_host@@V?$c_string_character_source@D@0@H_N@Z 000000014003a950 f i libucrt:atox.obj
 0001:00039c40       ??$parse_integer@KV?$c_string_character_source@_W@__crt_strtox@@$00@__crt_strtox@@YAKAEAV__crt_cached_ptd_host@@V?$c_string_character_source@_W@0@H_N@Z 000000014003ac40 f i libucrt:atox.obj
 0001:0003a3dc       ??$parse_integer@_KV?$c_string_character_source@D@__crt_strtox@@$00@__crt_strtox@@YA_KAEAV__crt_cached_ptd_host@@V?$c_string_character_source@D@0@H_N@Z 000000014003b3dc f i libucrt:atox.obj
 0001:0003a6b8       ??$parse_integer@_KV?$c_string_character_source@_W@__crt_strtox@@$00@__crt_strtox@@YA_KAEAV__crt_cached_ptd_host@@V?$c_string_character_source@_W@0@H_N@Z 000000014003b6b8 f i libucrt:atox.obj
 0001:0003ae3c       ??$parse_integer_from_string@JD$$T@__crt_strtox@@YAJQEBD$$THQEAU__crt_locale_pointers@@@Z 000000014003be3c f i libucrt:atox.obj
 0001:0003aef8       ??$parse_integer_from_string@J_W$$T@__crt_strtox@@YAJQEB_W$$THQEAU__crt_locale_pointers@@@Z 000000014003bef8 f i libucrt:atox.obj
 0001:0003afb4       ??$parse_integer_from_string@_JD$$T@__crt_strtox@@YA_JQEBD$$THQEAU__crt_locale_pointers@@@Z 000000014003bfb4 f i libucrt:atox.obj
 0001:0003b074       ??$parse_integer_from_string@_J_W$$T@__crt_strtox@@YA_JQEB_W$$THQEAU__crt_locale_pointers@@@Z 000000014003c074 f i libucrt:atox.obj
 0001:0003b134       ?is_space@__crt_strtox@@YA_NDQEAU__crt_locale_pointers@@@Z 000000014003c134 f i libucrt:atox.obj
 0001:0003b154       ?is_space@__crt_strtox@@YA_N_WPEAU__crt_locale_pointers@@@Z 000000014003c154 f i libucrt:atox.obj
 0001:0003b16c       ?maximum_signed_value@__crt_strtox@@YA_J_K@Z 000000014003c16c f i libucrt:atox.obj
 0001:0003b178       ?minimum_signed_value@__crt_strtox@@YA_J_K@Z 000000014003c178 f i libucrt:atox.obj
 0001:0003b184       __acrt_get_locale_data_prefix 000000014003c184 f i libucrt:atox.obj
 0001:0003b188       _atoi64                    000000014003c188 f   libucrt:atox.obj
 0001:0003b23c       _atoi64_l                  000000014003c23c f   libucrt:atox.obj
 0001:0003b2f8       _atoi_l                    000000014003c2f8 f   libucrt:atox.obj
 0001:0003b3b4       _atol_l                    000000014003c3b4 f   libucrt:atox.obj
 0001:0003b470       _atoll_l                   000000014003c470 f   libucrt:atox.obj
 0001:0003b52c       _chvalidchk_l              000000014003c52c f i libucrt:atox.obj
 0001:0003b590       _ischartype_l              000000014003c590 f i libucrt:atox.obj
 0001:0003b608       _wtoi                      000000014003c608 f   libucrt:atox.obj
 0001:0003b6b8       _wtoi64                    000000014003c6b8 f   libucrt:atox.obj
 0001:0003b76c       _wtoi64_l                  000000014003c76c f   libucrt:atox.obj
 0001:0003b828       _wtoi_l                    000000014003c828 f   libucrt:atox.obj
 0001:0003b8e4       _wtol                      000000014003c8e4 f   libucrt:atox.obj
 0001:0003b994       _wtol_l                    000000014003c994 f   libucrt:atox.obj
 0001:0003ba50       _wtoll                     000000014003ca50 f   libucrt:atox.obj
 0001:0003bb04       _wtoll_l                   000000014003cb04 f   libucrt:atox.obj
 0001:0003bbc0       atoi                       000000014003cbc0 f   libucrt:atox.obj
 0001:0003bc70       atol                       000000014003cc70 f   libucrt:atox.obj
 0001:0003bd20       atoll                      000000014003cd20 f   libucrt:atox.obj
 0001:0003bdf0       strncmp                    000000014003cdf0 f   libucrt:strncmp.obj
 0001:0003be70       wcsncmp                    000000014003ce70 f   libucrt:wcsncmp.obj
 0001:0003be9c       ??$__crt_fast_decode_pointer@P6AXPEB_W00I_K@Z@@YAP6AXPEB_W00I_K@ZQ6AX000I1@Z@Z 000000014003ce9c f i libucrt:invalid_parameter.obj
 0001:0003beb4       ??$__crt_fast_encode_pointer@P6AXPEB_W00I_K@Z@@YAP6AXPEB_W00I_K@ZQ6AX000I1@Z@Z 000000014003ceb4 f i libucrt:invalid_parameter.obj
 0001:0003bed4       ??$initialize_from_array@$$BY00Q6AXPEB_W00I_K@Z@?$dual_state_global@P6AXPEB_W00I_K@Z@__crt_state_management@@QEAAXAEAY00Q6AXPEB_W00I_K@Z@Z 000000014003ced4 f i libucrt:invalid_parameter.obj
 0001:0003bf4c       ?check_synchronize_global_state_index@__crt_cached_ptd_host@@AEAA_KXZ 000000014003cf4c f i libucrt:invalid_parameter.obj
 0001:0003bf80       ?dangerous_get_state_array@?$dual_state_global@P6AXPEB_W00I_K@Z@__crt_state_management@@QEAAPEAP6AXPEB_W00I_K@ZXZ 000000014003cf80 f i libucrt:invalid_parameter.obj
 0001:0003bf84       ?get_current_global_state_index@__crt_cached_ptd_host@@QEAA_KXZ 000000014003cf84 f i libucrt:invalid_parameter.obj
 0001:0003bfc4       ?get_raw_ptd_noexit@__crt_cached_ptd_host@@QEAAPEAU__acrt_ptd@@XZ 000000014003cfc4 f i libucrt:invalid_parameter.obj
 0001:0003c030       ?try_synchronize_per_thread_data@__crt_cached_ptd_host@@AEAAPEAU__acrt_ptd@@XZ 000000014003d030 f i libucrt:invalid_parameter.obj
 0001:0003c094       ?value@?$dual_state_global@P6AXPEB_W00I_K@Z@__crt_state_management@@QEAAAEAP6AXPEB_W00I_K@ZAEAV__crt_cached_ptd_host@@@Z 000000014003d094 f i libucrt:invalid_parameter.obj
 0001:0003c0e0       ?value@?$dual_state_global@P6AXPEB_W00I_K@Z@__crt_state_management@@QEAAAEAP6AXPEB_W00I_K@ZXZ 000000014003d0e0 f i libucrt:invalid_parameter.obj
 0001:0003c0e4       __acrt_call_reportfault    000000014003d0e4 f   libucrt:invalid_parameter.obj
 0001:0003c240       __acrt_initialize_invalid_parameter_handler 000000014003d240 f   libucrt:invalid_parameter.obj
 0001:0003c248       _get_invalid_parameter_handler 000000014003d248 f   libucrt:invalid_parameter.obj
 0001:0003c264       _get_thread_local_invalid_parameter_handler 000000014003d264 f   libucrt:invalid_parameter.obj
 0001:0003c280       _invalid_parameter         000000014003d280 f   libucrt:invalid_parameter.obj
 0001:0003c31c       _invalid_parameter_internal 000000014003d31c f   libucrt:invalid_parameter.obj
 0001:0003c3e8       _invalid_parameter_noinfo  000000014003d3e8 f   libucrt:invalid_parameter.obj
 0001:0003c408       _invalid_parameter_noinfo_noreturn 000000014003d408 f   libucrt:invalid_parameter.obj
 0001:0003c438       _invoke_watson             000000014003d438 f   libucrt:invalid_parameter.obj
 0001:0003c480       _set_invalid_parameter_handler 000000014003d480 f   libucrt:invalid_parameter.obj
 0001:0003c4b4       _set_thread_local_invalid_parameter_handler 000000014003d4b4 f   libucrt:invalid_parameter.obj
 0001:0003c4dc       ?get_doserrno@__crt_cached_ptd_host@@QEAA@XZ 000000014003d4dc f i libucrt:errno.obj
 0001:0003c4e4       ?set@?$cached@K@__crt_cached_ptd_host@@QEAAKK@Z 000000014003d4e4 f i libucrt:errno.obj
 0001:0003c4f0       __acrt_errno_from_os_error 000000014003d4f0 f   libucrt:errno.obj
 0001:0003c538       __acrt_errno_map_os_error  000000014003d538 f   libucrt:errno.obj
 0001:0003c580       __acrt_errno_map_os_error_ptd 000000014003d580 f   libucrt:errno.obj
 0001:0003c5a4       __doserrno                 000000014003d5a4 f   libucrt:errno.obj
 0001:0003c5c4       _errno                     000000014003d5c4 f   libucrt:errno.obj
 0001:0003c5e4       _get_doserrno              000000014003d5e4 f   libucrt:errno.obj
 0001:0003c620       _get_errno                 000000014003d620 f   libucrt:errno.obj
 0001:0003c65c       _set_doserrno              000000014003d65c f   libucrt:errno.obj
 0001:0003c698       _set_errno                 000000014003d698 f   libucrt:errno.obj
 0001:0003c6d4       _calloc_base               000000014003d6d4 f   libucrt:calloc_base.obj
 0001:0003c754       _free_base                 000000014003d754 f   libucrt:free_base.obj
 0001:0003c7c8       ??$?B$$A6AHPEA_WK_J@Z@__crt_fast_encoded_nullptr_t@@QEBAP6AHPEA_WK_J@ZXZ 000000014003d7c8 f i libucrt:winapi_thunks.obj
 0001:0003c874       ??$__crt_fast_decode_pointer@P6AHPEA_WK_J@Z@@YAP6AHPEA_WK_J@ZQ6AH0K1@Z@Z 000000014003d874 f i libucrt:winapi_thunks.obj
 0001:0003c88c       ??$__crt_fast_decode_pointer@PEAX@@YAPEAXQEAX@Z 000000014003d88c f i libucrt:winapi_thunks.obj
 0001:0003c8a4       ??$__crt_fast_encode_pointer@P6AHPEA_WK_J@Z@@YAP6AHPEA_WK_J@ZQ6AH0K1@Z@Z 000000014003d8a4 f i libucrt:winapi_thunks.obj
 0001:0003d320       GetCurrentThreadEffectiveToken 000000014003e320 f i libucrt:winapi_thunks.obj
 0001:0003d328       __acrt_AppPolicyGetProcessTerminationMethodInternal 000000014003e328 f   libucrt:winapi_thunks.obj
 0001:0003d380       __acrt_AppPolicyGetShowDeveloperDiagnosticInternal 000000014003e380 f   libucrt:winapi_thunks.obj
 0001:0003d3d8       __acrt_AppPolicyGetThreadInitializationTypeInternal 000000014003e3d8 f   libucrt:winapi_thunks.obj
 0001:0003d430       __acrt_AppPolicyGetWindowingModelInternal 000000014003e430 f   libucrt:winapi_thunks.obj
 0001:0003d488       __acrt_AreFileApisANSI     000000014003e488 f   libucrt:winapi_thunks.obj
 0001:0003d4cc       __acrt_CompareStringEx     000000014003e4cc f   libucrt:winapi_thunks.obj
 0001:0003d5b8       __acrt_EnumSystemLocalesEx 000000014003e5b8 f   libucrt:winapi_thunks.obj
 0001:0003d658       __acrt_FlsAlloc            000000014003e658 f   libucrt:winapi_thunks.obj
 0001:0003d660       __acrt_FlsFree             000000014003e660 f   libucrt:winapi_thunks.obj
 0001:0003d668       __acrt_FlsGetValue         000000014003e668 f   libucrt:winapi_thunks.obj
 0001:0003d670       __acrt_FlsSetValue         000000014003e670 f   libucrt:winapi_thunks.obj
 0001:0003d678       __acrt_GetDateFormatEx     000000014003e678 f   libucrt:winapi_thunks.obj
 0001:0003d738       __acrt_GetEnabledXStateFeatures 000000014003e738 f   libucrt:winapi_thunks.obj
 0001:0003d77c       __acrt_GetLocaleInfoEx     000000014003e77c f   libucrt:winapi_thunks.obj
 0001:0003d80c       __acrt_GetSystemTimePreciseAsFileTime 000000014003e80c f   libucrt:winapi_thunks.obj
 0001:0003d864       __acrt_GetTempPath2W       000000014003e864 f   libucrt:winapi_thunks.obj
 0001:0003d8c4       __acrt_GetTimeFormatEx     000000014003e8c4 f   libucrt:winapi_thunks.obj
 0001:0003d978       __acrt_GetUserDefaultLocaleName 000000014003e978 f   libucrt:winapi_thunks.obj
 0001:0003d9e4       __acrt_GetXStateFeaturesMask 000000014003e9e4 f   libucrt:winapi_thunks.obj
 0001:0003da40       __acrt_InitializeCriticalSectionEx 000000014003ea40 f   libucrt:winapi_thunks.obj
 0001:0003dab0       __acrt_IsValidLocaleName   000000014003eab0 f   libucrt:winapi_thunks.obj
 0001:0003db14       __acrt_LCIDToLocaleName    000000014003eb14 f   libucrt:winapi_thunks.obj
 0001:0003db98       __acrt_LCMapStringEx       000000014003eb98 f   libucrt:winapi_thunks.obj
 0001:0003dc84       __acrt_LocaleNameToLCID    000000014003ec84 f   libucrt:winapi_thunks.obj
 0001:0003dce4       __acrt_LocateXStateFeature 000000014003ece4 f   libucrt:winapi_thunks.obj
 0001:0003dd50       __acrt_MessageBoxA         000000014003ed50 f   libucrt:winapi_thunks.obj
 0001:0003ddcc       __acrt_MessageBoxW         000000014003edcc f   libucrt:winapi_thunks.obj
 0001:0003de48       __acrt_RoInitialize        000000014003ee48 f   libucrt:winapi_thunks.obj
 0001:0003de94       __acrt_RoUninitialize      000000014003ee94 f   libucrt:winapi_thunks.obj
 0001:0003ded4       __acrt_RtlGenRandom        000000014003eed4 f   libucrt:winapi_thunks.obj
 0001:0003df30       __acrt_SetThreadStackGuarantee 000000014003ef30 f   libucrt:winapi_thunks.obj
 0001:0003df7c       __acrt_can_show_message_box 000000014003ef7c f   libucrt:winapi_thunks.obj
 0001:0003dfec       __acrt_can_use_vista_locale_apis 000000014003efec f   libucrt:winapi_thunks.obj
 0001:0003e01c       __acrt_can_use_xstate_apis 000000014003f01c f   libucrt:winapi_thunks.obj
 0001:0003e04c       __acrt_eagerly_load_locale_apis 000000014003f04c f   libucrt:winapi_thunks.obj
 0001:0003e1a8       __acrt_get_parent_window   000000014003f1a8 f   libucrt:winapi_thunks.obj
 0001:0003e234       __acrt_initialize_winapi_thunks 000000014003f234 f   libucrt:winapi_thunks.obj
 0001:0003e258       __acrt_is_interactive      000000014003f258 f   libucrt:winapi_thunks.obj
 0001:0003e338       __acrt_uninitialize_winapi_thunks 000000014003f338 f   libucrt:winapi_thunks.obj
 0001:0003e37c       ??0__crt_stdio_stream@@QEAA@QEAU__crt_stdio_stream_data@@@Z 000000014003f37c f i libucrt:closeall.obj
 0001:0003e384       ?is_in_use@__crt_stdio_stream@@QEBA_NXZ 000000014003f384 f i libucrt:closeall.obj
 0001:0003e394       _fcloseall                 000000014003f394 f   libucrt:closeall.obj
 0001:0003e858       ?__acrt_stdio_reset_buffer@@YAXV__crt_stdio_stream@@@Z 000000014003f858 f i libucrt:fflush.obj
 0001:0003e948       ?has_all_of@__crt_stdio_stream@@QEBA_NJ@Z 000000014003f948 f i libucrt:fflush.obj
 0001:0003e994       ?set_flags@__crt_stdio_stream@@QEBA_NJ@Z 000000014003f994 f i libucrt:fflush.obj
 0001:0003e9b4       ?unset_flags@__crt_stdio_stream@@QEBA_NJ@Z 000000014003f9b4 f i libucrt:fflush.obj
 0001:0003e9dc       __acrt_stdio_flush_nolock  000000014003f9dc f   libucrt:fflush.obj
 0001:0003ea68       _fflush_nolock             000000014003fa68 f   libucrt:fflush.obj
 0001:0003eb3c       _flushall                  000000014003fb3c f   libucrt:fflush.obj
 0001:0003eb44       fflush                     000000014003fb44 f   libucrt:fflush.obj
 0001:0003ebac       ?has_any_of@__crt_stdio_stream@@QEBA_NJ@Z 000000014003fbac f i libucrt:_freebuf.obj
 0001:0003ebbc       ?has_crt_buffer@__crt_stdio_stream@@QEBA_NXZ 000000014003fbbc f i libucrt:_freebuf.obj
 0001:0003ebcc       __acrt_stdio_free_buffer_nolock 000000014003fbcc f   libucrt:_freebuf.obj
 0001:0003ee24       __acrt_initialize_lowio    000000014003fe24 f   libucrt:ioinit.obj
 0001:0003ee60       __acrt_uninitialize_lowio  000000014003fe60 f   libucrt:ioinit.obj
 0001:0003eea0       ?lowio_handle@__crt_stdio_stream@@QEBAHXZ 000000014003fea0 f i libucrt:fileno.obj
 0001:0003eea8       _fileno                    000000014003fea8 f   libucrt:fileno.obj
 0001:0003f038       _fputc_nolock              0000000140040038 f   libucrt:fputc.obj
 0001:0003f0e4       _fputc_nolock_internal     00000001400400e4 f   libucrt:fputc.obj
 0001:0003f0fc       _fputchar                  00000001400400fc f   libucrt:fputc.obj
 0001:0003f120       _putc_nolock               0000000140040120 f   libucrt:fputc.obj
 0001:0003f128       fputc                      0000000140040128 f   libucrt:fputc.obj
 0001:0003f1c0       putc                       00000001400401c0 f   libucrt:fputc.obj
 0001:0003f1c8       putchar                    00000001400401c8 f   libucrt:fputc.obj
 0001:0003f304       ?has_any_buffer@__crt_stdio_stream@@QEBA_NXZ 0000000140040304 f i libucrt:fwrite.obj
 0001:0003f318       ?has_big_buffer@__crt_stdio_stream@@QEBA_NXZ 0000000140040318 f i libucrt:fwrite.obj
 0001:0003f328       _fwrite_internal           0000000140040328 f   libucrt:fwrite.obj
 0001:0003f3c4       _fwrite_nolock             00000001400403c4 f   libucrt:fwrite.obj
 0001:0003f468       _fwrite_nolock_internal    0000000140040468 f   libucrt:fwrite.obj
 0001:0003f67c       fwrite                     000000014004067c f   libucrt:fwrite.obj
 0001:0003f720       ?has_temporary_buffer@__crt_stdio_stream@@QEBA_NXZ 0000000140040720 f i libucrt:_sftbuf.obj
 0001:0003f730       __acrt_should_use_temporary_buffer 0000000140040730 f   libucrt:_sftbuf.obj
 0001:0003f77c       __acrt_stdio_begin_temporary_buffering_nolock 000000014004077c f   libucrt:_sftbuf.obj
 0001:0003f844       __acrt_stdio_end_temporary_buffering_nolock 0000000140040844 f   libucrt:_sftbuf.obj
 0001:0003f884       ??$?RU__acrt_ptd@@@__crt_internal_free_policy@@QEBAXQEBU__acrt_ptd@@@Z 0000000140040884 f i libucrt:per_thread_data.obj
 0001:0003fab8       ??0?$__crt_unique_heap_ptr@U__acrt_ptd@@U__crt_internal_free_policy@@@@QEAA@QEAU__acrt_ptd@@@Z 0000000140040ab8 f i libucrt:per_thread_data.obj
 0001:0003fac0       ??1?$__crt_unique_heap_ptr@U__acrt_ptd@@U__crt_internal_free_policy@@@@QEAA@XZ 0000000140040ac0 f i libucrt:per_thread_data.obj
 0001:0003fadc       ??B?$__crt_unique_heap_ptr@U__acrt_ptd@@U__crt_internal_free_policy@@@@QEBA_NXZ 0000000140040adc f i libucrt:per_thread_data.obj
 0001:0003fd30       ?dangerous_get_state_array@?$dual_state_global@PEAU__crt_locale_data@@@__crt_state_management@@QEAAPEAPEAU__crt_locale_data@@XZ 0000000140040d30 f i libucrt:per_thread_data.obj
 0001:0003ff44       ?detach@?$__crt_unique_heap_ptr@U__acrt_ptd@@U__crt_internal_free_policy@@@@QEAAPEAU__acrt_ptd@@XZ 0000000140040f44 f i libucrt:per_thread_data.obj
 0001:0003ff4c       ?get@?$__crt_unique_heap_ptr@U__acrt_ptd@@U__crt_internal_free_policy@@@@QEBAPEAU__acrt_ptd@@XZ 0000000140040f4c f i libucrt:per_thread_data.obj
 0001:0004016c       ?is_valid@?$__crt_unique_heap_ptr@U__acrt_ptd@@U__crt_internal_free_policy@@@@QEBA_NXZ 000000014004116c f i libucrt:per_thread_data.obj
 0001:00040174       ?release@?$__crt_unique_heap_ptr@U__acrt_ptd@@U__crt_internal_free_policy@@@@QEAAXXZ 0000000140041174 f i libucrt:per_thread_data.obj
 0001:0004020c       __acrt_freeptd             000000014004120c f   libucrt:per_thread_data.obj
 0001:00040250       __acrt_getptd              0000000140041250 f   libucrt:per_thread_data.obj
 0001:00040324       __acrt_getptd_head         0000000140041324 f   libucrt:per_thread_data.obj
 0001:000403c8       __acrt_getptd_noexit       00000001400413c8 f   libucrt:per_thread_data.obj
 0001:00040490       __acrt_getptd_noexit_explicit 0000000140041490 f   libucrt:per_thread_data.obj
 0001:00040550       __acrt_initialize_ptd      0000000140041550 f   libucrt:per_thread_data.obj
 0001:0004058c       __acrt_uninitialize_ptd    000000014004158c f   libucrt:per_thread_data.obj
 0001:000405b0       __threadhandle             00000001400415b0 f   libucrt:per_thread_data.obj
 0001:000405b8       __threadid                 00000001400415b8 f   libucrt:per_thread_data.obj
 0001:000405c0       __p___mb_cur_max           00000001400415c0 f   libucrt:nlsdata.obj
 0001:000405f0       _malloc_base               00000001400415f0 f   libucrt:malloc_base.obj
 0001:00040f04       ??1?$__crt_simd_cleanup_guard@$00@@QEAA@XZ 0000000140041f04 f i libucrt:strnlen.obj
 0001:00040f08       ??1?$__crt_simd_cleanup_guard@$0A@@@QEAA@XZ 0000000140041f08 f i libucrt:strnlen.obj
 0001:00040f0c       ?compare_equals@?$__crt_simd_traits@$00E@@SA?AT__m256i@@T2@0@Z 0000000140041f0c f i libucrt:strnlen.obj
 0001:00040f18       ?compare_equals@?$__crt_simd_traits@$00G@@SA?AT__m256i@@T2@0@Z 0000000140041f18 f i libucrt:strnlen.obj
 0001:00040f24       ?compare_equals@?$__crt_simd_traits@$0A@E@@SA?AT__m128i@@T2@0@Z 0000000140041f24 f i libucrt:strnlen.obj
 0001:00040f30       ?compare_equals@?$__crt_simd_traits@$0A@G@@SA?AT__m128i@@T2@0@Z 0000000140041f30 f i libucrt:strnlen.obj
 0001:00040f3c       ?compute_byte_mask@?$__crt_simd_pack_traits@$00@@SAHT__m256i@@@Z 0000000140041f3c f i libucrt:strnlen.obj
 0001:00040f48       ?compute_byte_mask@?$__crt_simd_pack_traits@$0A@@@SAHT__m128i@@@Z 0000000140041f48 f i libucrt:strnlen.obj
 0001:00040f54       ?get_zero_pack@?$__crt_simd_pack_traits@$00@@SA?AT__m256i@@XZ 0000000140041f54 f i libucrt:strnlen.obj
 0001:00040f5c       ?get_zero_pack@?$__crt_simd_pack_traits@$0A@@@SA?AT__m128i@@XZ 0000000140041f5c f i libucrt:strnlen.obj
 0001:00040f60       strnlen                    0000000140041f60 f   libucrt:strnlen.obj
 0001:000410b0       wcslen                     00000001400420b0 f   libucrt:strnlen.obj
 0001:000411dc       wcsnlen                    00000001400421dc f   libucrt:strnlen.obj
 0001:000413b4       ?value@?$dual_state_global@PEAU__crt_multibyte_data@@@__crt_state_management@@QEAAAEAPEAU__crt_multibyte_data@@XZ 00000001400423b4 f i libucrt:locale_update.obj
 0001:000413b8       ?value_explicit@?$dual_state_global@PEAU__crt_locale_data@@@__crt_state_management@@QEAAAEAPEAU__crt_locale_data@@_K@Z 00000001400423b8 f i libucrt:locale_update.obj
 0001:000413c0       ?value_explicit@?$dual_state_global@PEAU__crt_multibyte_data@@@__crt_state_management@@QEAAAEAPEAU__crt_multibyte_data@@_K@Z 00000001400423c0 f i libucrt:locale_update.obj
 0001:000413c8       __acrt_should_sync_with_global_locale 00000001400423c8 f i libucrt:locale_update.obj
 0001:000413d8       __acrt_update_locale_info  00000001400423d8 f   libucrt:locale_update.obj
 0001:0004140c       __acrt_update_locale_info_explicit 000000014004240c f   libucrt:locale_update.obj
 0001:00041444       __acrt_update_multibyte_info 0000000140042444 f   libucrt:locale_update.obj
 0001:00041478       __acrt_update_multibyte_info_explicit 0000000140042478 f   libucrt:locale_update.obj
 0001:000414b0       ?__acrt_fp_classify@@YA?AW4__acrt_fp_class@@AEBN@Z 00000001400424b0 f i libucrt:cvt.obj
 0001:0004150c       ?__acrt_fp_is_negative@@YA_NAEBN@Z 000000014004250c f i libucrt:cvt.obj
 0001:00042178       ?strrchr@@YAPEADQEADH@Z    0000000140043178 f i libucrt:cvt.obj
 0001:00042180       __acrt_fp_format           0000000140043180 f   libucrt:cvt.obj
 0001:00042468       ?value_or@?$cached@H@__crt_cached_ptd_host@@QEBAHH@Z 0000000140043468 f i libucrt:wctomb.obj
 0001:00042474       _wctomb_internal           0000000140043474 f   libucrt:wctomb.obj
 0001:00042624       _wctomb_l                  0000000140043624 f   libucrt:wctomb.obj
 0001:00042710       _wctomb_s_l                0000000140043710 f   libucrt:wctomb.obj
 0001:000427c0       wctomb                     00000001400437c0 f   libucrt:wctomb.obj
 0001:00042888       wctomb_s                   0000000140043888 f   libucrt:wctomb.obj
 0001:00042928       _isleadbyte_fast_internal  0000000140043928 f i libucrt:mbtowc.obj
 0001:00042940       _mbtowc_internal           0000000140043940 f   libucrt:mbtowc.obj
 0001:00042ab8       _mbtowc_l                  0000000140043ab8 f   libucrt:mbtowc.obj
 0001:00042b5c       mbtowc                     0000000140043b5c f   libucrt:mbtowc.obj
 0001:00042bf4       _get_printf_count_output   0000000140043bf4 f   libucrt:printf_count_output.obj
 0001:00042c0c       _set_printf_count_output   0000000140043c0c f   libucrt:printf_count_output.obj
 0001:00042cd0       _fputwc_nolock             0000000140043cd0 f   libucrt:fputwc.obj
 0001:00042d6c       _fputwc_nolock_internal    0000000140043d6c f   libucrt:fputwc.obj
 0001:00042ef8       _fputwchar                 0000000140043ef8 f   libucrt:fputwc.obj
 0001:00042f1c       _putwc_nolock              0000000140043f1c f   libucrt:fputwc.obj
 0001:00042f24       fputwc                     0000000140043f24 f   libucrt:fputwc.obj
 0001:00042fc0       putwc                      0000000140043fc0 f   libucrt:fputwc.obj
 0001:00042fc8       putwchar                   0000000140043fc8 f   libucrt:fputwc.obj
 0001:00042fd0       _set_error_mode            0000000140043fd0 f   libucrt:set_error_mode.obj
 0001:00043094       wcscat_s                   0000000140044094 f   libucrt:wcscat_s.obj
 0001:00043178       wcscpy_s                   0000000140044178 f   libucrt:wcscpy_s.obj
 0001:000432d4       wcsncpy_s                  00000001400442d4 f   libucrt:wcsncpy_s.obj
 0001:00043518       ??$message_box@$$TAEBQEBDAEBQEBDK@?$__crt_char_traits@D@@SAH$$QEA$$TAEBQEBD1$$QEAK@Z 0000000140044518 f i libucrt:crtmbox.obj
 0001:0004352c       ??$message_box@$$TAEBQEB_WAEBQEB_WK@?$__crt_char_traits@_W@@SAH$$QEA$$TAEBQEB_W1$$QEAK@Z 000000014004452c f i libucrt:crtmbox.obj
 0001:00043540       ??$message_box@PEAUHWND__@@AEBQEBDAEBQEBDAEBI@?$__crt_char_traits@D@@SAH$$QEAPEAUHWND__@@AEBQEBD1AEBI@Z 0000000140044540 f i libucrt:crtmbox.obj
 0001:00043554       ??$message_box@PEAUHWND__@@AEBQEB_WAEBQEB_WAEBI@?$__crt_char_traits@_W@@SAH$$QEAPEAUHWND__@@AEBQEB_W1AEBI@Z 0000000140044554 f i libucrt:crtmbox.obj
 0001:00043568       ??$output_debug_string@AEBQEBD@?$__crt_char_traits@D@@SAXAEBQEBD@Z 0000000140044568 f i libucrt:crtmbox.obj
 0001:00043570       ??$output_debug_string@AEBQEB_W@?$__crt_char_traits@_W@@SAXAEBQEB_W@Z 0000000140044570 f i libucrt:crtmbox.obj
 0001:0004357c       __acrt_show_narrow_message_box 000000014004457c f   libucrt:crtmbox.obj
 0001:00043620       __acrt_show_wide_message_box 0000000140044620 f   libucrt:crtmbox.obj
 0001:000436ec       ??$__acrt_convert_wcs_mbs_cp@D_WV<lambda_7c9dea7b4ca7285d2cdb541a38da6275>@@U__crt_win32_buffer_internal_dynamic_resizing@@@@YAHQEBDAEAV?$__crt_win32_buffer@_WU__crt_win32_buffer_internal_dynamic_resizing@@@@AEBV<lambda_7c9dea7b4ca7285d2cdb541a38da6275>@@I@Z 00000001400446ec f i libucrt:argv_wildcards.obj
 0001:00043868       ??$__acrt_convert_wcs_mbs_cp@_WDV<lambda_d8593a27d1aa8c02be35c86a17d324c4>@@U__crt_win32_buffer_internal_dynamic_resizing@@@@YAHQEB_WAEAV?$__crt_win32_buffer@DU__crt_win32_buffer_internal_dynamic_resizing@@@@AEBV<lambda_d8593a27d1aa8c02be35c86a17d324c4>@@I@Z 0000000140044868 f i libucrt:argv_wildcards.obj
 0001:000439f4       ??$__acrt_mbs_to_wcs_cp@U__crt_win32_buffer_internal_dynamic_resizing@@@@YAHQEBDAEAV?$__crt_win32_buffer@_WU__crt_win32_buffer_internal_dynamic_resizing@@@@I@Z 00000001400449f4 f i libucrt:argv_wildcards.obj
 0001:00043a04       ??$__acrt_wcs_to_mbs_cp@U__crt_win32_buffer_internal_dynamic_resizing@@@@YAHQEB_WAEAV?$__crt_win32_buffer@DU__crt_win32_buffer_internal_dynamic_resizing@@@@I@Z 0000000140044a04 f i libucrt:argv_wildcards.obj
 0001:00044834       ??$tcslen@AEBQEBD@?$__crt_char_traits@D@@SA_KAEBQEBD@Z 0000000140045834 f i libucrt:argv_wildcards.obj
 0001:00044848       ??$tcslen@AEBQEB_W@?$__crt_char_traits@_W@@SA_KAEBQEB_W@Z 0000000140045848 f i libucrt:argv_wildcards.obj
 0001:0004485c       ??$tcsncpy_s@AEAPEAD_KAEAPEADAEB_K@?$__crt_char_traits@D@@SAHAEAPEAD$$QEA_K0AEB_K@Z 000000014004585c f i libucrt:argv_wildcards.obj
 0001:00044870       ??$tcsncpy_s@AEAPEA_W_KAEAPEA_WAEB_K@?$__crt_char_traits@_W@@SAHAEAPEA_W$$QEA_K0AEB_K@Z 0000000140045870 f i libucrt:argv_wildcards.obj
 0001:00044884       ??$tcsncpy_s@PEADAEB_KAEBQEBDAEB_K@?$__crt_char_traits@D@@SAH$$QEAPEADAEB_KAEBQEBD1@Z 0000000140045884 f i libucrt:argv_wildcards.obj
 0001:00044898       ??$tcsncpy_s@PEAD_KAEBQEBDAEB_K@?$__crt_char_traits@D@@SAH$$QEAPEAD$$QEA_KAEBQEBDAEB_K@Z 0000000140045898 f i libucrt:argv_wildcards.obj
 0001:000448ac       ??$tcsncpy_s@PEA_WAEB_KAEBQEB_WAEB_K@?$__crt_char_traits@_W@@SAH$$QEAPEA_WAEB_KAEBQEB_W1@Z 00000001400458ac f i libucrt:argv_wildcards.obj
 0001:000448c0       ??$tcsncpy_s@PEA_W_KAEBQEB_WAEB_K@?$__crt_char_traits@_W@@SAH$$QEAPEA_W$$QEA_KAEBQEB_WAEB_K@Z 00000001400458c0 f i libucrt:argv_wildcards.obj
 0001:000448d4       ??$tcspbrk@AEAPEADAEAY02$$CBD@?$__crt_char_traits@D@@SAPEADAEAPEADAEAY02$$CBD@Z 00000001400458d4 f i libucrt:argv_wildcards.obj
 0001:000448dc       ??$tcspbrk@AEAPEA_WAEAY02$$CB_W@?$__crt_char_traits@_W@@SAPEA_WAEAPEA_WAEAY02$$CB_W@Z 00000001400458dc f i libucrt:argv_wildcards.obj
 0001:000448e4       ??0?$__crt_unique_handle_t@U__crt_findfile_traits@@@@QEAA@QEAX@Z 00000001400458e4 f i libucrt:argv_wildcards.obj
 0001:000448ec       ??0?$__crt_win32_buffer@DU__crt_win32_buffer_internal_dynamic_resizing@@@@QEAA@XZ 00000001400458ec f i libucrt:argv_wildcards.obj
 0001:00044908       ??0?$__crt_win32_buffer@_WU__crt_win32_buffer_internal_dynamic_resizing@@@@QEAA@XZ 0000000140045908 f i libucrt:argv_wildcards.obj
 0001:0004494c       ??0_LocaleUpdate@@QEAA@QEAU__crt_locale_pointers@@@Z 000000014004594c f i libucrt:argv_wildcards.obj
 0001:000449e8       ??1?$__crt_unique_handle_t@U__crt_findfile_traits@@@@QEAA@XZ 00000001400459e8 f i libucrt:argv_wildcards.obj
 0001:00044a0c       ??1?$__crt_win32_buffer@DU__crt_win32_buffer_internal_dynamic_resizing@@@@QEAA@XZ 0000000140045a0c f i libucrt:argv_wildcards.obj
 0001:00044a30       ??1?$__crt_win32_buffer@_WU__crt_win32_buffer_internal_dynamic_resizing@@@@QEAA@XZ 0000000140045a30 f i libucrt:argv_wildcards.obj
 0001:00044acc       ??1_LocaleUpdate@@QEAA@XZ  0000000140045acc f i libucrt:argv_wildcards.obj
 0001:00044af0       ??R<lambda_7c9dea7b4ca7285d2cdb541a38da6275>@@QEBA@IQEBDQEA_W_K@Z 0000000140045af0 f i libucrt:argv_wildcards.obj
 0001:00044b80       ??R<lambda_d8593a27d1aa8c02be35c86a17d324c4>@@QEBA@IQEB_WQEAD_K@Z 0000000140045b80 f i libucrt:argv_wildcards.obj
 0001:00044bb0       ?GetLocaleT@_LocaleUpdate@@QEAAPEAU__crt_locale_pointers@@XZ 0000000140045bb0 f i libucrt:argv_wildcards.obj
 0001:00044bb8       ?__acrt_get_utf8_acp_compatibility_codepage@@YAIXZ 0000000140045bb8 f i libucrt:argv_wildcards.obj
 0001:00044c04       ?_deallocate@?$__crt_win32_buffer@DU__crt_win32_buffer_internal_dynamic_resizing@@@@AEAAXXZ 0000000140045c04 f i libucrt:argv_wildcards.obj
 0001:00044c28       ?_deallocate@?$__crt_win32_buffer@_WU__crt_win32_buffer_internal_dynamic_resizing@@@@AEAAXXZ 0000000140045c28 f i libucrt:argv_wildcards.obj
 0001:00044c4c       ?allocate@?$__crt_win32_buffer@DU__crt_win32_buffer_internal_dynamic_resizing@@@@QEAAH_K@Z 0000000140045c4c f i libucrt:argv_wildcards.obj
 0001:00044cb0       ?allocate@?$__crt_win32_buffer@_WU__crt_win32_buffer_internal_dynamic_resizing@@@@QEAAH_K@Z 0000000140045cb0 f i libucrt:argv_wildcards.obj
 0001:00044d14       ?allocate@__crt_win32_buffer_internal_dynamic_resizing@@SAHQEAPEAX_KAEBV__crt_win32_buffer_empty_debug_info@@@Z 0000000140045d14 f i libucrt:argv_wildcards.obj
 0001:00044f00       ?capacity@?$__crt_win32_buffer@DU__crt_win32_buffer_internal_dynamic_resizing@@@@QEBA_KXZ 0000000140045f00 f i libucrt:argv_wildcards.obj
 0001:00044f08       ?capacity@?$__crt_win32_buffer@_WU__crt_win32_buffer_internal_dynamic_resizing@@@@QEBA_KXZ 0000000140045f08 f i libucrt:argv_wildcards.obj
 0001:00044f10       ?close@?$__crt_unique_handle_t@U__crt_findfile_traits@@@@QEAAXXZ 0000000140045f10 f i libucrt:argv_wildcards.obj
 0001:00044f34       ?close@__crt_findfile_traits@@SA_NPEAX@Z 0000000140045f34 f i libucrt:argv_wildcards.obj
 0001:00044f48       ?data@?$__crt_win32_buffer@DU__crt_win32_buffer_internal_dynamic_resizing@@@@QEAAPEADXZ 0000000140045f48 f i libucrt:argv_wildcards.obj
 0001:00044f50       ?data@?$__crt_win32_buffer@_WU__crt_win32_buffer_internal_dynamic_resizing@@@@QEAAPEA_WXZ 0000000140045f50 f i libucrt:argv_wildcards.obj
 0001:00044f58       ?deallocate@__crt_win32_buffer_internal_dynamic_resizing@@SAXQEAXAEBV__crt_win32_buffer_empty_debug_info@@@Z 0000000140045f58 f i libucrt:argv_wildcards.obj
 0001:00044f60       ?debug_info@?$__crt_win32_buffer@DU__crt_win32_buffer_internal_dynamic_resizing@@@@QEBAAEBV__crt_win32_buffer_empty_debug_info@@XZ 0000000140045f60 f i libucrt:argv_wildcards.obj
 0001:00044f64       ?debug_info@?$__crt_win32_buffer@_WU__crt_win32_buffer_internal_dynamic_resizing@@@@QEBAAEBV__crt_win32_buffer_empty_debug_info@@XZ 0000000140045f64 f i libucrt:argv_wildcards.obj
 0001:00045108       ?get@?$__crt_unique_handle_t@U__crt_findfile_traits@@@@QEBAPEAXXZ 0000000140046108 f i libucrt:argv_wildcards.obj
 0001:000451b4       ?get_invalid_value@__crt_findfile_traits@@SAPEAXXZ 00000001400461b4 f i libucrt:argv_wildcards.obj
 0001:00045274       ?set_to_nullptr@?$__crt_win32_buffer@DU__crt_win32_buffer_internal_dynamic_resizing@@@@QEAAXXZ 0000000140046274 f i libucrt:argv_wildcards.obj
 0001:000452b0       ?set_to_nullptr@?$__crt_win32_buffer@_WU__crt_win32_buffer_internal_dynamic_resizing@@@@QEAAXXZ 00000001400462b0 f i libucrt:argv_wildcards.obj
 0001:000452ec       ?size@?$__crt_win32_buffer@DU__crt_win32_buffer_internal_dynamic_resizing@@@@QEAAX_K@Z 00000001400462ec f i libucrt:argv_wildcards.obj
 0001:000452f4       ?size@?$__crt_win32_buffer@_WU__crt_win32_buffer_internal_dynamic_resizing@@@@QEAAX_K@Z 00000001400462f4 f i libucrt:argv_wildcards.obj
 0001:00045314       ?strpbrk@@YAPEADQEADQEBD@Z 0000000140046314 f i libucrt:argv_wildcards.obj
 0001:0004531c       ?wcspbrk@@YAPEA_WPEA_WPEB_W@Z 000000014004631c f i libucrt:argv_wildcards.obj
 0001:00045324       __acrt_expand_narrow_argv_wildcards 0000000140046324 f   libucrt:argv_wildcards.obj
 0001:0004532c       __acrt_expand_wide_argv_wildcards 000000014004632c f   libucrt:argv_wildcards.obj
 0001:00045334       ??$__acrt_convert_wcs_mbs_cp@_WDV<lambda_f788ae46380686e8b737efdd8c720d07>@@U__crt_win32_buffer_no_resizing@@@@YAHQEB_WAEAV?$__crt_win32_buffer@DU__crt_win32_buffer_no_resizing@@@@AEBV<lambda_f788ae46380686e8b737efdd8c720d07>@@I@Z 0000000140046334 f i libucrt:getmodulefilenamea.obj
 0001:00045450       ??$__acrt_wcs_to_mbs_cp@U__crt_win32_buffer_no_resizing@@@@YAHQEB_WAEAV?$__crt_win32_buffer@DU__crt_win32_buffer_no_resizing@@@@I@Z 0000000140046450 f i libucrt:getmodulefilenamea.obj
 0001:00045460       ??0?$__crt_win32_buffer@DU__crt_win32_buffer_no_resizing@@@@QEAA@QEAD_K@Z 0000000140046460 f i libucrt:getmodulefilenamea.obj
 0001:0004547c       ??1?$__crt_win32_buffer@DU__crt_win32_buffer_no_resizing@@@@QEAA@XZ 000000014004647c f i libucrt:getmodulefilenamea.obj
 0001:00045488       ??R<lambda_f788ae46380686e8b737efdd8c720d07>@@QEBA@IQEB_WQEAD_K@Z 0000000140046488 f i libucrt:getmodulefilenamea.obj
 0001:000454b8       ?_deallocate@?$__crt_win32_buffer@DU__crt_win32_buffer_no_resizing@@@@AEAAXXZ 00000001400464b8 f i libucrt:getmodulefilenamea.obj
 0001:000454c4       ?allocate@?$__crt_win32_buffer@DU__crt_win32_buffer_no_resizing@@@@QEAAH_K@Z 00000001400464c4 f i libucrt:getmodulefilenamea.obj
 0001:000454f4       ?allocate@__crt_win32_buffer_no_resizing@@SAHQEAPEAX_KAEBV__crt_win32_buffer_empty_debug_info@@@Z 00000001400464f4 f i libucrt:getmodulefilenamea.obj
 0001:0004550c       ?capacity@?$__crt_win32_buffer@DU__crt_win32_buffer_no_resizing@@@@QEBA_KXZ 000000014004650c f i libucrt:getmodulefilenamea.obj
 0001:00045514       ?data@?$__crt_win32_buffer@DU__crt_win32_buffer_no_resizing@@@@QEAAPEADXZ 0000000140046514 f i libucrt:getmodulefilenamea.obj
 0001:0004551c       ?deallocate@__crt_win32_buffer_no_resizing@@SAXQEAXAEBV__crt_win32_buffer_empty_debug_info@@@Z 000000014004651c f i libucrt:getmodulefilenamea.obj
 0001:00045520       ?debug_info@?$__crt_win32_buffer@DU__crt_win32_buffer_no_resizing@@@@QEBAAEBV__crt_win32_buffer_empty_debug_info@@XZ 0000000140046520 f i libucrt:getmodulefilenamea.obj
 0001:00045524       ?set_to_nullptr@?$__crt_win32_buffer@DU__crt_win32_buffer_no_resizing@@@@QEAAXXZ 0000000140046524 f i libucrt:getmodulefilenamea.obj
 0001:0004553c       ?size@?$__crt_win32_buffer@DU__crt_win32_buffer_no_resizing@@@@QEAAX_K@Z 000000014004653c f i libucrt:getmodulefilenamea.obj
 0001:00045544       ?size@?$__crt_win32_buffer@DU__crt_win32_buffer_no_resizing@@@@QEBA_KXZ 0000000140046544 f i libucrt:getmodulefilenamea.obj
 0001:0004554c       __acrt_GetModuleFileNameA  000000014004654c f   libucrt:getmodulefilenamea.obj
 0001:00045868       ??$initialize_from_array@$$BY10BAA@E@?$dual_state_global@PEAE@__crt_state_management@@QEAAXAEAY10BAA@E@Z 0000000140046868 f i libucrt:mbctype.obj
 0001:0004586c       ??$initialize_from_array@$$BY10BAB@E@?$dual_state_global@PEAE@__crt_state_management@@QEAAXAEAY10BAB@E@Z 000000014004686c f i libucrt:mbctype.obj
 0001:00045a78       ?dangerous_get_state_array@?$dual_state_global@PEAE@__crt_state_management@@QEAAPEAPEAEXZ 0000000140046a78 f i libucrt:mbctype.obj
 0001:00045a7c       ?dangerous_get_state_array@?$dual_state_global@PEAU__crt_multibyte_data@@@__crt_state_management@@QEAAPEAPEAU__crt_multibyte_data@@XZ 0000000140046a7c f i libucrt:mbctype.obj
 0001:00045b00       ?initialize@?$dual_state_global@PEAU__crt_multibyte_data@@@__crt_state_management@@QEAAXQEAU__crt_multibyte_data@@@Z 0000000140046b00 f i libucrt:mbctype.obj
 0001:000460b8       ?value@?$dual_state_global@PEAE@__crt_state_management@@QEAAAEAPEAEXZ 00000001400470b8 f i libucrt:mbctype.obj
 0001:000460bc       __acrt_initialize_multibyte 00000001400470bc f   libucrt:mbctype.obj
 0001:0004611c       __acrt_update_thread_multibyte_data 000000014004711c f   libucrt:mbctype.obj
 0001:00046138       __p__mbcasemap             0000000140047138 f   libucrt:mbctype.obj
 0001:00046140       __p__mbctype               0000000140047140 f   libucrt:mbctype.obj
 0001:00046148       _getmbcp                   0000000140047148 f   libucrt:mbctype.obj
 0001:00046184       _setmbcp                   0000000140047184 f   libucrt:mbctype.obj
 0001:000461ac       _setmbcp_nolock            00000001400471ac f   libucrt:mbctype.obj
 0001:00046568       _ismbbalnum                0000000140047568 f   libucrt:ismbbyte.obj
 0001:00046580       _ismbbalnum_l              0000000140047580 f   libucrt:ismbbyte.obj
 0001:0004659c       _ismbbalpha                000000014004759c f   libucrt:ismbbyte.obj
 0001:000465b4       _ismbbalpha_l              00000001400475b4 f   libucrt:ismbbyte.obj
 0001:000465d0       _ismbbblank                00000001400475d0 f   libucrt:ismbbyte.obj
 0001:000465ec       _ismbbblank_l              00000001400475ec f   libucrt:ismbbyte.obj
 0001:0004660c       _ismbbgraph                000000014004760c f   libucrt:ismbbyte.obj
 0001:00046624       _ismbbgraph_l              0000000140047624 f   libucrt:ismbbyte.obj
 0001:00046640       _ismbbkalnum               0000000140047640 f   libucrt:ismbbyte.obj
 0001:00046654       _ismbbkalnum_l             0000000140047654 f   libucrt:ismbbyte.obj
 0001:0004666c       _ismbbkana                 000000014004766c f   libucrt:ismbbyte.obj
 0001:00046674       _ismbbkana_l               0000000140047674 f   libucrt:ismbbyte.obj
 0001:000466dc       _ismbbkprint               00000001400476dc f   libucrt:ismbbyte.obj
 0001:000466f0       _ismbbkprint_l             00000001400476f0 f   libucrt:ismbbyte.obj
 0001:00046708       _ismbbkpunct               0000000140047708 f   libucrt:ismbbyte.obj
 0001:0004671c       _ismbbkpunct_l             000000014004771c f   libucrt:ismbbyte.obj
 0001:00046734       _ismbblead                 0000000140047734 f   libucrt:ismbbyte.obj
 0001:00046748       _ismbblead_l               0000000140047748 f   libucrt:ismbbyte.obj
 0001:00046760       _ismbbprint                0000000140047760 f   libucrt:ismbbyte.obj
 0001:00046778       _ismbbprint_l              0000000140047778 f   libucrt:ismbbyte.obj
 0001:00046794       _ismbbpunct                0000000140047794 f   libucrt:ismbbyte.obj
 0001:000467a8       _ismbbpunct_l              00000001400477a8 f   libucrt:ismbbyte.obj
 0001:000467c0       _ismbbtrail                00000001400477c0 f   libucrt:ismbbyte.obj
 0001:000467d4       _ismbbtrail_l              00000001400477d4 f   libucrt:ismbbyte.obj
 0001:00046878       __acrt_MultiByteToWideChar 0000000140047878 f   libucrt:multibytetowidechar.obj
 0001:00046990       __acrt_WideCharToMultiByte 0000000140047990 f   libucrt:widechartomultibyte.obj
 0001:00046b10       __dcrt_get_narrow_environment_from_os 0000000140047b10 f   libucrt:get_environment_from_os.obj
 0001:00046c20       __dcrt_get_wide_environment_from_os 0000000140047c20 f   libucrt:get_environment_from_os.obj
 0001:000476b8       ??$get_or_create_environment_nolock@$$V@?$__crt_char_traits@D@@SAPEAPEADXZ 00000001400486b8 f i libucrt:setenv.obj
 0001:000476c0       ??$get_or_create_environment_nolock@$$V@?$__crt_char_traits@_W@@SAPEAPEA_WXZ 00000001400486c0 f i libucrt:setenv.obj
 0001:000476c8       ??$set_environment_variable@AEBQEADQEAD@?$__crt_char_traits@D@@SAHAEBQEAD$$QEBQEAD@Z 00000001400486c8 f i libucrt:setenv.obj
 0001:000476d4       ??$set_environment_variable@AEBQEA_WQEA_W@?$__crt_char_traits@_W@@SAHAEBQEA_W$$QEBQEA_W@Z 00000001400486d4 f i libucrt:setenv.obj
 0001:000476e4       ??$tcschr@AEBQEADD@?$__crt_char_traits@D@@SAPEADAEBQEAD$$QEAD@Z 00000001400486e4 f i libucrt:setenv.obj
 0001:000476f0       ??$tcschr@AEBQEA_WD@?$__crt_char_traits@_W@@SAPEA_WAEBQEA_W$$QEAD@Z 00000001400486f0 f i libucrt:setenv.obj
 0001:000476fc       ??$tcscpy_s@AEAPEADAEB_KAEAPEAD@?$__crt_char_traits@D@@SAHAEAPEADAEB_K0@Z 00000001400486fc f i libucrt:setenv.obj
 0001:0004770c       ??$tcscpy_s@AEAPEA_WAEB_KAEAPEA_W@?$__crt_char_traits@_W@@SAHAEAPEA_WAEB_K0@Z 000000014004870c f i libucrt:setenv.obj
 0001:0004771c       ??$tcscpy_s@AEBQEADAEB_KAEBQEAD@?$__crt_char_traits@D@@SAHAEBQEADAEB_K0@Z 000000014004871c f i libucrt:setenv.obj
 0001:0004772c       ??$tcscpy_s@AEBQEA_WAEB_KAEBQEA_W@?$__crt_char_traits@_W@@SAHAEBQEA_WAEB_K0@Z 000000014004872c f i libucrt:setenv.obj
 0001:0004773c       ??$tcslen@AEBQEAD@?$__crt_char_traits@D@@SA_KAEBQEAD@Z 000000014004873c f i libucrt:setenv.obj
 0001:00047750       ??$tcslen@AEBQEA_W@?$__crt_char_traits@_W@@SA_KAEBQEA_W@Z 0000000140048750 f i libucrt:setenv.obj
 0001:00047764       ??$tcsnicoll@AEBQEBDAEAPEADAEB_K@?$__crt_char_traits@D@@SAHAEBQEBDAEAPEADAEB_K@Z 0000000140048764 f i libucrt:setenv.obj
 0001:00047774       ??$tcsnicoll@AEBQEB_WAEAPEA_WAEB_K@?$__crt_char_traits@_W@@SAHAEBQEB_WAEAPEA_WAEB_K@Z 0000000140048774 f i libucrt:setenv.obj
 0001:000477b4       ?strchr@@YAPEADQEADH@Z     00000001400487b4 f i libucrt:setenv.obj
 0001:000477bc       ?wcschr@@YAPEA_WPEA_W_W@Z  00000001400487bc f i libucrt:setenv.obj
 0001:000477c4       __dcrt_set_variable_in_narrow_environment_nolock 00000001400487c4 f   libucrt:setenv.obj
 0001:000477cc       __dcrt_set_variable_in_wide_environment_nolock 00000001400487cc f   libucrt:setenv.obj
 0001:000477d4       __acrt_initialize_locks    00000001400487d4 f   libucrt:locks.obj
 0001:0004781c       __acrt_lock                000000014004881c f   libucrt:locks.obj
 0001:00047838       __acrt_uninitialize_locks  0000000140048838 f   libucrt:locks.obj
 0001:00047870       __acrt_unlock              0000000140048870 f   libucrt:locks.obj
 0001:0004788c       _lock_locales              000000014004888c f   libucrt:locks.obj
 0001:000478a8       _unlock_locales            00000001400488a8 f   libucrt:locks.obj
 0001:000478b8       __acrt_app_verifier_enabled 00000001400488b8 f   libucrt:peb_access.obj
 0001:000478d4       __acrt_is_secure_process   00000001400488d4 f   libucrt:peb_access.obj
 0001:00047a78       __acrt_get_begin_thread_init_policy 0000000140048a78 f   libucrt:win_policies.obj
 0001:00047ab8       __acrt_get_developer_information_policy 0000000140048ab8 f   libucrt:win_policies.obj
 0001:00047afc       __acrt_get_process_end_policy 0000000140048afc f   libucrt:win_policies.obj
 0001:00047b2c       __acrt_get_windowing_model_policy 0000000140048b2c f   libucrt:win_policies.obj
 0001:00047b94       ??$?RU__crt_lowio_handle_data@@@__crt_internal_free_policy@@QEBAXQEBU__crt_lowio_handle_data@@@Z 0000000140048b94 f i libucrt:osfinfo.obj
 0001:00047b9c       ??0?$__crt_unique_heap_ptr@U__crt_lowio_handle_data@@U__crt_internal_free_policy@@@@QEAA@QEAU__crt_lowio_handle_data@@@Z 0000000140048b9c f i libucrt:osfinfo.obj
 0001:00047ba4       ??1?$__crt_unique_heap_ptr@U__crt_lowio_handle_data@@U__crt_internal_free_policy@@@@QEAA@XZ 0000000140048ba4 f i libucrt:osfinfo.obj
 0001:00047bc0       ??B?$__crt_unique_heap_ptr@U__crt_lowio_handle_data@@U__crt_internal_free_policy@@@@QEBA_NXZ 0000000140048bc0 f i libucrt:osfinfo.obj
 0001:00047bc8       ?detach@?$__crt_unique_heap_ptr@U__crt_lowio_handle_data@@U__crt_internal_free_policy@@@@QEAAPEAU__crt_lowio_handle_data@@XZ 0000000140048bc8 f i libucrt:osfinfo.obj
 0001:00047bd0       ?get@?$__crt_unique_heap_ptr@U__crt_lowio_handle_data@@U__crt_internal_free_policy@@@@QEBAPEAU__crt_lowio_handle_data@@XZ 0000000140048bd0 f i libucrt:osfinfo.obj
 0001:00047bd4       ?is_valid@?$__crt_unique_heap_ptr@U__crt_lowio_handle_data@@U__crt_internal_free_policy@@@@QEBA_NXZ 0000000140048bd4 f i libucrt:osfinfo.obj
 0001:00047bdc       ?release@?$__crt_unique_heap_ptr@U__crt_lowio_handle_data@@U__crt_internal_free_policy@@@@QEAAXXZ 0000000140048bdc f i libucrt:osfinfo.obj
 0001:00047bf8       __acrt_lowio_create_handle_array 0000000140048bf8 f   libucrt:osfinfo.obj
 0001:00047ca0       __acrt_lowio_destroy_handle_array 0000000140048ca0 f   libucrt:osfinfo.obj
 0001:00047cf0       __acrt_lowio_ensure_fh_exists 0000000140048cf0 f   libucrt:osfinfo.obj
 0001:00047d98       __acrt_lowio_lock_fh       0000000140048d98 f   libucrt:osfinfo.obj
 0001:00047dc0       __acrt_lowio_set_os_handle 0000000140048dc0 f   libucrt:osfinfo.obj
 0001:00047e80       __acrt_lowio_unlock_fh     0000000140048e80 f   libucrt:osfinfo.obj
 0001:00047ea8       _alloc_osfhnd              0000000140048ea8 f   libucrt:osfinfo.obj
 0001:00047fe8       _free_osfhnd               0000000140048fe8 f   libucrt:osfinfo.obj
 0001:000480a4       _get_osfhandle             00000001400490a4 f   libucrt:osfinfo.obj
 0001:0004811c       _open_osfhandle            000000014004911c f   libucrt:osfinfo.obj
 0001:0004821c       ?dangerous_get_state_array@?$dual_state_global@H@__crt_state_management@@QEAAPEAHXZ 000000014004921c f i libucrt:txtmode.obj
 0001:00048220       __acrt_initialize_fmode    0000000140049220 f   libucrt:txtmode.obj
 0001:0004823c       __p__fmode                 000000014004923c f   libucrt:txtmode.obj
 0001:00048244       ??$?RG@__crt_internal_free_policy@@QEBAXQEBG@Z 0000000140049244 f i libucrt:initctype.obj
 0001:0004824c       ??$?RJ@__crt_internal_free_policy@@QEBAXQEBJ@Z 000000014004924c f i libucrt:initctype.obj
 0001:00048254       ??0?$__crt_unique_heap_ptr@GU__crt_internal_free_policy@@@@QEAA@QEAG@Z 0000000140049254 f i libucrt:initctype.obj
 0001:0004825c       ??0?$__crt_unique_heap_ptr@JU__crt_internal_free_policy@@@@QEAA@QEAJ@Z 000000014004925c f i libucrt:initctype.obj
 0001:00048264       ??1?$__crt_unique_heap_ptr@GU__crt_internal_free_policy@@@@QEAA@XZ 0000000140049264 f i libucrt:initctype.obj
 0001:00048280       ??1?$__crt_unique_heap_ptr@JU__crt_internal_free_policy@@@@QEAA@XZ 0000000140049280 f i libucrt:initctype.obj
 0001:0004829c       ?detach@?$__crt_unique_heap_ptr@GU__crt_internal_free_policy@@@@QEAAPEAGXZ 000000014004929c f i libucrt:initctype.obj
 0001:000482a4       ?detach@?$__crt_unique_heap_ptr@JU__crt_internal_free_policy@@@@QEAAPEAJXZ 00000001400492a4 f i libucrt:initctype.obj
 0001:000482ac       ?release@?$__crt_unique_heap_ptr@GU__crt_internal_free_policy@@@@QEAAXXZ 00000001400492ac f i libucrt:initctype.obj
 0001:000482c8       ?release@?$__crt_unique_heap_ptr@JU__crt_internal_free_policy@@@@QEAAXXZ 00000001400492c8 f i libucrt:initctype.obj
 0001:000482e4       ___lc_codepage_func        00000001400492e4 f   libucrt:initctype.obj
 0001:00048314       ___lc_collate_cp_func      0000000140049314 f   libucrt:initctype.obj
 0001:00048344       ___lc_locale_name_func     0000000140049344 f   libucrt:initctype.obj
 0001:00048378       ___mb_cur_max_func         0000000140049378 f   libucrt:initctype.obj
 0001:000483a8       ___mb_cur_max_l_func       00000001400493a8 f   libucrt:initctype.obj
 0001:000483b8       __acrt_locale_initialize_ctype 00000001400493b8 f   libucrt:initctype.obj
 0001:00048a1c       ??$?RUlconv@@@__crt_internal_free_policy@@QEBAXQEBUlconv@@@Z 0000000140049a1c f i libucrt:initmon.obj
 0001:00048a24       ??0?$__crt_unique_heap_ptr@Ulconv@@U__crt_internal_free_policy@@@@QEAA@QEAUlconv@@@Z 0000000140049a24 f i libucrt:initmon.obj
 0001:00048a2c       ??1?$__crt_unique_heap_ptr@Ulconv@@U__crt_internal_free_policy@@@@QEAA@XZ 0000000140049a2c f i libucrt:initmon.obj
 0001:00048a48       ?detach@?$__crt_unique_heap_ptr@Ulconv@@U__crt_internal_free_policy@@@@QEAAPEAUlconv@@XZ 0000000140049a48 f i libucrt:initmon.obj
 0001:00048a50       ?release@?$__crt_unique_heap_ptr@Ulconv@@U__crt_internal_free_policy@@@@QEAAXXZ 0000000140049a50 f i libucrt:initmon.obj
 0001:00048a6c       __acrt_locale_free_monetary 0000000140049a6c f   libucrt:initmon.obj
 0001:00048b78       __acrt_locale_initialize_monetary 0000000140049b78 f   libucrt:initmon.obj
 0001:000490c8       __acrt_locale_free_numeric 000000014004a0c8 f   libucrt:initnum.obj
 0001:00049134       __acrt_locale_initialize_numeric 000000014004a134 f   libucrt:initnum.obj
 0001:00049450       ??$?RU__crt_lc_time_data@@@__crt_internal_free_policy@@QEBAXQEBU__crt_lc_time_data@@@Z 000000014004a450 f i libucrt:inittime.obj
 0001:000494a0       ??0?$__crt_unique_heap_ptr@U__crt_lc_time_data@@U__crt_internal_free_policy@@@@QEAA@QEAU__crt_lc_time_data@@@Z 000000014004a4a0 f i libucrt:inittime.obj
 0001:000494a8       ??1?$__crt_unique_heap_ptr@U__crt_lc_time_data@@U__crt_internal_free_policy@@@@QEAA@XZ 000000014004a4a8 f i libucrt:inittime.obj
 0001:000494c4       ??B?$__crt_unique_heap_ptr@U__crt_lc_time_data@@U__crt_internal_free_policy@@@@QEBA_NXZ 000000014004a4c4 f i libucrt:inittime.obj
 0001:000494cc       ?detach@?$__crt_unique_heap_ptr@U__crt_lc_time_data@@U__crt_internal_free_policy@@@@QEAAPEAU__crt_lc_time_data@@XZ 000000014004a4cc f i libucrt:inittime.obj
 0001:00049508       ?get@?$__crt_unique_heap_ptr@U__crt_lc_time_data@@U__crt_internal_free_policy@@@@QEBAPEAU__crt_lc_time_data@@XZ 000000014004a508 f i libucrt:inittime.obj
 0001:000498cc       ?is_valid@?$__crt_unique_heap_ptr@U__crt_lc_time_data@@U__crt_internal_free_policy@@@@QEBA_NXZ 000000014004a8cc f i libucrt:inittime.obj
 0001:000498d4       ?release@?$__crt_unique_heap_ptr@U__crt_lc_time_data@@U__crt_internal_free_policy@@@@QEAAXXZ 000000014004a8d4 f i libucrt:inittime.obj
 0001:000498f0       __acrt_locale_free_time    000000014004a8f0 f   libucrt:inittime.obj
 0001:000499f8       __acrt_locale_initialize_time 000000014004a9f8 f   libucrt:inittime.obj
 0001:00049a94       __pctype_func              000000014004aa94 f   libucrt:ctype.obj
 0001:00049ac4       __pwctype_func             000000014004aac4 f   libucrt:ctype.obj
 0001:00049bc4       wcsncat_s                  000000014004abc4 f   libucrt:wcsncat_s.obj
 0001:00049cbc       wcscspn                    000000014004acbc f   libucrt:wcscspn.obj
 0001:00049cfc       wcspbrk                    000000014004acfc f   libucrt:wcspbrk.obj
 0001:00049d30       ??0?$__crt_scoped_stack_ptr@_W@@QEAA@U?$__crt_scoped_stack_ptr_tag@_W@@@Z 000000014004ad30 f i libucrt:getstringtypea.obj
 0001:00049d38       ??0?$__crt_scoped_stack_ptr_tag@_W@@QEAA@QEA_W@Z 000000014004ad38 f i libucrt:getstringtypea.obj
 0001:00049d40       ??1?$__crt_scoped_stack_ptr@_W@@QEAA@XZ 000000014004ad40 f i libucrt:getstringtypea.obj
 0001:00049d64       ?get@?$__crt_scoped_stack_ptr@_W@@QEBAPEA_WXZ 000000014004ad64 f i libucrt:getstringtypea.obj
 0001:00049d68       _MallocaComputeSize        000000014004ad68 f i libucrt:getstringtypea.obj
 0001:00049d78       _MarkAllocaS               000000014004ad78 f i libucrt:getstringtypea.obj
 0001:00049d88       __acrt_GetStringTypeA      000000014004ad88 f   libucrt:getstringtypea.obj
 0001:00049f18       _freea_crt                 000000014004af18 f i libucrt:getstringtypea.obj
 0001:00049f38       __acrt_add_locale_ref      000000014004af38 f   libucrt:locale_refcounting.obj
 0001:00049fc4       __acrt_free_locale         000000014004afc4 f   libucrt:locale_refcounting.obj
 0001:0004a13c       __acrt_locale_add_lc_time_reference 000000014004b13c f   libucrt:locale_refcounting.obj
 0001:0004a164       __acrt_locale_free_lc_time_if_unreferenced 000000014004b164 f   libucrt:locale_refcounting.obj
 0001:0004a19c       __acrt_locale_release_lc_time_reference 000000014004b19c f   libucrt:locale_refcounting.obj
 0001:0004a1c4       __acrt_release_locale_ref  000000014004b1c4 f   libucrt:locale_refcounting.obj
 0001:0004a26c       __acrt_update_thread_locale_data 000000014004b26c f   libucrt:locale_refcounting.obj
 0001:0004a2dc       _updatetlocinfoEx_nolock   000000014004b2dc f   libucrt:locale_refcounting.obj
 0001:0004ab90       __acrt_get_qualified_locale 000000014004bb90 f   libucrt:get_qualified_locale.obj
 0001:0004b6a8       __acrt_get_qualified_locale_downlevel 000000014004c6a8 f   libucrt:getqloc_downlevel.obj
 0001:0004b928       localeconv                 000000014004c928 f   libucrt:localeconv.obj
 0001:0004b95c       _recalloc                  000000014004c95c f   libucrt:recalloc.obj
 0001:0004b964       _recalloc_base             000000014004c964 f   libucrt:recalloc.obj
 0001:0004b9fc       __acrt_getheap             000000014004c9fc f   libucrt:heap_handle.obj
 0001:0004ba04       __acrt_initialize_heap     000000014004ca04 f   libucrt:heap_handle.obj
 0001:0004ba20       __acrt_uninitialize_heap   000000014004ca20 f   libucrt:heap_handle.obj
 0001:0004ba2c       _get_heap_handle           000000014004ca2c f   libucrt:heap_handle.obj
 0001:0004ba34       __acrt_execute_initializers 000000014004ca34 f   libucrt:shared_initialization.obj
 0001:0004bac8       __acrt_execute_uninitializers 000000014004cac8 f   libucrt:shared_initialization.obj
 0001:0004bb10       ??$?B$$A6AH_K@Z@__crt_fast_encoded_nullptr_t@@QEBAP6AH_K@ZXZ 000000014004cb10 f i libucrt:new_handler.obj
 0001:0004bb18       ??$__crt_fast_decode_pointer@P6AH_K@Z@@YAP6AH_K@ZQ6AH0@Z@Z 000000014004cb18 f i libucrt:new_handler.obj
 0001:0004bb30       ??$__crt_fast_encode_pointer@P6AH_K@Z@@YAP6AH_K@ZQ6AH0@Z@Z 000000014004cb30 f i libucrt:new_handler.obj
 0001:0004bb50       ?_set_new_handler@@YAP6AH_K@ZH@Z 000000014004cb50 f   libucrt:new_handler.obj
 0001:0004bb5c       ?initialize@?$dual_state_global@P6AH_K@Z@__crt_state_management@@QEAAXQ6AH_K@Z@Z 000000014004cb5c f i libucrt:new_handler.obj
 0001:0004bb6c       ?value@?$dual_state_global@P6AH_K@Z@__crt_state_management@@QEAAAEAP6AH_K@ZXZ 000000014004cb6c f i libucrt:new_handler.obj
 0001:0004bb70       __acrt_initialize_new_handler 000000014004cb70 f   libucrt:new_handler.obj
 0001:0004bb78       _callnewh                  000000014004cb78 f   libucrt:new_handler.obj
 0001:0004bbb8       _query_new_handler         000000014004cbb8 f   libucrt:new_handler.obj
 0001:0004bbf0       _set_new_handler           000000014004cbf0 f   libucrt:new_handler.obj
 0001:0004bc4c       ??$?B$$A6AXH@Z@__crt_fast_encoded_nullptr_t@@QEBAP6AXH@ZXZ 000000014004cc4c f i libucrt:signal.obj
 0001:0004bcc4       ??$__crt_fast_decode_pointer@P6AXH@Z@@YAP6AXH@ZQ6AXH@Z@Z 000000014004ccc4 f i libucrt:signal.obj
 0001:0004bcdc       ??$__crt_fast_encode_pointer@P6AXH@Z@@YAP6AXH@ZQ6AXH@Z@Z 000000014004ccdc f i libucrt:signal.obj
 0001:0004be10       ?initialize@?$dual_state_global@P6AXH@Z@__crt_state_management@@QEAAXQ6AXH@Z@Z 000000014004ce10 f i libucrt:signal.obj
 0001:0004bea0       ?value@?$dual_state_global@P6AXH@Z@__crt_state_management@@QEAAAEAP6AXH@ZXZ 000000014004cea0 f i libucrt:signal.obj
 0001:0004bea4       __acrt_get_sigabrt_handler 000000014004cea4 f   libucrt:signal.obj
 0001:0004bed4       __acrt_initialize_signal_handlers 000000014004ced4 f   libucrt:signal.obj
 0001:0004bef4       __fpecode                  000000014004cef4 f   libucrt:signal.obj
 0001:0004bf08       __pxcptinfoptrs            000000014004cf08 f   libucrt:signal.obj
 0001:0004bf1c       raise                      000000014004cf1c f   libucrt:signal.obj
 0001:0004c198       signal                     000000014004d198 f   libucrt:signal.obj
 0001:0004c35c       _iswctype_l                000000014004d35c f   libucrt:iswctype.obj
 0001:0004c364       iswctype                   000000014004d364 f   libucrt:iswctype.obj
 0001:0004c3d0       _isctype                   000000014004d3d0 f   libucrt:isctype.obj
 0001:0004c400       _isctype_l                 000000014004d400 f   libucrt:isctype.obj
 0001:0004c5d8       __acrt_DownlevelLCIDToLocaleName 000000014004d5d8 f   libucrt:lcidtoname_downlevel.obj
 0001:0004c6c0       __acrt_DownlevelLocaleNameToLCID 000000014004d6c0 f   libucrt:lcidtoname_downlevel.obj
 0001:0004c888       _fclose_nolock             000000014004d888 f   libucrt:fclose.obj
 0001:0004c920       fclose                     000000014004d920 f   libucrt:fclose.obj
 0001:0004cafc       _commit                    000000014004dafc f   libucrt:commit.obj
 0001:0004d53c       _utf8_no_of_trailbytes     000000014004e53c f i libucrt:write.obj
 0001:0004d54c       _write                     000000014004e54c f   libucrt:write.obj
 0001:0004d5e4       _write_internal            000000014004e5e4 f   libucrt:write.obj
 0001:0004d704       _write_nolock              000000014004e704 f   libucrt:write.obj
 0001:0004de14       __acrt_stdio_flush_and_write_narrow_nolock 000000014004ee14 f   libucrt:_flsbuf.obj
 0001:0004dee0       __acrt_stdio_flush_and_write_wide_nolock 000000014004eee0 f   libucrt:_flsbuf.obj
 0001:0004dfac       _isatty                    000000014004efac f   libucrt:isatty.obj
 0001:0004e0f4       __acrt_fp_strflt_to_string 000000014004f0f4 f   libucrt:_fptostr.obj
 0001:0004f340       ??0big_integer@__crt_strtox@@QEAA@AEBU01@@Z 0000000140050340 f i libucrt:cfout.obj
 0001:0004f370       ??0big_integer@__crt_strtox@@QEAA@XZ 0000000140050370 f i libucrt:cfout.obj
 0001:0004f420       ??4big_integer@__crt_strtox@@QEAAAEAU01@AEBU01@@Z 0000000140050420 f i libucrt:cfout.obj
 0001:0004f450       ??8__crt_strtox@@YA_NAEBUbig_integer@0@0@Z 0000000140050450 f i libucrt:cfout.obj
 0001:0004f480       ??9__crt_strtox@@YA_NAEBUbig_integer@0@0@Z 0000000140050480 f i libucrt:cfout.obj
 0001:0004f4c0       ?add_carry@__crt_strtox@@YAIAEAIII@Z 00000001400504c0 f i libucrt:cfout.obj
 0001:0004f4e0       ?add_multiply_carry@__crt_strtox@@YAIAEAIIII@Z 00000001400504e0 f i libucrt:cfout.obj
 0001:0004f500       ?bit_scan_reverse@__crt_strtox@@YAII@Z 0000000140050500 f i libucrt:cfout.obj
 0001:0004f520       ?count_sequential_high_zeroes@__crt_strtox@@YAII@Z 0000000140050520 f i libucrt:cfout.obj
 0001:0004f540       ?divide@__crt_strtox@@YA_KAEAUbig_integer@1@AEBU21@@Z 0000000140050540 f i libucrt:cfout.obj
 0001:0004f9e0       ?is_zero@__crt_strtox@@YA_NAEBUbig_integer@1@@Z 00000001400509e0 f i libucrt:cfout.obj
 0001:0004f9f0       ?make_big_integer@__crt_strtox@@YA?AUbig_integer@1@_K@Z 00000001400509f0 f i libucrt:cfout.obj
 0001:0004fa10       ?make_big_integer_power_of_two@__crt_strtox@@YA?AUbig_integer@1@I@Z 0000000140050a10 f i libucrt:cfout.obj
 0001:0004fa80       ?multiply@__crt_strtox@@YA_NAEAUbig_integer@1@AEBU21@@Z 0000000140050a80 f i libucrt:cfout.obj
 0001:0004fe20       ?multiply@__crt_strtox@@YA_NAEAUbig_integer@1@I@Z 0000000140050e20 f i libucrt:cfout.obj
 0001:0004ff10       ?multiply_64_32@__crt_strtox@@YA_K_KI@Z 0000000140050f10 f i libucrt:cfout.obj
 0001:0004ff20       ?multiply_by_power_of_ten@__crt_strtox@@YA_NAEAUbig_integer@1@I@Z 0000000140050f20 f i libucrt:cfout.obj
 0001:00050490       ?multiply_core@__crt_strtox@@YAIQEAIII@Z 0000000140051490 f i libucrt:cfout.obj
 0001:000504e0       ?shift_left@__crt_strtox@@YA_NAEAUbig_integer@1@I@Z 00000001400514e0 f i libucrt:cfout.obj
 0001:0005065c       __acrt_fltout              000000014005165c f   libucrt:cfout.obj
 0001:00051974       __fpe_flt_rounds           0000000140052974 f   libucrt:fegetround.obj
 0001:000519bc       fegetround                 00000001400529bc f   libucrt:fegetround.obj
 0001:000519d0       ?__c32rtomb_utf8@__crt_mbstring@@YA_KPEAD_UPEAU_Mbstatet@@AEAV__crt_cached_ptd_host@@@Z 00000001400529d0 f   libucrt:c32rtomb.obj
 0001:00051a74       c32rtomb                   0000000140052a74 f   libucrt:c32rtomb.obj
 0001:00051b38       ?__mbrtowc_utf8@__crt_mbstring@@YA_KPEA_WPEBD_KPEAU_Mbstatet@@AEAV__crt_cached_ptd_host@@@Z 0000000140052b38 f   libucrt:mbrtowc.obj
 0001:00051b7c       ?__mbsrtowcs_utf8@__crt_mbstring@@YA_KPEA_WPEAPEBD_KPEAU_Mbstatet@@AEAV__crt_cached_ptd_host@@@Z 0000000140052b7c f   libucrt:mbrtowc.obj
 0001:000521ac       btowc                      00000001400531ac f   libucrt:mbrtowc.obj
 0001:00052284       mbrlen                     0000000140053284 f   libucrt:mbrtowc.obj
 0001:0005234c       mbrtowc                    000000014005334c f   libucrt:mbrtowc.obj
 0001:00052434       mbsrtowcs                  0000000140053434 f   libucrt:mbrtowc.obj
 0001:000524d8       mbsrtowcs_s                00000001400534d8 f   libucrt:mbrtowc.obj
 0001:00052638       __acrt_OutputDebugStringA  0000000140053638 f   libucrt:outputdebugstringa.obj
 0001:000527e0       qsort                      00000001400537e0 f   libucrt:qsort.obj
 0001:00052cd0       strncpy_s                  0000000140053cd0 f   libucrt:strncpy_s.obj
 0001:00052e60       strpbrk                    0000000140053e60 f   libucrt:strpbrk.obj
 0001:00053228       _mbsdec                    0000000140054228 f   libucrt:mbsdec.obj
 0001:00053230       _mbsdec_l                  0000000140054230 f   libucrt:mbsdec.obj
 0001:000532c4       ??B?$__crt_scoped_stack_ptr@_W@@QEBA_NXZ 00000001400542c4 f i libucrt:lcmapstringa.obj
 0001:00053600       __acrt_LCMapStringA        0000000140054600 f   libucrt:lcmapstringa.obj
 0001:000536b0       _wcsnicoll                 00000001400546b0 f   libucrt:wcsnicol.obj
 0001:00053700       _wcsnicoll_l               0000000140054700 f   libucrt:wcsnicol.obj
 0001:000537f0       _strnicoll                 00000001400547f0 f   libucrt:strnicol.obj
 0001:00053808       _strnicoll_l               0000000140054808 f   libucrt:strnicol.obj
 0001:00053908       __acrt_SetEnvironmentVariableA 0000000140054908 f   libucrt:setenvironmentvariablea.obj
 0001:00053c24       __acrt_GetLocaleInfoA      0000000140054c24 f   libucrt:getlocaleinfoa.obj
 0001:00054314       _i64toa                    0000000140055314 f   libucrt:xtoa.obj
 0001:00054348       _i64toa_s                  0000000140055348 f   libucrt:xtoa.obj
 0001:0005436c       _i64tow                    000000014005536c f   libucrt:xtoa.obj
 0001:000543a0       _i64tow_s                  00000001400553a0 f   libucrt:xtoa.obj
 0001:000543c4       _itoa                      00000001400553c4 f   libucrt:xtoa.obj
 0001:000543f4       _itoa_s                    00000001400553f4 f   libucrt:xtoa.obj
 0001:00054414       _itow                      0000000140055414 f   libucrt:xtoa.obj
 0001:00054444       _itow_s                    0000000140055444 f   libucrt:xtoa.obj
 0001:00054464       _ltoa                      0000000140055464 f   libucrt:xtoa.obj
 0001:00054494       _ltoa_s                    0000000140055494 f   libucrt:xtoa.obj
 0001:000544b4       _ltow                      00000001400554b4 f   libucrt:xtoa.obj
 0001:000544e4       _ltow_s                    00000001400554e4 f   libucrt:xtoa.obj
 0001:00054504       _ui64toa                   0000000140055504 f   libucrt:xtoa.obj
 0001:00054528       _ui64toa_s                 0000000140055528 f   libucrt:xtoa.obj
 0001:0005453c       _ui64tow                   000000014005553c f   libucrt:xtoa.obj
 0001:00054560       _ui64tow_s                 0000000140055560 f   libucrt:xtoa.obj
 0001:00054574       _ultoa                     0000000140055574 f   libucrt:xtoa.obj
 0001:00054598       _ultoa_s                   0000000140055598 f   libucrt:xtoa.obj
 0001:000545ac       _ultow                     00000001400555ac f   libucrt:xtoa.obj
 0001:000545d0       _ultow_s                   00000001400555d0 f   libucrt:xtoa.obj
 0001:000545e4       __ascii_wcsicmp            00000001400555e4 f   libucrt:wcsicmp.obj
 0001:00054624       _towlower_fast_internal    0000000140055624 f i libucrt:wcsicmp.obj
 0001:0005464c       _towlower_internal         000000014005564c f i libucrt:wcsicmp.obj
 0001:00054680       _wcsicmp                   0000000140055680 f   libucrt:wcsicmp.obj
 0001:000546c8       _wcsicmp_l                 00000001400556c8 f   libucrt:wcsicmp.obj
 0001:000547fc       __ascii_wcsnicmp           00000001400557fc f   libucrt:wcsnicmp.obj
 0001:00054848       _wcsnicmp                  0000000140055848 f   libucrt:wcsnicmp.obj
 0001:00054890       _wcsnicmp_l                0000000140055890 f   libucrt:wcsnicmp.obj
 0001:000549e4       wcscmp                     00000001400559e4 f   libucrt:wcscmp.obj
 0001:00054a1c       _msize                     0000000140055a1c f   libucrt:msize.obj
 0001:00054a24       _msize_base                0000000140055a24 f   libucrt:msize.obj
 0001:00054a60       _realloc_base              0000000140055a60 f   libucrt:realloc_base.obj
 0001:00054adc       __acrt_GetStringTypeW      0000000140055adc f   libucrt:getstringtypew.obj
 0001:00054c78       _close                     0000000140055c78 f   libucrt:close.obj
 0001:00054d10       _close_internal            0000000140055d10 f   libucrt:close.obj
 0001:00054dd4       _close_nolock              0000000140055dd4 f   libucrt:close.obj
 0001:00054e6c       _close_nolock_internal     0000000140055e6c f   libucrt:close.obj
 0001:00054f3c       ??$?RU__crt_stdio_stream_data@@@__crt_internal_free_policy@@QEBAXQEBU__crt_stdio_stream_data@@@Z 0000000140055f3c f i libucrt:stream.obj
 0001:00054f44       ??0?$__crt_unique_heap_ptr@U__crt_stdio_stream_data@@U__crt_internal_free_policy@@@@QEAA@QEAU__crt_stdio_stream_data@@@Z 0000000140055f44 f i libucrt:stream.obj
 0001:00054f4c       ??0__crt_stdio_stream@@QEAA@XZ 0000000140055f4c f i libucrt:stream.obj
 0001:00054f54       ??1?$__crt_unique_heap_ptr@U__crt_stdio_stream_data@@U__crt_internal_free_policy@@@@QEAA@XZ 0000000140055f54 f i libucrt:stream.obj
 0001:00054f70       ?__acrt_stdio_allocate_stream@@YA?AV__crt_stdio_stream@@XZ 0000000140055f70 f   libucrt:stream.obj
 0001:00054fc8       ?__acrt_stdio_free_stream@@YAXV__crt_stdio_stream@@@Z 0000000140055fc8 f   libucrt:stream.obj
 0001:00054fe4       ?deallocate@__crt_stdio_stream@@QEAAXXZ 0000000140055fe4 f i libucrt:stream.obj
 0001:00054ff0       ?detach@?$__crt_unique_heap_ptr@U__crt_stdio_stream_data@@U__crt_internal_free_policy@@@@QEAAPEAU__crt_stdio_stream_data@@XZ 0000000140055ff0 f i libucrt:stream.obj
 0001:000550e4       ?lock@__crt_stdio_stream@@QEBAXXZ 00000001400560e4 f i libucrt:stream.obj
 0001:000550ec       ?release@?$__crt_unique_heap_ptr@U__crt_stdio_stream_data@@U__crt_internal_free_policy@@@@QEAAXXZ 00000001400560ec f i libucrt:stream.obj
 0001:00055108       ?try_allocate@__crt_stdio_stream@@QEAA_NXZ 0000000140056108 f i libucrt:stream.obj
 0001:00055128       ?unlock@__crt_stdio_stream@@QEBAXXZ 0000000140056128 f i libucrt:stream.obj
 0001:00055600       _lseek                     0000000140056600 f   libucrt:lseek.obj
 0001:00055698       _lseek_internal            0000000140056698 f   libucrt:lseek.obj
 0001:000556a0       _lseek_nolock              00000001400566a0 f   libucrt:lseek.obj
 0001:00055738       _lseek_nolock_internal     0000000140056738 f   libucrt:lseek.obj
 0001:00055740       _lseeki64                  0000000140056740 f   libucrt:lseek.obj
 0001:000557dc       _lseeki64_internal         00000001400567dc f   libucrt:lseek.obj
 0001:000557e4       _lseeki64_nolock           00000001400567e4 f   libucrt:lseek.obj
 0001:00055880       _lseeki64_nolock_internal  0000000140056880 f   libucrt:lseek.obj
 0001:00055924       _putwch                    0000000140056924 f   libucrt:putwch.obj
 0001:00055960       _putwch_nolock             0000000140056960 f   libucrt:putwch.obj
 0001:0005599c       _putwch_nolock_internal    000000014005699c f   libucrt:putwch.obj
 0001:000560ac       _read                      00000001400570ac f   libucrt:read.obj
 0001:000561cc       _read_nolock               00000001400571cc f   libucrt:read.obj
 0001:0005661c       __acrt_stdio_allocate_buffer_nolock 000000014005761c f   libucrt:_getbuf.obj
 0001:00056688       _controlfp_s               0000000140057688 f   libucrt:contrlfp.obj
 0001:000566ec       fegetenv                   00000001400576ec f   libucrt:fegetenv.obj
 0001:0005670c       fesetenv                   000000014005770c f   libucrt:fesetenv.obj
 0001:00056764       feholdexcept               0000000140057764 f   libucrt:feholdexcept.obj
 0001:000567b4       ceil                       00000001400577b4 f   libucrt:ceil.obj
 0001:00056880       log10                      0000000140057880 f   libucrt:log10.obj
 0001:00056e2c       ??$__acrt_fenv_shift_bits@W4__acrt_fenv_abstract_control@@@@YA?AW4__acrt_fenv_abstract_control@@W40@0I@Z 0000000140057e2c f i libucrt:_fenvutils.obj
 0001:00056e38       ??$__acrt_fenv_shift_bits@W4__acrt_fenv_abstract_status@@@@YA?AW4__acrt_fenv_abstract_status@@W40@0I@Z 0000000140057e38 f i libucrt:_fenvutils.obj
 0001:00056e44       ??$__acrt_fenv_translate_bit@W4__acrt_fenv_abstract_control@@W4__acrt_fenv_machine_sse_control@@@@YA?AW4__acrt_fenv_abstract_control@@W4__acrt_fenv_machine_sse_control@@0W40@1@Z 0000000140057e44 f i libucrt:_fenvutils.obj
 0001:00056e50       ??$__acrt_fenv_translate_bit@W4__acrt_fenv_abstract_status@@W4__acrt_fenv_machine_sse_status@@@@YA?AW4__acrt_fenv_abstract_status@@W4__acrt_fenv_machine_sse_status@@0W40@1@Z 0000000140057e50 f i libucrt:_fenvutils.obj
 0001:00056e5c       ??$__acrt_fenv_translate_bit@W4__acrt_fenv_machine_sse_control@@W4__acrt_fenv_abstract_control@@@@YA?AW4__acrt_fenv_machine_sse_control@@W4__acrt_fenv_abstract_control@@0W40@1@Z 0000000140057e5c f i libucrt:_fenvutils.obj
 0001:00056e68       ??$__acrt_fenv_translate_bit@W4__acrt_fenv_machine_sse_status@@W4__acrt_fenv_abstract_status@@@@YA?AW4__acrt_fenv_machine_sse_status@@W4__acrt_fenv_abstract_status@@0W40@1@Z 0000000140057e68 f i libucrt:_fenvutils.obj
 0001:00056e74       ??$__acrt_fenv_unshift_bits@W4__acrt_fenv_abstract_control@@@@YA?AW4__acrt_fenv_abstract_control@@W40@0I@Z 0000000140057e74 f i libucrt:_fenvutils.obj
 0001:00056e80       ??$__acrt_fenv_unshift_bits@W4__acrt_fenv_abstract_status@@@@YA?AW4__acrt_fenv_abstract_status@@W40@0I@Z 0000000140057e80 f i libucrt:_fenvutils.obj
 0001:00057044       ??I@YA?AW4__acrt_fenv_abstract_control@@W40@0@Z 0000000140058044 f i libucrt:_fenvutils.obj
 0001:0005704c       ??I@YA?AW4__acrt_fenv_abstract_status@@W40@0@Z 000000014005804c f i libucrt:_fenvutils.obj
 0001:00057054       ??I@YA?AW4__acrt_fenv_machine_sse_control@@W40@0@Z 0000000140058054 f i libucrt:_fenvutils.obj
 0001:0005705c       ??I@YA?AW4__acrt_fenv_machine_sse_status@@W40@0@Z 000000014005805c f i libucrt:_fenvutils.obj
 0001:00057064       ??U@YA?AW4__acrt_fenv_abstract_control@@W40@0@Z 0000000140058064 f i libucrt:_fenvutils.obj
 0001:0005706c       ??U@YA?AW4__acrt_fenv_abstract_status@@W40@0@Z 000000014005806c f i libucrt:_fenvutils.obj
 0001:00057074       ??U@YA?AW4__acrt_fenv_machine_sse_control@@W40@0@Z 0000000140058074 f i libucrt:_fenvutils.obj
 0001:0005707c       ??_5@YAAEAW4__acrt_fenv_abstract_control@@AEAW40@W40@@Z 000000014005807c f i libucrt:_fenvutils.obj
 0001:00057084       ??_5@YAAEAW4__acrt_fenv_abstract_status@@AEAW40@W40@@Z 0000000140058084 f i libucrt:_fenvutils.obj
 0001:0005708c       ??_5@YAAEAW4__acrt_fenv_machine_sse_control@@AEAW40@W40@@Z 000000014005808c f i libucrt:_fenvutils.obj
 0001:00057094       ??_5@YAAEAW4__acrt_fenv_machine_sse_status@@AEAW40@W40@@Z 0000000140058094 f i libucrt:_fenvutils.obj
 0001:0005709c       ?__acrt_fenv_shift_abstract_sse_control@@YA?AW4__acrt_fenv_abstract_control@@W41@@Z 000000014005809c f i libucrt:_fenvutils.obj
 0001:000570b0       ?__acrt_fenv_shift_abstract_sse_status@@YA?AW4__acrt_fenv_abstract_status@@W41@@Z 00000001400580b0 f i libucrt:_fenvutils.obj
 0001:000570bc       ?__acrt_fenv_unshift_abstract_sse_control@@YA?AW4__acrt_fenv_abstract_control@@W41@@Z 00000001400580bc f i libucrt:_fenvutils.obj
 0001:000570d4       ?__acrt_fenv_unshift_abstract_sse_status@@YA?AW4__acrt_fenv_abstract_status@@W41@@Z 00000001400580d4 f i libucrt:_fenvutils.obj
 0001:00057394       __acrt_fenv_expand_round_control 0000000140058394 f   libucrt:_fenvutils.obj
 0001:000573ac       __acrt_fenv_get_common_round_control 00000001400583ac f   libucrt:_fenvutils.obj
 0001:000573b8       __acrt_fenv_get_control    00000001400583b8 f   libucrt:_fenvutils.obj
 0001:0005749c       __acrt_fenv_get_fp_status_word_from_exception_mask 000000014005849c f   libucrt:_fenvutils.obj
 0001:000574a8       __acrt_fenv_get_status     00000001400584a8 f   libucrt:_fenvutils.obj
 0001:00057500       __acrt_fenv_set_control    0000000140058500 f   libucrt:_fenvutils.obj
 0001:00057638       __acrt_fenv_set_status     0000000140058638 f   libucrt:_fenvutils.obj
 0001:000576ac       ?reset_and_return@__crt_mbstring@@YA_K_KPEAU_Mbstatet@@@Z 00000001400586ac f   libucrt:common_utf8.obj
 0001:000576b4       ?return_illegal_sequence@__crt_mbstring@@YA_KPEAU_Mbstatet@@AEAV__crt_cached_ptd_host@@@Z 00000001400586b4 f   libucrt:common_utf8.obj
 0001:000576c8       ?__mbrtoc32_utf8@__crt_mbstring@@YA_KPEA_UPEBD_KPEAU_Mbstatet@@AEAV__crt_cached_ptd_host@@@Z 00000001400586c8 f   libucrt:mbrtoc32.obj
 0001:000578a4       mbrtoc32                   00000001400588a4 f   libucrt:mbrtoc32.obj
 0001:00057c64       _mbstowcs_l                0000000140058c64 f   libucrt:mbstowcs.obj
 0001:00057d0c       _mbstowcs_s_l              0000000140058d0c f   libucrt:mbstowcs.obj
 0001:00057dc4       mbstowcs                   0000000140058dc4 f   libucrt:mbstowcs.obj
 0001:00057e60       mbstowcs_s                 0000000140058e60 f   libucrt:mbstowcs.obj
 0001:00057f08       __strncnt                  0000000140058f08 f   libucrt:strncnt.obj
 0001:00057f20       __acrt_CompareStringW      0000000140058f20 f   libucrt:comparestringw.obj
 0001:00057fe0       __ascii_strnicmp           0000000140058fe0 f   libucrt:strnicmp.obj
 0001:0005802c       _strnicmp                  000000014005902c f   libucrt:strnicmp.obj
 0001:0005807c       _strnicmp_l                000000014005907c f   libucrt:strnicmp.obj
 0001:000584b0       __acrt_CompareStringA      00000001400594b0 f   libucrt:comparestringa.obj
 0001:0005853c       _towlower_l                000000014005953c f   libucrt:towlower.obj
 0001:00058630       towlower                   0000000140059630 f   libucrt:towlower.obj
 0001:00058760       __dcrt_lowio_ensure_console_output_initialized 0000000140059760 f   libucrt:initcon.obj
 0001:000587b4       __dcrt_terminate_console_output 00000001400597b4 f   libucrt:initcon.obj
 0001:000587d0       __dcrt_write_console       00000001400597d0 f   libucrt:initcon.obj
 0001:000589a4       _clearfp                   00000001400599a4 f   libucrt:ieee.obj
 0001:00058a10       _control87                 0000000140059a10 f   libucrt:ieee.obj
 0001:00058a18       _controlfp                 0000000140059a18 f   libucrt:ieee.obj
 0001:00058a24       _fpreset                   0000000140059a24 f   libucrt:ieee.obj
 0001:00058aec       _set_controlfp             0000000140059aec f   libucrt:ieee.obj
 0001:00058b20       _statusfp                  0000000140059b20 f   libucrt:ieee.obj
 0001:00058f40       _handle_error              0000000140059f40 f   libucrt:libm_error.obj
 0001:00059068       _handle_errorf             000000014005a068 f   libucrt:libm_error.obj
 0001:0005919c       _handle_nan                000000014005a19c f   libucrt:libm_error.obj
 0001:000591b8       _handle_nanf               000000014005a1b8 f   libucrt:libm_error.obj
 0001:000591d0       __acrt_initialize_fma3     000000014005a1d0 f   libucrt:fma3_available.obj
 0001:00059240       _get_FMA3_enable           000000014005a240 f   libucrt:fma3_available.obj
 0001:00059248       _set_FMA3_enable           000000014005a248 f   libucrt:fma3_available.obj
 0001:00059260       _log10_special             000000014005a260 f   libucrt:log_special.obj
 0001:00059280       _log10f_special            000000014005a280 f   libucrt:log_special.obj
 0001:000592a0       _log_special               000000014005a2a0 f   libucrt:log_special.obj
 0001:00059358       _logf_special              000000014005a358 f   libucrt:log_special.obj
 0001:00059414       __acrt_LCMapStringW        000000014005a414 f   libucrt:lcmapstringw.obj
 0001:000594b0       _get_fpsr                  000000014005a4b0 f   libucrt:fpsr.obj
 0001:000594c0       _set_fpsr                  000000014005a4c0 f   libucrt:fpsr.obj
 0001:000594ca       _fclrf                     000000014005a4ca f   libucrt:fpsr.obj
 0001:000594de       _frnd                      000000014005a4de f   libucrt:fpsr.obj
 0001:00059500       ?should_round_up@__crt_strtox@@YA_N_N000@Z 000000014005a500 f i libucrt:fpexcept.obj
 0001:00059588       _errcode                   000000014005a588 f   libucrt:fpexcept.obj
 0001:000595cc       _except1                   000000014005a5cc f   libucrt:fpexcept.obj
 0001:000596c0       _except2                   000000014005a6c0 f   libucrt:fpexcept.obj
 0001:000597fc       _handle_exc                000000014005a7fc f   libucrt:fpexcept.obj
 0001:00059af0       _handle_qnan2              000000014005aaf0 f   libucrt:fpexcept.obj
 0001:00059af8       _raise_exc                 000000014005aaf8 f   libucrt:fpexcept.obj
 0001:00059b20       _raise_exc_ex              000000014005ab20 f   libucrt:fpexcept.obj
 0001:00059e28       _raise_excf                000000014005ae28 f   libucrt:fpexcept.obj
 0001:00059e54       _set_errno_from_matherr    000000014005ae54 f   libucrt:fpexcept.obj
 0001:00059e84       _umatherr                  000000014005ae84 f   libucrt:fpexcept.obj
 0001:00059f54       _clrfp                     000000014005af54 f   libucrt:fpctrl.obj
 0001:00059f74       _ctrlfp                    000000014005af74 f   libucrt:fpctrl.obj
 0001:00059ff0       _set_statfp                000000014005aff0 f   libucrt:fpctrl.obj
 0001:0005a010       _statfp                    000000014005b010 f   libucrt:fpctrl.obj
 0001:0005a024       _add_exp                   000000014005b024 f   libucrt:util.obj
 0001:0005a074       _decomp                    000000014005b074 f   libucrt:util.obj
 0001:0005a1a4       _get_exp                   000000014005b1a4 f   libucrt:util.obj
 0001:0005a1c4       _set_bexp                  000000014005b1c4 f   libucrt:util.obj
 0001:0005a1f4       _set_exp                   000000014005b1f4 f   libucrt:util.obj
 0001:0005a22c       _sptype                    000000014005b22c f   libucrt:util.obj
 0001:0005a2a4       QueryPerformanceCounter    000000014005b2a4 f   kernel32:KERNEL32.dll
 0001:0005a2aa       GetCurrentProcessId        000000014005b2aa f   kernel32:KERNEL32.dll
 0001:0005a2b0       GetCurrentThreadId         000000014005b2b0 f   kernel32:KERNEL32.dll
 0001:0005a2b6       GetSystemTimeAsFileTime    000000014005b2b6 f   kernel32:KERNEL32.dll
 0001:0005a2bc       InitializeSListHead        000000014005b2bc f   kernel32:KERNEL32.dll
 0001:0005a2c2       RtlCaptureContext          000000014005b2c2 f   kernel32:KERNEL32.dll
 0001:0005a2c8       RtlLookupFunctionEntry     000000014005b2c8 f   kernel32:KERNEL32.dll
 0001:0005a2ce       RtlVirtualUnwind           000000014005b2ce f   kernel32:KERNEL32.dll
 0001:0005a2d4       IsDebuggerPresent          000000014005b2d4 f   kernel32:KERNEL32.dll
 0001:0005a2da       UnhandledExceptionFilter   000000014005b2da f   kernel32:KERNEL32.dll
 0001:0005a2e0       SetUnhandledExceptionFilter 000000014005b2e0 f   kernel32:KERNEL32.dll
 0001:0005a2e6       GetStartupInfoW            000000014005b2e6 f   kernel32:KERNEL32.dll
 0001:0005a2ec       IsProcessorFeaturePresent  000000014005b2ec f   kernel32:KERNEL32.dll
 0001:0005a2f2       GetModuleHandleW           000000014005b2f2 f   kernel32:KERNEL32.dll
 0001:0005a2f8       RtlUnwindEx                000000014005b2f8 f   kernel32:KERNEL32.dll
 0001:0005a2fe       RtlUnwind                  000000014005b2fe f   kernel32:KERNEL32.dll
 0001:0005a304       InterlockedPushEntrySList  000000014005b304 f   kernel32:KERNEL32.dll
 0001:0005a30a       InterlockedFlushSList      000000014005b30a f   kernel32:KERNEL32.dll
 0001:0005a310       GetLastError               000000014005b310 f   kernel32:KERNEL32.dll
 0001:0005a316       SetLastError               000000014005b316 f   kernel32:KERNEL32.dll
 0001:0005a31c       EnterCriticalSection       000000014005b31c f   kernel32:KERNEL32.dll
 0001:0005a322       LeaveCriticalSection       000000014005b322 f   kernel32:KERNEL32.dll
 0001:0005a328       DeleteCriticalSection      000000014005b328 f   kernel32:KERNEL32.dll
 0001:0005a32e       InitializeCriticalSectionAndSpinCount 000000014005b32e f   kernel32:KERNEL32.dll
 0001:0005a334       TlsAlloc                   000000014005b334 f   kernel32:KERNEL32.dll
 0001:0005a33a       TlsGetValue                000000014005b33a f   kernel32:KERNEL32.dll
 0001:0005a340       TlsSetValue                000000014005b340 f   kernel32:KERNEL32.dll
 0001:0005a346       TlsFree                    000000014005b346 f   kernel32:KERNEL32.dll
 0001:0005a34c       FreeLibrary                000000014005b34c f   kernel32:KERNEL32.dll
 0001:0005a352       GetProcAddress             000000014005b352 f   kernel32:KERNEL32.dll
 0001:0005a358       LoadLibraryExW             000000014005b358 f   kernel32:KERNEL32.dll
 0001:0005a35e       EncodePointer              000000014005b35e f   kernel32:KERNEL32.dll
 0001:0005a364       RtlPcToFileHeader          000000014005b364 f   kernel32:KERNEL32.dll
 0001:0005a36a       GetStdHandle               000000014005b36a f   kernel32:KERNEL32.dll
 0001:0005a370       WriteFile                  000000014005b370 f   kernel32:KERNEL32.dll
 0001:0005a376       GetModuleFileNameW         000000014005b376 f   kernel32:KERNEL32.dll
 0001:0005a37c       GetCurrentProcess          000000014005b37c f   kernel32:KERNEL32.dll
 0001:0005a382       ExitProcess                000000014005b382 f   kernel32:KERNEL32.dll
 0001:0005a388       TerminateProcess           000000014005b388 f   kernel32:KERNEL32.dll
 0001:0005a38e       GetModuleHandleExW         000000014005b38e f   kernel32:KERNEL32.dll
 0001:0005a394       GetCommandLineA            000000014005b394 f   kernel32:KERNEL32.dll
 0001:0005a39a       GetCommandLineW            000000014005b39a f   kernel32:KERNEL32.dll
 0001:0005a3a0       HeapAlloc                  000000014005b3a0 f   kernel32:KERNEL32.dll
 0001:0005a3a6       HeapFree                   000000014005b3a6 f   kernel32:KERNEL32.dll
 0001:0005a3ac       GetTempPathW               000000014005b3ac f   kernel32:KERNEL32.dll
 0001:0005a3b2       FlsAlloc                   000000014005b3b2 f   kernel32:KERNEL32.dll
 0001:0005a3b8       FlsGetValue                000000014005b3b8 f   kernel32:KERNEL32.dll
 0001:0005a3be       FlsSetValue                000000014005b3be f   kernel32:KERNEL32.dll
 0001:0005a3c4       FlsFree                    000000014005b3c4 f   kernel32:KERNEL32.dll
 0001:0005a3ca       GetDateFormatW             000000014005b3ca f   kernel32:KERNEL32.dll
 0001:0005a3d0       GetTimeFormatW             000000014005b3d0 f   kernel32:KERNEL32.dll
 0001:0005a3d6       CompareStringW             000000014005b3d6 f   kernel32:KERNEL32.dll
 0001:0005a3dc       LCMapStringW               000000014005b3dc f   kernel32:KERNEL32.dll
 0001:0005a3e2       GetLocaleInfoW             000000014005b3e2 f   kernel32:KERNEL32.dll
 0001:0005a3e8       IsValidLocale              000000014005b3e8 f   kernel32:KERNEL32.dll
 0001:0005a3ee       GetUserDefaultLCID         000000014005b3ee f   kernel32:KERNEL32.dll
 0001:0005a3f4       EnumSystemLocalesW         000000014005b3f4 f   kernel32:KERNEL32.dll
 0001:0005a3fa       GetFileType                000000014005b3fa f   kernel32:KERNEL32.dll
 0001:0005a400       GetCurrentThread           000000014005b400 f   kernel32:KERNEL32.dll
 0001:0005a406       OutputDebugStringW         000000014005b406 f   kernel32:KERNEL32.dll
 0001:0005a40c       FindClose                  000000014005b40c f   kernel32:KERNEL32.dll
 0001:0005a412       FindFirstFileExW           000000014005b412 f   kernel32:KERNEL32.dll
 0001:0005a418       FindNextFileW              000000014005b418 f   kernel32:KERNEL32.dll
 0001:0005a41e       IsValidCodePage            000000014005b41e f   kernel32:KERNEL32.dll
 0001:0005a424       GetACP                     000000014005b424 f   kernel32:KERNEL32.dll
 0001:0005a42a       GetOEMCP                   000000014005b42a f   kernel32:KERNEL32.dll
 0001:0005a430       GetCPInfo                  000000014005b430 f   kernel32:KERNEL32.dll
 0001:0005a436       MultiByteToWideChar        000000014005b436 f   kernel32:KERNEL32.dll
 0001:0005a43c       WideCharToMultiByte        000000014005b43c f   kernel32:KERNEL32.dll
 0001:0005a442       GetEnvironmentStringsW     000000014005b442 f   kernel32:KERNEL32.dll
 0001:0005a448       FreeEnvironmentStringsW    000000014005b448 f   kernel32:KERNEL32.dll
 0001:0005a44e       SetEnvironmentVariableW    000000014005b44e f   kernel32:KERNEL32.dll
 0001:0005a454       SetStdHandle               000000014005b454 f   kernel32:KERNEL32.dll
 0001:0005a45a       GetStringTypeW             000000014005b45a f   kernel32:KERNEL32.dll
 0001:0005a460       GetProcessHeap             000000014005b460 f   kernel32:KERNEL32.dll
 0001:0005a466       SetConsoleCtrlHandler      000000014005b466 f   kernel32:KERNEL32.dll
 0001:0005a46c       FlushFileBuffers           000000014005b46c f   kernel32:KERNEL32.dll
 0001:0005a472       GetConsoleOutputCP         000000014005b472 f   kernel32:KERNEL32.dll
 0001:0005a478       GetConsoleMode             000000014005b478 f   kernel32:KERNEL32.dll
 0001:0005a47e       GetFileSizeEx              000000014005b47e f   kernel32:KERNEL32.dll
 0001:0005a484       SetFilePointerEx           000000014005b484 f   kernel32:KERNEL32.dll
 0001:0005a48a       HeapSize                   000000014005b48a f   kernel32:KERNEL32.dll
 0001:0005a490       HeapReAlloc                000000014005b490 f   kernel32:KERNEL32.dll
 0001:0005a496       CloseHandle                000000014005b496 f   kernel32:KERNEL32.dll
 0001:0005a49c       ReadFile                   000000014005b49c f   kernel32:KERNEL32.dll
 0001:0005a4a2       ReadConsoleW               000000014005b4a2 f   kernel32:KERNEL32.dll
 0001:0005a4a8       CreateFileW                000000014005b4a8 f   kernel32:KERNEL32.dll
 0001:0005a4ae       WriteConsoleW              000000014005b4ae f   kernel32:KERNEL32.dll
 0001:0005a4c0       _FindPESection             000000014005b4c0 f   LIBCMT:pesect.obj
 0001:0005a510       _IsNonwritableInCurrentImage 000000014005b510 f   LIBCMT:pesect.obj
 0001:0005a560       _ValidateImageBase         000000014005b560 f   LIBCMT:pesect.obj
 0001:0005a58c       ??1type_info@@UEAA@XZ      000000014005b58c f   LIBCMT:std_type_info_static.obj
 0001:0005a598       ??_Etype_info@@UEAAPEAXI@Z 000000014005b598 f i LIBCMT:std_type_info_static.obj
 0001:0005a598       ??_Gtype_info@@UEAAPEAXI@Z 000000014005b598 f i LIBCMT:std_type_info_static.obj
 0001:0005a5c4       __GSHandlerCheck           000000014005b5c4 f   LIBCMT:gshandler.obj
 0001:0005a5e4       __GSHandlerCheckCommon     000000014005b5e4 f   LIBCMT:gshandler.obj
 0001:0005a650       __security_check_cookie    000000014005b650 f   LIBCMT:amdsecgs.obj
 0001:0005a670       ??3@YAXPEAX_K@Z            000000014005b670 f   LIBCMT:delete_scalar_size.obj
 0001:0005a678       __GSHandlerCheck_SEH       000000014005b678 f   LIBCMT:gshandlerseh.obj
 0001:0005a700       __raise_securityfailure    000000014005b700 f   LIBCMT:gs_report.obj
 0001:0005a734       __report_gsfailure         000000014005b734 f   LIBCMT:gs_report.obj
 0001:0005a808       __report_rangecheckfailure 000000014005b808 f   LIBCMT:gs_report.obj
 0001:0005a81c       __report_securityfailure   000000014005b81c f   LIBCMT:gs_report.obj
 0001:0005a8b8       __report_securityfailureEx 000000014005b8b8 f   LIBCMT:gs_report.obj
 0001:0005aac0       __chkstk                   000000014005bac0 f   LIBCMT:chkstk.obj
 0001:0005aac0       _alloca_probe              000000014005bac0 f   LIBCMT:chkstk.obj
 0001:0005ab10       __GSHandlerCheck_EH        000000014005bb10 f   LIBCMT:gshandlereh.obj
 0001:0005ab90       ??3@YAXPEAX@Z              000000014005bb90 f   LIBCMT:delete_scalar.obj
 0001:0005abb0       memcmp                     000000014005bbb0 f   libvcruntime:memcmp.obj
 0001:0005ac78       __C_specific_handler_noexcept 000000014005bc78 f   libvcruntime:chandler_noexcept.obj
 0001:0005acc4       strrchr                    000000014005bcc4 f   libvcruntime:strrchr.obj
 0001:0005ae00       strchr                     000000014005be00 f   libvcruntime:strchr.obj
 0001:0005ae80       wcschr                     000000014005be80 f   libvcruntime:wcschr.obj
 0001:0005af10       _guard_dispatch_icall_nop  000000014005bf10 f   LIBCMT:guard_dispatch.obj
 0001:0005af30       _guard_xfg_dispatch_icall_nop 000000014005bf30 f   LIBCMT:guard_xfg_dispatch.obj
 0002:00000000       __imp_RaiseException       000000014005d000     kernel32:KERNEL32.dll
 0002:00000008       __imp_CreateFileW          000000014005d008     kernel32:KERNEL32.dll
 0002:00000010       __imp_QueryPerformanceCounter 000000014005d010     kernel32:KERNEL32.dll
 0002:00000018       __imp_GetCurrentProcessId  000000014005d018     kernel32:KERNEL32.dll
 0002:00000020       __imp_GetCurrentThreadId   000000014005d020     kernel32:KERNEL32.dll
 0002:00000028       __imp_GetSystemTimeAsFileTime 000000014005d028     kernel32:KERNEL32.dll
 0002:00000030       __imp_InitializeSListHead  000000014005d030     kernel32:KERNEL32.dll
 0002:00000038       __imp_RtlCaptureContext    000000014005d038     kernel32:KERNEL32.dll
 0002:00000040       __imp_RtlLookupFunctionEntry 000000014005d040     kernel32:KERNEL32.dll
 0002:00000048       __imp_RtlVirtualUnwind     000000014005d048     kernel32:KERNEL32.dll
 0002:00000050       __imp_IsDebuggerPresent    000000014005d050     kernel32:KERNEL32.dll
 0002:00000058       __imp_UnhandledExceptionFilter 000000014005d058     kernel32:KERNEL32.dll
 0002:00000060       __imp_SetUnhandledExceptionFilter 000000014005d060     kernel32:KERNEL32.dll
 0002:00000068       __imp_GetStartupInfoW      000000014005d068     kernel32:KERNEL32.dll
 0002:00000070       __imp_IsProcessorFeaturePresent 000000014005d070     kernel32:KERNEL32.dll
 0002:00000078       __imp_GetModuleHandleW     000000014005d078     kernel32:KERNEL32.dll
 0002:00000080       __imp_RtlUnwindEx          000000014005d080     kernel32:KERNEL32.dll
 0002:00000088       __imp_RtlUnwind            000000014005d088     kernel32:KERNEL32.dll
 0002:00000090       __imp_InterlockedPushEntrySList 000000014005d090     kernel32:KERNEL32.dll
 0002:00000098       __imp_InterlockedFlushSList 000000014005d098     kernel32:KERNEL32.dll
 0002:000000a0       __imp_GetLastError         000000014005d0a0     kernel32:KERNEL32.dll
 0002:000000a8       __imp_SetLastError         000000014005d0a8     kernel32:KERNEL32.dll
 0002:000000b0       __imp_EnterCriticalSection 000000014005d0b0     kernel32:KERNEL32.dll
 0002:000000b8       __imp_LeaveCriticalSection 000000014005d0b8     kernel32:KERNEL32.dll
 0002:000000c0       __imp_DeleteCriticalSection 000000014005d0c0     kernel32:KERNEL32.dll
 0002:000000c8       __imp_InitializeCriticalSectionAndSpinCount 000000014005d0c8     kernel32:KERNEL32.dll
 0002:000000d0       __imp_TlsAlloc             000000014005d0d0     kernel32:KERNEL32.dll
 0002:000000d8       __imp_TlsGetValue          000000014005d0d8     kernel32:KERNEL32.dll
 0002:000000e0       __imp_TlsSetValue          000000014005d0e0     kernel32:KERNEL32.dll
 0002:000000e8       __imp_TlsFree              000000014005d0e8     kernel32:KERNEL32.dll
 0002:000000f0       __imp_FreeLibrary          000000014005d0f0     kernel32:KERNEL32.dll
 0002:000000f8       __imp_GetProcAddress       000000014005d0f8     kernel32:KERNEL32.dll
 0002:00000100       __imp_LoadLibraryExW       000000014005d100     kernel32:KERNEL32.dll
 0002:00000108       __imp_EncodePointer        000000014005d108     kernel32:KERNEL32.dll
 0002:00000110       __imp_RtlPcToFileHeader    000000014005d110     kernel32:KERNEL32.dll
 0002:00000118       __imp_GetStdHandle         000000014005d118     kernel32:KERNEL32.dll
 0002:00000120       __imp_WriteFile            000000014005d120     kernel32:KERNEL32.dll
 0002:00000128       __imp_GetModuleFileNameW   000000014005d128     kernel32:KERNEL32.dll
 0002:00000130       __imp_GetCurrentProcess    000000014005d130     kernel32:KERNEL32.dll
 0002:00000138       __imp_ExitProcess          000000014005d138     kernel32:KERNEL32.dll
 0002:00000140       __imp_TerminateProcess     000000014005d140     kernel32:KERNEL32.dll
 0002:00000148       __imp_GetModuleHandleExW   000000014005d148     kernel32:KERNEL32.dll
 0002:00000150       __imp_GetCommandLineA      000000014005d150     kernel32:KERNEL32.dll
 0002:00000158       __imp_GetCommandLineW      000000014005d158     kernel32:KERNEL32.dll
 0002:00000160       __imp_HeapAlloc            000000014005d160     kernel32:KERNEL32.dll
 0002:00000168       __imp_HeapFree             000000014005d168     kernel32:KERNEL32.dll
 0002:00000170       __imp_GetTempPathW         000000014005d170     kernel32:KERNEL32.dll
 0002:00000178       __imp_FlsAlloc             000000014005d178     kernel32:KERNEL32.dll
 0002:00000180       __imp_FlsGetValue          000000014005d180     kernel32:KERNEL32.dll
 0002:00000188       __imp_FlsSetValue          000000014005d188     kernel32:KERNEL32.dll
 0002:00000190       __imp_FlsFree              000000014005d190     kernel32:KERNEL32.dll
 0002:00000198       __imp_GetDateFormatW       000000014005d198     kernel32:KERNEL32.dll
 0002:000001a0       __imp_GetTimeFormatW       000000014005d1a0     kernel32:KERNEL32.dll
 0002:000001a8       __imp_CompareStringW       000000014005d1a8     kernel32:KERNEL32.dll
 0002:000001b0       __imp_LCMapStringW         000000014005d1b0     kernel32:KERNEL32.dll
 0002:000001b8       __imp_GetLocaleInfoW       000000014005d1b8     kernel32:KERNEL32.dll
 0002:000001c0       __imp_IsValidLocale        000000014005d1c0     kernel32:KERNEL32.dll
 0002:000001c8       __imp_GetUserDefaultLCID   000000014005d1c8     kernel32:KERNEL32.dll
 0002:000001d0       __imp_EnumSystemLocalesW   000000014005d1d0     kernel32:KERNEL32.dll
 0002:000001d8       __imp_GetFileType          000000014005d1d8     kernel32:KERNEL32.dll
 0002:000001e0       __imp_GetCurrentThread     000000014005d1e0     kernel32:KERNEL32.dll
 0002:000001e8       __imp_OutputDebugStringW   000000014005d1e8     kernel32:KERNEL32.dll
 0002:000001f0       __imp_FindClose            000000014005d1f0     kernel32:KERNEL32.dll
 0002:000001f8       __imp_FindFirstFileExW     000000014005d1f8     kernel32:KERNEL32.dll
 0002:00000200       __imp_FindNextFileW        000000014005d200     kernel32:KERNEL32.dll
 0002:00000208       __imp_IsValidCodePage      000000014005d208     kernel32:KERNEL32.dll
 0002:00000210       __imp_GetACP               000000014005d210     kernel32:KERNEL32.dll
 0002:00000218       __imp_GetOEMCP             000000014005d218     kernel32:KERNEL32.dll
 0002:00000220       __imp_GetCPInfo            000000014005d220     kernel32:KERNEL32.dll
 0002:00000228       __imp_MultiByteToWideChar  000000014005d228     kernel32:KERNEL32.dll
 0002:00000230       __imp_WideCharToMultiByte  000000014005d230     kernel32:KERNEL32.dll
 0002:00000238       __imp_GetEnvironmentStringsW 000000014005d238     kernel32:KERNEL32.dll
 0002:00000240       __imp_FreeEnvironmentStringsW 000000014005d240     kernel32:KERNEL32.dll
 0002:00000248       __imp_SetEnvironmentVariableW 000000014005d248     kernel32:KERNEL32.dll
 0002:00000250       __imp_SetStdHandle         000000014005d250     kernel32:KERNEL32.dll
 0002:00000258       __imp_GetStringTypeW       000000014005d258     kernel32:KERNEL32.dll
 0002:00000260       __imp_GetProcessHeap       000000014005d260     kernel32:KERNEL32.dll
 0002:00000268       __imp_SetConsoleCtrlHandler 000000014005d268     kernel32:KERNEL32.dll
 0002:00000270       __imp_FlushFileBuffers     000000014005d270     kernel32:KERNEL32.dll
 0002:00000278       __imp_GetConsoleOutputCP   000000014005d278     kernel32:KERNEL32.dll
 0002:00000280       __imp_GetConsoleMode       000000014005d280     kernel32:KERNEL32.dll
 0002:00000288       __imp_GetFileSizeEx        000000014005d288     kernel32:KERNEL32.dll
 0002:00000290       __imp_SetFilePointerEx     000000014005d290     kernel32:KERNEL32.dll
 0002:00000298       __imp_HeapSize             000000014005d298     kernel32:KERNEL32.dll
 0002:000002a0       __imp_HeapReAlloc          000000014005d2a0     kernel32:KERNEL32.dll
 0002:000002a8       __imp_CloseHandle          000000014005d2a8     kernel32:KERNEL32.dll
 0002:000002b0       __imp_ReadFile             000000014005d2b0     kernel32:KERNEL32.dll
 0002:000002b8       __imp_ReadConsoleW         000000014005d2b8     kernel32:KERNEL32.dll
 0002:000002c0       __imp_WriteConsoleW        000000014005d2c0     kernel32:KERNEL32.dll
 0002:000002c8       \177KERNEL32_NULL_THUNK_DATA 000000014005d2c8     kernel32:KERNEL32.dll
 0002:000002d0       __guard_check_icall_fptr   000000014005d2d0     LIBCMT:guard_support.obj
 0002:000002d8       __guard_xfg_check_icall_fptr 000000014005d2d8     LIBCMT:guard_support.obj
 0002:000002e0       __guard_dispatch_icall_fptr 000000014005d2e0     LIBCMT:guard_support.obj
 0002:000002e8       __guard_xfg_dispatch_icall_fptr 000000014005d2e8     LIBCMT:guard_support.obj
 0002:000002f0       __guard_xfg_table_dispatch_icall_fptr 000000014005d2f0     LIBCMT:guard_support.obj
 0002:000002f8       __castguard_check_failure_os_handled_fptr 000000014005d2f8     LIBCMT:guard_support.obj
 0002:00000300       __guard_memcpy_fptr        000000014005d300     libvcruntime:softmemtag.obj
 0002:00000308       __xc_a                     000000014005d308     LIBCMT:initializers.obj
 0002:00000318       __xc_z                     000000014005d318     LIBCMT:initializers.obj
 0002:00000320       __xi_a                     000000014005d320     LIBCMT:initializers.obj
 0002:00000338       __acrt_stdio_initializer   000000014005d338     libucrt:stdio_initializer.obj
 0002:00000340       __acrt_multibyte_initializer 000000014005d340     libucrt:multibyte_initializer.obj
 0002:00000348       __acrt_fmode_initializer   000000014005d348     libucrt:fmode_initializer.obj
 0002:00000350       __acrt_tran_fma3_initializer 000000014005d350     libucrt:fma3_initializer.obj
 0002:00000358       __xi_z                     000000014005d358     LIBCMT:initializers.obj
 0002:00000360       __xp_a                     000000014005d360     LIBCMT:initializers.obj
 0002:00000368       __acrt_locale_terminator   000000014005d368     libucrt:locale_initializer.obj
 0002:00000370       __dcrt_console_output_terminator 000000014005d370     libucrt:console_output_initializer.obj
 0002:00000378       __acrt_stdio_terminator    000000014005d378     libucrt:stdio_initializer.obj
 0002:00000380       __xp_z                     000000014005d380     LIBCMT:initializers.obj
 0002:00000388       __xt_a                     000000014005d388     LIBCMT:initializers.obj
 0002:00000390       __xt_z                     000000014005d390     LIBCMT:initializers.obj
 0002:000003a8       ??_C@_0BC@HMCDPOFE@msvc_SEH_1?5begin?6@ 000000014005d3a8     main.obj
 0002:000003c0       ??_C@_0BN@OODDBEIH@msvc_SEH_1?3goto__except?5?$CI1?$CJ?6@ 000000014005d3c0     main.obj
 0002:000003e0       ??_C@_0BA@JNDECPKA@msvc_SEH_1?5end?6@ 000000014005d3e0     main.obj
 0002:000003f0       ??_C@_08ILEGLJIJ@?5in?5try?5@ 000000014005d3f0     main.obj
 0002:00000400       ??_C@_09BMIPJANI@?5in?5try1?5@ 000000014005d400     main.obj
 0002:00000410       ??_C@_0N@JNHFOAKB@?5in?5except1?5@ 000000014005d410     main.obj
 0002:00000420       ??_C@_0M@MPCAANFN@?5in?5except?5@ 000000014005d420     main.obj
 0002:00000430       ??_C@_0BO@LNJIKEHN@?5?$LE?f?$LE?$KC?$LB?$KD?$LL?$KE?R?l?$LD?$KD?$KD?$KM?$LE?m?N?s?$LE?z?B?k?$KD?$LK?$CFx?6?5@ 000000014005d430     main.obj
 0002:00000450       ??_C@_0CE@OMBOFFDC@?5?J?$PN?$LO?$NN?$MA?$OA?P?M?N?$LE?$LG?T?F?k?R?l?$LD?$KD?$KD?$KM?$LE?m?N?s?$LE?z?B?k?$KD?$LK@ 000000014005d450     main.obj
 0002:00000478       ??_C@_0BK@KEDLDKCK@?5?V?P?$LG?O?R?l?$LD?$KD?$KD?$KM?$LE?m?N?s?$LE?z?B?k?$KD?$LK?$CFx?6?5@ 000000014005d478     main.obj
 0002:00000498       ??_C@_0BO@EJIPKEGJ@?5?$LF?$KF?$LC?$LN?V?P?$LG?O?R?l?$LD?$KD?$KD?$KM?$LE?m?N?s?$LE?z?B?k?$KD?$LK?$CFx?6?5@ 000000014005d498     main.obj
 0002:000004b8       ??_C@_0BO@CIHKLFCF@?5?J?$PN?W?i?T?$LN?$LN?g?R?l?$LD?$KD?$KD?$KM?$LE?m?N?s?$LE?z?B?k?$KD?$LK?$CFx?6?5@ 000000014005d4b8     main.obj
 0002:000004d8       ??_C@_0CA@EBAGOEON@?5?$LI?$KB?$LF?c?J?$PN?$LM?F?K?c?R?l?$LD?$KD?$KD?$KM?$LE?m?N?s?$LE?z?B?k?$KD?$LK?$CFx?6?5@ 000000014005d4d8     main.obj
 0002:000004f8       ??_C@_0BL@MKFEICGO@?5?$LB?$LL0?$LD?$PN?R?l?$LD?$KD?$KD?$KM?$LE?m?N?s?$LE?z?B?k?$KD?$LK?$CFx?6?5@ 000000014005d4f8     main.obj
 0002:00000518       ??_C@_0BO@PPNLPOAE@?5?J?$PN?$LO?$NN?R?g?$LD?v?R?l?$LD?$KD?$KD?$KM?$LE?m?N?s?$LE?z?B?k?$KD?$LK?$CFx?6?5@ 000000014005d518     main.obj
 0002:00000538       ??_C@_0BM@OKLJEAMG@?5?R?$LD?$LE?m?N?s?R?l?$LD?$KD?$KD?$KM?$LE?m?N?s?$LE?z?B?k?$KD?$LK?$CFx?6?5@ 000000014005d538     main.obj
 0002:00000558       ??_C@_0BO@FKGJNGPG@?5?$LH?G?$LH?$KI?V?$LI?A?n?R?l?$LD?$KD?$KD?$KM?$LE?m?N?s?$LE?z?B?k?$KD?$LK?$CFx?6?5@ 000000014005d558     main.obj
 0002:00000578       ??_C@_0BO@GLKEFAH@?5?$LG?Q?U?$LL?R?g?$LD?v?R?l?$LD?$KD?$KD?$KM?$LE?m?N?s?$LE?z?B?k?$KD?$LK?$CFx?6?5@ 000000014005d578     main.obj
 0002:00000598       ??_C@_0BO@EEMDLMMK@?5?N?$NO?P?$KH?$LO?d?$LC?$KB?R?l?$LD?$KD?$KD?$KM?$LE?m?N?s?$LE?z?B?k?$KD?$LK?$CFx?6?5@ 000000014005d598     main.obj
 0002:000005b8       ??_C@_0CG@EGGIGINH@?5?S?C?$LL?$KH?W?T?$LG?$KI?R?e?$LF?D?H?m?$LM?$PO?R?l?$LD?$KD?$KD?$KM?$LE?m?N?s?$LE?z?B?k@ 000000014005d5b8     main.obj
 0002:000005e0       ??_C@_0BK@JBEMOMBL@?5?F?d?K?$PM?R?l?$LD?$KD?$KD?$KM?$LE?m?N?s?$LE?z?B?k?$KD?$LK?$CFx?6?5@ 000000014005d5e0     main.obj
 0002:00000600       ??_C@_07MDGPEDJC@?5in?5try@ 000000014005d600     main.obj
 0002:00000608       ??_C@_0L@KBPGOEPO@?5in?5except@ 000000014005d608     main.obj
 0002:00000618       ??_C@_0M@KKJLNECI@?5in?5finally@ 000000014005d618     main.obj
 0002:00000630       __xmm@ffffffffffffffffffffffffffffffff 000000014005d630     LIBCMT:utility.obj
 0002:00000640       _pDestructExceptionObject  000000014005d640     libvcruntime:ehhelpers.obj
 0002:00000d60       ??_C@_08EHJDFFNH@__based?$CI@ 000000014005dd60     libvcruntime:undname.obj
 0002:00000d70       ??_C@_07KOLFKCDI@__cdecl@  000000014005dd70     libvcruntime:undname.obj
 0002:00000d78       ??_C@_08GHMPAG@__pascal@   000000014005dd78     libvcruntime:undname.obj
 0002:00000d88       ??_C@_09IFJBGAPI@__stdcall@ 000000014005dd88     libvcruntime:undname.obj
 0002:00000d98       ??_C@_0L@NPHFGOKO@__thiscall@ 000000014005dd98     libvcruntime:undname.obj
 0002:00000da8       ??_C@_0L@JMKHOMEK@__fastcall@ 000000014005dda8     libvcruntime:undname.obj
 0002:00000db8       ??_C@_0N@BCKKPABJ@__vectorcall@ 000000014005ddb8     libvcruntime:undname.obj
 0002:00000dc8       ??_C@_09HIJEGCPM@__clrcall@ 000000014005ddc8     libvcruntime:undname.obj
 0002:00000dd4       ??_C@_06GHPCKEAG@__eabi@   000000014005ddd4     libvcruntime:undname.obj
 0002:00000de0       ??_C@_09IOPIDJLG@__swift_1@ 000000014005dde0     libvcruntime:undname.obj
 0002:00000df0       ??_C@_09KFNFGKHF@__swift_2@ 000000014005ddf0     libvcruntime:undname.obj
 0002:00000e00       ??_C@_09LMMOFLDE@__swift_3@ 000000014005de00     libvcruntime:undname.obj
 0002:00000e10       ??_C@_07JOMMBBKO@__ptr64@  000000014005de10     libvcruntime:undname.obj
 0002:00000e18       ??_C@_0L@PILCLIHE@__restrict@ 000000014005de18     libvcruntime:undname.obj
 0002:00000e28       ??_C@_0M@GFIIJFMG@__unaligned@ 000000014005de28     libvcruntime:undname.obj
 0002:00000e38       ??_C@_09DHDLOLLB@restrict?$CI@ 000000014005de38     libvcruntime:undname.obj
 0002:00000e42       ??_C@_00CNPNBAHC@@         000000014005de42     libvcruntime:undname.obj
 0002:00000e44       ??_C@_04NIHEBCM@?5new@     000000014005de44     libvcruntime:undname.obj
 0002:00000e50       ??_C@_07FPCDHGMM@?5delete@ 000000014005de50     libvcruntime:undname.obj
 0002:00000e58       ??_C@_01NEMOKFLO@?$DN@     000000014005de58     libvcruntime:undname.obj
 0002:00000e5c       ??_C@_02GPIOPFAK@?$DO?$DO@ 000000014005de5c     libvcruntime:undname.obj
 0002:00000e60       ??_C@_02FODMEDOG@?$DM?$DM@ 000000014005de60     libvcruntime:undname.obj
 0002:00000e64       ??_C@_01DCLJPIOD@?$CB@     000000014005de64     libvcruntime:undname.obj
 0002:00000e68       ??_C@_02EGOFBIJA@?$DN?$DN@ 000000014005de68     libvcruntime:undname.obj
 0002:00000e6c       ??_C@_02FDNJECIE@?$CB?$DN@ 000000014005de6c     libvcruntime:undname.obj
 0002:00000e70       ??_C@_02GPECMEKF@?$FL?$FN@ 000000014005de70     libvcruntime:undname.obj
 0002:00000e78       ??_C@_08LHJFAFGD@operator@ 000000014005de78     libvcruntime:undname.obj
 0002:00000e84       ??_C@_02HBOOOICD@?9?$DO@   000000014005de84     libvcruntime:undname.obj
 0002:00000e88       ??_C@_01NBENCBCI@?$CK@     000000014005de88     libvcruntime:undname.obj
 0002:00000e8c       ??_C@_02ECNGHCIF@?$CL?$CL@ 000000014005de8c     libvcruntime:undname.obj
 0002:00000e90       ??_C@_02BAABKJLB@?9?9@     000000014005de90     libvcruntime:undname.obj
 0002:00000e94       ??_C@_01JOAMLHOP@?9@       000000014005de94     libvcruntime:undname.obj
 0002:00000e98       ??_C@_01MIFGBAGJ@?$CL@     000000014005de98     libvcruntime:undname.obj
 0002:00000e9c       ??_C@_01HNPIGOCE@?$CG@     000000014005de9c     libvcruntime:undname.obj
 0002:00000ea0       ??_C@_03MNHNFDLC@?9?$DO?$CK@ 000000014005dea0     libvcruntime:undname.obj
 0002:00000ea4       ??_C@_01KMDKNFGN@?1@       000000014005dea4     libvcruntime:undname.obj
 0002:00000ea8       ??_C@_01FGNFDNOH@?$CF@     000000014005dea8     libvcruntime:undname.obj
 0002:00000eac       ??_C@_01MNNFJEPP@?$DM@     000000014005deac     libvcruntime:undname.obj
 0002:00000eb0       ??_C@_02EHCHHCKH@?$DM?$DN@ 000000014005deb0     libvcruntime:undname.obj
 0002:00000eb4       ??_C@_01PPODPGHN@?$DO@     000000014005deb4     libvcruntime:undname.obj
 0002:00000eb8       ??_C@_02EEKDKGMJ@?$DO?$DN@ 000000014005deb8     libvcruntime:undname.obj
 0002:00000ebc       ??_C@_01IHBHIGKO@?0@       000000014005debc     libvcruntime:undname.obj
 0002:00000ec0       ??_C@_02HCKGKOFO@?$CI?$CJ@ 000000014005dec0     libvcruntime:undname.obj
 0002:00000ec4       ??_C@_01PJKLJHI@?$HO@      000000014005dec4     libvcruntime:undname.obj
 0002:00000ec8       ??_C@_01JKBOJNNK@?$FO@     000000014005dec8     libvcruntime:undname.obj
 0002:00000ecc       ??_C@_01DNKMNLPK@?$HM@     000000014005decc     libvcruntime:undname.obj
 0002:00000ed0       ??_C@_02PPKAJPJL@?$CG?$CG@ 000000014005ded0     libvcruntime:undname.obj
 0002:00000ed4       ??_C@_02NONPIBCD@?$HM?$HM@ 000000014005ded4     libvcruntime:undname.obj
 0002:00000ed8       ??_C@_02FPIMKNGF@?$CK?$DN@ 000000014005ded8     libvcruntime:undname.obj
 0002:00000edc       ??_C@_02FOEOMHFC@?$CL?$DN@ 000000014005dedc     libvcruntime:undname.obj
 0002:00000ee0       ??_C@_02FKMDLLOA@?9?$DN@   000000014005dee0     libvcruntime:undname.obj
 0002:00000ee4       ??_C@_02FJEHGPIO@?1?$DN@   000000014005dee4     libvcruntime:undname.obj
 0002:00000ee8       ??_C@_02FENAOKFI@?$CF?$DN@ 000000014005dee8     libvcruntime:undname.obj
 0002:00000eec       ??_C@_03IKFCCPFF@?$DO?$DO?$DN@ 000000014005deec     libvcruntime:undname.obj
 0002:00000ef0       ??_C@_03CDNPDDLA@?$DM?$DM?$DN@ 000000014005def0     libvcruntime:undname.obj
 0002:00000ef4       ??_C@_02FGJGFEAB@?$CG?$DN@ 000000014005def4     libvcruntime:undname.obj
 0002:00000ef8       ??_C@_02DHLNPPGH@?$HM?$DN@ 000000014005def8     libvcruntime:undname.obj
 0002:00000efc       ??_C@_02MHEGNOJ@?$FO?$DN@  000000014005defc     libvcruntime:undname.obj
 0002:00000f00       ??_C@_09IFPLHPGF@?$GAvftable?8@ 000000014005df00     libvcruntime:undname.obj
 0002:00000f10       ??_C@_09BLBHBJP@?$GAvbtable?8@ 000000014005df10     libvcruntime:undname.obj
 0002:00000f20       ??_C@_07FEEIOKP@?$GAvcall?8@ 000000014005df20     libvcruntime:undname.obj
 0002:00000f28       ??_C@_08LLFFHHDJ@?$GAtypeof?8@ 000000014005df28     libvcruntime:undname.obj
 0002:00000f38       ??_C@_0BF@KDPPACIK@?$GAlocal?5static?5guard?8@ 000000014005df38     libvcruntime:undname.obj
 0002:00000f50       ??_C@_08OBABFOLI@?$GAstring?8@ 000000014005df50     libvcruntime:undname.obj
 0002:00000f60       ??_C@_0BD@JDLKDPAB@?$GAvbase?5destructor?8@ 000000014005df60     libvcruntime:undname.obj
 0002:00000f78       ??_C@_0BN@DEGPLNFK@?$GAvector?5deleting?5destructor?8@ 000000014005df78     libvcruntime:undname.obj
 0002:00000f98       ??_C@_0BO@OBMKPJIG@?$GAdefault?5constructor?5closure?8@ 000000014005df98     libvcruntime:undname.obj
 0002:00000fb8       ??_C@_0BN@IMDCHIKM@?$GAscalar?5deleting?5destructor?8@ 000000014005dfb8     libvcruntime:undname.obj
 0002:00000fd8       ??_C@_0BO@PFGOCPJJ@?$GAvector?5constructor?5iterator?8@ 000000014005dfd8     libvcruntime:undname.obj
 0002:00000ff8       ??_C@_0BN@LFPFMEDL@?$GAvector?5destructor?5iterator?8@ 000000014005dff8     libvcruntime:undname.obj
 0002:00001018       ??_C@_0CE@IKBNEHA@?$GAvector?5vbase?5constructor?5itera@ 000000014005e018     libvcruntime:undname.obj
 0002:00001040       ??_C@_0BL@NILFHHPC@?$GAvirtual?5displacement?5map?8@ 000000014005e040     libvcruntime:undname.obj
 0002:00001060       ??_C@_0CB@JONCMFFK@?$GAeh?5vector?5constructor?5iterator@ 000000014005e060     libvcruntime:undname.obj
 0002:00001088       ??_C@_0CA@GCEOPDGL@?$GAeh?5vector?5destructor?5iterator?8@ 000000014005e088     libvcruntime:undname.obj
 0002:000010a8       ??_C@_0CH@OOJPLCPH@?$GAeh?5vector?5vbase?5constructor?5it@ 000000014005e0a8     libvcruntime:undname.obj
 0002:000010d0       ??_C@_0BL@LLKPOHJI@?$GAcopy?5constructor?5closure?8@ 000000014005e0d0     libvcruntime:undname.obj
 0002:000010f0       ??_C@_0BA@KBCDOMBN@?$GAudt?5returning?8@ 000000014005e0f0     libvcruntime:undname.obj
 0002:00001100       ??_C@_03KLGMFNMG@?$GAEH@   000000014005e100     libvcruntime:undname.obj
 0002:00001104       ??_C@_05KHLCHHI@?$GARTTI@  000000014005e104     libvcruntime:undname.obj
 0002:00001110       ??_C@_0BA@KKLDJDLB@?$GAlocal?5vftable?8@ 000000014005e110     libvcruntime:undname.obj
 0002:00001120       ??_C@_0CE@IIHCMGGL@?$GAlocal?5vftable?5constructor?5clos@ 000000014005e120     libvcruntime:undname.obj
 0002:00001144       ??_C@_06FHBGPFGH@?5new?$FL?$FN@ 000000014005e144     libvcruntime:undname.obj
 0002:00001150       ??_C@_09LBNFPBCA@?5delete?$FL?$FN@ 000000014005e150     libvcruntime:undname.obj
 0002:00001160       ??_C@_0P@HJKNJFNN@?$GAomni?5callsig?8@ 000000014005e160     libvcruntime:undname.obj
 0002:00001170       ??_C@_0BL@CNOONJFP@?$GAplacement?5delete?5closure?8@ 000000014005e170     libvcruntime:undname.obj
 0002:00001190       ??_C@_0BN@CKNJLHMB@?$GAplacement?5delete?$FL?$FN?5closure?8@ 000000014005e190     libvcruntime:undname.obj
 0002:000011b0       ??_C@_0CG@CFDHKGGD@?$GAmanaged?5vector?5constructor?5ite@ 000000014005e1b0     libvcruntime:undname.obj
 0002:000011d8       ??_C@_0CF@IMGKMJNO@?$GAmanaged?5vector?5destructor?5iter@ 000000014005e1d8     libvcruntime:undname.obj
 0002:00001200       ??_C@_0CG@HLDDJMAG@?$GAeh?5vector?5copy?5constructor?5ite@ 000000014005e200     libvcruntime:undname.obj
 0002:00001228       ??_C@_0CM@FCBBDIGB@?$GAeh?5vector?5vbase?5copy?5construct@ 000000014005e228     libvcruntime:undname.obj
 0002:00001258       ??_C@_0BL@CLIPGLGB@?$GAdynamic?5initializer?5for?5?8@ 000000014005e258     libvcruntime:undname.obj
 0002:00001278       ??_C@_0CB@PDBIFEP@?$GAdynamic?5atexit?5destructor?5for?5@ 000000014005e278     libvcruntime:undname.obj
 0002:000012a0       ??_C@_0CD@CGAJBKEJ@?$GAvector?5copy?5constructor?5iterat@ 000000014005e2a0     libvcruntime:undname.obj
 0002:000012c8       ??_C@_0CJ@GJELGAMM@?$GAvector?5vbase?5copy?5constructor?5@ 000000014005e2c8     libvcruntime:undname.obj
 0002:000012f8       ??_C@_0CL@FGIJHLCE@?$GAmanaged?5vector?5copy?5constructo@ 000000014005e2f8     libvcruntime:undname.obj
 0002:00001328       ??_C@_0BM@PMGGMLDN@?$GAlocal?5static?5thread?5guard?8@ 000000014005e328     libvcruntime:undname.obj
 0002:00001348       ??_C@_0N@BDNMDMOL@operator?5?$CC?$CC?5@ 000000014005e348     libvcruntime:undname.obj
 0002:00001358       ??_C@_0BC@GGEBGALA@operator?5co_await@ 000000014005e358     libvcruntime:undname.obj
 0002:00001370       ??_C@_0M@GAAIMMOH@operator?$DM?$DN?$DO@ 000000014005e370     libvcruntime:undname.obj
 0002:00001380       ??_C@_0BC@DAFEJGAK@?5Type?5Descriptor?8@ 000000014005e380     libvcruntime:undname.obj
 0002:00001398       ??_C@_0BM@LDKODKLH@?5Base?5Class?5Descriptor?5at?5?$CI@ 000000014005e398     libvcruntime:undname.obj
 0002:000013b8       ??_C@_0BD@LGICGFMM@?5Base?5Class?5Array?8@ 000000014005e3b8     libvcruntime:undname.obj
 0002:000013d0       ??_C@_0BN@MECKDCOJ@?5Class?5Hierarchy?5Descriptor?8@ 000000014005e3d0     libvcruntime:undname.obj
 0002:000013f0       ??_C@_0BK@CFCOFLF@?5Complete?5Object?5Locator?8@ 000000014005e3f0     libvcruntime:undname.obj
 0002:00001410       ??_C@_0BG@JNJLAMPM@?$GAanonymous?5namespace?8@ 000000014005e410     libvcruntime:undname.obj
 0002:00001428       ??_C@_04HEJADOOB@CV?3?5@   000000014005e428     libvcruntime:undname.obj
 0002:00001430       ??_C@_02MOLJINC@?3?3@      000000014005e430     libvcruntime:undname.obj
 0002:00001438       ??_C@_0BE@JAEOCHPE@template?9parameter?9@ 000000014005e438     libvcruntime:undname.obj
 0002:00001450       ??_C@_0BF@LNLGBBNL@?$GAtemplate?9parameter?9@ 000000014005e450     libvcruntime:undname.obj
 0002:00001468       ??_C@_0O@KHGCOMHP@generic?9type?9@ 000000014005e468     libvcruntime:undname.obj
 0002:00001478       ??_C@_0P@ODDENDLM@?$GAgeneric?9type?9@ 000000014005e478     libvcruntime:undname.obj
 0002:00001488       ??_C@_02OHHJMEON@?8?8@     000000014005e488     libvcruntime:undname.obj
 0002:00001490       ??_C@_0BN@IBLMMFAP@?$GAnon?9type?9template?9parameter@ 000000014005e490     libvcruntime:undname.obj
 0002:000014b0       ??_C@_03DLDNIBIK@?$CFlf@   000000014005e4b0     libvcruntime:undname.obj
 0002:000014b4       ??_C@_04OFALKAJ@?$DP?$DP_C@ 000000014005e4b4     libvcruntime:undname.obj
 0002:000014bc       ??_C@_03KHICJKCI@?4?4?4@   000000014005e4bc     libvcruntime:undname.obj
 0002:000014c0       ??_C@_04HIBGFPH@NULL@      000000014005e4c0     libvcruntime:undname.obj
 0002:000014c8       ??_C@_02DPKJAMEF@?$CFd@    000000014005e4c8     libvcruntime:undname.obj
 0002:000014d0       ??_C@_0BK@IHCCFNEL@?$GAtemplate?9type?9parameter?9@ 000000014005e4d0     libvcruntime:undname.obj
 0002:000014f0       ??_C@_0BK@OFCNNNKO@?$GAgeneric?9class?9parameter?9@ 000000014005e4f0     libvcruntime:undname.obj
 0002:00001510       ??_C@_0BL@NGJBLFIL@?$GAgeneric?9method?9parameter?9@ 000000014005e510     libvcruntime:undname.obj
 0002:00001530       ??_C@_07OHNGEDJK@nullptr@  000000014005e530     libvcruntime:undname.obj
 0002:00001538       ??_C@_06COJIGPIB@lambda@   000000014005e538     libvcruntime:undname.obj
 0002:00001540       ??_C@_04GKJNKENE@void@     000000014005e540     libvcruntime:undname.obj
 0002:00001548       ??_C@_0BE@EODMJLIF@?$GAtemplate?9parameter@ 000000014005e548     libvcruntime:undname.obj
 0002:0000155c       ??_C@_03OPGICMGF@?$HN?8?5@ 000000014005e55c     libvcruntime:undname.obj
 0002:00001560       ??_C@_02IGFCGPIL@?$HN?8@   000000014005e560     libvcruntime:undname.obj
 0002:00001568       ??_C@_0N@CBHHHENL@?$GAvtordispex?$HL@ 000000014005e568     libvcruntime:undname.obj
 0002:00001578       ??_C@_0L@GHPFDFH@?$GAvtordisp?$HL@ 000000014005e578     libvcruntime:undname.obj
 0002:00001588       ??_C@_0L@HNGCOGAE@?$GAadjustor?$HL@ 000000014005e588     libvcruntime:undname.obj
 0002:00001598       ??_C@_0CB@KJDOOODE@?$GAlocal?5static?5destructor?5helper@ 000000014005e598     libvcruntime:undname.obj
 0002:000015c0       ??_C@_0DB@ILEFOCIJ@?$GAtemplate?5static?5data?5member?5co@ 000000014005e5c0     libvcruntime:undname.obj
 0002:000015f8       ??_C@_0DA@HGFJFBBE@?$GAtemplate?5static?5data?5member?5de@ 000000014005e5f8     libvcruntime:undname.obj
 0002:00001628       ??_C@_07PGOEDBHP@static?5@ 000000014005e628     libvcruntime:undname.obj
 0002:00001630       ??_C@_08NIEOINHE@virtual?5@ 000000014005e630     libvcruntime:undname.obj
 0002:00001640       ??_C@_09LAPHOOG@private?3?5@ 000000014005e640     libvcruntime:undname.obj
 0002:00001650       ??_C@_0M@GAIFPFIP@protected?3?5@ 000000014005e650     libvcruntime:undname.obj
 0002:00001660       ??_C@_08GPDDCMKI@public?3?5@ 000000014005e660     libvcruntime:undname.obj
 0002:00001670       ??_C@_08KJLFOPNE@?$FLthunk?$FN?3@ 000000014005e670     libvcruntime:undname.obj
 0002:00001680       ??_C@_0M@DHNBOJMP@extern?5?$CCC?$CC?5@ 000000014005e680     libvcruntime:undname.obj
 0002:0000168c       ??_C@_02KCKGHPCA@?$CJ?5@   000000014005e68c     libvcruntime:undname.obj
 0002:00001690       ??_C@_05CIHEBHNO@char?5@   000000014005e690     libvcruntime:undname.obj
 0002:00001698       ??_C@_06EHJMALKF@short?5@  000000014005e698     libvcruntime:undname.obj
 0002:000016a0       ??_C@_04LAHKHJMA@int?5@    000000014005e6a0     libvcruntime:undname.obj
 0002:000016a8       ??_C@_05CJIMAING@long?5@   000000014005e6a8     libvcruntime:undname.obj
 0002:000016b0       ??_C@_09EBBEKKIH@unsigned?5@ 000000014005e6b0     libvcruntime:undname.obj
 0002:000016bc       ??_C@_05BEFAKPML@void?5@   000000014005e6bc     libvcruntime:undname.obj
 0002:000016c8       ??_C@_09GAIEOBLP@volatile?5@ 000000014005e6c8     libvcruntime:undname.obj
 0002:000016d8       ??_C@_08PABEKFH@volatile@  000000014005e6d8     libvcruntime:undname.obj
 0002:000016e8       ??_C@_0BA@LKIJLKPP@std?3?3nullptr_t?5@ 000000014005e6e8     libvcruntime:undname.obj
 0002:000016f8       ??_C@_0P@GCOCNKDM@std?3?3nullptr_t@ 000000014005e6f8     libvcruntime:undname.obj
 0002:00001708       ??_C@_0L@EGPHHEKN@?$DMellipsis?$DO@ 000000014005e708     libvcruntime:undname.obj
 0002:00001714       ??_C@_04EENFHACM@?0?4?4?4@ 000000014005e714     libvcruntime:undname.obj
 0002:00001720       ??_C@_0M@ELJOJFFH@?0?$DMellipsis?$DO@ 000000014005e720     libvcruntime:undname.obj
 0002:00001730       ??_C@_09DNHFEOJI@?5noexcept@ 000000014005e730     libvcruntime:undname.obj
 0002:0000173c       ??_C@_03PBJBJNON@cpu@      000000014005e73c     libvcruntime:undname.obj
 0002:00001740       ??_C@_03DCBBJBAA@amp@      000000014005e740     libvcruntime:undname.obj
 0002:00001744       ??_C@_02KEGNLNML@?0?5@     000000014005e744     libvcruntime:undname.obj
 0002:00001748       ??_C@_04ENMBGAPA@char@     000000014005e748     libvcruntime:undname.obj
 0002:00001750       ??_C@_05BFKKPKCG@short@    000000014005e750     libvcruntime:undname.obj
 0002:00001758       ??_C@_03JBIPMCLC@int@      000000014005e758     libvcruntime:undname.obj
 0002:0000175c       ??_C@_04GOKPGOLB@long@     000000014005e75c     libvcruntime:undname.obj
 0002:00001764       ??_C@_05KNFBNCOH@float@    000000014005e764     libvcruntime:undname.obj
 0002:0000176c       ??_C@_06BNJCAIGJ@double@   000000014005e76c     libvcruntime:undname.obj
 0002:00001774       ??_C@_04DDKJGDCM@bool@     000000014005e774     libvcruntime:undname.obj
 0002:0000177c       ??_C@_06EBGKOKIG@__int8@   000000014005e77c     libvcruntime:undname.obj
 0002:00001788       ??_C@_07ICFHOGAF@__int16@  000000014005e788     libvcruntime:undname.obj
 0002:00001790       ??_C@_07OFLPPHGP@__int32@  000000014005e790     libvcruntime:undname.obj
 0002:00001798       ??_C@_07LFCOJCAC@__int64@  000000014005e798     libvcruntime:undname.obj
 0002:000017a0       ??_C@_08GAHOLHEO@__int128@ 000000014005e7a0     libvcruntime:undname.obj
 0002:000017b0       ??_C@_09EEKGDCPH@?$DMunknown?$DO@ 000000014005e7b0     libvcruntime:undname.obj
 0002:000017c0       ??_C@_07CFHGOPCN@char8_t@  000000014005e7c0     libvcruntime:undname.obj
 0002:000017c8       ??_C@_08HBIPOFJB@char16_t@ 000000014005e7c8     libvcruntime:undname.obj
 0002:000017d8       ??_C@_08IECNCBKG@char32_t@ 000000014005e7d8     libvcruntime:undname.obj
 0002:000017e8       ??_C@_07CLGGIAMF@wchar_t@  000000014005e7e8     libvcruntime:undname.obj
 0002:000017f0       ??_C@_04HAPDLBFF@auto@     000000014005e7f0     libvcruntime:undname.obj
 0002:000017f8       ??_C@_0P@LHCGKIGK@decltype?$CIauto?$CJ@ 000000014005e7f8     libvcruntime:undname.obj
 0002:00001808       ??_C@_05PCNBGHCF@this?5@   000000014005e808     libvcruntime:undname.obj
 0002:00001810       ??_C@_06GCICPBLB@__w64?5@  000000014005e810     libvcruntime:undname.obj
 0002:00001818       ??_C@_07NFANNNEC@UNKNOWN@  000000014005e818     libvcruntime:undname.obj
 0002:00001820       ??_C@_07EDHNAJHC@signed?5@ 000000014005e820     libvcruntime:undname.obj
 0002:00001828       ??_C@_05BNCCCJPP@const@    000000014005e828     libvcruntime:undname.obj
 0002:00001830       ??_C@_09EFNPDFFP@?5volatile@ 000000014005e830     libvcruntime:undname.obj
 0002:00001840       ??_C@_0P@GCIFDJCJ@?$GAunknown?5ecsu?8@ 000000014005e840     libvcruntime:undname.obj
 0002:00001850       ??_C@_06MOJHIBMG@union?5@  000000014005e850     libvcruntime:undname.obj
 0002:00001858       ??_C@_07DIBCDNGL@struct?5@ 000000014005e858     libvcruntime:undname.obj
 0002:00001860       ??_C@_06LJBABKPM@class?5@  000000014005e860     libvcruntime:undname.obj
 0002:00001868       ??_C@_08KOFANOFK@coclass?5@ 000000014005e868     libvcruntime:undname.obj
 0002:00001878       ??_C@_0N@DLIEFKNA@cointerface?5@ 000000014005e878     libvcruntime:undname.obj
 0002:00001888       ??_C@_05LJGMCFOG@enum?5@   000000014005e888     libvcruntime:undname.obj
 0002:00001890       ??_C@_06LIJLOJAG@const?5@  000000014005e890     libvcruntime:undname.obj
 0002:00001898       ??_C@_02KJPKDIBN@?$CG?5@   000000014005e898     libvcruntime:undname.obj
 0002:0000189c       ??_C@_03PCKGMOPB@?$CG?$CG?5@ 000000014005e89c     libvcruntime:undname.obj
 0002:000018a0       ??_C@_0M@EALIELKG@cli?3?3array?$DM@ 000000014005e8a0     libvcruntime:undname.obj
 0002:000018b0       ??_C@_0O@GKABPPIF@cli?3?3pin_ptr?$DM@ 000000014005e8b0     libvcruntime:undname.obj
 0002:000018c0       ??_C@_02GOGNNPBN@?$CJ?$FL@ 000000014005e8c0     libvcruntime:undname.obj
 0002:000018c4       ??_C@_06EEGAIFAK@?$HLflat?$HN@ 000000014005e8c4     libvcruntime:undname.obj
 0002:000018cc       ??_C@_05JIBOFOHK@?$HLfor?5@ 000000014005e8cc     libvcruntime:undname.obj
 0002:000018d4       ??_C@_02MDINNEEG@s?5@      000000014005e8d4     libvcruntime:undname.obj
 0002:000018e0       ??_7DNameNode@@6B@         000000014005e8e0     libvcruntime:undname.obj
 0002:00001908       ??_7charNode@@6B@          000000014005e908     libvcruntime:undname.obj
 0002:00001930       ??_7pcharNode@@6B@         000000014005e930     libvcruntime:undname.obj
 0002:00001958       ??_7pDNameNode@@6B@        000000014005e958     libvcruntime:undname.obj
 0002:00001980       ??_7DNameStatusNode@@6B@   000000014005e980     libvcruntime:undname.obj
 0002:000019a8       ??_7pairNode@@6B@          000000014005e9a8     libvcruntime:undname.obj
 0002:00001ad0       ??_C@_04OKOHEJBO@?5?$DP?$DP?5@ 000000014005ead0     libvcruntime:undname.obj
 0002:00001ae0       ?nodes@?1??make@DNameStatusNode@@SAPEBV2@W4DNameStatus@@@Z@4QBV2@B 000000014005eae0     libvcruntime:undname.obj
 0002:00001b38       ??_C@_1DM@KHCHBNEB@?$AAa?$AAp?$AAi?$AA?9?$AAm?$AAs?$AA?9?$AAw?$AAi?$AAn?$AA?9?$AAc?$AAo?$AAr?$AAe@ 000000014005eb38     libvcruntime:winapi_downlevel.obj
 0002:00001b78       ??_C@_1DK@LPPGFMPP@?$AAa?$AAp?$AAi?$AA?9?$AAm?$AAs?$AA?9?$AAw?$AAi?$AAn?$AA?9?$AAc?$AAo?$AAr?$AAe@ 000000014005eb78     libvcruntime:winapi_downlevel.obj
 0002:00001bb8       ??_C@_1BC@GDMECMAK@?$AAk?$AAe?$AAr?$AAn?$AAe?$AAl?$AA3?$AA2@ 000000014005ebb8     libvcruntime:winapi_downlevel.obj
 0002:00001bd0       ??_C@_1BA@PFFKHIOG@?$AAa?$AAp?$AAi?$AA?9?$AAm?$AAs?$AA?9@ 000000014005ebd0     libvcruntime:winapi_downlevel.obj
 0002:00001be8       ??_C@_08KNHFBNJ@FlsAlloc@  000000014005ebe8     libvcruntime:winapi_downlevel.obj
 0002:00001c00       ??_C@_07PEJMOBNF@FlsFree@  000000014005ec00     libvcruntime:winapi_downlevel.obj
 0002:00001c10       ??_C@_0M@GDNOONDI@FlsGetValue@ 000000014005ec10     libvcruntime:winapi_downlevel.obj
 0002:00001c28       ??_C@_0M@JCPCPOEF@FlsSetValue@ 000000014005ec28     libvcruntime:winapi_downlevel.obj
 0002:00001c40       ??_C@_0BM@HCFOFFN@InitializeCriticalSectionEx@ 000000014005ec40     libvcruntime:winapi_downlevel.obj
 0002:00001c60       ?s_negLengthTab@FH4@@3QBCB 000000014005ec60     libvcruntime:risctrnsctrl.obj
 0002:00001c70       ?s_shiftTab@FH4@@3QBEB     000000014005ec70     libvcruntime:risctrnsctrl.obj
 0002:00001dc0       ??_7exception@std@@6B@     000000014005edc0     libvcruntime:frame.obj
 0002:00001dd0       ??_C@_0BC@EOODALEL@Unknown?5exception@ 000000014005edd0     libvcruntime:frame.obj
 0002:00001df0       ??_7bad_exception@std@@6B@ 000000014005edf0     libvcruntime:frame.obj
 0002:00001e00       ??_C@_0O@DPKOEFFH@bad?5exception@ 000000014005ee00     libvcruntime:frame.obj
 0002:00001e10       _Fenv1                     000000014005ee10     libucrt:output.obj
 0002:00001e20       ?standard_lookup_table_spectre@__crt_stdio_output@@3V?$spectre_mitigated_lookup_table@Ustate_transition_pair@__crt_stdio_output@@$0IA@@1@B 000000014005ee20     libucrt:output.obj
 0002:00001f20       ?format_validation_lookup_table_spectre@__crt_stdio_output@@3V?$spectre_mitigated_lookup_table@Ustate_transition_pair@__crt_stdio_output@@$0IA@@1@B 000000014005ef20     libucrt:output.obj
 0002:00002020       ??_C@_1O@CEDCILHN@?$AA?$CI?$AAn?$AAu?$AAl?$AAl?$AA?$CJ@ 000000014005f020     libucrt:output.obj
 0002:00002030       ??_C@_06OJHGLDPL@?$CInull?$CJ@ 000000014005f030     libucrt:output.obj
 0002:00002040       __acrt_exception_action_table 000000014005f040     libucrt:exception_filter.obj
 0002:00002100       __acrt_signal_action_table_count 000000014005f100     libucrt:exception_filter.obj
 0002:00002108       __acrt_signal_action_table_size 000000014005f108     libucrt:exception_filter.obj
 0002:00002110       __acrt_signal_action_first_fpe_index 000000014005f110     libucrt:exception_filter.obj
 0002:00002118       __acrt_signal_action_fpe_count 000000014005f118     libucrt:exception_filter.obj
 0002:00002120       ??_C@_1DE@JNGNBFGO@?$AAR?$AAu?$AAn?$AAt?$AAi?$AAm?$AAe?$AA?5?$AAE?$AAr?$AAr?$AAo?$AAr?$AA?$CB?$AA?6@ 000000014005f120     libucrt:report_runtime_error.obj
 0002:00002158       ??_C@_1CO@EAEJAADC@?$AA?$DM?$AAp?$AAr?$AAo?$AAg?$AAr?$AAa?$AAm?$AA?5?$AAn?$AAa?$AAm?$AAe?$AA?5?$AAu@ 000000014005f158     libucrt:report_runtime_error.obj
 0002:00002188       ??_C@_17LGKOMLJ@?$AA?4?$AA?4?$AA?4@ 000000014005f188     libucrt:report_runtime_error.obj
 0002:00002190       ??_C@_15IABLJNFO@?$AA?6?$AA?6@ 000000014005f190     libucrt:report_runtime_error.obj
 0002:000021a0       ??_C@_1EK@MBDPDCGA@?$AAM?$AAi?$AAc?$AAr?$AAo?$AAs?$AAo?$AAf?$AAt?$AA?5?$AAV?$AAi?$AAs?$AAu?$AAa@ 000000014005f1a0     libucrt:report_runtime_error.obj
 0002:000022e0       ??_C@_1BI@BGOHAHKC@?$AAm?$AAs?$AAc?$AAo?$AAr?$AAe?$AAe?$AA?4?$AAd?$AAl?$AAl@ 000000014005f2e0     libucrt:exit.obj
 0002:000022f8       ??_C@_0P@MIGLKIOC@CorExitProcess@ 000000014005f2f8     libucrt:exit.obj
 0002:00002390       __lc_category              000000014005f390     libucrt:wsetlocale.obj
 0002:00002420       ??_C@_1O@GIFLHMA@?$AAL?$AAC?$AA_?$AAA?$AAL?$AAL@ 000000014005f420     libucrt:wsetlocale.obj
 0002:00002430       ??_C@_1BG@PPOMIBNJ@?$AAL?$AAC?$AA_?$AAC?$AAO?$AAL?$AAL?$AAA?$AAT?$AAE@ 000000014005f430     libucrt:wsetlocale.obj
 0002:00002448       ??_C@_1BC@FFJGAPJM@?$AAL?$AAC?$AA_?$AAC?$AAT?$AAY?$AAP?$AAE@ 000000014005f448     libucrt:wsetlocale.obj
 0002:00002460       ??_C@_1BI@PCKFNJFB@?$AAL?$AAC?$AA_?$AAM?$AAO?$AAN?$AAE?$AAT?$AAA?$AAR?$AAY@ 000000014005f460     libucrt:wsetlocale.obj
 0002:00002478       ??_C@_1BG@ENIEDKID@?$AAL?$AAC?$AA_?$AAN?$AAU?$AAM?$AAE?$AAR?$AAI?$AAC@ 000000014005f478     libucrt:wsetlocale.obj
 0002:00002490       ??_C@_1BA@HAAOMIIG@?$AAL?$AAC?$AA_?$AAT?$AAI?$AAM?$AAE@ 000000014005f490     libucrt:wsetlocale.obj
 0002:000024a0       ??_C@_15NBPDDFIP@?$AA?$DN?$AA?$DL@ 000000014005f4a0     libucrt:wsetlocale.obj
 0002:000024a8       ??_C@_13PJJBFPED@?$AA?$DL@ 000000014005f4a8     libucrt:wsetlocale.obj
 0002:000024ac       ??_C@_13NMPKAAJP@?$AA?$DN@ 000000014005f4ac     libucrt:wsetlocale.obj
 0002:000024b0       ??_C@_13IMODFHAA@?$AA?9@   000000014005f4b0     libucrt:wsetlocale.obj
 0002:000024b8       ??_C@_17EFJLDFDO@?$AA?9?$AA_?$AA?4@ 000000014005f4b8     libucrt:wsetlocale.obj
 0002:000024c0       ??_C@_13FHBKNHDA@?$AAC@    000000014005f4c0     libucrt:wsetlocale.obj
 0002:000024c8       ??_C@_17MBJJLFDM@?$AA_?$AA?4?$AA?0@ 000000014005f4c8     libucrt:wsetlocale.obj
 0002:000024d0       ??_C@_13ENNFDPBH@?$AA_@    000000014005f4d0     libucrt:wsetlocale.obj
 0002:000024d4       ??_C@_13JOFGPIOO@?$AA?4@   000000014005f4d4     libucrt:wsetlocale.obj
 0002:00002798       RtlNtPathSeperatorString   000000014005f798     libucrt:winapi_thunks.obj
 0002:000027a8       ??_C@_13FPGAJAPJ@?$AA?2@   000000014005f7a8     libucrt:winapi_thunks.obj
 0002:000027b0       RtlDosPathSeperatorsString 000000014005f7b0     libucrt:winapi_thunks.obj
 0002:000027c0       ??_C@_15MNCACJLI@?$AA?2?$AA?1@ 000000014005f7c0     libucrt:winapi_thunks.obj
 0002:000027c8       RtlAlternateDosPathSeperatorString 000000014005f7c8     libucrt:winapi_thunks.obj
 0002:000027d8       ??_C@_13CGOKJPIL@?$AA?1@   000000014005f7d8     libucrt:winapi_thunks.obj
 0002:00002890       ??_C@_1EA@JGEFHKEI@?$AAa?$AAp?$AAi?$AA?9?$AAm?$AAs?$AA?9?$AAw?$AAi?$AAn?$AA?9?$AAc?$AAo?$AAr?$AAe@ 000000014005f890     libucrt:winapi_thunks.obj
 0002:000028d0       ??_C@_1DI@KMEPCBPN@?$AAa?$AAp?$AAi?$AA?9?$AAm?$AAs?$AA?9?$AAw?$AAi?$AAn?$AA?9?$AAc?$AAo?$AAr?$AAe@ 000000014005f8d0     libucrt:winapi_thunks.obj
 0002:00002908       ??_C@_1DI@IJCEHOCB@?$AAa?$AAp?$AAi?$AA?9?$AAm?$AAs?$AA?9?$AAw?$AAi?$AAn?$AA?9?$AAc?$AAo?$AAr?$AAe@ 000000014005f908     libucrt:winapi_thunks.obj
 0002:00002940       ??_C@_1EI@MPIAOHOC@?$AAa?$AAp?$AAi?$AA?9?$AAm?$AAs?$AA?9?$AAw?$AAi?$AAn?$AA?9?$AAc?$AAo?$AAr?$AAe@ 000000014005f940     libucrt:winapi_thunks.obj
 0002:00002990       ??_C@_1FK@FPHCKFIE@?$AAa?$AAp?$AAi?$AA?9?$AAm?$AAs?$AA?9?$AAw?$AAi?$AAn?$AA?9?$AAc?$AAo?$AAr?$AAe@ 000000014005f990     libucrt:winapi_thunks.obj
 0002:000029f0       ??_C@_1EM@DILCGIIO@?$AAa?$AAp?$AAi?$AA?9?$AAm?$AAs?$AA?9?$AAw?$AAi?$AAn?$AA?9?$AAc?$AAo?$AAr?$AAe@ 000000014005f9f0     libucrt:winapi_thunks.obj
 0002:00002a40       ??_C@_1DM@LNCGDDPN@?$AAa?$AAp?$AAi?$AA?9?$AAm?$AAs?$AA?9?$AAw?$AAi?$AAn?$AA?9?$AAc?$AAo?$AAr?$AAe@ 000000014005fa40     libucrt:winapi_thunks.obj
 0002:00002a80       ??_C@_1DO@FPAPJEMD@?$AAa?$AAp?$AAi?$AA?9?$AAm?$AAs?$AA?9?$AAw?$AAi?$AAn?$AA?9?$AAc?$AAo?$AAr?$AAe@ 000000014005fa80     libucrt:winapi_thunks.obj
 0002:00002ac0       ??_C@_1DK@NDHNAHIO@?$AAa?$AAp?$AAi?$AA?9?$AAm?$AAs?$AA?9?$AAw?$AAi?$AAn?$AA?9?$AAc?$AAo?$AAr?$AAe@ 000000014005fac0     libucrt:winapi_thunks.obj
 0002:00002b00       ??_C@_1DM@KGHDGBCM@?$AAa?$AAp?$AAi?$AA?9?$AAm?$AAs?$AA?9?$AAw?$AAi?$AAn?$AA?9?$AAc?$AAo?$AAr?$AAe@ 000000014005fb00     libucrt:winapi_thunks.obj
 0002:00002b40       ??_C@_1EO@IJIOEFOH@?$AAa?$AAp?$AAi?$AA?9?$AAm?$AAs?$AA?9?$AAw?$AAi?$AAn?$AA?9?$AAr?$AAt?$AAc?$AAo@ 000000014005fb40     libucrt:winapi_thunks.obj
 0002:00002b90       ??_C@_1FG@HHGEKANL@?$AAa?$AAp?$AAi?$AA?9?$AAm?$AAs?$AA?9?$AAw?$AAi?$AAn?$AA?9?$AAs?$AAe?$AAc?$AAu@ 000000014005fb90     libucrt:winapi_thunks.obj
 0002:00002bf0       ??_C@_1EG@DBIOJECG@?$AAe?$AAx?$AAt?$AA?9?$AAm?$AAs?$AA?9?$AAw?$AAi?$AAn?$AA?9?$AAn?$AAt?$AAu?$AAs@ 000000014005fbf0     libucrt:winapi_thunks.obj
 0002:00002c40       ??_C@_1EO@FIHMJCLF@?$AAe?$AAx?$AAt?$AA?9?$AAm?$AAs?$AA?9?$AAw?$AAi?$AAn?$AA?9?$AAn?$AAt?$AAu?$AAs@ 000000014005fc40     libucrt:winapi_thunks.obj
 0002:00002c90       ??_C@_1BC@DNHGCMLG@?$AAa?$AAd?$AAv?$AAa?$AAp?$AAi?$AA3?$AA2@ 000000014005fc90     libucrt:winapi_thunks.obj
 0002:00002ca8       ??_C@_1BG@CJPGBMEF@?$AAk?$AAe?$AAr?$AAn?$AAe?$AAl?$AAb?$AAa?$AAs?$AAe@ 000000014005fca8     libucrt:winapi_thunks.obj
 0002:00002cc0       ??_C@_1M@OAIMIKLP@?$AAn?$AAt?$AAd?$AAl?$AAl@ 000000014005fcc0     libucrt:winapi_thunks.obj
 0002:00002cd0       ??_C@_1EG@DPGNFKGC@?$AAa?$AAp?$AAi?$AA?9?$AAm?$AAs?$AA?9?$AAw?$AAi?$AAn?$AA?9?$AAa?$AAp?$AAp?$AAm@ 000000014005fcd0     libucrt:winapi_thunks.obj
 0002:00002d18       ??_C@_1O@BCCLBEOE@?$AAu?$AAs?$AAe?$AAr?$AA3?$AA2@ 000000014005fd18     libucrt:winapi_thunks.obj
 0002:00002d28       ??_C@_1BA@IAIFMGEF@?$AAe?$AAx?$AAt?$AA?9?$AAm?$AAs?$AA?9@ 000000014005fd28     libucrt:winapi_thunks.obj
 0002:00002d40       ??_C@_0BA@FHFNEAED@AreFileApisANSI@ 000000014005fd40     libucrt:winapi_thunks.obj
 0002:00002d58       ??_C@_0BA@IHGNDAEB@CompareStringEx@ 000000014005fd58     libucrt:winapi_thunks.obj
 0002:00002d70       ??_C@_0BE@LJANKFHF@EnumSystemLocalesEx@ 000000014005fd70     libucrt:winapi_thunks.obj
 0002:00002d90       ??_C@_0BA@HNOPNCHB@GetActiveWindow@ 000000014005fd90     libucrt:winapi_thunks.obj
 0002:00002da8       ??_C@_0BA@EPCJIIPD@GetDateFormatEx@ 000000014005fda8     libucrt:winapi_thunks.obj
 0002:00002dc0       ??_C@_0O@NNMIPI@GetTempPath2W@ 000000014005fdc0     libucrt:winapi_thunks.obj
 0002:00002dd8       ??_C@_0BJ@DIBIJBHA@GetEnabledXStateFeatures@ 000000014005fdd8     libucrt:winapi_thunks.obj
 0002:00002e00       ??_C@_0BD@HHGDFDBJ@GetLastActivePopup@ 000000014005fe00     libucrt:winapi_thunks.obj
 0002:00002e20       ??_C@_0BA@ONOKGCMP@GetLocaleInfoEx@ 000000014005fe20     libucrt:winapi_thunks.obj
 0002:00002e38       ??_C@_0BI@DFKBFLJE@GetProcessWindowStation@ 000000014005fe38     libucrt:winapi_thunks.obj
 0002:00002e58       ??_C@_0BP@FPNJPEJC@GetSystemTimePreciseAsFileTime@ 000000014005fe58     libucrt:winapi_thunks.obj
 0002:00002e80       ??_C@_0BA@CIJJKCJJ@GetTimeFormatEx@ 000000014005fe80     libucrt:winapi_thunks.obj
 0002:00002e98       ??_C@_0BJ@PBCCBIPI@GetUserDefaultLocaleName@ 000000014005fe98     libucrt:winapi_thunks.obj
 0002:00002ec0       ??_C@_0BK@DEKFELLI@GetUserObjectInformationW@ 000000014005fec0     libucrt:winapi_thunks.obj
 0002:00002ee8       ??_C@_0BG@IKLDMBLM@GetXStateFeaturesMask@ 000000014005fee8     libucrt:winapi_thunks.obj
 0002:00002f10       ??_C@_0BC@CELBKLLA@IsValidLocaleName@ 000000014005ff10     libucrt:winapi_thunks.obj
 0002:00002f30       ??_C@_0O@KKBNKAPF@LCMapStringEx@ 000000014005ff30     libucrt:winapi_thunks.obj
 0002:00002f48       ??_C@_0BB@CDHDDLLP@LCIDToLocaleName@ 000000014005ff48     libucrt:winapi_thunks.obj
 0002:00002f68       ??_C@_0BB@HBDEELFH@LocaleNameToLCID@ 000000014005ff68     libucrt:winapi_thunks.obj
 0002:00002f88       ??_C@_0BE@KINNKFDA@LocateXStateFeature@ 000000014005ff88     libucrt:winapi_thunks.obj
 0002:00002fa8       ??_C@_0M@CHKKJDAI@MessageBoxA@ 000000014005ffa8     libucrt:winapi_thunks.obj
 0002:00002fc0       ??_C@_0M@DLDCCGNP@MessageBoxW@ 000000014005ffc0     libucrt:winapi_thunks.obj
 0002:00002fd0       ??_C@_0N@PPOMPGGK@RoInitialize@ 000000014005ffd0     libucrt:winapi_thunks.obj
 0002:00002fe8       ??_C@_0P@LLFHBIJD@RoUninitialize@ 000000014005ffe8     libucrt:winapi_thunks.obj
 0002:00003000       ??_C@_0CF@OJOFEIGO@AppPolicyGetProcessTerminationM@ 0000000140060000     libucrt:winapi_thunks.obj
 0002:00003030       ??_C@_0CF@NNDFDCOC@AppPolicyGetThreadInitializatio@ 0000000140060030     libucrt:winapi_thunks.obj
 0002:00003060       ??_C@_0CE@OICFMIKE@AppPolicyGetShowDeveloperDiagno@ 0000000140060060     libucrt:winapi_thunks.obj
 0002:00003088       ??_C@_0BL@ODDJNEDA@AppPolicyGetWindowingModel@ 0000000140060088     libucrt:winapi_thunks.obj
 0002:000030b0       ??_C@_0BI@BKLFFAPO@SetThreadStackGuarantee@ 00000001400600b0     libucrt:winapi_thunks.obj
 0002:000030d0       ??_C@_0BC@JEAENNKH@SystemFunction036@ 00000001400600d0     libucrt:winapi_thunks.obj
 0002:000030f0       __lc_time_c                00000001400600f0     libucrt:nlsdata.obj
 0002:000033b0       ??_C@_03KOEHGMDN@Sun@      00000001400603b0     libucrt:nlsdata.obj
 0002:000033b4       ??_C@_03PDAGKDH@Mon@       00000001400603b4     libucrt:nlsdata.obj
 0002:000033b8       ??_C@_03NAGEINEP@Tue@      00000001400603b8     libucrt:nlsdata.obj
 0002:000033bc       ??_C@_03MHOMLAJA@Wed@      00000001400603bc     libucrt:nlsdata.obj
 0002:000033c0       ??_C@_03IOFIKPDN@Thu@      00000001400603c0     libucrt:nlsdata.obj
 0002:000033c4       ??_C@_03IDIOELNC@Fri@      00000001400603c4     libucrt:nlsdata.obj
 0002:000033c8       ??_C@_03FEFJNEK@Sat@       00000001400603c8     libucrt:nlsdata.obj
 0002:000033cc       ??_C@_06OOPIFAJ@Sunday@    00000001400603cc     libucrt:nlsdata.obj
 0002:000033d4       ??_C@_06JLEDEDGH@Monday@   00000001400603d4     libucrt:nlsdata.obj
 0002:000033e0       ??_C@_07BAAGCFCM@Tuesday@  00000001400603e0     libucrt:nlsdata.obj
 0002:000033e8       ??_C@_09DLIGFAKA@Wednesday@ 00000001400603e8     libucrt:nlsdata.obj
 0002:000033f8       ??_C@_08HACCIKIA@Thursday@ 00000001400603f8     libucrt:nlsdata.obj
 0002:00003404       ??_C@_06JECMNKMI@Friday@   0000000140060404     libucrt:nlsdata.obj
 0002:00003410       ??_C@_08INBOOONO@Saturday@ 0000000140060410     libucrt:nlsdata.obj
 0002:0000341c       ??_C@_03JIHJHPIE@Jan@      000000014006041c     libucrt:nlsdata.obj
 0002:00003420       ??_C@_03HJBDCHOM@Feb@      0000000140060420     libucrt:nlsdata.obj
 0002:00003424       ??_C@_03ODNJBKGA@Mar@      0000000140060424     libucrt:nlsdata.obj
 0002:00003428       ??_C@_03LEOLGMJP@Apr@      0000000140060428     libucrt:nlsdata.obj
 0002:0000342c       ??_C@_03CNMDKL@May@        000000014006042c     libucrt:nlsdata.obj
 0002:00003430       ??_C@_03IDFGHECI@Jun@      0000000140060430     libucrt:nlsdata.obj
 0002:00003434       ??_C@_03LBGABGKK@Jul@      0000000140060434     libucrt:nlsdata.obj
 0002:00003438       ??_C@_03IFJFEIGA@Aug@      0000000140060438     libucrt:nlsdata.obj
 0002:0000343c       ??_C@_03GGCAPAJC@Sep@      000000014006043c     libucrt:nlsdata.obj
 0002:00003440       ??_C@_03BMAOKBAD@Oct@      0000000140060440     libucrt:nlsdata.obj
 0002:00003444       ??_C@_03JPJOFNIA@Nov@      0000000140060444     libucrt:nlsdata.obj
 0002:00003448       ??_C@_03MKABNOCG@Dec@      0000000140060448     libucrt:nlsdata.obj
 0002:00003450       ??_C@_07CGJPFGJA@January@  0000000140060450     libucrt:nlsdata.obj
 0002:00003458       ??_C@_08GNJGEPFN@February@ 0000000140060458     libucrt:nlsdata.obj
 0002:00003464       ??_C@_05HPCKOFNC@March@    0000000140060464     libucrt:nlsdata.obj
 0002:0000346c       ??_C@_05DMJDNLEJ@April@    000000014006046c     libucrt:nlsdata.obj
 0002:00003474       ??_C@_04CNLMGBGM@June@     0000000140060474     libucrt:nlsdata.obj
 0002:0000347c       ??_C@_04MIEPOIFP@July@     000000014006047c     libucrt:nlsdata.obj
 0002:00003484       ??_C@_06LBBHFDDG@August@   0000000140060484     libucrt:nlsdata.obj
 0002:00003490       ??_C@_09BHHEALKD@September@ 0000000140060490     libucrt:nlsdata.obj
 0002:000034a0       ??_C@_07JJNFCEND@October@  00000001400604a0     libucrt:nlsdata.obj
 0002:000034a8       ??_C@_08HCHEGEOA@November@ 00000001400604a8     libucrt:nlsdata.obj
 0002:000034b8       ??_C@_08EDHMEBNP@December@ 00000001400604b8     libucrt:nlsdata.obj
 0002:000034c4       ??_C@_02DEDBPAFC@AM@       00000001400604c4     libucrt:nlsdata.obj
 0002:000034c8       ??_C@_02CJNFDJBF@PM@       00000001400604c8     libucrt:nlsdata.obj
 0002:000034d0       ??_C@_08BPBNCDIB@MM?1dd?1yy@ 00000001400604d0     libucrt:nlsdata.obj
 0002:000034e0       ??_C@_0BE@CKGJFCPC@dddd?0?5MMMM?5dd?0?5yyyy@ 00000001400604e0     libucrt:nlsdata.obj
 0002:000034f8       ??_C@_08JCCMCCIL@HH?3mm?3ss@ 00000001400604f8     libucrt:nlsdata.obj
 0002:00003508       ??_C@_17MBGCMIPB@?$AAS?$AAu?$AAn@ 0000000140060508     libucrt:nlsdata.obj
 0002:00003510       ??_C@_17KBOMKBF@?$AAM?$AAo?$AAn@ 0000000140060510     libucrt:nlsdata.obj
 0002:00003518       ??_C@_17BMKGEGOJ@?$AAT?$AAu?$AAe@ 0000000140060518     libucrt:nlsdata.obj
 0002:00003520       ??_C@_17CJEDCEPE@?$AAW?$AAe?$AAd@ 0000000140060520     libucrt:nlsdata.obj
 0002:00003528       ??_C@_17PDPHAADD@?$AAT?$AAh?$AAu@ 0000000140060528     libucrt:nlsdata.obj
 0002:00003530       ??_C@_17HFOLPPLP@?$AAF?$AAr?$AAi@ 0000000140060530     libucrt:nlsdata.obj
 0002:00003538       ??_C@_17GGIBDPIH@?$AAS?$AAa?$AAt@ 0000000140060538     libucrt:nlsdata.obj
 0002:00003540       ??_C@_1O@IHNHDHPB@?$AAS?$AAu?$AAn?$AAd?$AAa?$AAy@ 0000000140060540     libucrt:nlsdata.obj
 0002:00003550       ??_C@_1O@MMNBFLIA@?$AAM?$AAo?$AAn?$AAd?$AAa?$AAy@ 0000000140060550     libucrt:nlsdata.obj
 0002:00003560       ??_C@_1BA@ENFBFFEK@?$AAT?$AAu?$AAe?$AAs?$AAd?$AAa?$AAy@ 0000000140060560     libucrt:nlsdata.obj
 0002:00003570       ??_C@_1BE@EBOGMDOH@?$AAW?$AAe?$AAd?$AAn?$AAe?$AAs?$AAd?$AAa?$AAy@ 0000000140060570     libucrt:nlsdata.obj
 0002:00003588       ??_C@_1BC@HHMNLIHE@?$AAT?$AAh?$AAu?$AAr?$AAs?$AAd?$AAa?$AAy@ 0000000140060588     libucrt:nlsdata.obj
 0002:000035a0       ??_C@_1O@PDICJHAG@?$AAF?$AAr?$AAi?$AAd?$AAa?$AAy@ 00000001400605a0     libucrt:nlsdata.obj
 0002:000035b0       ??_C@_1BC@ENMNNPAJ@?$AAS?$AAa?$AAt?$AAu?$AAr?$AAd?$AAa?$AAy@ 00000001400605b0     libucrt:nlsdata.obj
 0002:000035c8       ??_C@_17DKNBKCHM@?$AAJ?$AAa?$AAn@ 00000001400605c8     libucrt:nlsdata.obj
 0002:000035d0       ??_C@_17LMDJEKJN@?$AAF?$AAe?$AAb@ 00000001400605d0     libucrt:nlsdata.obj
 0002:000035d8       ??_C@_17CKNLEDEC@?$AAM?$AAa?$AAr@ 00000001400605d8     libucrt:nlsdata.obj
 0002:000035e0       ??_C@_17LFPOIHDD@?$AAA?$AAp?$AAr@ 00000001400605e0     libucrt:nlsdata.obj
 0002:000035e8       ??_C@_17PNNKMEED@?$AAM?$AAa?$AAy@ 00000001400605e8     libucrt:nlsdata.obj
 0002:000035f0       ??_C@_17KCJGOCPB@?$AAJ?$AAu?$AAn@ 00000001400605f0     libucrt:nlsdata.obj
 0002:000035f8       ??_C@_17IJPCKHK@?$AAJ?$AAu?$AAl@ 00000001400605f8     libucrt:nlsdata.obj
 0002:00003600       ??_C@_17ICPELBCN@?$AAA?$AAu?$AAg@ 0000000140060600     libucrt:nlsdata.obj
 0002:00003608       ??_C@_17HCHCOKMG@?$AAS?$AAe?$AAp@ 0000000140060608     libucrt:nlsdata.obj
 0002:00003610       ??_C@_17FNLKOI@?$AAO?$AAc?$AAt@ 0000000140060610     libucrt:nlsdata.obj
 0002:00003618       ??_C@_17BBDMLCIG@?$AAN?$AAo?$AAv@ 0000000140060618     libucrt:nlsdata.obj
 0002:00003620       ??_C@_17EGKACKIF@?$AAD?$AAe?$AAc@ 0000000140060620     libucrt:nlsdata.obj
 0002:00003628       ??_C@_1BA@EFMEIEBA@?$AAJ?$AAa?$AAn?$AAu?$AAa?$AAr?$AAy@ 0000000140060628     libucrt:nlsdata.obj
 0002:00003638       ??_C@_1BC@JGDDFFAM@?$AAF?$AAe?$AAb?$AAr?$AAu?$AAa?$AAr?$AAy@ 0000000140060638     libucrt:nlsdata.obj
 0002:00003650       ??_C@_1M@IKEENEDF@?$AAM?$AAa?$AAr?$AAc?$AAh@ 0000000140060650     libucrt:nlsdata.obj
 0002:00003660       ??_C@_1M@GJNLMHFD@?$AAA?$AAp?$AAr?$AAi?$AAl@ 0000000140060660     libucrt:nlsdata.obj
 0002:00003670       ??_C@_19EPFLPGAP@?$AAJ?$AAu?$AAn?$AAe@ 0000000140060670     libucrt:nlsdata.obj
 0002:00003680       ??_C@_19BIFMLPCD@?$AAJ?$AAu?$AAl?$AAy@ 0000000140060680     libucrt:nlsdata.obj
 0002:00003690       ??_C@_1O@PAHLKOAC@?$AAA?$AAu?$AAg?$AAu?$AAs?$AAt@ 0000000140060690     libucrt:nlsdata.obj
 0002:000036a0       ??_C@_1BE@DKAAMBJL@?$AAS?$AAe?$AAp?$AAt?$AAe?$AAm?$AAb?$AAe?$AAr@ 00000001400606a0     libucrt:nlsdata.obj
 0002:000036b8       ??_C@_1BA@EPANDLNG@?$AAO?$AAc?$AAt?$AAo?$AAb?$AAe?$AAr@ 00000001400606b8     libucrt:nlsdata.obj
 0002:000036c8       ??_C@_1BC@BGLIFPF@?$AAN?$AAo?$AAv?$AAe?$AAm?$AAb?$AAe?$AAr@ 00000001400606c8     libucrt:nlsdata.obj
 0002:000036e0       ??_C@_1BC@FEMKIFH@?$AAD?$AAe?$AAc?$AAe?$AAm?$AAb?$AAe?$AAr@ 00000001400606e0     libucrt:nlsdata.obj
 0002:000036f4       ??_C@_15ODEHAHHF@?$AAA?$AAM@ 00000001400606f4     libucrt:nlsdata.obj
 0002:000036fc       ??_C@_15CLMNNGEL@?$AAP?$AAM@ 00000001400606fc     libucrt:nlsdata.obj
 0002:00003708       ??_C@_1BC@IEBCMHCM@?$AAM?$AAM?$AA?1?$AAd?$AAd?$AA?1?$AAy?$AAy@ 0000000140060708     libucrt:nlsdata.obj
 0002:00003720       ??_C@_1CI@KNAKOEBC@?$AAd?$AAd?$AAd?$AAd?$AA?0?$AA?5?$AAM?$AAM?$AAM?$AAM?$AA?5?$AAd?$AAd?$AA?0?$AA?5@ 0000000140060720     libucrt:nlsdata.obj
 0002:00003748       ??_C@_1BC@GDGBMEMK@?$AAH?$AAH?$AA?3?$AAm?$AAm?$AA?3?$AAs?$AAs@ 0000000140060748     libucrt:nlsdata.obj
 0002:00003760       ??_C@_1M@BMHNFIME@?$AAe?$AAn?$AA?9?$AAU?$AAS@ 0000000140060760     libucrt:nlsdata.obj
 0002:000037f0       ??_C@_03OEIAHPBN@INF@      00000001400607f0     libucrt:cvt.obj
 0002:000037f4       ??_C@_03OJHLLCGB@inf@      00000001400607f4     libucrt:cvt.obj
 0002:000037f8       ??_C@_03LKNCIKJB@NAN@      00000001400607f8     libucrt:cvt.obj
 0002:000037fc       ??_C@_03LHCJEHON@nan@      00000001400607fc     libucrt:cvt.obj
 0002:00003800       ??_C@_09OFJJIMPC@NAN?$CISNAN?$CJ@ 0000000140060800     libucrt:cvt.obj
 0002:00003810       ??_C@_09IPFBKMDL@nan?$CIsnan?$CJ@ 0000000140060810     libucrt:cvt.obj
 0002:00003820       ??_C@_08IKHNHAJ@NAN?$CIIND?$CJ@ 0000000140060820     libucrt:cvt.obj
 0002:00003830       ??_C@_08OFCDMILK@nan?$CIind?$CJ@ 0000000140060830     libucrt:cvt.obj
 0002:0000383c       ??_C@_05KLBDPFGC@e?$CL000@ 000000014006083c     libucrt:cvt.obj
 0002:00003868       ??_C@_1M@HPNHIDJI@?$AAj?$AAa?$AA?9?$AAJ?$AAP@ 0000000140060868     libucrt:mbctype.obj
 0002:00003878       ??_C@_1M@BIBDDEMK@?$AAz?$AAh?$AA?9?$AAC?$AAN@ 0000000140060878     libucrt:mbctype.obj
 0002:00003888       ??_C@_1M@JLOOOEGK@?$AAk?$AAo?$AA?9?$AAK?$AAR@ 0000000140060888     libucrt:mbctype.obj
 0002:00003898       ??_C@_1M@CLNBBOPM@?$AAz?$AAh?$AA?9?$AAT?$AAW@ 0000000140060898     libucrt:mbctype.obj
 0002:000038b0       __newctype                 00000001400608b0     libucrt:ctype.obj
 0002:00003bb0       __newclmap                 0000000140060bb0     libucrt:ctype.obj
 0002:00003d30       __newcumap                 0000000140060d30     libucrt:ctype.obj
 0002:00003eb0       _wctype                    0000000140060eb0     libucrt:ctype.obj
 0002:000040c0       __acrt_rg_language         00000001400610c0     libucrt:get_qualified_locale.obj
 0002:000044d0       __acrt_rg_language_count   00000001400614d0     libucrt:get_qualified_locale.obj
 0002:000044e0       __acrt_rg_country          00000001400614e0     libucrt:get_qualified_locale.obj
 0002:00004650       __acrt_rg_country_count    0000000140061650     libucrt:get_qualified_locale.obj
 0002:00004658       ??_C@_1BC@LLOKLNP@?$AAa?$AAm?$AAe?$AAr?$AAi?$AAc?$AAa?$AAn@ 0000000140061658     libucrt:get_qualified_locale.obj
 0002:00004670       ??_C@_1CC@HEIGCDGG@?$AAa?$AAm?$AAe?$AAr?$AAi?$AAc?$AAa?$AAn?$AA?5?$AAe?$AAn?$AAg?$AAl?$AAi?$AAs@ 0000000140061670     libucrt:get_qualified_locale.obj
 0002:00004698       ??_C@_1CC@IHCNOMIN@?$AAa?$AAm?$AAe?$AAr?$AAi?$AAc?$AAa?$AAn?$AA?9?$AAe?$AAn?$AAg?$AAl?$AAi?$AAs@ 0000000140061698     libucrt:get_qualified_locale.obj
 0002:000046c0       ??_C@_1BG@GKAGPCGG@?$AAa?$AAu?$AAs?$AAt?$AAr?$AAa?$AAl?$AAi?$AAa?$AAn@ 00000001400616c0     libucrt:get_qualified_locale.obj
 0002:000046d8       ??_C@_1BA@GMENCENF@?$AAb?$AAe?$AAl?$AAg?$AAi?$AAa?$AAn@ 00000001400616d8     libucrt:get_qualified_locale.obj
 0002:000046e8       ??_C@_1BC@PJMIIAAN@?$AAc?$AAa?$AAn?$AAa?$AAd?$AAi?$AAa?$AAn@ 00000001400616e8     libucrt:get_qualified_locale.obj
 0002:00004700       ??_C@_17NOIMNFBF@?$AAc?$AAh?$AAh@ 0000000140061700     libucrt:get_qualified_locale.obj
 0002:00004708       ??_C@_17GGDALCHA@?$AAc?$AAh?$AAi@ 0000000140061708     libucrt:get_qualified_locale.obj
 0002:00004710       ??_C@_1BA@NPNJKIBL@?$AAc?$AAh?$AAi?$AAn?$AAe?$AAs?$AAe@ 0000000140061710     libucrt:get_qualified_locale.obj
 0002:00004720       ??_C@_1CC@DINBAMMJ@?$AAc?$AAh?$AAi?$AAn?$AAe?$AAs?$AAe?$AA?9?$AAh?$AAo?$AAn?$AAg?$AAk?$AAo?$AAn@ 0000000140061720     libucrt:get_qualified_locale.obj
 0002:00004748       ??_C@_1CG@IOBJPACO@?$AAc?$AAh?$AAi?$AAn?$AAe?$AAs?$AAe?$AA?9?$AAs?$AAi?$AAm?$AAp?$AAl?$AAi?$AAf@ 0000000140061748     libucrt:get_qualified_locale.obj
 0002:00004770       ??_C@_1CE@GAJNDCKG@?$AAc?$AAh?$AAi?$AAn?$AAe?$AAs?$AAe?$AA?9?$AAs?$AAi?$AAn?$AAg?$AAa?$AAp?$AAo@ 0000000140061770     libucrt:get_qualified_locale.obj
 0002:00004798       ??_C@_1CI@PAJPIOOD@?$AAc?$AAh?$AAi?$AAn?$AAe?$AAs?$AAe?$AA?9?$AAt?$AAr?$AAa?$AAd?$AAi?$AAt?$AAi@ 0000000140061798     libucrt:get_qualified_locale.obj
 0002:000047c0       ??_C@_1BM@NILJBMMD@?$AAd?$AAu?$AAt?$AAc?$AAh?$AA?9?$AAb?$AAe?$AAl?$AAg?$AAi?$AAa?$AAn@ 00000001400617c0     libucrt:get_qualified_locale.obj
 0002:000047e0       ??_C@_1CC@OOJPJNEJ@?$AAe?$AAn?$AAg?$AAl?$AAi?$AAs?$AAh?$AA?9?$AAa?$AAm?$AAe?$AAr?$AAi?$AAc?$AAa@ 00000001400617e0     libucrt:get_qualified_locale.obj
 0002:00004808       ??_C@_1BI@IOLFEEM@?$AAe?$AAn?$AAg?$AAl?$AAi?$AAs?$AAh?$AA?9?$AAa?$AAu?$AAs@ 0000000140061808     libucrt:get_qualified_locale.obj
 0002:00004820       ??_C@_1BO@HFFNLENJ@?$AAe?$AAn?$AAg?$AAl?$AAi?$AAs?$AAh?$AA?9?$AAb?$AAe?$AAl?$AAi?$AAz?$AAe@ 0000000140061820     libucrt:get_qualified_locale.obj
 0002:00004840       ??_C@_1BI@HAPKJMPO@?$AAe?$AAn?$AAg?$AAl?$AAi?$AAs?$AAh?$AA?9?$AAc?$AAa?$AAn@ 0000000140061840     libucrt:get_qualified_locale.obj
 0002:00004858       ??_C@_1CE@HLNDMIOJ@?$AAe?$AAn?$AAg?$AAl?$AAi?$AAs?$AAh?$AA?9?$AAc?$AAa?$AAr?$AAi?$AAb?$AAb?$AAe@ 0000000140061858     libucrt:get_qualified_locale.obj
 0002:00004880       ??_C@_1BI@LDHJHHAC@?$AAe?$AAn?$AAg?$AAl?$AAi?$AAs?$AAh?$AA?9?$AAi?$AAr?$AAe@ 0000000140061880     libucrt:get_qualified_locale.obj
 0002:00004898       ??_C@_1CA@NJMMCFOC@?$AAe?$AAn?$AAg?$AAl?$AAi?$AAs?$AAh?$AA?9?$AAj?$AAa?$AAm?$AAa?$AAi?$AAc?$AAa@ 0000000140061898     libucrt:get_qualified_locale.obj
 0002:000048b8       ??_C@_1BG@BHJEBBGG@?$AAe?$AAn?$AAg?$AAl?$AAi?$AAs?$AAh?$AA?9?$AAn?$AAz@ 00000001400618b8     libucrt:get_qualified_locale.obj
 0002:000048d0       ??_C@_1CK@FGOEJJCO@?$AAe?$AAn?$AAg?$AAl?$AAi?$AAs?$AAh?$AA?9?$AAs?$AAo?$AAu?$AAt?$AAh?$AA?5?$AAa@ 00000001400618d0     libucrt:get_qualified_locale.obj
 0002:00004900       ??_C@_1DE@PDBJPCJ@?$AAe?$AAn?$AAg?$AAl?$AAi?$AAs?$AAh?$AA?9?$AAt?$AAr?$AAi?$AAn?$AAi?$AAd?$AAa@ 0000000140061900     libucrt:get_qualified_locale.obj
 0002:00004938       ??_C@_1BG@JGCANDME@?$AAe?$AAn?$AAg?$AAl?$AAi?$AAs?$AAh?$AA?9?$AAu?$AAk@ 0000000140061938     libucrt:get_qualified_locale.obj
 0002:00004950       ??_C@_1BG@DINKMLE@?$AAe?$AAn?$AAg?$AAl?$AAi?$AAs?$AAh?$AA?9?$AAu?$AAs@ 0000000140061950     libucrt:get_qualified_locale.obj
 0002:00004968       ??_C@_1BI@NMFDBHJE@?$AAe?$AAn?$AAg?$AAl?$AAi?$AAs?$AAh?$AA?9?$AAu?$AAs?$AAa@ 0000000140061968     libucrt:get_qualified_locale.obj
 0002:00004980       ??_C@_1BO@OIHKJKII@?$AAf?$AAr?$AAe?$AAn?$AAc?$AAh?$AA?9?$AAb?$AAe?$AAl?$AAg?$AAi?$AAa?$AAn@ 0000000140061980     libucrt:get_qualified_locale.obj
 0002:000049a0       ??_C@_1CA@NKAELJKI@?$AAf?$AAr?$AAe?$AAn?$AAc?$AAh?$AA?9?$AAc?$AAa?$AAn?$AAa?$AAd?$AAi?$AAa?$AAn@ 00000001400619a0     libucrt:get_qualified_locale.obj
 0002:000049c0       ??_C@_1CE@MGKCNLGN@?$AAf?$AAr?$AAe?$AAn?$AAc?$AAh?$AA?9?$AAl?$AAu?$AAx?$AAe?$AAm?$AAb?$AAo?$AAu@ 00000001400619c0     libucrt:get_qualified_locale.obj
 0002:000049e8       ??_C@_1BK@CEGEAILM@?$AAf?$AAr?$AAe?$AAn?$AAc?$AAh?$AA?9?$AAs?$AAw?$AAi?$AAs?$AAs@ 00000001400619e8     libucrt:get_qualified_locale.obj
 0002:00004a08       ??_C@_1CA@PAFKEOCC@?$AAg?$AAe?$AAr?$AAm?$AAa?$AAn?$AA?9?$AAa?$AAu?$AAs?$AAt?$AAr?$AAi?$AAa?$AAn@ 0000000140061a08     libucrt:get_qualified_locale.obj
 0002:00004a28       ??_C@_1CI@HCFHGOFD@?$AAg?$AAe?$AAr?$AAm?$AAa?$AAn?$AA?9?$AAl?$AAi?$AAc?$AAh?$AAt?$AAe?$AAn?$AAs@ 0000000140061a28     libucrt:get_qualified_locale.obj
 0002:00004a50       ??_C@_1CE@FEDDNPDG@?$AAg?$AAe?$AAr?$AAm?$AAa?$AAn?$AA?9?$AAl?$AAu?$AAx?$AAe?$AAm?$AAb?$AAo?$AAu@ 0000000140061a50     libucrt:get_qualified_locale.obj
 0002:00004a78       ??_C@_1BK@LIMINNMN@?$AAg?$AAe?$AAr?$AAm?$AAa?$AAn?$AA?9?$AAs?$AAw?$AAi?$AAs?$AAs@ 0000000140061a78     libucrt:get_qualified_locale.obj
 0002:00004a98       ??_C@_1BM@LGMDBEPD@?$AAi?$AAr?$AAi?$AAs?$AAh?$AA?9?$AAe?$AAn?$AAg?$AAl?$AAi?$AAs?$AAh@ 0000000140061a98     libucrt:get_qualified_locale.obj
 0002:00004ab8       ??_C@_1BM@NNCFBAEE@?$AAi?$AAt?$AAa?$AAl?$AAi?$AAa?$AAn?$AA?9?$AAs?$AAw?$AAi?$AAs?$AAs@ 0000000140061ab8     libucrt:get_qualified_locale.obj
 0002:00004ad8       ??_C@_1BE@FEDJNPIB@?$AAn?$AAo?$AAr?$AAw?$AAe?$AAg?$AAi?$AAa?$AAn@ 0000000140061ad8     libucrt:get_qualified_locale.obj
 0002:00004af0       ??_C@_1CC@CILKDEIE@?$AAn?$AAo?$AAr?$AAw?$AAe?$AAg?$AAi?$AAa?$AAn?$AA?9?$AAb?$AAo?$AAk?$AAm?$AAa@ 0000000140061af0     libucrt:get_qualified_locale.obj
 0002:00004b18       ??_C@_1CE@DHMMHEPL@?$AAn?$AAo?$AAr?$AAw?$AAe?$AAg?$AAi?$AAa?$AAn?$AA?9?$AAn?$AAy?$AAn?$AAo?$AAr@ 0000000140061b18     libucrt:get_qualified_locale.obj
 0002:00004b40       ??_C@_1CK@OPNMHECD@?$AAp?$AAo?$AAr?$AAt?$AAu?$AAg?$AAu?$AAe?$AAs?$AAe?$AA?9?$AAb?$AAr?$AAa?$AAz@ 0000000140061b40     libucrt:get_qualified_locale.obj
 0002:00004b70       ??_C@_1CE@KEEHCDB@?$AAs?$AAp?$AAa?$AAn?$AAi?$AAs?$AAh?$AA?9?$AAa?$AAr?$AAg?$AAe?$AAn?$AAt?$AAi@ 0000000140061b70     libucrt:get_qualified_locale.obj
 0002:00004b98       ??_C@_1CA@GIAOLHJD@?$AAs?$AAp?$AAa?$AAn?$AAi?$AAs?$AAh?$AA?9?$AAb?$AAo?$AAl?$AAi?$AAv?$AAi?$AAa@ 0000000140061b98     libucrt:get_qualified_locale.obj
 0002:00004bb8       ??_C@_1BM@OJNDFNPD@?$AAs?$AAp?$AAa?$AAn?$AAi?$AAs?$AAh?$AA?9?$AAc?$AAh?$AAi?$AAl?$AAe@ 0000000140061bb8     libucrt:get_qualified_locale.obj
 0002:00004bd8       ??_C@_1CC@OCOLPALL@?$AAs?$AAp?$AAa?$AAn?$AAi?$AAs?$AAh?$AA?9?$AAc?$AAo?$AAl?$AAo?$AAm?$AAb?$AAi@ 0000000140061bd8     libucrt:get_qualified_locale.obj
 0002:00004c00       ??_C@_1CG@BPOFMKBB@?$AAs?$AAp?$AAa?$AAn?$AAi?$AAs?$AAh?$AA?9?$AAc?$AAo?$AAs?$AAt?$AAa?$AA?5?$AAr@ 0000000140061c00     libucrt:get_qualified_locale.obj
 0002:00004c28       ??_C@_1DG@IGOBAPBB@?$AAs?$AAp?$AAa?$AAn?$AAi?$AAs?$AAh?$AA?9?$AAd?$AAo?$AAm?$AAi?$AAn?$AAi?$AAc@ 0000000140061c28     libucrt:get_qualified_locale.obj
 0002:00004c60       ??_C@_1CA@JHAPGEGI@?$AAs?$AAp?$AAa?$AAn?$AAi?$AAs?$AAh?$AA?9?$AAe?$AAc?$AAu?$AAa?$AAd?$AAo?$AAr@ 0000000140061c60     libucrt:get_qualified_locale.obj
 0002:00004c80       ??_C@_1CI@LAPALJPP@?$AAs?$AAp?$AAa?$AAn?$AAi?$AAs?$AAh?$AA?9?$AAe?$AAl?$AA?5?$AAs?$AAa?$AAl?$AAv@ 0000000140061c80     libucrt:get_qualified_locale.obj
 0002:00004ca8       ??_C@_1CE@PDGBOFOM@?$AAs?$AAp?$AAa?$AAn?$AAi?$AAs?$AAh?$AA?9?$AAg?$AAu?$AAa?$AAt?$AAe?$AAm?$AAa@ 0000000140061ca8     libucrt:get_qualified_locale.obj
 0002:00004cd0       ??_C@_1CC@NBEBAODI@?$AAs?$AAp?$AAa?$AAn?$AAi?$AAs?$AAh?$AA?9?$AAh?$AAo?$AAn?$AAd?$AAu?$AAr?$AAa@ 0000000140061cd0     libucrt:get_qualified_locale.obj
 0002:00004cf8       ??_C@_1CA@LLKGHBMF@?$AAs?$AAp?$AAa?$AAn?$AAi?$AAs?$AAh?$AA?9?$AAm?$AAe?$AAx?$AAi?$AAc?$AAa?$AAn@ 0000000140061cf8     libucrt:get_qualified_locale.obj
 0002:00004d18       ??_C@_1BO@LKNDOIGD@?$AAs?$AAp?$AAa?$AAn?$AAi?$AAs?$AAh?$AA?9?$AAm?$AAo?$AAd?$AAe?$AAr?$AAn@ 0000000140061d18     libucrt:get_qualified_locale.obj
 0002:00004d38       ??_C@_1CE@NMDMOEEB@?$AAs?$AAp?$AAa?$AAn?$AAi?$AAs?$AAh?$AA?9?$AAn?$AAi?$AAc?$AAa?$AAr?$AAa?$AAg@ 0000000140061d38     libucrt:get_qualified_locale.obj
 0002:00004d60       ??_C@_1BO@LLCBEJGB@?$AAs?$AAp?$AAa?$AAn?$AAi?$AAs?$AAh?$AA?9?$AAp?$AAa?$AAn?$AAa?$AAm?$AAa@ 0000000140061d60     libucrt:get_qualified_locale.obj
 0002:00004d80       ??_C@_1CC@FKPGGIHO@?$AAs?$AAp?$AAa?$AAn?$AAi?$AAs?$AAh?$AA?9?$AAp?$AAa?$AAr?$AAa?$AAg?$AAu?$AAa@ 0000000140061d80     libucrt:get_qualified_locale.obj
 0002:00004da8       ??_C@_1BK@CDEIHOOP@?$AAs?$AAp?$AAa?$AAn?$AAi?$AAs?$AAh?$AA?9?$AAp?$AAe?$AAr?$AAu@ 0000000140061da8     libucrt:get_qualified_locale.obj
 0002:00004dc8       ??_C@_1CI@GAHAKKGP@?$AAs?$AAp?$AAa?$AAn?$AAi?$AAs?$AAh?$AA?9?$AAp?$AAu?$AAe?$AAr?$AAt?$AAo?$AA?5@ 0000000140061dc8     libucrt:get_qualified_locale.obj
 0002:00004df0       ??_C@_1CA@NKJBCAGP@?$AAs?$AAp?$AAa?$AAn?$AAi?$AAs?$AAh?$AA?9?$AAu?$AAr?$AAu?$AAg?$AAu?$AAa?$AAy@ 0000000140061df0     libucrt:get_qualified_locale.obj
 0002:00004e10       ??_C@_1CE@ODILCONM@?$AAs?$AAp?$AAa?$AAn?$AAi?$AAs?$AAh?$AA?9?$AAv?$AAe?$AAn?$AAe?$AAz?$AAu?$AAe@ 0000000140061e10     libucrt:get_qualified_locale.obj
 0002:00004e38       ??_C@_1CA@OBNMCGFO@?$AAs?$AAw?$AAe?$AAd?$AAi?$AAs?$AAh?$AA?9?$AAf?$AAi?$AAn?$AAl?$AAa?$AAn?$AAd@ 0000000140061e38     libucrt:get_qualified_locale.obj
 0002:00004e58       ??_C@_1M@PIPDDPPI@?$AAs?$AAw?$AAi?$AAs?$AAs@ 0000000140061e58     libucrt:get_qualified_locale.obj
 0002:00004e64       ??_C@_15PJPFLCCM@?$AAu?$AAk@ 0000000140061e64     libucrt:get_qualified_locale.obj
 0002:00004e6c       ??_C@_15GMFIMNFM@?$AAu?$AAs@ 0000000140061e6c     libucrt:get_qualified_locale.obj
 0002:00004e78       ??_C@_17HAEBFAGL@?$AAu?$AAs?$AAa@ 0000000140061e78     libucrt:get_qualified_locale.obj
 0002:00004e80       ??_C@_1BA@DPFJEPHB@?$AAa?$AAm?$AAe?$AAr?$AAi?$AAc?$AAa@ 0000000140061e80     libucrt:get_qualified_locale.obj
 0002:00004e90       ??_C@_1BA@ELOGGFK@?$AAb?$AAr?$AAi?$AAt?$AAa?$AAi?$AAn@ 0000000140061e90     libucrt:get_qualified_locale.obj
 0002:00004ea0       ??_C@_1M@GHBGIGDA@?$AAc?$AAh?$AAi?$AAn?$AAa@ 0000000140061ea0     libucrt:get_qualified_locale.obj
 0002:00004eb0       ??_C@_1M@NCHEJOPO@?$AAc?$AAz?$AAe?$AAc?$AAh@ 0000000140061eb0     libucrt:get_qualified_locale.obj
 0002:00004ec0       ??_C@_1BA@BKPAPBLA@?$AAe?$AAn?$AAg?$AAl?$AAa?$AAn?$AAd@ 0000000140061ec0     libucrt:get_qualified_locale.obj
 0002:00004ed0       ??_C@_1BM@HKBCKIPC@?$AAg?$AAr?$AAe?$AAa?$AAt?$AA?5?$AAb?$AAr?$AAi?$AAt?$AAa?$AAi?$AAn@ 0000000140061ed0     libucrt:get_qualified_locale.obj
 0002:00004ef0       ??_C@_1BA@PPCHPGJB@?$AAh?$AAo?$AAl?$AAl?$AAa?$AAn?$AAd@ 0000000140061ef0     libucrt:get_qualified_locale.obj
 0002:00004f00       ??_C@_1BE@JBMPEGDG@?$AAh?$AAo?$AAn?$AAg?$AA?9?$AAk?$AAo?$AAn?$AAg@ 0000000140061f00     libucrt:get_qualified_locale.obj
 0002:00004f18       ??_C@_1BI@KOELBBPJ@?$AAn?$AAe?$AAw?$AA?9?$AAz?$AAe?$AAa?$AAl?$AAa?$AAn?$AAd@ 0000000140061f18     libucrt:get_qualified_locale.obj
 0002:00004f30       ??_C@_15HIEBHAIO@?$AAn?$AAz@ 0000000140061f30     libucrt:get_qualified_locale.obj
 0002:00004f38       ??_C@_1BC@CHBCPFPI@?$AAp?$AAr?$AA?5?$AAc?$AAh?$AAi?$AAn?$AAa@ 0000000140061f38     libucrt:get_qualified_locale.obj
 0002:00004f50       ??_C@_1BC@JAOIIFKD@?$AAp?$AAr?$AA?9?$AAc?$AAh?$AAi?$AAn?$AAa@ 0000000140061f50     libucrt:get_qualified_locale.obj
 0002:00004f68       ??_C@_1BI@BEHPPHKC@?$AAp?$AAu?$AAe?$AAr?$AAt?$AAo?$AA?9?$AAr?$AAi?$AAc?$AAo@ 0000000140061f68     libucrt:get_qualified_locale.obj
 0002:00004f80       ??_C@_1O@PAEOFKDI@?$AAs?$AAl?$AAo?$AAv?$AAa?$AAk@ 0000000140061f80     libucrt:get_qualified_locale.obj
 0002:00004f90       ??_C@_1BK@FIHMCKAM@?$AAs?$AAo?$AAu?$AAt?$AAh?$AA?5?$AAa?$AAf?$AAr?$AAi?$AAc?$AAa@ 0000000140061f90     libucrt:get_qualified_locale.obj
 0002:00004fb0       ??_C@_1BI@NAEOODKB@?$AAs?$AAo?$AAu?$AAt?$AAh?$AA?5?$AAk?$AAo?$AAr?$AAe?$AAa@ 0000000140061fb0     libucrt:get_qualified_locale.obj
 0002:00004fc8       ??_C@_1BK@FBDGGIFF@?$AAs?$AAo?$AAu?$AAt?$AAh?$AA?9?$AAa?$AAf?$AAr?$AAi?$AAc?$AAa@ 0000000140061fc8     libucrt:get_qualified_locale.obj
 0002:00004fe8       ??_C@_1BI@GHLEJDPK@?$AAs?$AAo?$AAu?$AAt?$AAh?$AA?9?$AAk?$AAo?$AAr?$AAe?$AAa@ 0000000140061fe8     libucrt:get_qualified_locale.obj
 0002:00005000       ??_C@_1CE@PLHLOMJF@?$AAt?$AAr?$AAi?$AAn?$AAi?$AAd?$AAa?$AAd?$AA?5?$AA?$CG?$AA?5?$AAt?$AAo?$AAb?$AAa@ 0000000140062000     libucrt:get_qualified_locale.obj
 0002:00005028       ??_C@_1BO@MODIMHHI@?$AAu?$AAn?$AAi?$AAt?$AAe?$AAd?$AA?9?$AAk?$AAi?$AAn?$AAg?$AAd?$AAo?$AAm@ 0000000140062028     libucrt:get_qualified_locale.obj
 0002:00005048       ??_C@_1BM@FFHJONBJ@?$AAu?$AAn?$AAi?$AAt?$AAe?$AAd?$AA?9?$AAs?$AAt?$AAa?$AAt?$AAe?$AAs@ 0000000140062048     libucrt:get_qualified_locale.obj
 0002:00005068       ??_C@_19MPDNHKDG@?$AAu?$AAt?$AAf?$AA8@ 0000000140062068     libucrt:get_qualified_locale.obj
 0002:00005078       ??_C@_17DNCLJFIF@?$AAA?$AAC?$AAP@ 0000000140062078     libucrt:get_qualified_locale.obj
 0002:00005080       ??_C@_1M@FPEIIFAM@?$AAu?$AAt?$AAf?$AA?9?$AA8@ 0000000140062080     libucrt:get_qualified_locale.obj
 0002:00005090       ??_C@_17CIKBIHLH@?$AAO?$AAC?$AAP@ 0000000140062090     libucrt:get_qualified_locale.obj
 0002:00005098       __rglangidNotDefault       0000000140062098     libucrt:getqloc_downlevel.obj
 0002:00005ef0       ??_C@_15EMKDOKLE@?$AAa?$AAr@ 0000000140062ef0     libucrt:lcidtoname_downlevel.obj
 0002:00005ef8       ??_C@_15KNPADPLH@?$AAb?$AAg@ 0000000140062ef8     libucrt:lcidtoname_downlevel.obj
 0002:00005f00       ??_C@_15EDMHLDMO@?$AAc?$AAa@ 0000000140062f00     libucrt:lcidtoname_downlevel.obj
 0002:00005f08       ??_C@_1O@BPEAJADD@?$AAz?$AAh?$AA?9?$AAC?$AAH?$AAS@ 0000000140062f08     libucrt:lcidtoname_downlevel.obj
 0002:00005f18       ??_C@_15LJNHCMNK@?$AAc?$AAs@ 0000000140062f18     libucrt:lcidtoname_downlevel.obj
 0002:00005f20       ??_C@_15FOMCIDHG@?$AAd?$AAa@ 0000000140062f20     libucrt:lcidtoname_downlevel.obj
 0002:00005f28       ??_C@_15NBKABECB@?$AAd?$AAe@ 0000000140062f28     libucrt:lcidtoname_downlevel.obj
 0002:00005f30       ??_C@_15GHPEIIAO@?$AAe?$AAl@ 0000000140062f30     libucrt:lcidtoname_downlevel.obj
 0002:00005f38       ??_C@_15MNPNEAIF@?$AAe?$AAn@ 0000000140062f38     libucrt:lcidtoname_downlevel.obj
 0002:00005f40       ??_C@_15GPIOMPMH@?$AAe?$AAs@ 0000000140062f40     libucrt:lcidtoname_downlevel.obj
 0002:00005f48       ??_C@_15NGLOAKJC@?$AAf?$AAi@ 0000000140062f48     libucrt:lcidtoname_downlevel.obj
 0002:00005f50       ??_C@_15FBKGNKAM@?$AAf?$AAr@ 0000000140062f50     libucrt:lcidtoname_downlevel.obj
 0002:00005f58       ??_C@_15KGGCNEFK@?$AAh?$AAe@ 0000000140062f58     libucrt:lcidtoname_downlevel.obj
 0002:00005f60       ??_C@_15PGHLIDMF@?$AAh?$AAu@ 0000000140062f60     libucrt:lcidtoname_downlevel.obj
 0002:00005f68       ??_C@_15BIEMAPLM@?$AAi?$AAs@ 0000000140062f68     libucrt:lcidtoname_downlevel.obj
 0002:00005f70       ??_C@_15IFJLDHAF@?$AAi?$AAt@ 0000000140062f70     libucrt:lcidtoname_downlevel.obj
 0002:00005f78       ??_C@_15GEMIOCAG@?$AAj?$AAa@ 0000000140062f78     libucrt:lcidtoname_downlevel.obj
 0002:00005f80       ??_C@_15EPELEGJA@?$AAk?$AAo@ 0000000140062f80     libucrt:lcidtoname_downlevel.obj
 0002:00005f88       ??_C@_15NDDHIMN@?$AAn?$AAl@ 0000000140062f88     libucrt:lcidtoname_downlevel.obj
 0002:00005f90       ??_C@_15BPIGNHCD@?$AAn?$AAo@ 0000000140062f90     libucrt:lcidtoname_downlevel.obj
 0002:00005f98       ??_C@_15DEOPBLCG@?$AAp?$AAl@ 0000000140062f98     libucrt:lcidtoname_downlevel.obj
 0002:00005fa0       ??_C@_15KBECGEFG@?$AAp?$AAt@ 0000000140062fa0     libucrt:lcidtoname_downlevel.obj
 0002:00005fa8       ??_C@_15GLJCBFMD@?$AAr?$AAo@ 0000000140062fa8     libucrt:lcidtoname_downlevel.obj
 0002:00005fb0       ??_C@_15FEDGKCDI@?$AAr?$AAu@ 0000000140062fb0     libucrt:lcidtoname_downlevel.obj
 0002:00005fb8       ??_C@_15GLKMLLHM@?$AAh?$AAr@ 0000000140062fb8     libucrt:lcidtoname_downlevel.obj
 0002:00005fc0       ??_C@_15CPKMFBDB@?$AAs?$AAk@ 0000000140062fc0     libucrt:lcidtoname_downlevel.obj
 0002:00005fc8       ??_C@_15BAAIOGMK@?$AAs?$AAq@ 0000000140062fc8     libucrt:lcidtoname_downlevel.obj
 0002:00005fd0       ??_C@_15INNPNOHD@?$AAs?$AAv@ 0000000140062fd0     libucrt:lcidtoname_downlevel.obj
 0002:00005fd8       ??_C@_15CABMMOGH@?$AAt?$AAh@ 0000000140062fd8     libucrt:lcidtoname_downlevel.obj
 0002:00005fe0       ??_C@_15BPLIHJJM@?$AAt?$AAr@ 0000000140062fe0     libucrt:lcidtoname_downlevel.obj
 0002:00005fe8       ??_C@_15NEOEKKDJ@?$AAu?$AAr@ 0000000140062fe8     libucrt:lcidtoname_downlevel.obj
 0002:00005ff0       ??_C@_15NFICGAJK@?$AAi?$AAd@ 0000000140062ff0     libucrt:lcidtoname_downlevel.obj
 0002:00005ff8       ??_C@_15HPJPHDM@?$AAb?$AAe@ 0000000140062ff8     libucrt:lcidtoname_downlevel.obj
 0002:00006000       ??_C@_15LCHLGJII@?$AAs?$AAl@ 0000000140063000     libucrt:lcidtoname_downlevel.obj
 0002:00006008       ??_C@_15PCFJPHHO@?$AAe?$AAt@ 0000000140063008     libucrt:lcidtoname_downlevel.obj
 0002:00006010       ??_C@_15HPFPGODN@?$AAl?$AAv@ 0000000140063010     libucrt:lcidtoname_downlevel.obj
 0002:00006018       ??_C@_15NFFGKGLG@?$AAl?$AAt@ 0000000140063018     libucrt:lcidtoname_downlevel.obj
 0002:00006020       ??_C@_15BDAKCCHN@?$AAf?$AAa@ 0000000140063020     libucrt:lcidtoname_downlevel.obj
 0002:00006028       ??_C@_15NFGIAIAJ@?$AAv?$AAi@ 0000000140063028     libucrt:lcidtoname_downlevel.obj
 0002:00006030       ??_C@_15LMKNDMHN@?$AAh?$AAy@ 0000000140063030     libucrt:lcidtoname_downlevel.obj
 0002:00006038       ??_C@_15IJBHMCFL@?$AAa?$AAz@ 0000000140063038     libucrt:lcidtoname_downlevel.obj
 0002:00006040       ??_C@_15EKOFJABL@?$AAe?$AAu@ 0000000140063040     libucrt:lcidtoname_downlevel.obj
 0002:00006048       ??_C@_15BGHADCNK@?$AAm?$AAk@ 0000000140063048     libucrt:lcidtoname_downlevel.obj
 0002:00006050       ??_C@_15JDNICKHM@?$AAa?$AAf@ 0000000140063050     libucrt:lcidtoname_downlevel.obj
 0002:00006058       ??_C@_15KPJEDBKD@?$AAk?$AAa@ 0000000140063058     libucrt:lcidtoname_downlevel.obj
 0002:00006060       ??_C@_15PDNFFFEO@?$AAf?$AAo@ 0000000140063060     libucrt:lcidtoname_downlevel.obj
 0002:00006068       ??_C@_15OMLEGLOC@?$AAh?$AAi@ 0000000140063068     libucrt:lcidtoname_downlevel.obj
 0002:00006070       ??_C@_15IDNNENKK@?$AAm?$AAs@ 0000000140063070     libucrt:lcidtoname_downlevel.obj
 0002:00006078       ??_C@_15MACJNBMH@?$AAk?$AAk@ 0000000140063078     libucrt:lcidtoname_downlevel.obj
 0002:00006080       ??_C@_15DKDJEOND@?$AAk?$AAy@ 0000000140063080     libucrt:lcidtoname_downlevel.obj
 0002:00006088       ??_C@_15DFGDLJBG@?$AAs?$AAw@ 0000000140063088     libucrt:lcidtoname_downlevel.obj
 0002:00006090       ??_C@_15BBFAICNG@?$AAu?$AAz@ 0000000140063090     libucrt:lcidtoname_downlevel.obj
 0002:00006098       ??_C@_15DKNDCGEA@?$AAt?$AAt@ 0000000140063098     libucrt:lcidtoname_downlevel.obj
 0002:000060a0       ??_C@_15MGIFMDPL@?$AAp?$AAa@ 00000001400630a0     libucrt:lcidtoname_downlevel.obj
 0002:000060a8       ??_C@_15HCNDBBA@?$AAg?$AAu@ 00000001400630a8     libucrt:lcidtoname_downlevel.obj
 0002:000060b0       ??_C@_15FNBEIBON@?$AAt?$AAa@ 00000001400630b0     libucrt:lcidtoname_downlevel.obj
 0002:000060b8       ??_C@_15NCHGBGLK@?$AAt?$AAe@ 00000001400630b8     libucrt:lcidtoname_downlevel.obj
 0002:000060c0       ??_C@_15PHPHCBPF@?$AAk?$AAn@ 00000001400630c0     libucrt:lcidtoname_downlevel.obj
 0002:000060c8       ??_C@_15DLGBCKMP@?$AAm?$AAr@ 00000001400630c8     libucrt:lcidtoname_downlevel.obj
 0002:000060d0       ??_C@_15EABBLBFF@?$AAs?$AAa@ 00000001400630d0     libucrt:lcidtoname_downlevel.obj
 0002:000060d8       ??_C@_15CBKOMCOI@?$AAm?$AAn@ 00000001400630d8     libucrt:lcidtoname_downlevel.obj
 0002:000060e0       ??_C@_15CKDMCJAF@?$AAg?$AAl@ 00000001400630e0     libucrt:lcidtoname_downlevel.obj
 0002:000060e8       ??_C@_17CNJFBPG@?$AAk?$AAo?$AAk@ 00000001400630e8     libucrt:lcidtoname_downlevel.obj
 0002:000060f0       ??_C@_17FFBJICPL@?$AAs?$AAy?$AAr@ 00000001400630f0     libucrt:lcidtoname_downlevel.obj
 0002:000060f8       ??_C@_17KPNDCPAF@?$AAd?$AAi?$AAv@ 00000001400630f8     libucrt:lcidtoname_downlevel.obj
 0002:00006100       ??_C@_11LOCGONAA@@         0000000140063100     libucrt:lcidtoname_downlevel.obj
 0002:00006108       ??_C@_1M@OKAHONE@?$AAa?$AAr?$AA?9?$AAS?$AAA@ 0000000140063108     libucrt:lcidtoname_downlevel.obj
 0002:00006118       ??_C@_1M@FFFIGIGK@?$AAb?$AAg?$AA?9?$AAB?$AAG@ 0000000140063118     libucrt:lcidtoname_downlevel.obj
 0002:00006128       ??_C@_1M@BJNKEDC@?$AAc?$AAa?$AA?9?$AAE?$AAS@ 0000000140063128     libucrt:lcidtoname_downlevel.obj
 0002:00006138       ??_C@_1M@IJJHFJHA@?$AAc?$AAs?$AA?9?$AAC?$AAZ@ 0000000140063138     libucrt:lcidtoname_downlevel.obj
 0002:00006148       ??_C@_1M@CLPEOBGI@?$AAd?$AAa?$AA?9?$AAD?$AAK@ 0000000140063148     libucrt:lcidtoname_downlevel.obj
 0002:00006158       ??_C@_1M@MCMADGCB@?$AAd?$AAe?$AA?9?$AAD?$AAE@ 0000000140063158     libucrt:lcidtoname_downlevel.obj
 0002:00006168       ??_C@_1M@OOCKEMAM@?$AAe?$AAl?$AA?9?$AAG?$AAR@ 0000000140063168     libucrt:lcidtoname_downlevel.obj
 0002:00006178       ??_C@_1M@DDNJFGID@?$AAf?$AAi?$AA?9?$AAF?$AAI@ 0000000140063178     libucrt:lcidtoname_downlevel.obj
